; Listing generated by Microsoft (R) Optimizing Compiler Version 15.00.30729.01 

	TITLE	i:\?n????j\My Project\CMS\CMS\ASN1\Algorithm\AES.cpp
	.686P
	.XMM
	include listing.inc
	.model	flat

INCLUDELIB OLDNAMES

PUBLIC	?decrypt_ecb@AES@@UAEXPAX@Z			; AES::decrypt_ecb
PUBLIC	?encrypt_ecb@AES@@UAEXPAX@Z			; AES::encrypt_ecb
PUBLIC	?Clear_Key@AES@@UAEXXZ				; AES::Clear_Key
PUBLIC	??_R4AES@@6B@					; AES::`RTTI Complete Object Locator'
PUBLIC	??_R3AES@@8					; AES::`RTTI Class Hierarchy Descriptor'
PUBLIC	??_R2AES@@8					; AES::`RTTI Base Class Array'
PUBLIC	??_R1A@?0A@EA@Encryption@@8			; Encryption::`RTTI Base Class Descriptor at (0,-1,0,64)'
PUBLIC	??_R3Encryption@@8				; Encryption::`RTTI Class Hierarchy Descriptor'
PUBLIC	??_R2Encryption@@8				; Encryption::`RTTI Base Class Array'
PUBLIC	??_R0?AVEncryption@@@8				; Encryption `RTTI Type Descriptor'
PUBLIC	??_R1A@?0A@EA@AES@@8				; AES::`RTTI Base Class Descriptor at (0,-1,0,64)'
PUBLIC	??_R0?AVAES@@@8					; AES `RTTI Type Descriptor'
PUBLIC	?init@Encryption@@UAEXXZ			; Encryption::init
PUBLIC	?encrypt@Encryption@@UAEXPAX@Z			; Encryption::encrypt
PUBLIC	?decrypt@Encryption@@UAEXPAX@Z			; Encryption::decrypt
PUBLIC	?SetIV@Encryption@@UAEXPAX@Z			; Encryption::SetIV
PUBLIC	?KeyWrap@Encryption@@UAEHPAXI@Z			; Encryption::KeyWrap
PUBLIC	?KeyUnWrap@Encryption@@UAEHPAXI@Z		; Encryption::KeyUnWrap
PUBLIC	?GetKey@Encryption@@UAEPAXXZ			; Encryption::GetKey
PUBLIC	?GetEncrptedKey@Encryption@@UAEPAXXZ		; Encryption::GetEncrptedKey
PUBLIC	?Set_Key@AES@@UAEXPAX@Z				; AES::Set_Key
PUBLIC	??_C@_0CM@EEEDCBIP@Error?5AES?3?3KeyExpansion?5function@ ; `string'
PUBLIC	??_7AES@@6B@					; AES::`vftable'
EXTRN	@AES_NI_KeyExpansion128@8:PROC
EXTRN	@AES_NI_KeyExpansion192@8:PROC
EXTRN	@AES_NI_KeyExpansion256@8:PROC
EXTRN	@AES_SSE_Cipher@24:PROC
EXTRN	@AES_NI_Cipher@24:PROC
EXTRN	@AES_SSE_InvCipher@24:PROC
EXTRN	@AES_NI_InvCipher@24:PROC
;	COMDAT ??_7AES@@6B@
CONST	SEGMENT
??_7AES@@6B@ DD	FLAT:??_R4AES@@6B@			; AES::`vftable'
	DD	FLAT:?encodeBER@Sequence@@UAEXXZ
	DD	FLAT:?Get_BERcode@ASN1@@UAEPBDXZ
	DD	FLAT:?Get_BERsize@ASN1@@UAEIXZ
	DD	FLAT:?Set_Key@AES@@UAEXPAX@Z
	DD	FLAT:?Clear_Key@AES@@UAEXXZ
	DD	FLAT:?init@Encryption@@UAEXXZ
	DD	FLAT:?encrypt@Encryption@@UAEXPAX@Z
	DD	FLAT:?decrypt@Encryption@@UAEXPAX@Z
	DD	FLAT:?encrypt_ecb@AES@@UAEXPAX@Z
	DD	FLAT:?decrypt_ecb@AES@@UAEXPAX@Z
	DD	FLAT:?SetIV@Encryption@@UAEXPAX@Z
	DD	FLAT:?encipher@Encryption@@UAEXPAXI@Z
	DD	FLAT:?decipher@Encryption@@UAEXPAXI@Z
	DD	FLAT:?encipher_last@Encryption@@UAEHPAXI@Z
	DD	FLAT:?decipher_last@Encryption@@UAEHPAXI@Z
	DD	FLAT:?KeyWrap@Encryption@@UAEHPAXI@Z
	DD	FLAT:?KeyUnWrap@Encryption@@UAEHPAXI@Z
	DD	FLAT:?GetKey@Encryption@@UAEPAXXZ
	DD	FLAT:?GetEncrptedKey@Encryption@@UAEPAXXZ
CONST	ENDS
;	COMDAT ??_R4AES@@6B@
rdata$r	SEGMENT
??_R4AES@@6B@ DD 00H					; AES::`RTTI Complete Object Locator'
	DD	00H
	DD	00H
	DD	FLAT:??_R0?AVAES@@@8
	DD	FLAT:??_R3AES@@8
rdata$r	ENDS
;	COMDAT ??_R3AES@@8
rdata$r	SEGMENT
??_R3AES@@8 DD	00H					; AES::`RTTI Class Hierarchy Descriptor'
	DD	00H
	DD	05H
	DD	FLAT:??_R2AES@@8
rdata$r	ENDS
;	COMDAT ??_R2AES@@8
rdata$r	SEGMENT
??_R2AES@@8 DD	FLAT:??_R1A@?0A@EA@AES@@8		; AES::`RTTI Base Class Array'
	DD	FLAT:??_R1A@?0A@EA@Encryption@@8
	DD	FLAT:??_R1A@?0A@EA@AlgorithmIdentifier@@8
	DD	FLAT:??_R1A@?0A@EA@Sequence@@8
	DD	FLAT:??_R1A@?0A@EA@ASN1@@8
rdata$r	ENDS
;	COMDAT ??_R1A@?0A@EA@Encryption@@8
rdata$r	SEGMENT
??_R1A@?0A@EA@Encryption@@8 DD FLAT:??_R0?AVEncryption@@@8 ; Encryption::`RTTI Base Class Descriptor at (0,-1,0,64)'
	DD	03H
	DD	00H
	DD	0ffffffffH
	DD	00H
	DD	040H
	DD	FLAT:??_R3Encryption@@8
rdata$r	ENDS
;	COMDAT ??_R3Encryption@@8
rdata$r	SEGMENT
??_R3Encryption@@8 DD 00H				; Encryption::`RTTI Class Hierarchy Descriptor'
	DD	00H
	DD	04H
	DD	FLAT:??_R2Encryption@@8
rdata$r	ENDS
;	COMDAT ??_R2Encryption@@8
rdata$r	SEGMENT
??_R2Encryption@@8 DD FLAT:??_R1A@?0A@EA@Encryption@@8	; Encryption::`RTTI Base Class Array'
	DD	FLAT:??_R1A@?0A@EA@AlgorithmIdentifier@@8
	DD	FLAT:??_R1A@?0A@EA@Sequence@@8
	DD	FLAT:??_R1A@?0A@EA@ASN1@@8
rdata$r	ENDS
;	COMDAT ??_R0?AVEncryption@@@8
_DATA	SEGMENT
??_R0?AVEncryption@@@8 DD FLAT:??_7type_info@@6B@	; Encryption `RTTI Type Descriptor'
	DD	00H
	DB	'.?AVEncryption@@', 00H
_DATA	ENDS
;	COMDAT ??_R1A@?0A@EA@AES@@8
rdata$r	SEGMENT
??_R1A@?0A@EA@AES@@8 DD FLAT:??_R0?AVAES@@@8		; AES::`RTTI Base Class Descriptor at (0,-1,0,64)'
	DD	04H
	DD	00H
	DD	0ffffffffH
	DD	00H
	DD	040H
	DD	FLAT:??_R3AES@@8
rdata$r	ENDS
;	COMDAT ??_R0?AVAES@@@8
_DATA	SEGMENT
??_R0?AVAES@@@8 DD FLAT:??_7type_info@@6B@		; AES `RTTI Type Descriptor'
	DD	00H
	DB	'.?AVAES@@', 00H
_DATA	ENDS
;	COMDAT ?InvSbox@?1??InvSubWord@AES@@IAEII@Z@4QBEB
CONST	SEGMENT
?InvSbox@?1??InvSubWord@AES@@IAEII@Z@4QBEB DB 052H	; `AES::InvSubWord'::`2'::InvSbox
	DB	09H
	DB	06aH
	DB	0d5H
	DB	030H
	DB	036H
	DB	0a5H
	DB	038H
	DB	0bfH
	DB	040H
	DB	0a3H
	DB	09eH
	DB	081H
	DB	0f3H
	DB	0d7H
	DB	0fbH
	DB	07cH
	DB	0e3H
	DB	039H
	DB	082H
	DB	09bH
	DB	02fH
	DB	0ffH
	DB	087H
	DB	034H
	DB	08eH
	DB	043H
	DB	044H
	DB	0c4H
	DB	0deH
	DB	0e9H
	DB	0cbH
	DB	054H
	DB	07bH
	DB	094H
	DB	032H
	DB	0a6H
	DB	0c2H
	DB	023H
	DB	03dH
	DB	0eeH
	DB	04cH
	DB	095H
	DB	0bH
	DB	042H
	DB	0faH
	DB	0c3H
	DB	04eH
	DB	08H
	DB	02eH
	DB	0a1H
	DB	066H
	DB	028H
	DB	0d9H
	DB	024H
	DB	0b2H
	DB	076H
	DB	05bH
	DB	0a2H
	DB	049H
	DB	06dH
	DB	08bH
	DB	0d1H
	DB	025H
	DB	072H
	DB	0f8H
	DB	0f6H
	DB	064H
	DB	086H
	DB	068H
	DB	098H
	DB	016H
	DB	0d4H
	DB	0a4H
	DB	05cH
	DB	0ccH
	DB	05dH
	DB	065H
	DB	0b6H
	DB	092H
	DB	06cH
	DB	070H
	DB	048H
	DB	050H
	DB	0fdH
	DB	0edH
	DB	0b9H
	DB	0daH
	DB	05eH
	DB	015H
	DB	046H
	DB	057H
	DB	0a7H
	DB	08dH
	DB	09dH
	DB	084H
	DB	090H
	DB	0d8H
	DB	0abH
	DB	00H
	DB	08cH
	DB	0bcH
	DB	0d3H
	DB	0aH
	DB	0f7H
	DB	0e4H
	DB	058H
	DB	05H
	DB	0b8H
	DB	0b3H
	DB	045H
	DB	06H
	DB	0d0H
	DB	02cH
	DB	01eH
	DB	08fH
	DB	0caH
	DB	03fH
	DB	0fH
	DB	02H
	DB	0c1H
	DB	0afH
	DB	0bdH
	DB	03H
	DB	01H
	DB	013H
	DB	08aH
	DB	06bH
	DB	03aH
	DB	091H
	DB	011H
	DB	041H
	DB	04fH
	DB	067H
	DB	0dcH
	DB	0eaH
	DB	097H
	DB	0f2H
	DB	0cfH
	DB	0ceH
	DB	0f0H
	DB	0b4H
	DB	0e6H
	DB	073H
	DB	096H
	DB	0acH
	DB	074H
	DB	022H
	DB	0e7H
	DB	0adH
	DB	035H
	DB	085H
	DB	0e2H
	DB	0f9H
	DB	037H
	DB	0e8H
	DB	01cH
	DB	075H
	DB	0dfH
	DB	06eH
	DB	047H
	DB	0f1H
	DB	01aH
	DB	071H
	DB	01dH
	DB	029H
	DB	0c5H
	DB	089H
	DB	06fH
	DB	0b7H
	DB	062H
	DB	0eH
	DB	0aaH
	DB	018H
	DB	0beH
	DB	01bH
	DB	0fcH
	DB	056H
	DB	03eH
	DB	04bH
	DB	0c6H
	DB	0d2H
	DB	079H
	DB	020H
	DB	09aH
	DB	0dbH
	DB	0c0H
	DB	0feH
	DB	078H
	DB	0cdH
	DB	05aH
	DB	0f4H
	DB	01fH
	DB	0ddH
	DB	0a8H
	DB	033H
	DB	088H
	DB	07H
	DB	0c7H
	DB	031H
	DB	0b1H
	DB	012H
	DB	010H
	DB	059H
	DB	027H
	DB	080H
	DB	0ecH
	DB	05fH
	DB	060H
	DB	051H
	DB	07fH
	DB	0a9H
	DB	019H
	DB	0b5H
	DB	04aH
	DB	0dH
	DB	02dH
	DB	0e5H
	DB	07aH
	DB	09fH
	DB	093H
	DB	0c9H
	DB	09cH
	DB	0efH
	DB	0a0H
	DB	0e0H
	DB	03bH
	DB	04dH
	DB	0aeH
	DB	02aH
	DB	0f5H
	DB	0b0H
	DB	0c8H
	DB	0ebH
	DB	0bbH
	DB	03cH
	DB	083H
	DB	053H
	DB	099H
	DB	061H
	DB	017H
	DB	02bH
	DB	04H
	DB	07eH
	DB	0baH
	DB	077H
	DB	0d6H
	DB	026H
	DB	0e1H
	DB	069H
	DB	014H
	DB	063H
	DB	055H
	DB	021H
	DB	0cH
	DB	07dH
CONST	ENDS
;	COMDAT ?Sbox3@?1??SubWord3@AES@@IAEII@Z@4QBEB
CONST	SEGMENT
?Sbox3@?1??SubWord3@AES@@IAEII@Z@4QBEB DB 0a5H		; `AES::SubWord3'::`2'::Sbox3
	DB	084H
	DB	099H
	DB	08dH
	DB	0dH
	DB	0bdH
	DB	0b1H
	DB	054H
	DB	050H
	DB	03H
	DB	0a9H
	DB	07dH
	DB	019H
	DB	062H
	DB	0e6H
	DB	09aH
	DB	045H
	DB	09dH
	DB	040H
	DB	087H
	DB	015H
	DB	0ebH
	DB	0c9H
	DB	0bH
	DB	0ecH
	DB	067H
	DB	0fdH
	DB	0eaH
	DB	0bfH
	DB	0f7H
	DB	096H
	DB	05bH
	DB	0c2H
	DB	01cH
	DB	0aeH
	DB	06aH
	DB	05aH
	DB	041H
	DB	02H
	DB	04fH
	DB	05cH
	DB	0f4H
	DB	034H
	DB	08H
	DB	093H
	DB	073H
	DB	053H
	DB	03fH
	DB	0cH
	DB	052H
	DB	065H
	DB	05eH
	DB	028H
	DB	0a1H
	DB	0fH
	DB	0b5H
	DB	09H
	DB	036H
	DB	09bH
	DB	03dH
	DB	026H
	DB	069H
	DB	0cdH
	DB	09fH
	DB	01bH
	DB	09eH
	DB	074H
	DB	02eH
	DB	02dH
	DB	0b2H
	DB	0eeH
	DB	0fbH
	DB	0f6H
	DB	04dH
	DB	061H
	DB	0ceH
	DB	07bH
	DB	03eH
	DB	071H
	DB	097H
	DB	0f5H
	DB	068H
	DB	00H
	DB	02cH
	DB	060H
	DB	01fH
	DB	0c8H
	DB	0edH
	DB	0beH
	DB	046H
	DB	0d9H
	DB	04bH
	DB	0deH
	DB	0d4H
	DB	0e8H
	DB	04aH
	DB	06bH
	DB	02aH
	DB	0e5H
	DB	016H
	DB	0c5H
	DB	0d7H
	DB	055H
	DB	094H
	DB	0cfH
	DB	010H
	DB	06H
	DB	081H
	DB	0f0H
	DB	044H
	DB	0baH
	DB	0e3H
	DB	0f3H
	DB	0feH
	DB	0c0H
	DB	08aH
	DB	0adH
	DB	0bcH
	DB	048H
	DB	04H
	DB	0dfH
	DB	0c1H
	DB	075H
	DB	063H
	DB	030H
	DB	01aH
	DB	0eH
	DB	06dH
	DB	04cH
	DB	014H
	DB	035H
	DB	02fH
	DB	0e1H
	DB	0a2H
	DB	0ccH
	DB	039H
	DB	057H
	DB	0f2H
	DB	082H
	DB	047H
	DB	0acH
	DB	0e7H
	DB	02bH
	DB	095H
	DB	0a0H
	DB	098H
	DB	0d1H
	DB	07fH
	DB	066H
	DB	07eH
	DB	0abH
	DB	083H
	DB	0caH
	DB	029H
	DB	0d3H
	DB	03cH
	DB	079H
	DB	0e2H
	DB	01dH
	DB	076H
	DB	03bH
	DB	056H
	DB	04eH
	DB	01eH
	DB	0dbH
	DB	0aH
	DB	06cH
	DB	0e4H
	DB	05dH
	DB	06eH
	DB	0efH
	DB	0a6H
	DB	0a8H
	DB	0a4H
	DB	037H
	DB	08bH
	DB	032H
	DB	043H
	DB	059H
	DB	0b7H
	DB	08cH
	DB	064H
	DB	0d2H
	DB	0e0H
	DB	0b4H
	DB	0faH
	DB	07H
	DB	025H
	DB	0afH
	DB	08eH
	DB	0e9H
	DB	018H
	DB	0d5H
	DB	088H
	DB	06fH
	DB	072H
	DB	024H
	DB	0f1H
	DB	0c7H
	DB	051H
	DB	023H
	DB	07cH
	DB	09cH
	DB	021H
	DB	0ddH
	DB	0dcH
	DB	086H
	DB	085H
	DB	090H
	DB	042H
	DB	0c4H
	DB	0aaH
	DB	0d8H
	DB	05H
	DB	01H
	DB	012H
	DB	0a3H
	DB	05fH
	DB	0f9H
	DB	0d0H
	DB	091H
	DB	058H
	DB	027H
	DB	0b9H
	DB	038H
	DB	013H
	DB	0b3H
	DB	033H
	DB	0bbH
	DB	070H
	DB	089H
	DB	0a7H
	DB	0b6H
	DB	022H
	DB	092H
	DB	020H
	DB	049H
	DB	0ffH
	DB	078H
	DB	07aH
	DB	08fH
	DB	0f8H
	DB	080H
	DB	017H
	DB	0daH
	DB	031H
	DB	0c6H
	DB	0b8H
	DB	0c3H
	DB	0b0H
	DB	077H
	DB	011H
	DB	0cbH
	DB	0fcH
	DB	0d6H
	DB	03aH
CONST	ENDS
;	COMDAT ?Sbox2@?1??SubWord2@AES@@IAEII@Z@4QBEB
CONST	SEGMENT
?Sbox2@?1??SubWord2@AES@@IAEII@Z@4QBEB DB 0c6H		; `AES::SubWord2'::`2'::Sbox2
	DB	0f8H
	DB	0eeH
	DB	0f6H
	DB	0ffH
	DB	0d6H
	DB	0deH
	DB	091H
	DB	060H
	DB	02H
	DB	0ceH
	DB	056H
	DB	0e7H
	DB	0b5H
	DB	04dH
	DB	0ecH
	DB	08fH
	DB	01fH
	DB	089H
	DB	0faH
	DB	0efH
	DB	0b2H
	DB	08eH
	DB	0fbH
	DB	041H
	DB	0b3H
	DB	05fH
	DB	045H
	DB	023H
	DB	053H
	DB	0e4H
	DB	09bH
	DB	075H
	DB	0e1H
	DB	03dH
	DB	04cH
	DB	06cH
	DB	07eH
	DB	0f5H
	DB	083H
	DB	068H
	DB	051H
	DB	0d1H
	DB	0f9H
	DB	0e2H
	DB	0abH
	DB	062H
	DB	02aH
	DB	08H
	DB	095H
	DB	046H
	DB	09dH
	DB	030H
	DB	037H
	DB	0aH
	DB	02fH
	DB	0eH
	DB	024H
	DB	01bH
	DB	0dfH
	DB	0cdH
	DB	04eH
	DB	07fH
	DB	0eaH
	DB	012H
	DB	01dH
	DB	058H
	DB	034H
	DB	036H
	DB	0dcH
	DB	0b4H
	DB	05bH
	DB	0a4H
	DB	076H
	DB	0b7H
	DB	07dH
	DB	052H
	DB	0ddH
	DB	05eH
	DB	013H
	DB	0a6H
	DB	0b9H
	DB	00H
	DB	0c1H
	DB	040H
	DB	0e3H
	DB	079H
	DB	0b6H
	DB	0d4H
	DB	08dH
	DB	067H
	DB	072H
	DB	094H
	DB	098H
	DB	0b0H
	DB	085H
	DB	0bbH
	DB	0c5H
	DB	04fH
	DB	0edH
	DB	086H
	DB	09aH
	DB	066H
	DB	011H
	DB	08aH
	DB	0e9H
	DB	04H
	DB	0feH
	DB	0a0H
	DB	078H
	DB	025H
	DB	04bH
	DB	0a2H
	DB	05dH
	DB	080H
	DB	05H
	DB	03fH
	DB	021H
	DB	070H
	DB	0f1H
	DB	063H
	DB	077H
	DB	0afH
	DB	042H
	DB	020H
	DB	0e5H
	DB	0fdH
	DB	0bfH
	DB	081H
	DB	018H
	DB	026H
	DB	0c3H
	DB	0beH
	DB	035H
	DB	088H
	DB	02eH
	DB	093H
	DB	055H
	DB	0fcH
	DB	07aH
	DB	0c8H
	DB	0baH
	DB	032H
	DB	0e6H
	DB	0c0H
	DB	019H
	DB	09eH
	DB	0a3H
	DB	044H
	DB	054H
	DB	03bH
	DB	0bH
	DB	08cH
	DB	0c7H
	DB	06bH
	DB	028H
	DB	0a7H
	DB	0bcH
	DB	016H
	DB	0adH
	DB	0dbH
	DB	064H
	DB	074H
	DB	014H
	DB	092H
	DB	0cH
	DB	048H
	DB	0b8H
	DB	09fH
	DB	0bdH
	DB	043H
	DB	0c4H
	DB	039H
	DB	031H
	DB	0d3H
	DB	0f2H
	DB	0d5H
	DB	08bH
	DB	06eH
	DB	0daH
	DB	01H
	DB	0b1H
	DB	09cH
	DB	049H
	DB	0d8H
	DB	0acH
	DB	0f3H
	DB	0cfH
	DB	0caH
	DB	0f4H
	DB	047H
	DB	010H
	DB	06fH
	DB	0f0H
	DB	04aH
	DB	05cH
	DB	038H
	DB	057H
	DB	073H
	DB	097H
	DB	0cbH
	DB	0a1H
	DB	0e8H
	DB	03eH
	DB	096H
	DB	061H
	DB	0dH
	DB	0fH
	DB	0e0H
	DB	07cH
	DB	071H
	DB	0ccH
	DB	090H
	DB	06H
	DB	0f7H
	DB	01cH
	DB	0c2H
	DB	06aH
	DB	0aeH
	DB	069H
	DB	017H
	DB	099H
	DB	03aH
	DB	027H
	DB	0d9H
	DB	0ebH
	DB	02bH
	DB	022H
	DB	0d2H
	DB	0a9H
	DB	07H
	DB	033H
	DB	02dH
	DB	03cH
	DB	015H
	DB	0c9H
	DB	087H
	DB	0aaH
	DB	050H
	DB	0a5H
	DB	03H
	DB	059H
	DB	09H
	DB	01aH
	DB	065H
	DB	0d7H
	DB	084H
	DB	0d0H
	DB	082H
	DB	029H
	DB	05aH
	DB	01eH
	DB	07bH
	DB	0a8H
	DB	06dH
	DB	02cH
CONST	ENDS
;	COMDAT ?Sbox@?1??SubWord@AES@@IAEII@Z@4QBEB
CONST	SEGMENT
?Sbox@?1??SubWord@AES@@IAEII@Z@4QBEB DB 063H		; `AES::SubWord'::`2'::Sbox
	DB	07cH
	DB	077H
	DB	07bH
	DB	0f2H
	DB	06bH
	DB	06fH
	DB	0c5H
	DB	030H
	DB	01H
	DB	067H
	DB	02bH
	DB	0feH
	DB	0d7H
	DB	0abH
	DB	076H
	DB	0caH
	DB	082H
	DB	0c9H
	DB	07dH
	DB	0faH
	DB	059H
	DB	047H
	DB	0f0H
	DB	0adH
	DB	0d4H
	DB	0a2H
	DB	0afH
	DB	09cH
	DB	0a4H
	DB	072H
	DB	0c0H
	DB	0b7H
	DB	0fdH
	DB	093H
	DB	026H
	DB	036H
	DB	03fH
	DB	0f7H
	DB	0ccH
	DB	034H
	DB	0a5H
	DB	0e5H
	DB	0f1H
	DB	071H
	DB	0d8H
	DB	031H
	DB	015H
	DB	04H
	DB	0c7H
	DB	023H
	DB	0c3H
	DB	018H
	DB	096H
	DB	05H
	DB	09aH
	DB	07H
	DB	012H
	DB	080H
	DB	0e2H
	DB	0ebH
	DB	027H
	DB	0b2H
	DB	075H
	DB	09H
	DB	083H
	DB	02cH
	DB	01aH
	DB	01bH
	DB	06eH
	DB	05aH
	DB	0a0H
	DB	052H
	DB	03bH
	DB	0d6H
	DB	0b3H
	DB	029H
	DB	0e3H
	DB	02fH
	DB	084H
	DB	053H
	DB	0d1H
	DB	00H
	DB	0edH
	DB	020H
	DB	0fcH
	DB	0b1H
	DB	05bH
	DB	06aH
	DB	0cbH
	DB	0beH
	DB	039H
	DB	04aH
	DB	04cH
	DB	058H
	DB	0cfH
	DB	0d0H
	DB	0efH
	DB	0aaH
	DB	0fbH
	DB	043H
	DB	04dH
	DB	033H
	DB	085H
	DB	045H
	DB	0f9H
	DB	02H
	DB	07fH
	DB	050H
	DB	03cH
	DB	09fH
	DB	0a8H
	DB	051H
	DB	0a3H
	DB	040H
	DB	08fH
	DB	092H
	DB	09dH
	DB	038H
	DB	0f5H
	DB	0bcH
	DB	0b6H
	DB	0daH
	DB	021H
	DB	010H
	DB	0ffH
	DB	0f3H
	DB	0d2H
	DB	0cdH
	DB	0cH
	DB	013H
	DB	0ecH
	DB	05fH
	DB	097H
	DB	044H
	DB	017H
	DB	0c4H
	DB	0a7H
	DB	07eH
	DB	03dH
	DB	064H
	DB	05dH
	DB	019H
	DB	073H
	DB	060H
	DB	081H
	DB	04fH
	DB	0dcH
	DB	022H
	DB	02aH
	DB	090H
	DB	088H
	DB	046H
	DB	0eeH
	DB	0b8H
	DB	014H
	DB	0deH
	DB	05eH
	DB	0bH
	DB	0dbH
	DB	0e0H
	DB	032H
	DB	03aH
	DB	0aH
	DB	049H
	DB	06H
	DB	024H
	DB	05cH
	DB	0c2H
	DB	0d3H
	DB	0acH
	DB	062H
	DB	091H
	DB	095H
	DB	0e4H
	DB	079H
	DB	0e7H
	DB	0c8H
	DB	037H
	DB	06dH
	DB	08dH
	DB	0d5H
	DB	04eH
	DB	0a9H
	DB	06cH
	DB	056H
	DB	0f4H
	DB	0eaH
	DB	065H
	DB	07aH
	DB	0aeH
	DB	08H
	DB	0baH
	DB	078H
	DB	025H
	DB	02eH
	DB	01cH
	DB	0a6H
	DB	0b4H
	DB	0c6H
	DB	0e8H
	DB	0ddH
	DB	074H
	DB	01fH
	DB	04bH
	DB	0bdH
	DB	08bH
	DB	08aH
	DB	070H
	DB	03eH
	DB	0b5H
	DB	066H
	DB	048H
	DB	03H
	DB	0f6H
	DB	0eH
	DB	061H
	DB	035H
	DB	057H
	DB	0b9H
	DB	086H
	DB	0c1H
	DB	01dH
	DB	09eH
	DB	0e1H
	DB	0f8H
	DB	098H
	DB	011H
	DB	069H
	DB	0d9H
	DB	08eH
	DB	094H
	DB	09bH
	DB	01eH
	DB	087H
	DB	0e9H
	DB	0ceH
	DB	055H
	DB	028H
	DB	0dfH
	DB	08cH
	DB	0a1H
	DB	089H
	DB	0dH
	DB	0bfH
	DB	0e6H
	DB	042H
	DB	068H
	DB	041H
	DB	099H
	DB	02dH
	DB	0fH
	DB	0b0H
	DB	054H
	DB	0bbH
	DB	016H
CONST	ENDS
;	COMDAT ??_C@_0CM@EEEDCBIP@Error?5AES?3?3KeyExpansion?5function@
CONST	SEGMENT
??_C@_0CM@EEEDCBIP@Error?5AES?3?3KeyExpansion?5function@ DB 'Error AES::K'
	DB	'eyExpansion function on AES.cpp', 00H	; `string'
CONST	ENDS
;	COMDAT ?Rcon@?1??KeyExpansion@AES@@IAEXPAE@Z@4QBIB
CONST	SEGMENT
?Rcon@?1??KeyExpansion@AES@@IAEXPAE@Z@4QBIB DD 01H	; `AES::KeyExpansion'::`2'::Rcon
	DD	02H
	DD	04H
	DD	08H
	DD	010H
	DD	020H
	DD	040H
	DD	080H
	DD	01bH
	DD	036H
; Function compile flags: /Ogtpy
; File i:\ìnïîìƒéj\my project\cms\cms\asn1\algorithm\encryption.h
;	COMDAT ?init@Encryption@@UAEXXZ
_TEXT	SEGMENT
?init@Encryption@@UAEXXZ PROC				; Encryption::init, COMDAT
; _this$ = ecx

; 43   : 	virtual	void	init(){};					//à√çÜÇåÆÇ∆IVÇ≈èâä˙âª

  00000	c3		 ret	 0
?init@Encryption@@UAEXXZ ENDP				; Encryption::init
; Function compile flags: /Ogtpy
_TEXT	ENDS
;	COMDAT ?encrypt@Encryption@@UAEXPAX@Z
_TEXT	SEGMENT
_data$ = 8						; size = 4
?encrypt@Encryption@@UAEXPAX@Z PROC			; Encryption::encrypt, COMDAT
; _this$ = ecx

; 44   : 	virtual	void	encrypt(void *data){encrypt_ecb(data);};	//à√çÜ

  00000	8b 01		 mov	 eax, DWORD PTR [ecx]
  00002	8b 40 20	 mov	 eax, DWORD PTR [eax+32]
  00005	ff e0		 jmp	 eax
?encrypt@Encryption@@UAEXPAX@Z ENDP			; Encryption::encrypt
; Function compile flags: /Ogtpy
_TEXT	ENDS
;	COMDAT ?decrypt@Encryption@@UAEXPAX@Z
_TEXT	SEGMENT
_data$ = 8						; size = 4
?decrypt@Encryption@@UAEXPAX@Z PROC			; Encryption::decrypt, COMDAT
; _this$ = ecx

; 45   : 	virtual	void	decrypt(void *data){decrypt_ecb(data);};	//ïúçÜ

  00000	8b 01		 mov	 eax, DWORD PTR [ecx]
  00002	8b 40 24	 mov	 eax, DWORD PTR [eax+36]
  00005	ff e0		 jmp	 eax
?decrypt@Encryption@@UAEXPAX@Z ENDP			; Encryption::decrypt
; Function compile flags: /Ogtpy
_TEXT	ENDS
;	COMDAT ?SetIV@Encryption@@UAEXPAX@Z
_TEXT	SEGMENT
_data$ = 8						; size = 4
?SetIV@Encryption@@UAEXPAX@Z PROC			; Encryption::SetIV, COMDAT
; _this$ = ecx

; 48   : 	virtual	void	SetIV(void *data){};		//IVê›íË	

  00000	c2 04 00	 ret	 4
?SetIV@Encryption@@UAEXPAX@Z ENDP			; Encryption::SetIV
; Function compile flags: /Ogtpy
_TEXT	ENDS
;	COMDAT ?KeyWrap@Encryption@@UAEHPAXI@Z
_TEXT	SEGMENT
_CEK$ = 8						; size = 4
_szCEK$ = 12						; size = 4
?KeyWrap@Encryption@@UAEHPAXI@Z PROC			; Encryption::KeyWrap, COMDAT
; _this$ = ecx

; 57   : 	virtual	int		KeyWrap(void *CEK,unsigned int szCEK){return(0);};	//

  00000	33 c0		 xor	 eax, eax
  00002	c2 08 00	 ret	 8
?KeyWrap@Encryption@@UAEHPAXI@Z ENDP			; Encryption::KeyWrap
; Function compile flags: /Ogtpy
_TEXT	ENDS
;	COMDAT ?KeyUnWrap@Encryption@@UAEHPAXI@Z
_TEXT	SEGMENT
_data$ = 8						; size = 4
_szData$ = 12						; size = 4
?KeyUnWrap@Encryption@@UAEHPAXI@Z PROC			; Encryption::KeyUnWrap, COMDAT
; _this$ = ecx

; 58   : 	virtual	int		KeyUnWrap(void *data,unsigned int szData){return(0);};	//

  00000	33 c0		 xor	 eax, eax
  00002	c2 08 00	 ret	 8
?KeyUnWrap@Encryption@@UAEHPAXI@Z ENDP			; Encryption::KeyUnWrap
; Function compile flags: /Ogtpy
_TEXT	ENDS
;	COMDAT ?GetKey@Encryption@@UAEPAXXZ
_TEXT	SEGMENT
?GetKey@Encryption@@UAEPAXXZ PROC			; Encryption::GetKey, COMDAT
; _this$ = ecx

; 59   : 	virtual	void*	GetKey(){return(0);};

  00000	33 c0		 xor	 eax, eax
  00002	c3		 ret	 0
?GetKey@Encryption@@UAEPAXXZ ENDP			; Encryption::GetKey
; Function compile flags: /Ogtpy
_TEXT	ENDS
;	COMDAT ?GetEncrptedKey@Encryption@@UAEPAXXZ
_TEXT	SEGMENT
?GetEncrptedKey@Encryption@@UAEPAXXZ PROC		; Encryption::GetEncrptedKey, COMDAT
; _this$ = ecx

; 60   : 	virtual	void*	GetEncrptedKey(){return(0);};

  00000	33 c0		 xor	 eax, eax
  00002	c3		 ret	 0
?GetEncrptedKey@Encryption@@UAEPAXXZ ENDP		; Encryption::GetEncrptedKey
_TEXT	ENDS
PUBLIC	?InvCipher_CBC4@AES@@IAE?AT__m128i@@PAT2@T2@@Z	; AES::InvCipher_CBC4
; Function compile flags: /Ogtpy
; File i:\ìnïîìƒéj\my project\cms\cms\asn1\algorithm\aes.cpp
;	COMDAT ?InvCipher_CBC4@AES@@IAE?AT__m128i@@PAT2@T2@@Z
_TEXT	SEGMENT
_vector$ = -16						; size = 16
___$ReturnUdt$ = 8					; size = 4
?InvCipher_CBC4@AES@@IAE?AT__m128i@@PAT2@T2@@Z PROC	; AES::InvCipher_CBC4, COMDAT
; _this$ = ecx
; _data$ = edx
; _vector$ = xmm0

; 573  : {

  00000	55		 push	 ebp
  00001	8b ec		 mov	 ebp, esp
  00003	83 e4 f0	 and	 esp, -16		; fffffff0H
  00006	83 ec 18	 sub	 esp, 24			; 00000018H

; 574  : 
; 575  : 	__m128i*	_w = (__m128i*)w;
; 576  : 
; 577  : 	//Load
; 578  : 	//ÅüRound (Nr)
; 579  : 	int		i		= Nr;
; 580  : 	__m128i	_vector	= data[3];

  00009	66 0f 6f 72 30	 movdqa	 xmm6, XMMWORD PTR [edx+48]

; 581  : //	__m128i	tmp		= _mm_load_si128((__m128i*)(&w[i*4]));
; 582  : 	__m128i	tmp		= _w[i];
; 583  : 	__m128i	xdata1	= _mm_xor_si128(data[0],tmp);

  0000e	66 0f 6f 3a	 movdqa	 xmm7, XMMWORD PTR [edx]

; 584  : 	__m128i	xdata2	= _mm_xor_si128(data[1],tmp);

  00012	66 0f 6f 52 10	 movdqa	 xmm2, XMMWORD PTR [edx+16]
  00017	8b 45 08	 mov	 eax, DWORD PTR ___$ReturnUdt$[ebp]
  0001a	56		 push	 esi
  0001b	57		 push	 edi
  0001c	8d b9 b0 00 00
	00		 lea	 edi, DWORD PTR [ecx+176]
  00022	0f b6 89 a1 01
	00 00		 movzx	 ecx, BYTE PTR [ecx+417]
  00029	8b f1		 mov	 esi, ecx
  0002b	c1 e6 04	 shl	 esi, 4
  0002e	66 0f 6f 2c 3e	 movdqa	 xmm5, XMMWORD PTR [esi+edi]

; 585  : 	__m128i	xdata3	= _mm_xor_si128(data[2],tmp);
; 586  : 	__m128i	xdata4	= _mm_xor_si128(data[3],tmp);
; 587  : 	i--;

  00033	49		 dec	 ecx

; 588  : 
; 589  : 	//ÅüRound (Nr-1) Å` (1)
; 590  : 	do{
; 591  : //		tmp   = _mm_aesimc_si128(_mm_load_si128((__m128i*)&w[i*4]));
; 592  : 		tmp   = _mm_aesimc_si128(_w[i]);

  00034	8b f1		 mov	 esi, ecx
  00036	66 0f 7f 44 24
	10		 movdqa	 XMMWORD PTR _vector$[esp+32], xmm0
  0003c	66 0f 6f 42 20	 movdqa	 xmm0, XMMWORD PTR [edx+32]
  00041	c1 e6 04	 shl	 esi, 4
  00044	66 0f 6f cf	 movdqa	 xmm1, xmm7
  00048	66 0f 6f d8	 movdqa	 xmm3, xmm0
  0004c	66 0f 6f e6	 movdqa	 xmm4, xmm6
  00050	66 0f ef cd	 pxor	 xmm1, xmm5
  00054	66 0f ef d5	 pxor	 xmm2, xmm5
  00058	66 0f ef dd	 pxor	 xmm3, xmm5
  0005c	66 0f ef e5	 pxor	 xmm4, xmm5
  00060	03 f7		 add	 esi, edi
$LL3@InvCipher_:
  00062	66 0f 38 db 2e	 aesimc	 xmm5, XMMWORD PTR [esi]

; 593  : 		xdata1 = _mm_aesdec_si128(xdata1, tmp);
; 594  : 		xdata2 = _mm_aesdec_si128(xdata2, tmp);
; 595  : 		xdata3 = _mm_aesdec_si128(xdata3, tmp);
; 596  : 		xdata4 = _mm_aesdec_si128(xdata4, tmp);
; 597  : 		i--;

  00067	49		 dec	 ecx
  00068	83 ee 10	 sub	 esi, 16			; 00000010H
  0006b	66 0f 38 de cd	 aesdec	 xmm1, xmm5
  00070	66 0f 38 de d5	 aesdec	 xmm2, xmm5
  00075	66 0f 38 de dd	 aesdec	 xmm3, xmm5
  0007a	66 0f 38 de e5	 aesdec	 xmm4, xmm5

; 598  : 
; 599  : 	} while(i > 0);

  0007f	85 c9		 test	 ecx, ecx
  00081	7f df		 jg	 SHORT $LL3@InvCipher_

; 600  : 
; 601  : 	//ÅüRound (0)
; 602  : 	// & CBC calc & Store
; 603  : //	tmp		= _mm_load_si128((__m128i*)&w[i*4]);
; 604  : 	tmp   = _w[i];

  00083	c1 e1 04	 shl	 ecx, 4
  00086	66 0f 6f 2c 39	 movdqa	 xmm5, XMMWORD PTR [ecx+edi]

; 605  : 	data[3]	= _mm_xor_si128(_mm_aesdeclast_si128(xdata4, tmp), data[2]);

  0008b	66 0f 38 df e5	 aesdeclast xmm4, xmm5
  00090	66 0f ef e0	 pxor	 xmm4, xmm0

; 606  : 	data[2]	= _mm_xor_si128(_mm_aesdeclast_si128(xdata3, tmp), data[1]);

  00094	66 0f 6f 42 10	 movdqa	 xmm0, XMMWORD PTR [edx+16]
  00099	66 0f 38 df dd	 aesdeclast xmm3, xmm5

; 607  : 	data[1]	= _mm_xor_si128(_mm_aesdeclast_si128(xdata2, tmp), data[0]);

  0009e	66 0f 38 df d5	 aesdeclast xmm2, xmm5

; 608  : 	data[0]	= _mm_xor_si128(_mm_aesdeclast_si128(xdata1, tmp), vector);

  000a3	66 0f 38 df cd	 aesdeclast xmm1, xmm5
  000a8	66 0f ef 4c 24
	10		 pxor	 xmm1, XMMWORD PTR _vector$[esp+32]
  000ae	66 0f ef d8	 pxor	 xmm3, xmm0
  000b2	66 0f ef d7	 pxor	 xmm2, xmm7

; 609  : 
; 610  : 	return(_vector);
; 611  : }

  000b6	5f		 pop	 edi
  000b7	66 0f 7f 62 30	 movdqa	 XMMWORD PTR [edx+48], xmm4
  000bc	66 0f 7f 5a 20	 movdqa	 XMMWORD PTR [edx+32], xmm3
  000c1	66 0f 7f 52 10	 movdqa	 XMMWORD PTR [edx+16], xmm2
  000c6	66 0f 7f 0a	 movdqa	 XMMWORD PTR [edx], xmm1
  000ca	66 0f 7f 30	 movdqa	 XMMWORD PTR [eax], xmm6
  000ce	5e		 pop	 esi
  000cf	8b e5		 mov	 esp, ebp
  000d1	5d		 pop	 ebp
  000d2	c2 04 00	 ret	 4
?InvCipher_CBC4@AES@@IAE?AT__m128i@@PAT2@T2@@Z ENDP	; AES::InvCipher_CBC4
_TEXT	ENDS
PUBLIC	?InvCipher@AES@@IAE?AT__m128i@@T2@@Z		; AES::InvCipher
; Function compile flags: /Ogtpy
;	COMDAT ?InvCipher@AES@@IAE?AT__m128i@@T2@@Z
_TEXT	SEGMENT
_this$ = 8						; size = 4
?InvCipher@AES@@IAE?AT__m128i@@T2@@Z PROC		; AES::InvCipher, COMDAT
; ___$ReturnUdt$ = esi
; _data$ = xmm0

; 535  : {

  00000	55		 push	 ebp
  00001	8b ec		 mov	 ebp, esp
  00003	83 e4 f0	 and	 esp, -16		; fffffff0H
  00006	8b 45 08	 mov	 eax, DWORD PTR _this$[ebp]

; 536  : 	if(aesni == false){

  00009	80 b8 a2 01 00
	00 00		 cmp	 BYTE PTR [eax+418], 0

; 537  : 		data = AES_SSE_InvCipher(Nr,w,data);

  00010	8a 88 a1 01 00
	00		 mov	 cl, BYTE PTR [eax+417]
  00016	8d 90 b0 00 00
	00		 lea	 edx, DWORD PTR [eax+176]
  0001c	75 11		 jne	 SHORT $LN2@InvCipher
  0001e	e8 00 00 00 00	 call	 @AES_SSE_InvCipher@24

; 540  : 	}
; 541  : 
; 542  : 	return(data);

  00023	8b c6		 mov	 eax, esi
  00025	66 0f 7f 06	 movdqa	 XMMWORD PTR [esi], xmm0

; 543  : /*
; 544  : 	//ÅüRound (Nr)
; 545  : 	int	i=Nr;
; 546  : 
; 547  : 	data = InvAddRoundKey(data, i);
; 548  : 	i--;
; 549  : 
; 550  : 	//ÅüRound (Nr-1) Å` (1)
; 551  : 	do{
; 552  : 		data = InvMixColumns(InvAddRoundKey(InvShiftRows(InvSubBytes(data)),i));
; 553  : 		i--;
; 554  : 	} while(i > 0);
; 555  : 
; 556  : 	//ÅüRound (0)
; 557  : 	data = InvAddRoundKey(InvShiftRows(InvSubBytes(data)), i);
; 558  : 
; 559  : 	return(data);
; 560  : */
; 561  : }

  00029	8b e5		 mov	 esp, ebp
  0002b	5d		 pop	 ebp
  0002c	c2 04 00	 ret	 4
$LN2@InvCipher:

; 538  : 	} else {
; 539  : 		data = AES_NI_InvCipher(Nr,w,data);

  0002f	e8 00 00 00 00	 call	 @AES_NI_InvCipher@24

; 540  : 	}
; 541  : 
; 542  : 	return(data);

  00034	8b c6		 mov	 eax, esi
  00036	66 0f 7f 06	 movdqa	 XMMWORD PTR [esi], xmm0

; 543  : /*
; 544  : 	//ÅüRound (Nr)
; 545  : 	int	i=Nr;
; 546  : 
; 547  : 	data = InvAddRoundKey(data, i);
; 548  : 	i--;
; 549  : 
; 550  : 	//ÅüRound (Nr-1) Å` (1)
; 551  : 	do{
; 552  : 		data = InvMixColumns(InvAddRoundKey(InvShiftRows(InvSubBytes(data)),i));
; 553  : 		i--;
; 554  : 	} while(i > 0);
; 555  : 
; 556  : 	//ÅüRound (0)
; 557  : 	data = InvAddRoundKey(InvShiftRows(InvSubBytes(data)), i);
; 558  : 
; 559  : 	return(data);
; 560  : */
; 561  : }

  0003a	8b e5		 mov	 esp, ebp
  0003c	5d		 pop	 ebp
  0003d	c2 04 00	 ret	 4
?InvCipher@AES@@IAE?AT__m128i@@T2@@Z ENDP		; AES::InvCipher
_TEXT	ENDS
PUBLIC	?Cipher@AES@@IAE?AT__m128i@@T2@@Z		; AES::Cipher
; Function compile flags: /Ogtpy
;	COMDAT ?Cipher@AES@@IAE?AT__m128i@@T2@@Z
_TEXT	SEGMENT
_this$ = 8						; size = 4
?Cipher@AES@@IAE?AT__m128i@@T2@@Z PROC			; AES::Cipher, COMDAT
; ___$ReturnUdt$ = esi
; _data$ = xmm0

; 381  : {

  00000	55		 push	 ebp
  00001	8b ec		 mov	 ebp, esp
  00003	83 e4 f0	 and	 esp, -16		; fffffff0H
  00006	8b 45 08	 mov	 eax, DWORD PTR _this$[ebp]

; 382  : 
; 383  : 	if(aesni == false){

  00009	80 b8 a2 01 00
	00 00		 cmp	 BYTE PTR [eax+418], 0

; 384  : 		data = AES_SSE_Cipher(Nr,w,data);

  00010	8a 88 a1 01 00
	00		 mov	 cl, BYTE PTR [eax+417]
  00016	8d 90 b0 00 00
	00		 lea	 edx, DWORD PTR [eax+176]
  0001c	75 11		 jne	 SHORT $LN2@Cipher
  0001e	e8 00 00 00 00	 call	 @AES_SSE_Cipher@24

; 387  : 	}
; 388  : 
; 389  : 	return(data);

  00023	8b c6		 mov	 eax, esi
  00025	66 0f 7f 06	 movdqa	 XMMWORD PTR [esi], xmm0

; 390  : 
; 391  : /*
; 392  : 	//ÅüRound [0]
; 393  : 	int	i=0;
; 394  : 
; 395  : 	data = AddRoundKey(data, i);
; 396  : 	i++;
; 397  : 
; 398  : 	//ÅüRound (1) Å` (Nr-1)
; 399  : 	do{
; 400  : 		data = AddRoundKey(MixColumns(ShiftRows((data))),i);
; 401  : 		i++;
; 402  : 	} while(i < Nr);
; 403  : 
; 404  : 	//ÅüRound (Nr)
; 405  : 	data = AddRoundKey(ShiftRows(SubBytes(data)),i);
; 406  : 
; 407  : 	return(data);
; 408  : */
; 409  : }

  00029	8b e5		 mov	 esp, ebp
  0002b	5d		 pop	 ebp
  0002c	c2 04 00	 ret	 4
$LN2@Cipher:

; 385  : 	} else {
; 386  : 		data = AES_NI_Cipher(Nr,w,data);

  0002f	e8 00 00 00 00	 call	 @AES_NI_Cipher@24

; 387  : 	}
; 388  : 
; 389  : 	return(data);

  00034	8b c6		 mov	 eax, esi
  00036	66 0f 7f 06	 movdqa	 XMMWORD PTR [esi], xmm0

; 390  : 
; 391  : /*
; 392  : 	//ÅüRound [0]
; 393  : 	int	i=0;
; 394  : 
; 395  : 	data = AddRoundKey(data, i);
; 396  : 	i++;
; 397  : 
; 398  : 	//ÅüRound (1) Å` (Nr-1)
; 399  : 	do{
; 400  : 		data = AddRoundKey(MixColumns(ShiftRows((data))),i);
; 401  : 		i++;
; 402  : 	} while(i < Nr);
; 403  : 
; 404  : 	//ÅüRound (Nr)
; 405  : 	data = AddRoundKey(ShiftRows(SubBytes(data)),i);
; 406  : 
; 407  : 	return(data);
; 408  : */
; 409  : }

  0003a	8b e5		 mov	 esp, ebp
  0003c	5d		 pop	 ebp
  0003d	c2 04 00	 ret	 4
?Cipher@AES@@IAE?AT__m128i@@T2@@Z ENDP			; AES::Cipher
_TEXT	ENDS
PUBLIC	?SubWord@AES@@IAEII@Z				; AES::SubWord
; Function compile flags: /Ogtpy
;	COMDAT ?SubWord@AES@@IAEII@Z
_TEXT	SEGMENT
?SubWord@AES@@IAEII@Z PROC				; AES::SubWord, COMDAT
; _data$ = ecx

; 230  : //	fips-197	Figure 7
; 231  : static	const	unsigned	char	Sbox[256]={
; 232  : 		0x63,0x7c,0x77,0x7b,0xf2,0x6b,0x6f,0xc5,0x30,0x01,0x67,0x2b,0xfe,0xd7,0xab,0x76,
; 233  : 		0xca,0x82,0xc9,0x7d,0xfa,0x59,0x47,0xf0,0xad,0xd4,0xa2,0xaf,0x9c,0xa4,0x72,0xc0,
; 234  : 		0xb7,0xfd,0x93,0x26,0x36,0x3f,0xf7,0xcc,0x34,0xa5,0xe5,0xf1,0x71,0xd8,0x31,0x15,
; 235  : 		0x04,0xc7,0x23,0xc3,0x18,0x96,0x05,0x9a,0x07,0x12,0x80,0xe2,0xeb,0x27,0xb2,0x75,
; 236  : 		0x09,0x83,0x2c,0x1a,0x1b,0x6e,0x5a,0xa0,0x52,0x3b,0xd6,0xb3,0x29,0xe3,0x2f,0x84,
; 237  : 		0x53,0xd1,0x00,0xed,0x20,0xfc,0xb1,0x5b,0x6a,0xcb,0xbe,0x39,0x4a,0x4c,0x58,0xcf,
; 238  : 		0xd0,0xef,0xaa,0xfb,0x43,0x4d,0x33,0x85,0x45,0xf9,0x02,0x7f,0x50,0x3c,0x9f,0xa8,
; 239  : 		0x51,0xa3,0x40,0x8f,0x92,0x9d,0x38,0xf5,0xbc,0xb6,0xda,0x21,0x10,0xff,0xf3,0xd2,
; 240  : 		0xcd,0x0c,0x13,0xec,0x5f,0x97,0x44,0x17,0xc4,0xa7,0x7e,0x3d,0x64,0x5d,0x19,0x73,
; 241  : 		0x60,0x81,0x4f,0xdc,0x22,0x2a,0x90,0x88,0x46,0xee,0xb8,0x14,0xde,0x5e,0x0b,0xdb,
; 242  : 		0xe0,0x32,0x3a,0x0a,0x49,0x06,0x24,0x5c,0xc2,0xd3,0xac,0x62,0x91,0x95,0xe4,0x79,
; 243  : 		0xe7,0xc8,0x37,0x6d,0x8d,0xd5,0x4e,0xa9,0x6c,0x56,0xf4,0xea,0x65,0x7a,0xae,0x08,
; 244  : 		0xba,0x78,0x25,0x2e,0x1c,0xa6,0xb4,0xc6,0xe8,0xdd,0x74,0x1f,0x4b,0xbd,0x8b,0x8a,
; 245  : 		0x70,0x3e,0xb5,0x66,0x48,0x03,0xf6,0x0e,0x61,0x35,0x57,0xb9,0x86,0xc1,0x1d,0x9e,
; 246  : 		0xe1,0xf8,0x98,0x11,0x69,0xd9,0x8e,0x94,0x9b,0x1e,0x87,0xe9,0xce,0x55,0x28,0xdf,
; 247  : 		0x8c,0xa1,0x89,0x0d,0xbf,0xe6,0x42,0x68,0x41,0x99,0x2d,0x0f,0xb0,0x54,0xbb,0x16
; 248  : 	};
; 249  : 
; 250  : 	//ÉeÅ[ÉuÉãïœä∑Ç…ä÷Ç∑ÇÈSIMDñΩóﬂÇÕñ≥Ç¢ÅH
; 251  : 	unsigned	char	a0	= Sbox[(data    ) & 0xFF];
; 252  : 	unsigned	char	a1	= Sbox[(data>>8 ) & 0xFF];
; 253  : 	unsigned	char	a2	= Sbox[(data>>16) & 0xFF];
; 254  : 	unsigned	char	a3	= Sbox[(data>>24)];
; 255  : 
; 256  : 	return(a0 | a1<<8 | a2<<16 | a3<<24);

  00000	8b c1		 mov	 eax, ecx
  00002	c1 e8 10	 shr	 eax, 16			; 00000010H
  00005	8b d1		 mov	 edx, ecx
  00007	c1 ea 18	 shr	 edx, 24			; 00000018H
  0000a	0f b6 92 00 00
	00 00		 movzx	 edx, BYTE PTR ?Sbox@?1??SubWord@AES@@IAEII@Z@4QBEB[edx]
  00011	25 ff 00 00 00	 and	 eax, 255		; 000000ffH
  00016	0f b6 80 00 00
	00 00		 movzx	 eax, BYTE PTR ?Sbox@?1??SubWord@AES@@IAEII@Z@4QBEB[eax]
  0001d	c1 e2 08	 shl	 edx, 8
  00020	0b c2		 or	 eax, edx
  00022	8b d1		 mov	 edx, ecx
  00024	c1 ea 08	 shr	 edx, 8
  00027	81 e2 ff 00 00
	00		 and	 edx, 255		; 000000ffH
  0002d	0f b6 92 00 00
	00 00		 movzx	 edx, BYTE PTR ?Sbox@?1??SubWord@AES@@IAEII@Z@4QBEB[edx]
  00034	c1 e0 08	 shl	 eax, 8
  00037	81 e1 ff 00 00
	00		 and	 ecx, 255		; 000000ffH
  0003d	0f b6 89 00 00
	00 00		 movzx	 ecx, BYTE PTR ?Sbox@?1??SubWord@AES@@IAEII@Z@4QBEB[ecx]
  00044	0b c2		 or	 eax, edx
  00046	c1 e0 08	 shl	 eax, 8
  00049	0b c1		 or	 eax, ecx

; 257  : }

  0004b	c3		 ret	 0
?SubWord@AES@@IAEII@Z ENDP				; AES::SubWord
_TEXT	ENDS
PUBLIC	?RotWord@AES@@IAEII@Z				; AES::RotWord
; Function compile flags: /Ogtpy
;	COMDAT ?RotWord@AES@@IAEII@Z
_TEXT	SEGMENT
?RotWord@AES@@IAEII@Z PROC				; AES::RotWord, COMDAT
; _data$ = eax

; 218  : 	return( (data>>8) | (data<<24) );		//Ç¬Ç‹ÇË	ror data,8

  00000	c1 c8 08	 ror	 eax, 8

; 219  : }

  00003	c3		 ret	 0
?RotWord@AES@@IAEII@Z ENDP				; AES::RotWord
; Function compile flags: /Ogtpy
_TEXT	ENDS
;	COMDAT ?decrypt_ecb@AES@@UAEXPAX@Z
_TEXT	SEGMENT
_data$ = 8						; size = 4
?decrypt_ecb@AES@@UAEXPAX@Z PROC			; AES::decrypt_ecb, COMDAT
; _this$ = ecx

; 76   : {

  00000	55		 push	 ebp
  00001	8b ec		 mov	 ebp, esp
  00003	83 e4 f0	 and	 esp, -16		; fffffff0H
  00006	83 ec 0c	 sub	 esp, 12			; 0000000cH
  00009	8b c1		 mov	 eax, ecx

; 77   : 	_mm_store_si128((__m128i*)data, InvCipher(_mm_load_si128((__m128i*)data)));

  0000b	80 b8 a2 01 00
	00 00		 cmp	 BYTE PTR [eax+418], 0
  00012	8a 88 a1 01 00
	00		 mov	 cl, BYTE PTR [eax+417]
  00018	56		 push	 esi
  00019	8b 75 08	 mov	 esi, DWORD PTR _data$[ebp]
  0001c	66 0f 6f 06	 movdqa	 xmm0, XMMWORD PTR [esi]
  00020	8d 90 b0 00 00
	00		 lea	 edx, DWORD PTR [eax+176]
  00026	75 10		 jne	 SHORT $LN4@decrypt_ec
  00028	e8 00 00 00 00	 call	 @AES_SSE_InvCipher@24
  0002d	66 0f 7f 06	 movdqa	 XMMWORD PTR [esi], xmm0

; 78   : }

  00031	5e		 pop	 esi
  00032	8b e5		 mov	 esp, ebp
  00034	5d		 pop	 ebp
  00035	c2 04 00	 ret	 4

; 77   : 	_mm_store_si128((__m128i*)data, InvCipher(_mm_load_si128((__m128i*)data)));

$LN4@decrypt_ec:
  00038	e8 00 00 00 00	 call	 @AES_NI_InvCipher@24
  0003d	66 0f 7f 06	 movdqa	 XMMWORD PTR [esi], xmm0

; 78   : }

  00041	5e		 pop	 esi
  00042	8b e5		 mov	 esp, ebp
  00044	5d		 pop	 ebp
  00045	c2 04 00	 ret	 4
?decrypt_ecb@AES@@UAEXPAX@Z ENDP			; AES::decrypt_ecb
; Function compile flags: /Ogtpy
_TEXT	ENDS
;	COMDAT ?encrypt_ecb@AES@@UAEXPAX@Z
_TEXT	SEGMENT
_data$ = 8						; size = 4
?encrypt_ecb@AES@@UAEXPAX@Z PROC			; AES::encrypt_ecb, COMDAT
; _this$ = ecx

; 64   : {

  00000	55		 push	 ebp
  00001	8b ec		 mov	 ebp, esp
  00003	83 e4 f0	 and	 esp, -16		; fffffff0H
  00006	83 ec 0c	 sub	 esp, 12			; 0000000cH
  00009	8b c1		 mov	 eax, ecx

; 65   : 	_mm_store_si128((__m128i*)data, Cipher(_mm_load_si128((__m128i*)data)));

  0000b	80 b8 a2 01 00
	00 00		 cmp	 BYTE PTR [eax+418], 0
  00012	8a 88 a1 01 00
	00		 mov	 cl, BYTE PTR [eax+417]
  00018	56		 push	 esi
  00019	8b 75 08	 mov	 esi, DWORD PTR _data$[ebp]
  0001c	66 0f 6f 06	 movdqa	 xmm0, XMMWORD PTR [esi]
  00020	8d 90 b0 00 00
	00		 lea	 edx, DWORD PTR [eax+176]
  00026	75 10		 jne	 SHORT $LN4@encrypt_ec
  00028	e8 00 00 00 00	 call	 @AES_SSE_Cipher@24
  0002d	66 0f 7f 06	 movdqa	 XMMWORD PTR [esi], xmm0

; 66   : }

  00031	5e		 pop	 esi
  00032	8b e5		 mov	 esp, ebp
  00034	5d		 pop	 ebp
  00035	c2 04 00	 ret	 4

; 65   : 	_mm_store_si128((__m128i*)data, Cipher(_mm_load_si128((__m128i*)data)));

$LN4@encrypt_ec:
  00038	e8 00 00 00 00	 call	 @AES_NI_Cipher@24
  0003d	66 0f 7f 06	 movdqa	 XMMWORD PTR [esi], xmm0

; 66   : }

  00041	5e		 pop	 esi
  00042	8b e5		 mov	 esp, ebp
  00044	5d		 pop	 ebp
  00045	c2 04 00	 ret	 4
?encrypt_ecb@AES@@UAEXPAX@Z ENDP			; AES::encrypt_ecb
; Function compile flags: /Ogtpy
_TEXT	ENDS
;	COMDAT ?Clear_Key@AES@@UAEXXZ
_TEXT	SEGMENT
?Clear_Key@AES@@UAEXXZ PROC				; AES::Clear_Key, COMDAT
; _this$ = ecx

; 45   : {

  00000	55		 push	 ebp
  00001	8b ec		 mov	 ebp, esp
  00003	83 e4 f0	 and	 esp, -16		; fffffff0H

; 46   : 	__m128i	_mm_zero	=	_mm_setzero_si128();
; 47   : 	int	i=0;
; 48   : 
; 49   : 	do{
; 50   : 		_mm_store_si128((__m128i*)&w[i], _mm_zero);

  00006	8d 81 b0 00 00
	00		 lea	 eax, DWORD PTR [ecx+176]
  0000c	66 0f ef c0	 pxor	 xmm0, xmm0

; 51   : 	
; 52   : 		i += 4;
; 53   : 	} while (i < 60);

  00010	b9 0f 00 00 00	 mov	 ecx, 15			; 0000000fH
$LL3@Clear_Key:
  00015	66 0f 7f 00	 movdqa	 XMMWORD PTR [eax], xmm0
  00019	83 c0 10	 add	 eax, 16			; 00000010H
  0001c	83 e9 01	 sub	 ecx, 1
  0001f	75 f4		 jne	 SHORT $LL3@Clear_Key

; 54   : }

  00021	8b e5		 mov	 esp, ebp
  00023	5d		 pop	 ebp
  00024	c3		 ret	 0
?Clear_Key@AES@@UAEXXZ ENDP				; AES::Clear_Key
PUBLIC	??1AES@@QAE@XZ					; AES::~AES
; Function compile flags: /Ogtpy
;	COMDAT ??1AES@@QAE@XZ
_TEXT	SEGMENT
??1AES@@QAE@XZ PROC					; AES::~AES, COMDAT
; _this$ = esi

; 33   : {

  00000	57		 push	 edi

; 34   : }

  00001	8d 7e 44	 lea	 edi, DWORD PTR [esi+68]
  00004	c7 06 00 00 00
	00		 mov	 DWORD PTR [esi], OFFSET ??_7AlgorithmIdentifier@@6B@
  0000a	c7 07 00 00 00
	00		 mov	 DWORD PTR [edi], OFFSET ??_7ObjectIdentifier@@6B@
  00010	8b 47 50	 mov	 eax, DWORD PTR [edi+80]
  00013	85 c0		 test	 eax, eax
  00015	74 09		 je	 SHORT $LN16@AES
  00017	50		 push	 eax
  00018	e8 00 00 00 00	 call	 ??3@YAXPAX@Z		; operator delete
  0001d	83 c4 04	 add	 esp, 4
$LN16@AES:
  00020	8b 47 44	 mov	 eax, DWORD PTR [edi+68]
  00023	50		 push	 eax
  00024	c7 47 50 00 00
	00 00		 mov	 DWORD PTR [edi+80], 0
  0002b	c7 47 54 00 00
	00 00		 mov	 DWORD PTR [edi+84], 0
  00032	c7 47 58 00 00
	00 00		 mov	 DWORD PTR [edi+88], 0
  00039	e8 00 00 00 00	 call	 ??3@YAXPAX@Z		; operator delete
  0003e	83 c4 04	 add	 esp, 4
  00041	e8 00 00 00 00	 call	 ??1ASN1@@QAE@XZ		; ASN1::~ASN1
  00046	8b fe		 mov	 edi, esi
  00048	c7 06 00 00 00
	00		 mov	 DWORD PTR [esi], OFFSET ??_7Sequence@@6B@
  0004e	e8 00 00 00 00	 call	 ??1ASN1@@QAE@XZ		; ASN1::~ASN1
  00053	5f		 pop	 edi
  00054	c3		 ret	 0
??1AES@@QAE@XZ ENDP					; AES::~AES
PUBLIC	??0AES@@QAE@QBD@Z				; AES::AES
; Function compile flags: /Ogtpy
;	COMDAT ??0AES@@QAE@QBD@Z
_TEXT	SEGMENT
??0AES@@QAE@QBD@Z PROC					; AES::AES, COMDAT
; _this$ = esi
; __strName$ = eax

; 14   : {

  00000	53		 push	 ebx
  00001	50		 push	 eax
  00002	56		 push	 esi
  00003	e8 00 00 00 00	 call	 ??0AlgorithmIdentifier@@QAE@QBD@Z ; AlgorithmIdentifier::AlgorithmIdentifier
  00008	c7 06 00 00 00
	00		 mov	 DWORD PTR [esi], OFFSET ??_7AES@@6B@

; 15   : 	szBlock	= AES_BlockSize;

  0000e	c7 86 a0 00 00
	00 10 00 00 00	 mov	 DWORD PTR [esi+160], 16	; 00000010H

; 16   : 
; 17   : 	if(ChkSIMD()==2){

  00018	53		 push	 ebx
  00019	51		 push	 ecx
  0001a	52		 push	 edx
  0001b	b8 01 00 00 00	 mov	 eax, 1
  00020	0f a2		 cpuid
  00022	f7 c1 00 00 00
	02		 test	 ecx, 33554432		; 02000000H
  00028	75 16		 jne	 SHORT $ChkSIMD_AESNI$94231
  0002a	f7 c2 00 00 00
	04		 test	 edx, 67108864		; 04000000H
  00030	75 07		 jne	 SHORT $ChkSIMD_SSE2$94232
  00032	b8 00 00 00 00	 mov	 eax, 0
  00037	eb 0c		 jmp	 SHORT $ChkSIMD_END$94233
$ChkSIMD_SSE2$94232:
  00039	b8 01 00 00 00	 mov	 eax, 1
  0003e	eb 05		 jmp	 SHORT $ChkSIMD_END$94233
$ChkSIMD_AESNI$94231:
  00040	b8 02 00 00 00	 mov	 eax, 2
$ChkSIMD_END$94233:
  00045	5a		 pop	 edx
  00046	59		 pop	 ecx
  00047	5b		 pop	 ebx
  00048	83 f8 02	 cmp	 eax, 2
  0004b	0f 94 c1	 sete	 cl
  0004e	88 8e a2 01 00
	00		 mov	 BYTE PTR [esi+418], cl

; 18   : 		aesni = true;
; 19   : 	} else {
; 20   : 		aesni = false;
; 21   : 	}
; 22   : }

  00054	8b c6		 mov	 eax, esi
  00056	5b		 pop	 ebx
  00057	c3		 ret	 0
??0AES@@QAE@QBD@Z ENDP					; AES::AES
PUBLIC	?KeyExpansion@AES@@IAEXPAE@Z			; AES::KeyExpansion
; Function compile flags: /Ogtpy
;	COMDAT ?KeyExpansion@AES@@IAEXPAE@Z
_TEXT	SEGMENT
tv543 = -8						; size = 4
tv409 = -4						; size = 4
?KeyExpansion@AES@@IAEXPAE@Z PROC			; AES::KeyExpansion, COMDAT
; _this$ = ecx
; _key$ = edx

; 130  : {

  00000	55		 push	 ebp
  00001	8b ec		 mov	 ebp, esp
  00003	83 e4 f0	 and	 esp, -16		; fffffff0H

; 131  : 
; 132  : 	//The round constant word array.
; 133  : 	static	const	unsigned	int	Rcon[10]={0x01,0x02,0x04,0x08,0x10,0x20,0x40,0x80,0x1b,0x36};
; 134  : 
; 135  : 	unsigned	int	i;
; 136  : 				int	iR;
; 137  : 				int	iRm;
; 138  : 				int	temp;
; 139  : 
; 140  : //	Nk	= cNk;
; 141  : 	Nr	= Nk + 6;

  00006	8a 81 a0 01 00
	00		 mov	 al, BYTE PTR [ecx+416]
  0000c	83 ec 14	 sub	 esp, 20			; 00000014H
  0000f	53		 push	 ebx
  00010	8a d8		 mov	 bl, al
  00012	80 c3 06	 add	 bl, 6

; 142  : 
; 143  : 	if(aesni == false){

  00015	80 b9 a2 01 00
	00 00		 cmp	 BYTE PTR [ecx+418], 0
  0001c	56		 push	 esi
  0001d	57		 push	 edi
  0001e	88 99 a1 01 00
	00		 mov	 BYTE PTR [ecx+417], bl
  00024	0f 85 4c 01 00
	00		 jne	 $LN17@KeyExpansi@2

; 144  : 
; 145  : 		//------------------
; 146  : 		// í èÌ
; 147  : 
; 148  : 		i	= 0;

  0002a	33 c0		 xor	 eax, eax
  0002c	8d b1 b0 00 00
	00		 lea	 esi, DWORD PTR [ecx+176]
  00032	eb 0c 8d a4 24
	00 00 00 00 eb
	03 8d 49 00	 npad	 14
$LL16@KeyExpansi@2:

; 149  : 		//çÇë¨ÉÅÉÇÉäÉRÉsÅ[
; 150  : 		do{
; 151  : 			_mm_storel_epi64((__m128i*)&w[i], _mm_loadl_epi64((__m128i*)&key[i*4]));

  00040	f3 0f 7e 04 82	 movq	 xmm0, QWORD PTR [edx+eax*4]
  00045	66 0f d6 06	 movq	 QWORD PTR [esi], xmm0

; 152  : 			i++;
; 153  : 			i++;
; 154  : 		} while (i < Nk);

  00049	0f b6 b9 a0 01
	00 00		 movzx	 edi, BYTE PTR [ecx+416]
  00050	83 c0 02	 add	 eax, 2
  00053	83 c6 08	 add	 esi, 8
  00056	3b c7		 cmp	 eax, edi
  00058	72 e6		 jb	 SHORT $LL16@KeyExpansi@2

; 155  : 
; 156  : 		i		= Nk;

  0005a	0f b6 b9 a0 01
	00 00		 movzx	 edi, BYTE PTR [ecx+416]

; 157  : 		temp	= w[i-1];

  00061	8b b4 b9 ac 00
	00 00		 mov	 esi, DWORD PTR [ecx+edi*4+172]
  00068	8d 84 b9 b0 00
	00 00		 lea	 eax, DWORD PTR [ecx+edi*4+176]
  0006f	89 44 24 18	 mov	 DWORD PTR tv543[esp+32], eax
$LL13@KeyExpansi@2:

; 158  : 		do{
; 159  : 			iR	= i/Nk;
; 160  : 			iRm	= i%Nk;		//äÑÇËéZñΩóﬂÇÇQÇ¬ìfÇ≠ÇÃÇÕñ‹ëÃñ≥Ç¢ÅB

  00073	0f b6 99 a0 01
	00 00		 movzx	 ebx, BYTE PTR [ecx+416]
  0007a	33 d2		 xor	 edx, edx
  0007c	8b c7		 mov	 eax, edi
  0007e	f7 f3		 div	 ebx
  00080	89 44 24 1c	 mov	 DWORD PTR tv409[esp+32], eax

; 161  : 
; 162  : 			if(iRm==0){

  00084	85 d2		 test	 edx, edx
  00086	75 5c		 jne	 SHORT $LN10@KeyExpansi@2

; 163  : 				temp = SubWord(RotWord(temp)) ^ Rcon[(iR)-1];

  00088	8b d6		 mov	 edx, esi
  0008a	c1 ca 08	 ror	 edx, 8
  0008d	8b c2		 mov	 eax, edx
  0008f	c1 e8 10	 shr	 eax, 16			; 00000010H
  00092	25 ff 00 00 00	 and	 eax, 255		; 000000ffH
  00097	0f b6 b0 00 00
	00 00		 movzx	 esi, BYTE PTR ?Sbox@?1??SubWord@AES@@IAEII@Z@4QBEB[eax]
  0009e	8b c2		 mov	 eax, edx
  000a0	c1 e8 18	 shr	 eax, 24			; 00000018H
  000a3	0f b6 80 00 00
	00 00		 movzx	 eax, BYTE PTR ?Sbox@?1??SubWord@AES@@IAEII@Z@4QBEB[eax]
  000aa	c1 e0 08	 shl	 eax, 8
  000ad	0b f0		 or	 esi, eax
  000af	8b c2		 mov	 eax, edx
  000b1	c1 e8 08	 shr	 eax, 8
  000b4	25 ff 00 00 00	 and	 eax, 255		; 000000ffH
  000b9	0f b6 80 00 00
	00 00		 movzx	 eax, BYTE PTR ?Sbox@?1??SubWord@AES@@IAEII@Z@4QBEB[eax]
  000c0	c1 e6 08	 shl	 esi, 8
  000c3	0b f0		 or	 esi, eax
  000c5	8b 44 24 1c	 mov	 eax, DWORD PTR tv409[esp+32]
  000c9	81 e2 ff 00 00
	00		 and	 edx, 255		; 000000ffH
  000cf	0f b6 92 00 00
	00 00		 movzx	 edx, BYTE PTR ?Sbox@?1??SubWord@AES@@IAEII@Z@4QBEB[edx]
  000d6	c1 e6 08	 shl	 esi, 8
  000d9	0b f2		 or	 esi, edx
  000db	33 34 85 fc ff
	ff ff		 xor	 esi, DWORD PTR ?Rcon@?1??KeyExpansion@AES@@IAEXPAE@Z@4QBIB[eax*4-4]
  000e2	eb 5c		 jmp	 SHORT $LN8@KeyExpansi@2
$LN10@KeyExpansi@2:

; 164  : 			} else if((Nk > 6) && ( (i%Nk) == 4)){

  000e4	80 b9 a0 01 00
	00 06		 cmp	 BYTE PTR [ecx+416], 6
  000eb	76 53		 jbe	 SHORT $LN8@KeyExpansi@2
  000ed	83 fa 04	 cmp	 edx, 4
  000f0	75 4e		 jne	 SHORT $LN8@KeyExpansi@2

; 165  : 				temp = SubWord(temp);

  000f2	8b d6		 mov	 edx, esi
  000f4	c1 ea 10	 shr	 edx, 16			; 00000010H
  000f7	81 e2 ff 00 00
	00		 and	 edx, 255		; 000000ffH
  000fd	0f b6 82 00 00
	00 00		 movzx	 eax, BYTE PTR ?Sbox@?1??SubWord@AES@@IAEII@Z@4QBEB[edx]
  00104	8b d6		 mov	 edx, esi
  00106	c1 ea 18	 shr	 edx, 24			; 00000018H
  00109	0f b6 92 00 00
	00 00		 movzx	 edx, BYTE PTR ?Sbox@?1??SubWord@AES@@IAEII@Z@4QBEB[edx]
  00110	c1 e2 08	 shl	 edx, 8
  00113	0b c2		 or	 eax, edx
  00115	8b d6		 mov	 edx, esi
  00117	c1 ea 08	 shr	 edx, 8
  0011a	81 e2 ff 00 00
	00		 and	 edx, 255		; 000000ffH
  00120	0f b6 92 00 00
	00 00		 movzx	 edx, BYTE PTR ?Sbox@?1??SubWord@AES@@IAEII@Z@4QBEB[edx]
  00127	c1 e0 08	 shl	 eax, 8
  0012a	81 e6 ff 00 00
	00		 and	 esi, 255		; 000000ffH
  00130	0b c2		 or	 eax, edx
  00132	0f b6 96 00 00
	00 00		 movzx	 edx, BYTE PTR ?Sbox@?1??SubWord@AES@@IAEII@Z@4QBEB[esi]
  00139	c1 e0 08	 shl	 eax, 8
  0013c	0b c2		 or	 eax, edx
  0013e	8b f0		 mov	 esi, eax
$LN8@KeyExpansi@2:

; 166  : 			}
; 167  : 			temp	^= w[i-Nk];

  00140	8b c7		 mov	 eax, edi
  00142	2b c3		 sub	 eax, ebx
  00144	33 b4 81 b0 00
	00 00		 xor	 esi, DWORD PTR [ecx+eax*4+176]

; 168  : 			w[i]	 = temp;

  0014b	8b 44 24 18	 mov	 eax, DWORD PTR tv543[esp+32]
  0014f	89 30		 mov	 DWORD PTR [eax], esi

; 169  : 
; 170  : 			i++;
; 171  : 
; 172  : 		} while (i < (unsigned int)AES_Nb * (Nr+1));

  00151	0f b6 91 a1 01
	00 00		 movzx	 edx, BYTE PTR [ecx+417]
  00158	83 c0 04	 add	 eax, 4
  0015b	89 44 24 18	 mov	 DWORD PTR tv543[esp+32], eax
  0015f	47		 inc	 edi
  00160	8d 04 95 04 00
	00 00		 lea	 eax, DWORD PTR [edx*4+4]
  00167	3b f8		 cmp	 edi, eax
  00169	0f 82 04 ff ff
	ff		 jb	 $LL13@KeyExpansi@2

; 192  : 				break;
; 193  : 		}
; 194  : 	}
; 195  : 
; 196  : #ifdef	_DEBUG
; 197  : 	i = 0;
; 198  : 	printf("AES::KeyExpansion:\n");
; 199  : 	do{
; 200  : 		printf("w[%d]=",i);
; 201  : 		dataPrint(4, &w[i]);
; 202  : 		i++;
; 203  : 	} while (i < (unsigned int)AES_Nb * (Nr+1));
; 204  : 
; 205  : #endif
; 206  : 
; 207  : }

  0016f	5f		 pop	 edi
  00170	5e		 pop	 esi
  00171	5b		 pop	 ebx
  00172	8b e5		 mov	 esp, ebp
  00174	5d		 pop	 ebp
  00175	c3		 ret	 0
$LN17@KeyExpansi@2:

; 173  : 
; 174  : 	} else {
; 175  : 
; 176  : 		//------------------
; 177  : 		// AES-NI
; 178  : 
; 179  : 		switch(Nk){

  00176	0f b6 c0	 movzx	 eax, al
  00179	83 e8 04	 sub	 eax, 4
  0017c	74 4d		 je	 SHORT $LN4@KeyExpansi@2
  0017e	83 e8 02	 sub	 eax, 2
  00181	74 36		 je	 SHORT $LN3@KeyExpansi@2
  00183	83 e8 02	 sub	 eax, 2
  00186	74 1f		 je	 SHORT $LN2@KeyExpansi@2

; 188  : 				break;
; 189  : 			default:
; 190  : 				cerr << "Error AES::KeyExpansion function on AES.cpp" << endl;

  00188	68 00 00 00 00	 push	 OFFSET ??_C@_0CM@EEEDCBIP@Error?5AES?3?3KeyExpansion?5function@
  0018d	68 00 00 00 00	 push	 OFFSET ?cerr@std@@3V?$basic_ostream@DU?$char_traits@D@std@@@1@A ; std::cerr
  00192	e8 00 00 00 00	 call	 ??$?6U?$char_traits@D@std@@@std@@YAAAV?$basic_ostream@DU?$char_traits@D@std@@@0@AAV10@PBD@Z ; std::operator<<<std::char_traits<char> >
  00197	50		 push	 eax
  00198	e8 00 00 00 00	 call	 ?endl@std@@YAAAV?$basic_ostream@DU?$char_traits@D@std@@@1@AAV21@@Z ; std::endl
  0019d	83 c4 0c	 add	 esp, 12			; 0000000cH

; 191  : 				exit(-1);

  001a0	6a ff		 push	 -1
  001a2	e8 00 00 00 00	 call	 _exit
$LN32@KeyExpansi@2:
$LN2@KeyExpansi@2:

; 185  : 				break;
; 186  : 			case(8):
; 187  : 				AES_NI_KeyExpansion256(w,key);				

  001a7	81 c1 b0 00 00
	00		 add	 ecx, 176		; 000000b0H
  001ad	e8 00 00 00 00	 call	 @AES_NI_KeyExpansion256@8

; 192  : 				break;
; 193  : 		}
; 194  : 	}
; 195  : 
; 196  : #ifdef	_DEBUG
; 197  : 	i = 0;
; 198  : 	printf("AES::KeyExpansion:\n");
; 199  : 	do{
; 200  : 		printf("w[%d]=",i);
; 201  : 		dataPrint(4, &w[i]);
; 202  : 		i++;
; 203  : 	} while (i < (unsigned int)AES_Nb * (Nr+1));
; 204  : 
; 205  : #endif
; 206  : 
; 207  : }

  001b2	5f		 pop	 edi
  001b3	5e		 pop	 esi
  001b4	5b		 pop	 ebx
  001b5	8b e5		 mov	 esp, ebp
  001b7	5d		 pop	 ebp
  001b8	c3		 ret	 0
$LN3@KeyExpansi@2:

; 182  : 				break;
; 183  : 			case(6):
; 184  : 				AES_NI_KeyExpansion192(w,key);				

  001b9	81 c1 b0 00 00
	00		 add	 ecx, 176		; 000000b0H
  001bf	e8 00 00 00 00	 call	 @AES_NI_KeyExpansion192@8

; 192  : 				break;
; 193  : 		}
; 194  : 	}
; 195  : 
; 196  : #ifdef	_DEBUG
; 197  : 	i = 0;
; 198  : 	printf("AES::KeyExpansion:\n");
; 199  : 	do{
; 200  : 		printf("w[%d]=",i);
; 201  : 		dataPrint(4, &w[i]);
; 202  : 		i++;
; 203  : 	} while (i < (unsigned int)AES_Nb * (Nr+1));
; 204  : 
; 205  : #endif
; 206  : 
; 207  : }

  001c4	5f		 pop	 edi
  001c5	5e		 pop	 esi
  001c6	5b		 pop	 ebx
  001c7	8b e5		 mov	 esp, ebp
  001c9	5d		 pop	 ebp
  001ca	c3		 ret	 0
$LN4@KeyExpansi@2:

; 180  : 			case(4):
; 181  : 				AES_NI_KeyExpansion128(w,key);

  001cb	81 c1 b0 00 00
	00		 add	 ecx, 176		; 000000b0H
  001d1	e8 00 00 00 00	 call	 @AES_NI_KeyExpansion128@8

; 192  : 				break;
; 193  : 		}
; 194  : 	}
; 195  : 
; 196  : #ifdef	_DEBUG
; 197  : 	i = 0;
; 198  : 	printf("AES::KeyExpansion:\n");
; 199  : 	do{
; 200  : 		printf("w[%d]=",i);
; 201  : 		dataPrint(4, &w[i]);
; 202  : 		i++;
; 203  : 	} while (i < (unsigned int)AES_Nb * (Nr+1));
; 204  : 
; 205  : #endif
; 206  : 
; 207  : }

  001d6	5f		 pop	 edi
  001d7	5e		 pop	 esi
  001d8	5b		 pop	 ebx
  001d9	8b e5		 mov	 esp, ebp
  001db	5d		 pop	 ebp
  001dc	c3		 ret	 0
$LN31@KeyExpansi@2:
?KeyExpansion@AES@@IAEXPAE@Z ENDP			; AES::KeyExpansion
; Function compile flags: /Ogtpy
; File i:\ìnïîìƒéj\my project\cms\cms\asn1\algorithm\aes.h
;	COMDAT ?Set_Key@AES@@UAEXPAX@Z
_TEXT	SEGMENT
_key$ = 8						; size = 4
?Set_Key@AES@@UAEXPAX@Z PROC				; AES::Set_Key, COMDAT
; _this$ = ecx

; 108  : 			void	Set_Key(void *key){KeyExpansion((unsigned char *)key);};		//à√çÜåÆ ê›íË

  00000	8b 54 24 04	 mov	 edx, DWORD PTR _key$[esp-4]
  00004	e8 00 00 00 00	 call	 ?KeyExpansion@AES@@IAEXPAE@Z ; AES::KeyExpansion
  00009	c2 04 00	 ret	 4
?Set_Key@AES@@UAEXPAX@Z ENDP				; AES::Set_Key
END
