; Listing generated by Microsoft (R) Optimizing Compiler Version 15.00.30729.01 

	TITLE	i:\?n????j\My Project\CMS\CMS\ASN1\ASN1.cpp
	.686P
	.XMM
	include listing.inc
	.model	flat

INCLUDELIB OLDNAMES

PUBLIC	??_R4length_error@std@@6B@			; std::length_error::`RTTI Complete Object Locator'
PUBLIC	??_R3length_error@std@@8			; std::length_error::`RTTI Class Hierarchy Descriptor'
PUBLIC	??_R2length_error@std@@8			; std::length_error::`RTTI Base Class Array'
PUBLIC	??_R1A@?0A@EA@length_error@std@@8		; std::length_error::`RTTI Base Class Descriptor at (0,-1,0,64)'
PUBLIC	??_R4logic_error@std@@6B@			; std::logic_error::`RTTI Complete Object Locator'
PUBLIC	??_R3logic_error@std@@8				; std::logic_error::`RTTI Class Hierarchy Descriptor'
PUBLIC	??_R2logic_error@std@@8				; std::logic_error::`RTTI Base Class Array'
PUBLIC	??_R1A@?0A@EA@logic_error@std@@8		; std::logic_error::`RTTI Base Class Descriptor at (0,-1,0,64)'
PUBLIC	?Get_BERsize@ASN1@@UAEIXZ			; ASN1::Get_BERsize
PUBLIC	?Get_BERcode@ASN1@@UAEPBDXZ			; ASN1::Get_BERcode
PUBLIC	?encodeBER@ASN1@@UAEXXZ				; ASN1::encodeBER
PUBLIC	??_R4ASN1@@6B@					; ASN1::`RTTI Complete Object Locator'
PUBLIC	??_R3ASN1@@8					; ASN1::`RTTI Class Hierarchy Descriptor'
PUBLIC	??_R2ASN1@@8					; ASN1::`RTTI Base Class Array'
PUBLIC	??_R1A@?0A@EA@ASN1@@8				; ASN1::`RTTI Base Class Descriptor at (0,-1,0,64)'
PUBLIC	??_R0?AVASN1@@@8				; ASN1 `RTTI Type Descriptor'
PUBLIC	__CT??_R0?AVlogic_error@std@@@8??0logic_error@std@@QAE@ABV01@@Z40
PUBLIC	??_R0?AVlogic_error@std@@@8			; std::logic_error `RTTI Type Descriptor'
PUBLIC	??_R0?AVlength_error@std@@@8			; std::length_error `RTTI Type Descriptor'
PUBLIC	??_C@_0DE@DCBJDNPH@Part?5of?5the?5constructed?5data?5inc@ ; `string'
PUBLIC	??_C@_0CC@JEFJODCE@Context?5include?5ASN?41?5and?5Binary@ ; `string'
PUBLIC	??0?$allocator@PAVASN1@@@std@@QAE@XZ		; std::allocator<ASN1 *>::allocator<ASN1 *>
PUBLIC	??2@YAPAXIPAX@Z					; operator new
PUBLIC	??3@YAXPAX0@Z					; operator delete
PUBLIC	??0_Aux_cont@std@@QAE@QBV_Container_base_aux@1@@Z ; std::_Aux_cont::_Aux_cont
PUBLIC	??0_Container_base_aux@std@@QAE@XZ		; std::_Container_base_aux::_Container_base_aux
PUBLIC	??$_Allocate@V_Aux_cont@std@@@std@@YAPAV_Aux_cont@0@IPAV10@@Z ; std::_Allocate<std::_Aux_cont>
PUBLIC	?allocate@?$allocator@V_Aux_cont@std@@@std@@QAEPAV_Aux_cont@2@I@Z ; std::allocator<std::_Aux_cont>::allocate
PUBLIC	??$?0PAVASN1@@@?$allocator@V_Aux_cont@std@@@std@@QAE@ABV?$allocator@PAVASN1@@@1@@Z ; std::allocator<std::_Aux_cont>::allocator<std::_Aux_cont><ASN1 *>
PUBLIC	??0?$_Container_base_aux_alloc_real@V?$allocator@PAVASN1@@@std@@@std@@IAE@V?$allocator@PAVASN1@@@1@@Z ; std::_Container_base_aux_alloc_real<std::allocator<ASN1 *> >::_Container_base_aux_alloc_real<std::allocator<ASN1 *> >
PUBLIC	??0?$allocator@PAVASN1@@@std@@QAE@ABV01@@Z	; std::allocator<ASN1 *>::allocator<ASN1 *>
PUBLIC	??0?$_Vector_val@PAVASN1@@V?$allocator@PAVASN1@@@std@@@std@@IAE@V?$allocator@PAVASN1@@@1@@Z ; std::_Vector_val<ASN1 *,std::allocator<ASN1 *> >::_Vector_val<ASN1 *,std::allocator<ASN1 *> >
PUBLIC	?_Buy@?$vector@PAVASN1@@V?$allocator@PAVASN1@@@std@@@std@@IAE_NI@Z ; std::vector<ASN1 *,std::allocator<ASN1 *> >::_Buy
PUBLIC	??0?$vector@PAVASN1@@V?$allocator@PAVASN1@@@std@@@std@@QAE@XZ ; std::vector<ASN1 *,std::allocator<ASN1 *> >::vector<ASN1 *,std::allocator<ASN1 *> >
PUBLIC	??1_Container_base_aux@std@@QAE@XZ		; std::_Container_base_aux::~_Container_base_aux
PUBLIC	?deallocate@?$allocator@V_Aux_cont@std@@@std@@QAEXPAV_Aux_cont@2@I@Z ; std::allocator<std::_Aux_cont>::deallocate
PUBLIC	??1?$_Container_base_aux_alloc_real@V?$allocator@PAVASN1@@@std@@@std@@IAE@XZ ; std::_Container_base_aux_alloc_real<std::allocator<ASN1 *> >::~_Container_base_aux_alloc_real<std::allocator<ASN1 *> >
PUBLIC	??1?$_Vector_val@PAVASN1@@V?$allocator@PAVASN1@@@std@@@std@@QAE@XZ ; std::_Vector_val<ASN1 *,std::allocator<ASN1 *> >::~_Vector_val<ASN1 *,std::allocator<ASN1 *> >
PUBLIC	?_Tidy@?$vector@PAVASN1@@V?$allocator@PAVASN1@@@std@@@std@@IAEXXZ ; std::vector<ASN1 *,std::allocator<ASN1 *> >::_Tidy
PUBLIC	??1?$vector@PAVASN1@@V?$allocator@PAVASN1@@@std@@@std@@QAE@XZ ; std::vector<ASN1 *,std::allocator<ASN1 *> >::~vector<ASN1 *,std::allocator<ASN1 *> >
PUBLIC	?deallocate@?$allocator@PAVASN1@@@std@@QAEXPAPAVASN1@@I@Z ; std::allocator<ASN1 *>::deallocate
PUBLIC	??$_Allocate@PAVASN1@@@std@@YAPAPAVASN1@@IPAPAV1@@Z ; std::_Allocate<ASN1 *>
PUBLIC	?allocate@?$allocator@PAVASN1@@@std@@QAEPAPAVASN1@@I@Z ; std::allocator<ASN1 *>::allocate
PUBLIC	?capacity@?$vector@PAVASN1@@V?$allocator@PAVASN1@@@std@@@std@@QBEIXZ ; std::vector<ASN1 *,std::allocator<ASN1 *> >::capacity
PUBLIC	?max_size@?$allocator@PAVASN1@@@std@@QBEIXZ	; std::allocator<ASN1 *>::max_size
PUBLIC	?max_size@?$vector@PAVASN1@@V?$allocator@PAVASN1@@@std@@@std@@QBEIXZ ; std::vector<ASN1 *,std::allocator<ASN1 *> >::max_size
PUBLIC	??0logic_error@std@@QAE@ABV?$basic_string@DU?$char_traits@D@std@@V?$allocator@D@2@@1@@Z ; std::logic_error::logic_error
PUBLIC	??0length_error@std@@QAE@ABV?$basic_string@DU?$char_traits@D@std@@V?$allocator@D@2@@1@@Z ; std::length_error::length_error
PUBLIC	??0logic_error@std@@QAE@ABV01@@Z		; std::logic_error::logic_error
PUBLIC	?what@logic_error@std@@UBEPBDXZ			; std::logic_error::what
PUBLIC	??_Glogic_error@std@@UAEPAXI@Z			; std::logic_error::`scalar deleting destructor'
PUBLIC	??1logic_error@std@@UAE@XZ			; std::logic_error::~logic_error
PUBLIC	??1length_error@std@@UAE@XZ			; std::length_error::~length_error
PUBLIC	??_Glength_error@std@@UAEPAXI@Z			; std::length_error::`scalar deleting destructor'
PUBLIC	??0length_error@std@@QAE@ABV01@@Z		; std::length_error::length_error
PUBLIC	?_Xlen@?$vector@PAVASN1@@V?$allocator@PAVASN1@@@std@@@std@@KAXXZ ; std::vector<ASN1 *,std::allocator<ASN1 *> >::_Xlen
PUBLIC	??$_Uninit_copy@PAPAVASN1@@PAPAV1@V?$allocator@PAVASN1@@@std@@@std@@YAPAPAVASN1@@PAPAV1@00AAV?$allocator@PAVASN1@@@0@U_Scalar_ptr_iterator_tag@0@U_Range_checked_iterator_tag@0@@Z ; std::_Uninit_copy<ASN1 * *,ASN1 * *,std::allocator<ASN1 *> >
PUBLIC	??$unchecked_uninitialized_copy@PAPAVASN1@@PAPAV1@V?$allocator@PAVASN1@@@std@@@stdext@@YAPAPAVASN1@@PAPAV1@00AAV?$allocator@PAVASN1@@@std@@@Z ; stdext::unchecked_uninitialized_copy<ASN1 * *,ASN1 * *,std::allocator<ASN1 *> >
PUBLIC	??$_Uninit_move@PAPAVASN1@@PAPAV1@V?$allocator@PAVASN1@@@std@@U_Undefined_move_tag@3@@std@@YAPAPAVASN1@@PAPAV1@00AAV?$allocator@PAVASN1@@@0@U_Undefined_move_tag@0@U_Range_checked_iterator_tag@0@@Z ; std::_Uninit_move<ASN1 * *,ASN1 * *,std::allocator<ASN1 *>,std::_Undefined_move_tag>
PUBLIC	??$_Unchecked_uninitialized_move@PAPAVASN1@@PAPAV1@V?$allocator@PAVASN1@@@std@@@stdext@@YAPAPAVASN1@@PAPAV1@00AAV?$allocator@PAVASN1@@@std@@@Z ; stdext::_Unchecked_uninitialized_move<ASN1 * *,ASN1 * *,std::allocator<ASN1 *> >
PUBLIC	??$_Umove@PAPAVASN1@@@?$vector@PAVASN1@@V?$allocator@PAVASN1@@@std@@@std@@IAEPAPAVASN1@@PAPAV2@00@Z ; std::vector<ASN1 *,std::allocator<ASN1 *> >::_Umove<ASN1 * *>
PUBLIC	??$_Fill@PAPAVASN1@@PAV1@@std@@YAXPAPAVASN1@@0ABQAV1@@Z ; std::_Fill<ASN1 * *,ASN1 *>
PUBLIC	??$fill@PAPAVASN1@@PAV1@@std@@YAXPAPAVASN1@@0ABQAV1@@Z ; std::fill<ASN1 * *,ASN1 *>
PUBLIC	??$_Move_cat@PAPAVASN1@@@std@@YA?AU_Undefined_move_tag@0@ABQAPAVASN1@@@Z ; std::_Move_cat<ASN1 * *>
PUBLIC	??$_Copy_backward_opt@PAPAVASN1@@PAPAV1@Urandom_access_iterator_tag@std@@@std@@YAPAPAVASN1@@PAPAV1@00Urandom_access_iterator_tag@0@U_Scalar_ptr_iterator_tag@0@U_Range_checked_iterator_tag@0@@Z ; std::_Copy_backward_opt<ASN1 * *,ASN1 * *,std::random_access_iterator_tag>
PUBLIC	??$_Move_backward_opt@PAPAVASN1@@PAPAV1@Urandom_access_iterator_tag@std@@U_Undefined_move_tag@3@@std@@YAPAPAVASN1@@PAPAV1@00Urandom_access_iterator_tag@0@U_Undefined_move_tag@0@U_Range_checked_iterator_tag@0@@Z ; std::_Move_backward_opt<ASN1 * *,ASN1 * *,std::random_access_iterator_tag,std::_Undefined_move_tag>
PUBLIC	??$_Unchecked_move_backward@PAPAVASN1@@PAPAV1@@stdext@@YAPAPAVASN1@@PAPAV1@00@Z ; stdext::_Unchecked_move_backward<ASN1 * *,ASN1 * *>
PUBLIC	?_Insert_n@?$vector@PAVASN1@@V?$allocator@PAVASN1@@@std@@@std@@IAEXV?$_Vector_const_iterator@PAVASN1@@V?$allocator@PAVASN1@@@std@@@2@IABQAVASN1@@@Z ; std::vector<ASN1 *,std::allocator<ASN1 *> >::_Insert_n
PUBLIC	??G?$_Vector_const_iterator@PAVASN1@@V?$allocator@PAVASN1@@@std@@@std@@QBEHABV01@@Z ; std::_Vector_const_iterator<ASN1 *,std::allocator<ASN1 *> >::operator-
PUBLIC	?_Getcont@_Aux_cont@std@@QBEPBV_Container_base_aux@2@XZ ; std::_Aux_cont::_Getcont
PUBLIC	?_Getmycont@_Iterator_base_aux@std@@QBEPBV_Container_base_aux@2@XZ ; std::_Iterator_base_aux::_Getmycont
PUBLIC	??Y?$_Vector_const_iterator@PAVASN1@@V?$allocator@PAVASN1@@@std@@@std@@QAEAAV01@H@Z ; std::_Vector_const_iterator<ASN1 *,std::allocator<ASN1 *> >::operator+=
PUBLIC	??Y?$_Vector_iterator@PAVASN1@@V?$allocator@PAVASN1@@@std@@@std@@QAEAAV01@H@Z ; std::_Vector_iterator<ASN1 *,std::allocator<ASN1 *> >::operator+=
PUBLIC	??H?$_Vector_iterator@PAVASN1@@V?$allocator@PAVASN1@@@std@@@std@@QBE?AV01@H@Z ; std::_Vector_iterator<ASN1 *,std::allocator<ASN1 *> >::operator+
PUBLIC	?insert@?$vector@PAVASN1@@V?$allocator@PAVASN1@@@std@@@std@@QAE?AV?$_Vector_iterator@PAVASN1@@V?$allocator@PAVASN1@@@std@@@2@V?$_Vector_const_iterator@PAVASN1@@V?$allocator@PAVASN1@@@std@@@2@ABQAVASN1@@@Z ; std::vector<ASN1 *,std::allocator<ASN1 *> >::insert
PUBLIC	??$_Iter_cat@PAPAVASN1@@@std@@YA?AUrandom_access_iterator_tag@0@ABQAPAVASN1@@@Z ; std::_Iter_cat<ASN1 * *>
PUBLIC	??$_Fill_n@PAPAVASN1@@IPAV1@@std@@YAXPAPAVASN1@@IABQAV1@U_Range_checked_iterator_tag@0@@Z ; std::_Fill_n<ASN1 * *,unsigned int,ASN1 *>
PUBLIC	??$_Fill_n@PAPAVASN1@@IPAV1@@std@@YAXPAPAVASN1@@IABQAV1@Urandom_access_iterator_tag@0@U_Range_checked_iterator_tag@0@@Z ; std::_Fill_n<ASN1 * *,unsigned int,ASN1 *>
PUBLIC	??$unchecked_fill_n@PAPAVASN1@@IPAV1@@stdext@@YAXPAPAVASN1@@IABQAV1@@Z ; stdext::unchecked_fill_n<ASN1 * *,unsigned int,ASN1 *>
PUBLIC	??$_Uninit_fill_n@PAPAVASN1@@IPAV1@V?$allocator@PAVASN1@@@std@@@std@@YAXPAPAVASN1@@IABQAV1@AAV?$allocator@PAVASN1@@@0@U_Scalar_ptr_iterator_tag@0@U_Range_checked_iterator_tag@0@@Z ; std::_Uninit_fill_n<ASN1 * *,unsigned int,ASN1 *,std::allocator<ASN1 *> >
PUBLIC	??$unchecked_uninitialized_fill_n@PAPAVASN1@@IPAV1@V?$allocator@PAVASN1@@@std@@@stdext@@YAXPAPAVASN1@@IABQAV1@AAV?$allocator@PAVASN1@@@std@@@Z ; stdext::unchecked_uninitialized_fill_n<ASN1 * *,unsigned int,ASN1 *,std::allocator<ASN1 *> >
PUBLIC	?_Ufill@?$vector@PAVASN1@@V?$allocator@PAVASN1@@@std@@@std@@IAEPAPAVASN1@@PAPAV3@IABQAV3@@Z ; std::vector<ASN1 *,std::allocator<ASN1 *> >::_Ufill
PUBLIC	?push_back@?$vector@PAVASN1@@V?$allocator@PAVASN1@@@std@@@std@@QAEXABQAVASN1@@@Z ; std::vector<ASN1 *,std::allocator<ASN1 *> >::push_back
PUBLIC	?begin@?$vector@PAVASN1@@V?$allocator@PAVASN1@@@std@@@std@@QAE?AV?$_Vector_iterator@PAVASN1@@V?$allocator@PAVASN1@@@std@@@2@XZ ; std::vector<ASN1 *,std::allocator<ASN1 *> >::begin
PUBLIC	?end@?$vector@PAVASN1@@V?$allocator@PAVASN1@@@std@@@std@@QAE?AV?$_Vector_iterator@PAVASN1@@V?$allocator@PAVASN1@@@std@@@2@XZ ; std::vector<ASN1 *,std::allocator<ASN1 *> >::end
PUBLIC	?_Set_container@_Iterator_base_aux@std@@QAEXQBV_Container_base_aux@2@@Z ; std::_Iterator_base_aux::_Set_container
PUBLIC	??0_Iterator_base_aux@std@@QAE@XZ		; std::_Iterator_base_aux::_Iterator_base_aux
PUBLIC	??0?$_Iterator_with_base@Urandom_access_iterator_tag@std@@PAVASN1@@HPBQAV3@ABQAV3@V_Iterator_base_aux@2@@std@@QAE@XZ ; std::_Iterator_with_base<std::random_access_iterator_tag,ASN1 *,int,ASN1 * const *,ASN1 * const &,std::_Iterator_base_aux>::_Iterator_with_base<std::random_access_iterator_tag,ASN1 *,int,ASN1 * const *,ASN1 * const &,std::_Iterator_base_aux>
PUBLIC	??0?$_Ranit@PAVASN1@@HPBQAV1@ABQAV1@@std@@QAE@XZ ; std::_Ranit<ASN1 *,int,ASN1 * const *,ASN1 * const &>::_Ranit<ASN1 *,int,ASN1 * const *,ASN1 * const &>
PUBLIC	??0?$_Vector_const_iterator@PAVASN1@@V?$allocator@PAVASN1@@@std@@@std@@QAE@PAPAVASN1@@PBV_Container_base_aux@1@@Z ; std::_Vector_const_iterator<ASN1 *,std::allocator<ASN1 *> >::_Vector_const_iterator<ASN1 *,std::allocator<ASN1 *> >
PUBLIC	??0?$_Vector_iterator@PAVASN1@@V?$allocator@PAVASN1@@@std@@@std@@QAE@PAPAVASN1@@PBV_Container_base_aux@1@@Z ; std::_Vector_iterator<ASN1 *,std::allocator<ASN1 *> >::_Vector_iterator<ASN1 *,std::allocator<ASN1 *> >
PUBLIC	?_Make_iter@?$vector@PAVASN1@@V?$allocator@PAVASN1@@@std@@@std@@QBE?AV?$_Vector_iterator@PAVASN1@@V?$allocator@PAVASN1@@@std@@@2@V?$_Vector_const_iterator@PAVASN1@@V?$allocator@PAVASN1@@@std@@@2@@Z ; std::vector<ASN1 *,std::allocator<ASN1 *> >::_Make_iter
PUBLIC	??$_Destroy_range@V?$allocator@PAVASN1@@@std@@@std@@YAXPAPAVASN1@@0AAV?$allocator@PAVASN1@@@0@U_Scalar_ptr_iterator_tag@0@@Z ; std::_Destroy_range<std::allocator<ASN1 *> >
PUBLIC	??$_Destroy_range@V?$allocator@PAVASN1@@@std@@@std@@YAXPAPAVASN1@@0AAV?$allocator@PAVASN1@@@0@@Z ; std::_Destroy_range<std::allocator<ASN1 *> >
PUBLIC	?_Destroy@?$vector@PAVASN1@@V?$allocator@PAVASN1@@@std@@@std@@IAEXPAPAVASN1@@0@Z ; std::vector<ASN1 *,std::allocator<ASN1 *> >::_Destroy
PUBLIC	?_Same_container@_Iterator_base_aux@std@@QBE_NABV12@@Z ; std::_Iterator_base_aux::_Same_container
PUBLIC	?_Has_container@_Iterator_base_aux@std@@QBE_NXZ	; std::_Iterator_base_aux::_Has_container
PUBLIC	??8?$_Vector_const_iterator@PAVASN1@@V?$allocator@PAVASN1@@@std@@@std@@QBE_NABV01@@Z ; std::_Vector_const_iterator<ASN1 *,std::allocator<ASN1 *> >::operator==
PUBLIC	??9?$_Vector_const_iterator@PAVASN1@@V?$allocator@PAVASN1@@@std@@@std@@QBE_NABV01@@Z ; std::_Vector_const_iterator<ASN1 *,std::allocator<ASN1 *> >::operator!=
PUBLIC	??$_Checked_base@PAPAVASN1@@@std@@YAPAPAVASN1@@AAPAPAV1@U_Unchanged_checked_iterator_base_type_tag@0@@Z ; std::_Checked_base<ASN1 * *>
PUBLIC	??$_Checked_base@PAPAVASN1@@@std@@YAPAPAVASN1@@AAPAPAV1@@Z ; std::_Checked_base<ASN1 * *>
PUBLIC	??$_Iter_random@PAPAVASN1@@PAPAV1@@std@@YA?AUrandom_access_iterator_tag@0@ABQAPAVASN1@@0@Z ; std::_Iter_random<ASN1 * *,ASN1 * *>
PUBLIC	??$_Ptr_cat@PAPAVASN1@@PAPAV1@@std@@YA?AU_Scalar_ptr_iterator_tag@0@AAPAPAVASN1@@0@Z ; std::_Ptr_cat<ASN1 * *,ASN1 * *>
PUBLIC	??$_Copy_opt@PAPAVASN1@@PAPAV1@Urandom_access_iterator_tag@std@@@std@@YAPAPAVASN1@@PAPAV1@00Urandom_access_iterator_tag@0@U_Scalar_ptr_iterator_tag@0@U_Range_checked_iterator_tag@0@@Z ; std::_Copy_opt<ASN1 * *,ASN1 * *,std::random_access_iterator_tag>
PUBLIC	??$unchecked_copy@PAPAVASN1@@PAPAV1@@stdext@@YAPAPAVASN1@@PAPAV1@00@Z ; stdext::unchecked_copy<ASN1 * *,ASN1 * *>
PUBLIC	?erase@?$vector@PAVASN1@@V?$allocator@PAVASN1@@@std@@@std@@QAE?AV?$_Vector_iterator@PAVASN1@@V?$allocator@PAVASN1@@@std@@@2@V?$_Vector_const_iterator@PAVASN1@@V?$allocator@PAVASN1@@@std@@@2@0@Z ; std::vector<ASN1 *,std::allocator<ASN1 *> >::erase
PUBLIC	?clear@?$vector@PAVASN1@@V?$allocator@PAVASN1@@@std@@@std@@QAEXXZ ; std::vector<ASN1 *,std::allocator<ASN1 *> >::clear
PUBLIC	??$_Assign@H@?$basic_string@DU?$char_traits@D@std@@V?$allocator@D@2@@std@@QAEAAV01@HHU_Int_iterator_tag@1@@Z ; std::basic_string<char,std::char_traits<char>,std::allocator<char> >::_Assign<int>
PUBLIC	??$assign@H@?$basic_string@DU?$char_traits@D@std@@V?$allocator@D@2@@std@@QAEAAV01@HH@Z ; std::basic_string<char,std::char_traits<char>,std::allocator<char> >::assign<int>
PUBLIC	??$_Iter_cat@H@std@@YA?AU_Int_iterator_tag@0@ABH@Z ; std::_Iter_cat<int>
PUBLIC	??$_Append@H@?$basic_string@DU?$char_traits@D@std@@V?$allocator@D@2@@std@@QAEAAV01@HHU_Int_iterator_tag@1@@Z ; std::basic_string<char,std::char_traits<char>,std::allocator<char> >::_Append<int>
PUBLIC	??$append@H@?$basic_string@DU?$char_traits@D@std@@V?$allocator@D@2@@std@@QAEAAV01@HH@Z ; std::basic_string<char,std::char_traits<char>,std::allocator<char> >::append<int>
PUBLIC	?append@?$basic_string@DU?$char_traits@D@std@@V?$allocator@D@2@@std@@QAEAAV12@ABV12@@Z ; std::basic_string<char,std::char_traits<char>,std::allocator<char> >::append
PUBLIC	??Y?$basic_string@DU?$char_traits@D@std@@V?$allocator@D@2@@std@@QAEAAV01@ABV01@@Z ; std::basic_string<char,std::char_traits<char>,std::allocator<char> >::operator+=
PUBLIC	?size@?$vector@PAVASN1@@V?$allocator@PAVASN1@@@std@@@std@@QBEIXZ ; std::vector<ASN1 *,std::allocator<ASN1 *> >::size
PUBLIC	??A?$vector@PAVASN1@@V?$allocator@PAVASN1@@@std@@@std@@QAEAAPAVASN1@@I@Z ; std::vector<ASN1 *,std::allocator<ASN1 *> >::operator[]
PUBLIC	?Get_ExternalDataSize@ASN1@@QAEHXZ		; ASN1::Get_ExternalDataSize
PUBLIC	??_C@_0BJ@IMFJFLAM@ASN?41?5BER?5Encode?5Error?5?3?$AA@ ; `string'
PUBLIC	??_C@_0BD@OLBABOEK@vector?$DMT?$DO?5too?5long?$AA@ ; `string'
PUBLIC	__CT??_R0?AVlength_error@std@@@8??0length_error@std@@QAE@ABV01@@Z40
PUBLIC	__CTA3?AVlength_error@std@@
PUBLIC	__TI3?AVlength_error@std@@
PUBLIC	??_7ASN1@@6B@					; ASN1::`vftable'
PUBLIC	??_7logic_error@std@@6B@			; std::logic_error::`vftable'
PUBLIC	??_7length_error@std@@6B@			; std::length_error::`vftable'
EXTRN	??_Elogic_error@std@@UAEPAXI@Z:PROC		; std::logic_error::`vector deleting destructor'
EXTRN	??_Elength_error@std@@UAEPAXI@Z:PROC		; std::length_error::`vector deleting destructor'
;	COMDAT ??_7length_error@std@@6B@
CONST	SEGMENT
??_7length_error@std@@6B@ DD FLAT:??_R4length_error@std@@6B@ ; std::length_error::`vftable'
	DD	FLAT:??_Elength_error@std@@UAEPAXI@Z
	DD	FLAT:?what@logic_error@std@@UBEPBDXZ
CONST	ENDS
;	COMDAT ??_R4length_error@std@@6B@
rdata$r	SEGMENT
??_R4length_error@std@@6B@ DD 00H			; std::length_error::`RTTI Complete Object Locator'
	DD	00H
	DD	00H
	DD	FLAT:??_R0?AVlength_error@std@@@8
	DD	FLAT:??_R3length_error@std@@8
rdata$r	ENDS
;	COMDAT ??_R3length_error@std@@8
rdata$r	SEGMENT
??_R3length_error@std@@8 DD 00H				; std::length_error::`RTTI Class Hierarchy Descriptor'
	DD	00H
	DD	03H
	DD	FLAT:??_R2length_error@std@@8
rdata$r	ENDS
;	COMDAT ??_R2length_error@std@@8
rdata$r	SEGMENT
??_R2length_error@std@@8 DD FLAT:??_R1A@?0A@EA@length_error@std@@8 ; std::length_error::`RTTI Base Class Array'
	DD	FLAT:??_R1A@?0A@EA@logic_error@std@@8
	DD	FLAT:??_R1A@?0A@EA@exception@std@@8
rdata$r	ENDS
;	COMDAT ??_R1A@?0A@EA@length_error@std@@8
rdata$r	SEGMENT
??_R1A@?0A@EA@length_error@std@@8 DD FLAT:??_R0?AVlength_error@std@@@8 ; std::length_error::`RTTI Base Class Descriptor at (0,-1,0,64)'
	DD	02H
	DD	00H
	DD	0ffffffffH
	DD	00H
	DD	040H
	DD	FLAT:??_R3length_error@std@@8
rdata$r	ENDS
;	COMDAT ??_7logic_error@std@@6B@
CONST	SEGMENT
??_7logic_error@std@@6B@ DD FLAT:??_R4logic_error@std@@6B@ ; std::logic_error::`vftable'
	DD	FLAT:??_Elogic_error@std@@UAEPAXI@Z
	DD	FLAT:?what@logic_error@std@@UBEPBDXZ
CONST	ENDS
;	COMDAT ??_R4logic_error@std@@6B@
rdata$r	SEGMENT
??_R4logic_error@std@@6B@ DD 00H			; std::logic_error::`RTTI Complete Object Locator'
	DD	00H
	DD	00H
	DD	FLAT:??_R0?AVlogic_error@std@@@8
	DD	FLAT:??_R3logic_error@std@@8
rdata$r	ENDS
;	COMDAT ??_R3logic_error@std@@8
rdata$r	SEGMENT
??_R3logic_error@std@@8 DD 00H				; std::logic_error::`RTTI Class Hierarchy Descriptor'
	DD	00H
	DD	02H
	DD	FLAT:??_R2logic_error@std@@8
rdata$r	ENDS
;	COMDAT ??_R2logic_error@std@@8
rdata$r	SEGMENT
??_R2logic_error@std@@8 DD FLAT:??_R1A@?0A@EA@logic_error@std@@8 ; std::logic_error::`RTTI Base Class Array'
	DD	FLAT:??_R1A@?0A@EA@exception@std@@8
rdata$r	ENDS
;	COMDAT ??_R1A@?0A@EA@logic_error@std@@8
rdata$r	SEGMENT
??_R1A@?0A@EA@logic_error@std@@8 DD FLAT:??_R0?AVlogic_error@std@@@8 ; std::logic_error::`RTTI Base Class Descriptor at (0,-1,0,64)'
	DD	01H
	DD	00H
	DD	0ffffffffH
	DD	00H
	DD	040H
	DD	FLAT:??_R3logic_error@std@@8
rdata$r	ENDS
;	COMDAT ??_7ASN1@@6B@
CONST	SEGMENT
??_7ASN1@@6B@ DD FLAT:??_R4ASN1@@6B@			; ASN1::`vftable'
	DD	FLAT:?encodeBER@ASN1@@UAEXXZ
	DD	FLAT:?Get_BERcode@ASN1@@UAEPBDXZ
	DD	FLAT:?Get_BERsize@ASN1@@UAEIXZ
CONST	ENDS
;	COMDAT ??_R4ASN1@@6B@
rdata$r	SEGMENT
??_R4ASN1@@6B@ DD 00H					; ASN1::`RTTI Complete Object Locator'
	DD	00H
	DD	00H
	DD	FLAT:??_R0?AVASN1@@@8
	DD	FLAT:??_R3ASN1@@8
rdata$r	ENDS
;	COMDAT ??_R3ASN1@@8
rdata$r	SEGMENT
??_R3ASN1@@8 DD	00H					; ASN1::`RTTI Class Hierarchy Descriptor'
	DD	00H
	DD	01H
	DD	FLAT:??_R2ASN1@@8
rdata$r	ENDS
;	COMDAT ??_R2ASN1@@8
rdata$r	SEGMENT
??_R2ASN1@@8 DD	FLAT:??_R1A@?0A@EA@ASN1@@8		; ASN1::`RTTI Base Class Array'
rdata$r	ENDS
;	COMDAT ??_R1A@?0A@EA@ASN1@@8
rdata$r	SEGMENT
??_R1A@?0A@EA@ASN1@@8 DD FLAT:??_R0?AVASN1@@@8		; ASN1::`RTTI Base Class Descriptor at (0,-1,0,64)'
	DD	00H
	DD	00H
	DD	0ffffffffH
	DD	00H
	DD	040H
	DD	FLAT:??_R3ASN1@@8
rdata$r	ENDS
;	COMDAT ??_R0?AVASN1@@@8
_DATA	SEGMENT
??_R0?AVASN1@@@8 DD FLAT:??_7type_info@@6B@		; ASN1 `RTTI Type Descriptor'
	DD	00H
	DB	'.?AVASN1@@', 00H
_DATA	ENDS
;	COMDAT __TI3?AVlength_error@std@@
xdata$x	SEGMENT
__TI3?AVlength_error@std@@ DD 00H
	DD	FLAT:??1length_error@std@@UAE@XZ
	DD	00H
	DD	FLAT:__CTA3?AVlength_error@std@@
xdata$x	ENDS
;	COMDAT __CTA3?AVlength_error@std@@
xdata$x	SEGMENT
__CTA3?AVlength_error@std@@ DD 03H
	DD	FLAT:__CT??_R0?AVlength_error@std@@@8??0length_error@std@@QAE@ABV01@@Z40
	DD	FLAT:__CT??_R0?AVlogic_error@std@@@8??0logic_error@std@@QAE@ABV01@@Z40
	DD	FLAT:__CT??_R0?AVexception@std@@@8??0exception@std@@QAE@ABV01@@Z12
xdata$x	ENDS
;	COMDAT __CT??_R0?AVlogic_error@std@@@8??0logic_error@std@@QAE@ABV01@@Z40
xdata$x	SEGMENT
__CT??_R0?AVlogic_error@std@@@8??0logic_error@std@@QAE@ABV01@@Z40 DD 00H
	DD	FLAT:??_R0?AVlogic_error@std@@@8
	DD	00H
	DD	0ffffffffH
	ORG $+4
	DD	028H
	DD	FLAT:??0logic_error@std@@QAE@ABV01@@Z
xdata$x	ENDS
;	COMDAT ??_R0?AVlogic_error@std@@@8
_DATA	SEGMENT
??_R0?AVlogic_error@std@@@8 DD FLAT:??_7type_info@@6B@	; std::logic_error `RTTI Type Descriptor'
	DD	00H
	DB	'.?AVlogic_error@std@@', 00H
_DATA	ENDS
;	COMDAT __CT??_R0?AVlength_error@std@@@8??0length_error@std@@QAE@ABV01@@Z40
xdata$x	SEGMENT
__CT??_R0?AVlength_error@std@@@8??0length_error@std@@QAE@ABV01@@Z40 DD 00H
	DD	FLAT:??_R0?AVlength_error@std@@@8
	DD	00H
	DD	0ffffffffH
	ORG $+4
	DD	028H
	DD	FLAT:??0length_error@std@@QAE@ABV01@@Z
xdata$x	ENDS
;	COMDAT ??_R0?AVlength_error@std@@@8
_DATA	SEGMENT
??_R0?AVlength_error@std@@@8 DD FLAT:??_7type_info@@6B@	; std::length_error `RTTI Type Descriptor'
	DD	00H
	DB	'.?AVlength_error@std@@', 00H
_DATA	ENDS
;	COMDAT ??_C@_0BD@OLBABOEK@vector?$DMT?$DO?5too?5long?$AA@
CONST	SEGMENT
??_C@_0BD@OLBABOEK@vector?$DMT?$DO?5too?5long?$AA@ DB 'vector<T> too long'
	DB	00H						; `string'
CONST	ENDS
;	COMDAT ??_C@_0BJ@IMFJFLAM@ASN?41?5BER?5Encode?5Error?5?3?$AA@
CONST	SEGMENT
??_C@_0BJ@IMFJFLAM@ASN?41?5BER?5Encode?5Error?5?3?$AA@ DB 'ASN.1 BER Enco'
	DB	'de Error :', 00H				; `string'
CONST	ENDS
;	COMDAT ?msg_err@?1??error@ASN1@@QAEXI@Z@4QBQBDB
CONST	SEGMENT
?msg_err@?1??error@ASN1@@QAEXI@Z@4QBQBDB DD FLAT:??_C@_0CC@JEFJODCE@Context?5include?5ASN?41?5and?5Binary@ ; `ASN1::error'::`2'::msg_err
	DD	FLAT:??_C@_0DE@DCBJDNPH@Part?5of?5the?5constructed?5data?5inc@
CONST	ENDS
;	COMDAT ??_C@_0DE@DCBJDNPH@Part?5of?5the?5constructed?5data?5inc@
CONST	SEGMENT
??_C@_0DE@DCBJDNPH@Part?5of?5the?5constructed?5data?5inc@ DB 'Part of the'
	DB	' constructed data include external data.', 00H ; `string'
CONST	ENDS
;	COMDAT ??_C@_0CC@JEFJODCE@Context?5include?5ASN?41?5and?5Binary@
CONST	SEGMENT
??_C@_0CC@JEFJODCE@Context?5include?5ASN?41?5and?5Binary@ DB 'Context inc'
	DB	'lude ASN.1 and Binary.', 00H		; `string'
; Function compile flags: /Ogtpy
; File i:\“n•”“ÄŽj\my project\cms\cms\asn1\asn1.h
;	COMDAT ?Get_ExternalDataSize@ASN1@@QAEHXZ
_TEXT	SEGMENT
?Get_ExternalDataSize@ASN1@@QAEHXZ PROC			; ASN1::Get_ExternalDataSize, COMDAT
; _this$ = eax

; 72   : 						int		Get_ExternalDataSize(void){return(szAddValue);}	//

  00000	8b 40 40	 mov	 eax, DWORD PTR [eax+64]
  00003	c3		 ret	 0
?Get_ExternalDataSize@ASN1@@QAEHXZ ENDP			; ASN1::Get_ExternalDataSize
; Function compile flags: /Ogtpy
; File c:\program files\microsoft visual studio 9.0\vc\include\xutility
_TEXT	ENDS
;	COMDAT ??1_Container_base_aux@std@@QAE@XZ
_TEXT	SEGMENT
??1_Container_base_aux@std@@QAE@XZ PROC			; std::_Container_base_aux::~_Container_base_aux, COMDAT

; 403  : 		// Do nothing: ~_Container_base_aux_alloc_real() previously destroyed the aux object.
; 404  : 		}

  00000	c3		 ret	 0
??1_Container_base_aux@std@@QAE@XZ ENDP			; std::_Container_base_aux::~_Container_base_aux
; Function compile flags: /Ogtpy
_TEXT	ENDS
;	COMDAT ??0_Container_base_aux@std@@QAE@XZ
_TEXT	SEGMENT
??0_Container_base_aux@std@@QAE@XZ PROC			; std::_Container_base_aux::_Container_base_aux, COMDAT
; _this$ = eax

; 380  : 		{
; 381  : 		// Do nothing: _Container_base_aux_alloc_real() will construct the aux object.
; 382  : 		}

  00000	c3		 ret	 0
??0_Container_base_aux@std@@QAE@XZ ENDP			; std::_Container_base_aux::_Container_base_aux
; Function compile flags: /Ogtpy
; File c:\program files\microsoft visual studio 9.0\vc\include\new
_TEXT	ENDS
;	COMDAT ??2@YAPAXIPAX@Z
_TEXT	SEGMENT
___formal$ = 8						; size = 4
__Where$ = 12						; size = 4
??2@YAPAXIPAX@Z PROC					; operator new, COMDAT

; 59   : 	return (_Where);

  00000	8b 44 24 08	 mov	 eax, DWORD PTR __Where$[esp-4]

; 60   : 	}

  00004	c3		 ret	 0
??2@YAPAXIPAX@Z ENDP					; operator new
; Function compile flags: /Ogtpy
_TEXT	ENDS
;	COMDAT ??3@YAXPAX0@Z
_TEXT	SEGMENT
___formal$ = 8						; size = 4
___formal$ = 12						; size = 4
??3@YAXPAX0@Z PROC					; operator delete, COMDAT

; 64   : 	}

  00000	c3		 ret	 0
??3@YAXPAX0@Z ENDP					; operator delete
; Function compile flags: /Ogtpy
; File c:\program files\microsoft visual studio 9.0\vc\include\xutility
_TEXT	ENDS
;	COMDAT ??0_Aux_cont@std@@QAE@QBV_Container_base_aux@1@@Z
_TEXT	SEGMENT
??0_Aux_cont@std@@QAE@QBV_Container_base_aux@1@@Z PROC	; std::_Aux_cont::_Aux_cont, COMDAT
; _this$ = eax
; __Pcont$ = ecx

; 364  : 	explicit _Aux_cont(const _Container_base_aux * const _Pcont)

  00000	89 08		 mov	 DWORD PTR [eax], ecx
  00002	c3		 ret	 0
??0_Aux_cont@std@@QAE@QBV_Container_base_aux@1@@Z ENDP	; std::_Aux_cont::_Aux_cont
; Function compile flags: /Ogtpy
_TEXT	ENDS
;	COMDAT ?_Has_container@_Iterator_base_aux@std@@QBE_NXZ
_TEXT	SEGMENT
?_Has_container@_Iterator_base_aux@std@@QBE_NXZ PROC	; std::_Iterator_base_aux::_Has_container, COMDAT
; _this$ = ecx

; 468  : 		return _Myaux != 0;

  00000	33 c0		 xor	 eax, eax
  00002	39 01		 cmp	 DWORD PTR [ecx], eax
  00004	0f 95 c0	 setne	 al

; 469  : 		}

  00007	c3		 ret	 0
?_Has_container@_Iterator_base_aux@std@@QBE_NXZ ENDP	; std::_Iterator_base_aux::_Has_container
; Function compile flags: /Ogtpy
_TEXT	ENDS
;	COMDAT ?_Same_container@_Iterator_base_aux@std@@QBE_NABV12@@Z
_TEXT	SEGMENT
?_Same_container@_Iterator_base_aux@std@@QBE_NABV12@@Z PROC ; std::_Iterator_base_aux::_Same_container, COMDAT
; _this$ = eax
; __Other$ = edx

; 463  : 		return _Myaux == _Other._Myaux;

  00000	8b 08		 mov	 ecx, DWORD PTR [eax]
  00002	33 c0		 xor	 eax, eax
  00004	3b 0a		 cmp	 ecx, DWORD PTR [edx]
  00006	0f 94 c0	 sete	 al

; 464  : 		}

  00009	c3		 ret	 0
?_Same_container@_Iterator_base_aux@std@@QBE_NABV12@@Z ENDP ; std::_Iterator_base_aux::_Same_container
; Function compile flags: /Ogtpy
_TEXT	ENDS
;	COMDAT ?_Set_container@_Iterator_base_aux@std@@QAEXQBV_Container_base_aux@2@@Z
_TEXT	SEGMENT
?_Set_container@_Iterator_base_aux@std@@QAEXQBV_Container_base_aux@2@@Z PROC ; std::_Iterator_base_aux::_Set_container, COMDAT
; _this$ = edx
; __Pcont$ = eax

; 453  : 		_Myaux = _Pcont->_Myownedaux;

  00000	8b 08		 mov	 ecx, DWORD PTR [eax]
  00002	89 0a		 mov	 DWORD PTR [edx], ecx

; 454  : 		}

  00004	c3		 ret	 0
?_Set_container@_Iterator_base_aux@std@@QAEXQBV_Container_base_aux@2@@Z ENDP ; std::_Iterator_base_aux::_Set_container
; Function compile flags: /Ogtpy
_TEXT	ENDS
;	COMDAT ??0_Iterator_base_aux@std@@QAE@XZ
_TEXT	SEGMENT
??0_Iterator_base_aux@std@@QAE@XZ PROC			; std::_Iterator_base_aux::_Iterator_base_aux, COMDAT
; _this$ = eax

; 448  : 	_Iterator_base_aux()

  00000	c7 00 00 00 00
	00		 mov	 DWORD PTR [eax], 0
  00006	c3		 ret	 0
??0_Iterator_base_aux@std@@QAE@XZ ENDP			; std::_Iterator_base_aux::_Iterator_base_aux
; Function compile flags: /Ogtpy
_TEXT	ENDS
;	COMDAT ?_Getcont@_Aux_cont@std@@QBEPBV_Container_base_aux@2@XZ
_TEXT	SEGMENT
?_Getcont@_Aux_cont@std@@QBEPBV_Container_base_aux@2@XZ PROC ; std::_Aux_cont::_Getcont, COMDAT
; _this$ = eax

; 369  : 		return _Mycontainer;

  00000	8b 00		 mov	 eax, DWORD PTR [eax]

; 370  : 		}

  00002	c3		 ret	 0
?_Getcont@_Aux_cont@std@@QBEPBV_Container_base_aux@2@XZ ENDP ; std::_Aux_cont::_Getcont
; Function compile flags: /Ogtpy
; File c:\program files\microsoft visual studio 9.0\vc\include\memory
_TEXT	ENDS
;	COMDAT ??$_Uninit_copy@PAPAVASN1@@PAPAV1@V?$allocator@PAVASN1@@@std@@@std@@YAPAPAVASN1@@PAPAV1@00AAV?$allocator@PAVASN1@@@0@U_Scalar_ptr_iterator_tag@0@U_Range_checked_iterator_tag@0@@Z
_TEXT	SEGMENT
__Dest$ = 8						; size = 4
__Result$ = 12						; size = 4
??$_Uninit_copy@PAPAVASN1@@PAPAV1@V?$allocator@PAVASN1@@@std@@@std@@YAPAPAVASN1@@PAPAV1@00AAV?$allocator@PAVASN1@@@0@U_Scalar_ptr_iterator_tag@0@U_Range_checked_iterator_tag@0@@Z PROC ; std::_Uninit_copy<ASN1 * *,ASN1 * *,std::allocator<ASN1 *> >, COMDAT
; __First$ = ecx
; __Count$ = eax

; 144  : 	_DEBUG_RANGE(_First, _Last);
; 145  : 	_DEBUG_POINTER(_Dest);
; 146  : 	size_t _Count = (size_t)(_Last - _First);
; 147  : 	_FwdIt _Result = _Dest + _Count;
; 148  : 	if (_Count > 0)
; 149  : 		_CRT_SECURE_MEMMOVE(&*_Dest, _Count * sizeof (*_First), &*_First, _Count * sizeof (*_First));	// NB: non-overlapping move

  00000	8b 54 24 04	 mov	 edx, DWORD PTR __Dest$[esp-4]
  00004	03 c0		 add	 eax, eax
  00006	03 c0		 add	 eax, eax
  00008	50		 push	 eax
  00009	51		 push	 ecx
  0000a	50		 push	 eax
  0000b	52		 push	 edx
  0000c	e8 00 00 00 00	 call	 _memmove_s

; 150  : 	return _Result;

  00011	8b 44 24 18	 mov	 eax, DWORD PTR __Result$[esp+12]
  00015	83 c4 10	 add	 esp, 16			; 00000010H

; 151  : 	}

  00018	c3		 ret	 0
??$_Uninit_copy@PAPAVASN1@@PAPAV1@V?$allocator@PAVASN1@@@std@@@std@@YAPAPAVASN1@@PAPAV1@00AAV?$allocator@PAVASN1@@@0@U_Scalar_ptr_iterator_tag@0@U_Range_checked_iterator_tag@0@@Z ENDP ; std::_Uninit_copy<ASN1 * *,ASN1 * *,std::allocator<ASN1 *> >
; Function compile flags: /Ogtpy
; File c:\program files\microsoft visual studio 9.0\vc\include\xutility
_TEXT	ENDS
;	COMDAT ??$_Fill_n@PAPAVASN1@@IPAV1@@std@@YAXPAPAVASN1@@IABQAV1@U_Range_checked_iterator_tag@0@@Z
_TEXT	SEGMENT
__First$ = 8						; size = 4
___formal$ = 12						; size = 1
??$_Fill_n@PAPAVASN1@@IPAV1@@std@@YAXPAPAVASN1@@IABQAV1@U_Range_checked_iterator_tag@0@@Z PROC ; std::_Fill_n<ASN1 * *,unsigned int,ASN1 *>, COMDAT
; __Count$ = eax
; __Val$ = edx

; 3170 : 	{	// copy _Val _Count times through [_First, ...)

  00000	8b 4c 24 04	 mov	 ecx, DWORD PTR __First$[esp-4]

; 3171 : 	for (; 0 < _Count; --_Count, ++_First)

  00004	85 c0		 test	 eax, eax
  00006	76 15		 jbe	 SHORT $LN1@Fill_n@4
  00008	56		 push	 esi
  00009	8d a4 24 00 00
	00 00		 npad	 7
$LL3@Fill_n@4:

; 3172 : 		*_First = _Val;

  00010	8b 32		 mov	 esi, DWORD PTR [edx]
  00012	89 31		 mov	 DWORD PTR [ecx], esi
  00014	48		 dec	 eax
  00015	83 c1 04	 add	 ecx, 4
  00018	85 c0		 test	 eax, eax
  0001a	77 f4		 ja	 SHORT $LL3@Fill_n@4
  0001c	5e		 pop	 esi
$LN1@Fill_n@4:

; 3173 : 	}

  0001d	c3		 ret	 0
??$_Fill_n@PAPAVASN1@@IPAV1@@std@@YAXPAPAVASN1@@IABQAV1@U_Range_checked_iterator_tag@0@@Z ENDP ; std::_Fill_n<ASN1 * *,unsigned int,ASN1 *>
; Function compile flags: /Ogtpy
_TEXT	ENDS
;	COMDAT ??$_Iter_cat@PAPAVASN1@@@std@@YA?AUrandom_access_iterator_tag@0@ABQAPAVASN1@@@Z
_TEXT	SEGMENT
??$_Iter_cat@PAPAVASN1@@@std@@YA?AUrandom_access_iterator_tag@0@ABQAPAVASN1@@@Z PROC ; std::_Iter_cat<ASN1 * *>, COMDAT
; ___$ReturnUdt$ = eax

; 953  : 	typename iterator_traits<_Iter>::iterator_category _Cat;
; 954  : 	return (_Cat);
; 955  : 	}

  00000	c3		 ret	 0
??$_Iter_cat@PAPAVASN1@@@std@@YA?AUrandom_access_iterator_tag@0@ABQAPAVASN1@@@Z ENDP ; std::_Iter_cat<ASN1 * *>
; Function compile flags: /Ogtpy
_TEXT	ENDS
;	COMDAT ??$_Copy_backward_opt@PAPAVASN1@@PAPAV1@Urandom_access_iterator_tag@std@@@std@@YAPAPAVASN1@@PAPAV1@00Urandom_access_iterator_tag@0@U_Scalar_ptr_iterator_tag@0@U_Range_checked_iterator_tag@0@@Z
_TEXT	SEGMENT
??$_Copy_backward_opt@PAPAVASN1@@PAPAV1@Urandom_access_iterator_tag@std@@@std@@YAPAPAVASN1@@PAPAV1@00Urandom_access_iterator_tag@0@U_Scalar_ptr_iterator_tag@0@U_Range_checked_iterator_tag@0@@Z PROC ; std::_Copy_backward_opt<ASN1 * *,ASN1 * *,std::random_access_iterator_tag>, COMDAT
; __First$ = ecx
; __Off$ = eax
; __Result$ = esi

; 2673 : 
; 2674 :  #if _HAS_ITERATOR_DEBUGGING
; 2675 : 	_DEBUG_RANGE(_First, _Last);
; 2676 : 	if (_First != _Last)
; 2677 : 		_DEBUG_POINTER(_Dest);
; 2678 :  #endif /* _HAS_ITERATOR_DEBUGGING */
; 2679 : 
; 2680 : 	ptrdiff_t _Off = _Last - _First;	// NB: non-overlapping move
; 2681 : 	/* if _OutIt is range checked, this will make sure there is enough space for 
; 2682 : 	 * the memmove
; 2683 : 	 */
; 2684 : 	_OutIt _Result = _Dest - _Off;
; 2685 : 	if (_Off > 0)
; 2686 : 		_CRT_SECURE_MEMMOVE(&*_Result, _Off * sizeof (*_First), &*_First, _Off * sizeof (*_First));

  00000	03 c0		 add	 eax, eax
  00002	03 c0		 add	 eax, eax
  00004	50		 push	 eax
  00005	51		 push	 ecx
  00006	50		 push	 eax
  00007	56		 push	 esi
  00008	e8 00 00 00 00	 call	 _memmove_s
  0000d	83 c4 10	 add	 esp, 16			; 00000010H

; 2687 : 	return _Result;

  00010	8b c6		 mov	 eax, esi

; 2688 : 	}

  00012	c3		 ret	 0
??$_Copy_backward_opt@PAPAVASN1@@PAPAV1@Urandom_access_iterator_tag@std@@@std@@YAPAPAVASN1@@PAPAV1@00Urandom_access_iterator_tag@0@U_Scalar_ptr_iterator_tag@0@U_Range_checked_iterator_tag@0@@Z ENDP ; std::_Copy_backward_opt<ASN1 * *,ASN1 * *,std::random_access_iterator_tag>
; Function compile flags: /Ogtpy
_TEXT	ENDS
;	COMDAT ??$_Checked_base@PAPAVASN1@@@std@@YAPAPAVASN1@@AAPAPAV1@U_Unchanged_checked_iterator_base_type_tag@0@@Z
_TEXT	SEGMENT
___formal$ = 8						; size = 1
??$_Checked_base@PAPAVASN1@@@std@@YAPAPAVASN1@@AAPAPAV1@U_Unchanged_checked_iterator_base_type_tag@0@@Z PROC ; std::_Checked_base<ASN1 * *>, COMDAT
; __It$ = eax

; 1147 : 		return _It;

  00000	8b 00		 mov	 eax, DWORD PTR [eax]

; 1148 : 	}

  00002	c3		 ret	 0
??$_Checked_base@PAPAVASN1@@@std@@YAPAPAVASN1@@AAPAPAV1@U_Unchanged_checked_iterator_base_type_tag@0@@Z ENDP ; std::_Checked_base<ASN1 * *>
; Function compile flags: /Ogtpy
_TEXT	ENDS
;	COMDAT ??$_Move_cat@PAPAVASN1@@@std@@YA?AU_Undefined_move_tag@0@ABQAPAVASN1@@@Z
_TEXT	SEGMENT
__Cat$ = -1						; size = 1
??$_Move_cat@PAPAVASN1@@@std@@YA?AU_Undefined_move_tag@0@ABQAPAVASN1@@@Z PROC ; std::_Move_cat<ASN1 * *>, COMDAT

; 1200 : 	{

  00000	51		 push	 ecx

; 1201 : 		typename _Move_operation_category<typename iterator_traits<_Iter>::value_type>::_Move_cat _Cat;
; 1202 : 		return (_Cat);

  00001	8a 44 24 03	 mov	 al, BYTE PTR __Cat$[esp+4]

; 1203 : 	}

  00005	59		 pop	 ecx
  00006	c3		 ret	 0
??$_Move_cat@PAPAVASN1@@@std@@YA?AU_Undefined_move_tag@0@ABQAPAVASN1@@@Z ENDP ; std::_Move_cat<ASN1 * *>
; Function compile flags: /Ogtpy
_TEXT	ENDS
;	COMDAT ??$_Fill@PAPAVASN1@@PAV1@@std@@YAXPAPAVASN1@@0ABQAV1@@Z
_TEXT	SEGMENT
__Val$ = 8						; size = 4
??$_Fill@PAPAVASN1@@PAV1@@std@@YAXPAPAVASN1@@0ABQAV1@@Z PROC ; std::_Fill<ASN1 * *,ASN1 *>, COMDAT
; __First$ = eax
; __Last$ = edx

; 3131 : 	_DEBUG_RANGE(_First, _Last);
; 3132 : 	for (; _First != _Last; ++_First)

  00000	3b c2		 cmp	 eax, edx
  00002	74 15		 je	 SHORT $LN1@Fill@4
  00004	8b 4c 24 04	 mov	 ecx, DWORD PTR __Val$[esp-4]
  00008	8b 09		 mov	 ecx, DWORD PTR [ecx]
  0000a	8d 9b 00 00 00
	00		 npad	 6
$LL3@Fill@4:

; 3133 : 		*_First = _Val;

  00010	89 08		 mov	 DWORD PTR [eax], ecx
  00012	83 c0 04	 add	 eax, 4
  00015	3b c2		 cmp	 eax, edx
  00017	75 f7		 jne	 SHORT $LL3@Fill@4
$LN1@Fill@4:

; 3134 : 	}

  00019	c3		 ret	 0
??$_Fill@PAPAVASN1@@PAV1@@std@@YAXPAPAVASN1@@0ABQAV1@@Z ENDP ; std::_Fill<ASN1 * *,ASN1 *>
; Function compile flags: /Ogtpy
; File c:\program files\microsoft visual studio 9.0\vc\include\xmemory
_TEXT	ENDS
;	COMDAT ??$_Destroy_range@V?$allocator@PAVASN1@@@std@@@std@@YAXPAPAVASN1@@0AAV?$allocator@PAVASN1@@@0@U_Scalar_ptr_iterator_tag@0@@Z
_TEXT	SEGMENT
___formal$ = 8						; size = 1
??$_Destroy_range@V?$allocator@PAVASN1@@@std@@@std@@YAXPAPAVASN1@@0AAV?$allocator@PAVASN1@@@0@U_Scalar_ptr_iterator_tag@0@@Z PROC ; std::_Destroy_range<std::allocator<ASN1 *> >, COMDAT

; 242  : 	}

  00000	c3		 ret	 0
??$_Destroy_range@V?$allocator@PAVASN1@@@std@@@std@@YAXPAPAVASN1@@0AAV?$allocator@PAVASN1@@@0@U_Scalar_ptr_iterator_tag@0@@Z ENDP ; std::_Destroy_range<std::allocator<ASN1 *> >
; Function compile flags: /Ogtpy
; File c:\program files\microsoft visual studio 9.0\vc\include\xutility
_TEXT	ENDS
;	COMDAT ??$_Copy_opt@PAPAVASN1@@PAPAV1@Urandom_access_iterator_tag@std@@@std@@YAPAPAVASN1@@PAPAV1@00Urandom_access_iterator_tag@0@U_Scalar_ptr_iterator_tag@0@U_Range_checked_iterator_tag@0@@Z
_TEXT	SEGMENT
__Dest$ = 8						; size = 4
__Result$ = 12						; size = 4
??$_Copy_opt@PAPAVASN1@@PAPAV1@Urandom_access_iterator_tag@std@@@std@@YAPAPAVASN1@@PAPAV1@00Urandom_access_iterator_tag@0@U_Scalar_ptr_iterator_tag@0@U_Range_checked_iterator_tag@0@@Z PROC ; std::_Copy_opt<ASN1 * *,ASN1 * *,std::random_access_iterator_tag>, COMDAT
; __First$ = ecx
; __Off$ = eax

; 2469 : 
; 2470 :  #if _HAS_ITERATOR_DEBUGGING
; 2471 : 	_DEBUG_RANGE(_First, _Last);
; 2472 : 	if (_First != _Last)
; 2473 : 		_DEBUG_POINTER(_Dest);
; 2474 :  #endif /* _HAS_ITERATOR_DEBUGGING */
; 2475 : 
; 2476 : 	ptrdiff_t _Off = _Last - _First;	// NB: non-overlapping move
; 2477 : 	// if _OutIt is range checked, this will make sure there is enough space for the memmove
; 2478 : 	_OutIt _Result = _Dest + _Off;
; 2479 : 	if (_Off > 0)
; 2480 : 		_CRT_SECURE_MEMMOVE(&*_Dest, _Off * sizeof (*_First), &*_First, _Off * sizeof (*_First));

  00000	8b 54 24 04	 mov	 edx, DWORD PTR __Dest$[esp-4]
  00004	03 c0		 add	 eax, eax
  00006	03 c0		 add	 eax, eax
  00008	50		 push	 eax
  00009	51		 push	 ecx
  0000a	50		 push	 eax
  0000b	52		 push	 edx
  0000c	e8 00 00 00 00	 call	 _memmove_s

; 2481 : 	return _Result;

  00011	8b 44 24 18	 mov	 eax, DWORD PTR __Result$[esp+12]
  00015	83 c4 10	 add	 esp, 16			; 00000010H

; 2482 : 	}

  00018	c3		 ret	 0
??$_Copy_opt@PAPAVASN1@@PAPAV1@Urandom_access_iterator_tag@std@@@std@@YAPAPAVASN1@@PAPAV1@00Urandom_access_iterator_tag@0@U_Scalar_ptr_iterator_tag@0@U_Range_checked_iterator_tag@0@@Z ENDP ; std::_Copy_opt<ASN1 * *,ASN1 * *,std::random_access_iterator_tag>
; Function compile flags: /Ogtpy
_TEXT	ENDS
;	COMDAT ??$_Ptr_cat@PAPAVASN1@@PAPAV1@@std@@YA?AU_Scalar_ptr_iterator_tag@0@AAPAPAVASN1@@0@Z
_TEXT	SEGMENT
__Cat$ = -1						; size = 1
??$_Ptr_cat@PAPAVASN1@@PAPAV1@@std@@YA?AU_Scalar_ptr_iterator_tag@0@AAPAPAVASN1@@0@Z PROC ; std::_Ptr_cat<ASN1 * *,ASN1 * *>, COMDAT

; 1483 : 	{

  00000	51		 push	 ecx

; 1484 : 	typename _Ptr_cat_helper<_T1, _T2>::_Ptr_cat _Cat;
; 1485 : 	return (_Cat);

  00001	8a 44 24 03	 mov	 al, BYTE PTR __Cat$[esp+4]

; 1486 : 	}

  00005	59		 pop	 ecx
  00006	c3		 ret	 0
??$_Ptr_cat@PAPAVASN1@@PAPAV1@@std@@YA?AU_Scalar_ptr_iterator_tag@0@AAPAPAVASN1@@0@Z ENDP ; std::_Ptr_cat<ASN1 * *,ASN1 * *>
; Function compile flags: /Ogtpy
_TEXT	ENDS
;	COMDAT ??$_Iter_random@PAPAVASN1@@PAPAV1@@std@@YA?AUrandom_access_iterator_tag@0@ABQAPAVASN1@@0@Z
_TEXT	SEGMENT
??$_Iter_random@PAPAVASN1@@PAPAV1@@std@@YA?AUrandom_access_iterator_tag@0@ABQAPAVASN1@@0@Z PROC ; std::_Iter_random<ASN1 * *,ASN1 * *>, COMDAT
; ___$ReturnUdt$ = eax

; 994  : 	typename _Iter_random_helper<
; 995  : 		iterator_traits<_Iter1>::iterator_category, 
; 996  : 		iterator_traits<_Iter2>::iterator_category>::_Iter_random_cat _Cat;
; 997  : 	return (_Cat);
; 998  : 	}

  00000	c3		 ret	 0
??$_Iter_random@PAPAVASN1@@PAPAV1@@std@@YA?AUrandom_access_iterator_tag@0@ABQAPAVASN1@@0@Z ENDP ; std::_Iter_random<ASN1 * *,ASN1 * *>
; Function compile flags: /Ogtpy
_TEXT	ENDS
;	COMDAT ??$_Checked_base@PAPAVASN1@@@std@@YAPAPAVASN1@@AAPAPAV1@@Z
_TEXT	SEGMENT
??$_Checked_base@PAPAVASN1@@@std@@YAPAPAVASN1@@AAPAPAV1@@Z PROC ; std::_Checked_base<ASN1 * *>, COMDAT
; __It$ = eax

; 1164 : 		typename _Checked_iterator_base_helper<_Iter>::_Checked_iterator_base_type_tag _Base_tag;
; 1165 : 		return _Checked_base(_It, _Base_tag);

  00000	8b 00		 mov	 eax, DWORD PTR [eax]

; 1166 : 	}

  00002	c3		 ret	 0
??$_Checked_base@PAPAVASN1@@@std@@YAPAPAVASN1@@AAPAPAV1@@Z ENDP ; std::_Checked_base<ASN1 * *>
; Function compile flags: /Ogtpy
_TEXT	ENDS
;	COMDAT ??$_Iter_cat@H@std@@YA?AU_Int_iterator_tag@0@ABH@Z
_TEXT	SEGMENT
__Cat$ = -1						; size = 1
??$_Iter_cat@H@std@@YA?AU_Int_iterator_tag@0@ABH@Z PROC	; std::_Iter_cat<int>, COMDAT

; 952  : 	{	// return category from iterator argument

  00000	51		 push	 ecx

; 953  : 	typename iterator_traits<_Iter>::iterator_category _Cat;
; 954  : 	return (_Cat);

  00001	8a 44 24 03	 mov	 al, BYTE PTR __Cat$[esp+4]

; 955  : 	}

  00005	59		 pop	 ecx
  00006	c3		 ret	 0
??$_Iter_cat@H@std@@YA?AU_Int_iterator_tag@0@ABH@Z ENDP	; std::_Iter_cat<int>
; Function compile flags: /Ogtpy
; File c:\program files\microsoft visual studio 9.0\vc\include\xmemory
_TEXT	ENDS
;	COMDAT ??$?0PAVASN1@@@?$allocator@V_Aux_cont@std@@@std@@QAE@ABV?$allocator@PAVASN1@@@1@@Z
_TEXT	SEGMENT
??$?0PAVASN1@@@?$allocator@V_Aux_cont@std@@@std@@QAE@ABV?$allocator@PAVASN1@@@1@@Z PROC ; std::allocator<std::_Aux_cont>::allocator<std::_Aux_cont><ASN1 *>, COMDAT
; _this$ = eax

; 129  : 		{	// construct from a related allocator (do nothing)
; 130  : 		}

  00000	c3		 ret	 0
??$?0PAVASN1@@@?$allocator@V_Aux_cont@std@@@std@@QAE@ABV?$allocator@PAVASN1@@@1@@Z ENDP ; std::allocator<std::_Aux_cont>::allocator<std::_Aux_cont><ASN1 *>
; Function compile flags: /Ogtpy
; File c:\program files\microsoft visual studio 9.0\vc\include\xutility
_TEXT	ENDS
;	COMDAT ??$fill@PAPAVASN1@@PAV1@@std@@YAXPAPAVASN1@@0ABQAV1@@Z
_TEXT	SEGMENT
__Val$ = 8						; size = 4
??$fill@PAPAVASN1@@PAV1@@std@@YAXPAPAVASN1@@0ABQAV1@@Z PROC ; std::fill<ASN1 * *,ASN1 *>, COMDAT
; __First$ = eax
; __Last$ = ecx

; 3161 : 	_Fill(_CHECKED_BASE(_First), _CHECKED_BASE(_Last), _Val);

  00000	3b c1		 cmp	 eax, ecx
  00002	74 15		 je	 SHORT $LN11@fill@4
  00004	8b 54 24 04	 mov	 edx, DWORD PTR __Val$[esp-4]
  00008	8b 12		 mov	 edx, DWORD PTR [edx]
  0000a	8d 9b 00 00 00
	00		 npad	 6
$LL13@fill@4:
  00010	89 10		 mov	 DWORD PTR [eax], edx
  00012	83 c0 04	 add	 eax, 4
  00015	3b c1		 cmp	 eax, ecx
  00017	75 f7		 jne	 SHORT $LL13@fill@4
$LN11@fill@4:

; 3162 : 	}

  00019	c3		 ret	 0
??$fill@PAPAVASN1@@PAV1@@std@@YAXPAPAVASN1@@0ABQAV1@@Z ENDP ; std::fill<ASN1 * *,ASN1 *>
; Function compile flags: /Ogtpy
; File c:\program files\microsoft visual studio 9.0\vc\include\xmemory
_TEXT	ENDS
;	COMDAT ??$_Destroy_range@V?$allocator@PAVASN1@@@std@@@std@@YAXPAPAVASN1@@0AAV?$allocator@PAVASN1@@@0@@Z
_TEXT	SEGMENT
??$_Destroy_range@V?$allocator@PAVASN1@@@std@@@std@@YAXPAPAVASN1@@0AAV?$allocator@PAVASN1@@@0@@Z PROC ; std::_Destroy_range<std::allocator<ASN1 *> >, COMDAT

; 225  : 	_Destroy_range(_First, _Last, _Al, _Ptr_cat(_First, _Last));
; 226  : 	}

  00000	c3		 ret	 0
??$_Destroy_range@V?$allocator@PAVASN1@@@std@@@std@@YAXPAPAVASN1@@0AAV?$allocator@PAVASN1@@@0@@Z ENDP ; std::_Destroy_range<std::allocator<ASN1 *> >
; Function compile flags: /Ogtpy
; File c:\program files\microsoft visual studio 9.0\vc\include\xutility
_TEXT	ENDS
;	COMDAT ??$unchecked_copy@PAPAVASN1@@PAPAV1@@stdext@@YAPAPAVASN1@@PAPAV1@00@Z
_TEXT	SEGMENT
??$unchecked_copy@PAPAVASN1@@PAPAV1@@stdext@@YAPAPAVASN1@@PAPAV1@00@Z PROC ; stdext::unchecked_copy<ASN1 * *,ASN1 * *>, COMDAT
; __First$ = edi
; __Last$ = eax
; __Dest$ = edx

; 3579 : 		return (_STD _Copy_opt(_CHECKED_BASE(_First), _CHECKED_BASE(_Last), _Dest,
; 3580 : 			_STD _Iter_random(_First, _Dest), _STD _Ptr_cat(_First, _Dest), _STD _Range_checked_iterator_tag()));

  00000	2b c7		 sub	 eax, edi
  00002	c1 f8 02	 sar	 eax, 2
  00005	8d 0c 85 00 00
	00 00		 lea	 ecx, DWORD PTR [eax*4]
  0000c	56		 push	 esi
  0000d	8d 34 11	 lea	 esi, DWORD PTR [ecx+edx]
  00010	85 c0		 test	 eax, eax
  00012	7e 0c		 jle	 SHORT $LN18@unchecked_@2
  00014	51		 push	 ecx
  00015	57		 push	 edi
  00016	51		 push	 ecx
  00017	52		 push	 edx
  00018	e8 00 00 00 00	 call	 _memmove_s
  0001d	83 c4 10	 add	 esp, 16			; 00000010H
$LN18@unchecked_@2:
  00020	8b c6		 mov	 eax, esi
  00022	5e		 pop	 esi

; 3581 : 	}

  00023	c3		 ret	 0
??$unchecked_copy@PAPAVASN1@@PAPAV1@@stdext@@YAPAPAVASN1@@PAPAV1@00@Z ENDP ; stdext::unchecked_copy<ASN1 * *,ASN1 * *>
; Function compile flags: /Ogtpy
_TEXT	ENDS
;	COMDAT ??0?$_Iterator_with_base@Urandom_access_iterator_tag@std@@PAVASN1@@HPBQAV3@ABQAV3@V_Iterator_base_aux@2@@std@@QAE@XZ
_TEXT	SEGMENT
??0?$_Iterator_with_base@Urandom_access_iterator_tag@std@@PAVASN1@@HPBQAV3@ABQAV3@V_Iterator_base_aux@2@@std@@QAE@XZ PROC ; std::_Iterator_with_base<std::random_access_iterator_tag,ASN1 *,int,ASN1 * const *,ASN1 * const &,std::_Iterator_base_aux>::_Iterator_with_base<std::random_access_iterator_tag,ASN1 *,int,ASN1 * const *,ASN1 * const &,std::_Iterator_base_aux>, COMDAT
; _this$ = eax
  00000	c7 00 00 00 00
	00		 mov	 DWORD PTR [eax], 0
  00006	c3		 ret	 0
??0?$_Iterator_with_base@Urandom_access_iterator_tag@std@@PAVASN1@@HPBQAV3@ABQAV3@V_Iterator_base_aux@2@@std@@QAE@XZ ENDP ; std::_Iterator_with_base<std::random_access_iterator_tag,ASN1 *,int,ASN1 * const *,ASN1 * const &,std::_Iterator_base_aux>::_Iterator_with_base<std::random_access_iterator_tag,ASN1 *,int,ASN1 * const *,ASN1 * const &,std::_Iterator_base_aux>
; Function compile flags: /Ogtpy
_TEXT	ENDS
;	COMDAT ??0?$_Ranit@PAVASN1@@HPBQAV1@ABQAV1@@std@@QAE@XZ
_TEXT	SEGMENT
??0?$_Ranit@PAVASN1@@HPBQAV1@ABQAV1@@std@@QAE@XZ PROC	; std::_Ranit<ASN1 *,int,ASN1 * const *,ASN1 * const &>::_Ranit<ASN1 *,int,ASN1 * const *,ASN1 * const &>, COMDAT
; _this$ = eax
  00000	c7 00 00 00 00
	00		 mov	 DWORD PTR [eax], 0
  00006	c3		 ret	 0
??0?$_Ranit@PAVASN1@@HPBQAV1@ABQAV1@@std@@QAE@XZ ENDP	; std::_Ranit<ASN1 *,int,ASN1 * const *,ASN1 * const &>::_Ranit<ASN1 *,int,ASN1 * const *,ASN1 * const &>
; Function compile flags: /Ogtpy
; File c:\program files\microsoft visual studio 9.0\vc\include\vector
_TEXT	ENDS
;	COMDAT ??8?$_Vector_const_iterator@PAVASN1@@V?$allocator@PAVASN1@@@std@@@std@@QBE_NABV01@@Z
_TEXT	SEGMENT
??8?$_Vector_const_iterator@PAVASN1@@V?$allocator@PAVASN1@@@std@@@std@@QBE_NABV01@@Z PROC ; std::_Vector_const_iterator<ASN1 *,std::allocator<ASN1 *> >::operator==, COMDAT
; _this$ = edi
; __Right$ = esi

; 204  : 
; 205  :  #if _HAS_ITERATOR_DEBUGGING
; 206  : 		_Compat(_Right);
; 207  :  #else
; 208  : 		_SCL_SECURE_VALIDATE(this->_Has_container() && this->_Same_container(_Right));

  00000	8b 07		 mov	 eax, DWORD PTR [edi]
  00002	85 c0		 test	 eax, eax
  00004	74 04		 je	 SHORT $LN1@operator
  00006	3b 06		 cmp	 eax, DWORD PTR [esi]
  00008	74 05		 je	 SHORT $LN2@operator
$LN1@operator:
  0000a	e8 00 00 00 00	 call	 __invalid_parameter_noinfo
$LN2@operator:

; 209  :  #endif /* _HAS_ITERATOR_DEBUGGING */
; 210  : 
; 211  : 		return (_Myptr == _Right._Myptr);

  0000f	8b 47 04	 mov	 eax, DWORD PTR [edi+4]
  00012	33 c9		 xor	 ecx, ecx
  00014	3b 46 04	 cmp	 eax, DWORD PTR [esi+4]
  00017	0f 94 c1	 sete	 cl
  0001a	8a c1		 mov	 al, cl

; 212  : 		}

  0001c	c3		 ret	 0
??8?$_Vector_const_iterator@PAVASN1@@V?$allocator@PAVASN1@@@std@@@std@@QBE_NABV01@@Z ENDP ; std::_Vector_const_iterator<ASN1 *,std::allocator<ASN1 *> >::operator==
; Function compile flags: /Ogtpy
_TEXT	ENDS
;	COMDAT ??0?$_Vector_const_iterator@PAVASN1@@V?$allocator@PAVASN1@@@std@@@std@@QAE@PAPAVASN1@@PBV_Container_base_aux@1@@Z
_TEXT	SEGMENT
__Ptr$ = 8						; size = 4
??0?$_Vector_const_iterator@PAVASN1@@V?$allocator@PAVASN1@@@std@@@std@@QAE@PAPAVASN1@@PBV_Container_base_aux@1@@Z PROC ; std::_Vector_const_iterator<ASN1 *,std::allocator<ASN1 *> >::_Vector_const_iterator<ASN1 *,std::allocator<ASN1 *> >, COMDAT
; _this$ = edi
; __Pvector$ = esi

; 76   : 	_Vector_const_iterator(_Tptr _Ptr, const _Container_base *_Pvector)

  00000	53		 push	 ebx
  00001	8b 5c 24 08	 mov	 ebx, DWORD PTR __Ptr$[esp]
  00005	c7 07 00 00 00
	00		 mov	 DWORD PTR [edi], 0

; 77   : 		{	// construct with pointer _Ptr
; 78   : 		_SCL_SECURE_VALIDATE(_Pvector != NULL && ((_Myvec *)_Pvector)->_Myfirst <= _Ptr && _Ptr <= ((_Myvec *)_Pvector)->_Mylast);

  0000b	85 f6		 test	 esi, esi
  0000d	74 0a		 je	 SHORT $LN1@Vector_con
  0000f	39 5e 0c	 cmp	 DWORD PTR [esi+12], ebx
  00012	77 05		 ja	 SHORT $LN1@Vector_con
  00014	3b 5e 10	 cmp	 ebx, DWORD PTR [esi+16]
  00017	76 05		 jbe	 SHORT $LN2@Vector_con
$LN1@Vector_con:
  00019	e8 00 00 00 00	 call	 __invalid_parameter_noinfo
$LN2@Vector_con:

; 79   : 		this->_Set_container(_Pvector);

  0001e	8b 06		 mov	 eax, DWORD PTR [esi]
  00020	89 07		 mov	 DWORD PTR [edi], eax

; 80   : 		_Myptr = _Ptr;

  00022	89 5f 04	 mov	 DWORD PTR [edi+4], ebx

; 81   : 		}

  00025	8b c7		 mov	 eax, edi
  00027	5b		 pop	 ebx
  00028	c2 04 00	 ret	 4
??0?$_Vector_const_iterator@PAVASN1@@V?$allocator@PAVASN1@@@std@@@std@@QAE@PAPAVASN1@@PBV_Container_base_aux@1@@Z ENDP ; std::_Vector_const_iterator<ASN1 *,std::allocator<ASN1 *> >::_Vector_const_iterator<ASN1 *,std::allocator<ASN1 *> >
; Function compile flags: /Ogtpy
; File c:\program files\microsoft visual studio 9.0\vc\include\xmemory
_TEXT	ENDS
;	COMDAT ?max_size@?$allocator@PAVASN1@@@std@@QBEIXZ
_TEXT	SEGMENT
?max_size@?$allocator@PAVASN1@@@std@@QBEIXZ PROC	; std::allocator<ASN1 *>::max_size, COMDAT

; 165  : 		_SIZT _Count = (_SIZT)(-1) / sizeof (_Ty);
; 166  : 		return (0 < _Count ? _Count : 1);

  00000	b8 ff ff ff 3f	 mov	 eax, 1073741823		; 3fffffffH

; 167  : 		}

  00005	c3		 ret	 0
?max_size@?$allocator@PAVASN1@@@std@@QBEIXZ ENDP	; std::allocator<ASN1 *>::max_size
; Function compile flags: /Ogtpy
; File c:\program files\microsoft visual studio 9.0\vc\include\vector
_TEXT	ENDS
;	COMDAT ??9?$_Vector_const_iterator@PAVASN1@@V?$allocator@PAVASN1@@@std@@@std@@QBE_NABV01@@Z
_TEXT	SEGMENT
??9?$_Vector_const_iterator@PAVASN1@@V?$allocator@PAVASN1@@@std@@@std@@QBE_NABV01@@Z PROC ; std::_Vector_const_iterator<ASN1 *,std::allocator<ASN1 *> >::operator!=, COMDAT
; _this$ = edi
; __Right$ = esi

; 216  : 		return (!(*this == _Right));

  00000	8b 07		 mov	 eax, DWORD PTR [edi]
  00002	85 c0		 test	 eax, eax
  00004	74 04		 je	 SHORT $LN3@operator@2
  00006	3b 06		 cmp	 eax, DWORD PTR [esi]
  00008	74 05		 je	 SHORT $LN4@operator@2
$LN3@operator@2:
  0000a	e8 00 00 00 00	 call	 __invalid_parameter_noinfo
$LN4@operator@2:
  0000f	8b 47 04	 mov	 eax, DWORD PTR [edi+4]
  00012	33 c9		 xor	 ecx, ecx
  00014	3b 46 04	 cmp	 eax, DWORD PTR [esi+4]
  00017	0f 95 c1	 setne	 cl
  0001a	8a c1		 mov	 al, cl

; 217  : 		}

  0001c	c3		 ret	 0
??9?$_Vector_const_iterator@PAVASN1@@V?$allocator@PAVASN1@@@std@@@std@@QBE_NABV01@@Z ENDP ; std::_Vector_const_iterator<ASN1 *,std::allocator<ASN1 *> >::operator!=
; Function compile flags: /Ogtpy
_TEXT	ENDS
;	COMDAT ??G?$_Vector_const_iterator@PAVASN1@@V?$allocator@PAVASN1@@@std@@@std@@QBEHABV01@@Z
_TEXT	SEGMENT
??G?$_Vector_const_iterator@PAVASN1@@V?$allocator@PAVASN1@@@std@@@std@@QBEHABV01@@Z PROC ; std::_Vector_const_iterator<ASN1 *,std::allocator<ASN1 *> >::operator-, COMDAT
; _this$ = edi
; __Right$ = esi

; 187  : 
; 188  :  #if _HAS_ITERATOR_DEBUGGING
; 189  : 		_Compat(_Right);
; 190  :  #else
; 191  : 		_SCL_SECURE_VALIDATE(this->_Has_container() && this->_Same_container(_Right));

  00000	8b 07		 mov	 eax, DWORD PTR [edi]
  00002	85 c0		 test	 eax, eax
  00004	74 04		 je	 SHORT $LN1@operator@3
  00006	3b 06		 cmp	 eax, DWORD PTR [esi]
  00008	74 05		 je	 SHORT $LN2@operator@3
$LN1@operator@3:
  0000a	e8 00 00 00 00	 call	 __invalid_parameter_noinfo
$LN2@operator@3:

; 192  :  #endif /* _HAS_ITERATOR_DEBUGGING */
; 193  : 
; 194  : 		return (_Myptr - _Right._Myptr);

  0000f	8b 47 04	 mov	 eax, DWORD PTR [edi+4]
  00012	2b 46 04	 sub	 eax, DWORD PTR [esi+4]
  00015	c1 f8 02	 sar	 eax, 2

; 195  : 		}

  00018	c3		 ret	 0
??G?$_Vector_const_iterator@PAVASN1@@V?$allocator@PAVASN1@@@std@@@std@@QBEHABV01@@Z ENDP ; std::_Vector_const_iterator<ASN1 *,std::allocator<ASN1 *> >::operator-
; Function compile flags: /Ogtpy
_TEXT	ENDS
;	COMDAT ??0?$_Vector_iterator@PAVASN1@@V?$allocator@PAVASN1@@@std@@@std@@QAE@PAPAVASN1@@PBV_Container_base_aux@1@@Z
_TEXT	SEGMENT
__Ptr$ = 8						; size = 4
??0?$_Vector_iterator@PAVASN1@@V?$allocator@PAVASN1@@@std@@@std@@QAE@PAPAVASN1@@PBV_Container_base_aux@1@@Z PROC ; std::_Vector_iterator<ASN1 *,std::allocator<ASN1 *> >::_Vector_iterator<ASN1 *,std::allocator<ASN1 *> >, COMDAT
; _this$ = edi
; __Pvector$ = esi

; 327  : 		{	// construct with pointer _Ptr

  00000	53		 push	 ebx
  00001	8b 5c 24 08	 mov	 ebx, DWORD PTR __Ptr$[esp]
  00005	c7 07 00 00 00
	00		 mov	 DWORD PTR [edi], 0
  0000b	85 f6		 test	 esi, esi
  0000d	74 0a		 je	 SHORT $LN3@Vector_ite
  0000f	39 5e 0c	 cmp	 DWORD PTR [esi+12], ebx
  00012	77 05		 ja	 SHORT $LN3@Vector_ite
  00014	3b 5e 10	 cmp	 ebx, DWORD PTR [esi+16]
  00017	76 05		 jbe	 SHORT $LN4@Vector_ite
$LN3@Vector_ite:
  00019	e8 00 00 00 00	 call	 __invalid_parameter_noinfo
$LN4@Vector_ite:
  0001e	8b 06		 mov	 eax, DWORD PTR [esi]
  00020	89 07		 mov	 DWORD PTR [edi], eax
  00022	89 5f 04	 mov	 DWORD PTR [edi+4], ebx

; 328  : 		}

  00025	8b c7		 mov	 eax, edi
  00027	5b		 pop	 ebx
  00028	c2 04 00	 ret	 4
??0?$_Vector_iterator@PAVASN1@@V?$allocator@PAVASN1@@@std@@@std@@QAE@PAPAVASN1@@PBV_Container_base_aux@1@@Z ENDP ; std::_Vector_iterator<ASN1 *,std::allocator<ASN1 *> >::_Vector_iterator<ASN1 *,std::allocator<ASN1 *> >
; Function compile flags: /Ogtpy
; File c:\program files\microsoft visual studio 9.0\vc\include\xmemory
_TEXT	ENDS
;	COMDAT ?deallocate@?$allocator@V_Aux_cont@std@@@std@@QAEXPAV_Aux_cont@2@I@Z
_TEXT	SEGMENT
?deallocate@?$allocator@V_Aux_cont@std@@@std@@QAEXPAV_Aux_cont@2@I@Z PROC ; std::allocator<std::_Aux_cont>::deallocate, COMDAT
; __Ptr$ = eax

; 140  : 		::operator delete(_Ptr);

  00000	50		 push	 eax
  00001	e8 00 00 00 00	 call	 ??3@YAXPAX@Z		; operator delete
  00006	59		 pop	 ecx

; 141  : 		}

  00007	c3		 ret	 0
?deallocate@?$allocator@V_Aux_cont@std@@@std@@QAEXPAV_Aux_cont@2@I@Z ENDP ; std::allocator<std::_Aux_cont>::deallocate
; Function compile flags: /Ogtpy
_TEXT	ENDS
;	COMDAT ?deallocate@?$allocator@PAVASN1@@@std@@QAEXPAPAVASN1@@I@Z
_TEXT	SEGMENT
?deallocate@?$allocator@PAVASN1@@@std@@QAEXPAPAVASN1@@I@Z PROC ; std::allocator<ASN1 *>::deallocate, COMDAT
; __Ptr$ = eax

; 140  : 		::operator delete(_Ptr);

  00000	50		 push	 eax
  00001	e8 00 00 00 00	 call	 ??3@YAXPAX@Z		; operator delete
  00006	59		 pop	 ecx

; 141  : 		}

  00007	c3		 ret	 0
?deallocate@?$allocator@PAVASN1@@@std@@QAEXPAPAVASN1@@I@Z ENDP ; std::allocator<ASN1 *>::deallocate
; Function compile flags: /Ogtpy
_TEXT	ENDS
;	COMDAT ??0?$allocator@PAVASN1@@@std@@QAE@ABV01@@Z
_TEXT	SEGMENT
??0?$allocator@PAVASN1@@@std@@QAE@ABV01@@Z PROC		; std::allocator<ASN1 *>::allocator<ASN1 *>, COMDAT
; _this$ = eax

; 124  : 		{	// construct by copying (do nothing)
; 125  : 		}

  00000	c3		 ret	 0
??0?$allocator@PAVASN1@@@std@@QAE@ABV01@@Z ENDP		; std::allocator<ASN1 *>::allocator<ASN1 *>
; Function compile flags: /Ogtpy
; File c:\program files\microsoft visual studio 9.0\vc\include\vector
_TEXT	ENDS
;	COMDAT ?_Destroy@?$vector@PAVASN1@@V?$allocator@PAVASN1@@@std@@@std@@IAEXPAPAVASN1@@0@Z
_TEXT	SEGMENT
?_Destroy@?$vector@PAVASN1@@V?$allocator@PAVASN1@@@std@@@std@@IAEXPAPAVASN1@@0@Z PROC ; std::vector<ASN1 *,std::allocator<ASN1 *> >::_Destroy, COMDAT

; 1124 : 		_Destroy_range(_First, _Last, this->_Alval);
; 1125 : 		}

  00000	c3		 ret	 0
?_Destroy@?$vector@PAVASN1@@V?$allocator@PAVASN1@@@std@@@std@@IAEXPAPAVASN1@@0@Z ENDP ; std::vector<ASN1 *,std::allocator<ASN1 *> >::_Destroy
; Function compile flags: /Ogtpy
_TEXT	ENDS
;	COMDAT ?max_size@?$vector@PAVASN1@@V?$allocator@PAVASN1@@@std@@@std@@QBEIXZ
_TEXT	SEGMENT
?max_size@?$vector@PAVASN1@@V?$allocator@PAVASN1@@@std@@@std@@QBEIXZ PROC ; std::vector<ASN1 *,std::allocator<ASN1 *> >::max_size, COMDAT

; 731  : 		return (this->_Alval.max_size());

  00000	b8 ff ff ff 3f	 mov	 eax, 1073741823		; 3fffffffH

; 732  : 		}

  00005	c3		 ret	 0
?max_size@?$vector@PAVASN1@@V?$allocator@PAVASN1@@@std@@@std@@QBEIXZ ENDP ; std::vector<ASN1 *,std::allocator<ASN1 *> >::max_size
; Function compile flags: /Ogtpy
_TEXT	ENDS
;	COMDAT ?_Make_iter@?$vector@PAVASN1@@V?$allocator@PAVASN1@@@std@@@std@@QBE?AV?$_Vector_iterator@PAVASN1@@V?$allocator@PAVASN1@@@std@@@2@V?$_Vector_const_iterator@PAVASN1@@V?$allocator@PAVASN1@@@std@@@2@@Z
_TEXT	SEGMENT
__Where$ = 8						; size = 8
?_Make_iter@?$vector@PAVASN1@@V?$allocator@PAVASN1@@@std@@@std@@QBE?AV?$_Vector_iterator@PAVASN1@@V?$allocator@PAVASN1@@@std@@@2@V?$_Vector_const_iterator@PAVASN1@@V?$allocator@PAVASN1@@@std@@@2@@Z PROC ; std::vector<ASN1 *,std::allocator<ASN1 *> >::_Make_iter, COMDAT
; _this$ = edi
; ___$ReturnUdt$ = esi

; 661  : 		return (iterator(_Where._Myptr, this));

  00000	c7 06 00 00 00
	00		 mov	 DWORD PTR [esi], 0
  00006	85 ff		 test	 edi, edi
  00008	74 0e		 je	 SHORT $LN5@Make_iter
  0000a	8b 44 24 08	 mov	 eax, DWORD PTR __Where$[esp]
  0000e	39 47 0c	 cmp	 DWORD PTR [edi+12], eax
  00011	77 05		 ja	 SHORT $LN5@Make_iter
  00013	3b 47 10	 cmp	 eax, DWORD PTR [edi+16]
  00016	76 09		 jbe	 SHORT $LN6@Make_iter
$LN5@Make_iter:
  00018	e8 00 00 00 00	 call	 __invalid_parameter_noinfo
  0001d	8b 44 24 08	 mov	 eax, DWORD PTR __Where$[esp]
$LN6@Make_iter:
  00021	8b 0f		 mov	 ecx, DWORD PTR [edi]
  00023	89 46 04	 mov	 DWORD PTR [esi+4], eax
  00026	89 0e		 mov	 DWORD PTR [esi], ecx
  00028	8b c6		 mov	 eax, esi

; 662  : 		}

  0002a	c2 08 00	 ret	 8
?_Make_iter@?$vector@PAVASN1@@V?$allocator@PAVASN1@@@std@@@std@@QBE?AV?$_Vector_iterator@PAVASN1@@V?$allocator@PAVASN1@@@std@@@2@V?$_Vector_const_iterator@PAVASN1@@V?$allocator@PAVASN1@@@std@@@2@@Z ENDP ; std::vector<ASN1 *,std::allocator<ASN1 *> >::_Make_iter
; Function compile flags: /Ogtpy
; File c:\program files\microsoft visual studio 9.0\vc\include\xmemory
_TEXT	ENDS
;	COMDAT ??0?$allocator@PAVASN1@@@std@@QAE@XZ
_TEXT	SEGMENT
??0?$allocator@PAVASN1@@@std@@QAE@XZ PROC		; std::allocator<ASN1 *>::allocator<ASN1 *>, COMDAT
; _this$ = eax

; 120  : 		{	// construct default allocator (do nothing)
; 121  : 		}

  00000	c3		 ret	 0
??0?$allocator@PAVASN1@@@std@@QAE@XZ ENDP		; std::allocator<ASN1 *>::allocator<ASN1 *>
; Function compile flags: /Ogtpy
; File c:\program files\microsoft visual studio 9.0\vc\include\xutility
_TEXT	ENDS
;	COMDAT ??1?$_Container_base_aux_alloc_real@V?$allocator@PAVASN1@@@std@@@std@@IAE@XZ
_TEXT	SEGMENT
??1?$_Container_base_aux_alloc_real@V?$allocator@PAVASN1@@@std@@@std@@IAE@XZ PROC ; std::_Container_base_aux_alloc_real<std::allocator<ASN1 *> >::~_Container_base_aux_alloc_real<std::allocator<ASN1 *> >, COMDAT
; _this$ = eax

; 437  : 		_Myownedaux->~_Aux_cont();
; 438  : 
; 439  : 		_Alaux.deallocate(_Myownedaux, 1);

  00000	8b 08		 mov	 ecx, DWORD PTR [eax]
  00002	51		 push	 ecx
  00003	e8 00 00 00 00	 call	 ??3@YAXPAX@Z		; operator delete
  00008	59		 pop	 ecx

; 440  : 		}

  00009	c3		 ret	 0
??1?$_Container_base_aux_alloc_real@V?$allocator@PAVASN1@@@std@@@std@@IAE@XZ ENDP ; std::_Container_base_aux_alloc_real<std::allocator<ASN1 *> >::~_Container_base_aux_alloc_real<std::allocator<ASN1 *> >
; Function compile flags: /Ogtpy
; File c:\program files\microsoft visual studio 9.0\vc\include\vector
_TEXT	ENDS
;	COMDAT ?_Tidy@?$vector@PAVASN1@@V?$allocator@PAVASN1@@@std@@@std@@IAEXXZ
_TEXT	SEGMENT
?_Tidy@?$vector@PAVASN1@@V?$allocator@PAVASN1@@@std@@@std@@IAEXXZ PROC ; std::vector<ASN1 *,std::allocator<ASN1 *> >::_Tidy, COMDAT
; _this$ = esi

; 1129 : 		if (_Myfirst != 0)

  00000	8b 46 0c	 mov	 eax, DWORD PTR [esi+12]
  00003	85 c0		 test	 eax, eax
  00005	74 09		 je	 SHORT $LN4@Tidy@3

; 1130 : 			{	// something to free, destroy and deallocate it
; 1131 : 
; 1132 :  #if _HAS_ITERATOR_DEBUGGING
; 1133 : 			this->_Orphan_all();
; 1134 :  #endif /* _HAS_ITERATOR_DEBUGGING */
; 1135 : 
; 1136 : 			_Destroy(_Myfirst, _Mylast);
; 1137 : 			this->_Alval.deallocate(_Myfirst, _Myend - _Myfirst);

  00007	50		 push	 eax
  00008	e8 00 00 00 00	 call	 ??3@YAXPAX@Z		; operator delete
  0000d	83 c4 04	 add	 esp, 4
$LN4@Tidy@3:

; 1138 : 			}
; 1139 : 		_Myfirst = 0, _Mylast = 0, _Myend = 0;

  00010	c7 46 0c 00 00
	00 00		 mov	 DWORD PTR [esi+12], 0
  00017	c7 46 10 00 00
	00 00		 mov	 DWORD PTR [esi+16], 0
  0001e	c7 46 14 00 00
	00 00		 mov	 DWORD PTR [esi+20], 0

; 1140 : 		}

  00025	c3		 ret	 0
?_Tidy@?$vector@PAVASN1@@V?$allocator@PAVASN1@@@std@@@std@@IAEXXZ ENDP ; std::vector<ASN1 *,std::allocator<ASN1 *> >::_Tidy
; Function compile flags: /Ogtpy
_TEXT	ENDS
;	COMDAT ?erase@?$vector@PAVASN1@@V?$allocator@PAVASN1@@@std@@@std@@QAE?AV?$_Vector_iterator@PAVASN1@@V?$allocator@PAVASN1@@@std@@@2@V?$_Vector_const_iterator@PAVASN1@@V?$allocator@PAVASN1@@@std@@@2@0@Z
_TEXT	SEGMENT
___$ReturnUdt$ = 8					; size = 4
__First_arg$ = 12					; size = 8
__Last_arg$ = 20					; size = 8
?erase@?$vector@PAVASN1@@V?$allocator@PAVASN1@@@std@@@std@@QAE?AV?$_Vector_iterator@PAVASN1@@V?$allocator@PAVASN1@@@std@@@2@V?$_Vector_const_iterator@PAVASN1@@V?$allocator@PAVASN1@@@std@@@2@0@Z PROC ; std::vector<ASN1 *,std::allocator<ASN1 *> >::erase, COMDAT
; _this$ = esi

; 1033 : 		{	// erase [_First, _Last)

  00000	53		 push	 ebx
  00001	8b 5c 24 08	 mov	 ebx, DWORD PTR ___$ReturnUdt$[esp]
  00005	55		 push	 ebp
  00006	57		 push	 edi

; 1034 : 		iterator _First = _Make_iter(_First_arg);

  00007	c7 03 00 00 00
	00		 mov	 DWORD PTR [ebx], 0
  0000d	85 f6		 test	 esi, esi
  0000f	74 0e		 je	 SHORT $LN8@erase
  00011	8b 44 24 18	 mov	 eax, DWORD PTR __First_arg$[esp+12]
  00015	39 46 0c	 cmp	 DWORD PTR [esi+12], eax
  00018	77 05		 ja	 SHORT $LN8@erase
  0001a	3b 46 10	 cmp	 eax, DWORD PTR [esi+16]
  0001d	76 09		 jbe	 SHORT $LN9@erase
$LN8@erase:
  0001f	e8 00 00 00 00	 call	 __invalid_parameter_noinfo
  00024	8b 44 24 18	 mov	 eax, DWORD PTR __First_arg$[esp+12]
$LN9@erase:

; 1035 : 		iterator _Last = _Make_iter(_Last_arg);

  00028	8b 7c 24 20	 mov	 edi, DWORD PTR __Last_arg$[esp+12]
  0002c	8b 0e		 mov	 ecx, DWORD PTR [esi]
  0002e	89 0b		 mov	 DWORD PTR [ebx], ecx
  00030	89 43 04	 mov	 DWORD PTR [ebx+4], eax
  00033	39 7e 0c	 cmp	 DWORD PTR [esi+12], edi
  00036	77 05		 ja	 SHORT $LN24@erase
  00038	3b 7e 10	 cmp	 edi, DWORD PTR [esi+16]
  0003b	76 09		 jbe	 SHORT $LN25@erase
$LN24@erase:
  0003d	e8 00 00 00 00	 call	 __invalid_parameter_noinfo
  00042	8b 7c 24 20	 mov	 edi, DWORD PTR __Last_arg$[esp+12]
$LN25@erase:

; 1036 : 
; 1037 : 		if (_First != _Last)

  00046	8b 03		 mov	 eax, DWORD PTR [ebx]
  00048	8b 0e		 mov	 ecx, DWORD PTR [esi]
  0004a	85 c0		 test	 eax, eax
  0004c	74 04		 je	 SHORT $LN38@erase
  0004e	3b c1		 cmp	 eax, ecx
  00050	74 05		 je	 SHORT $LN39@erase
$LN38@erase:
  00052	e8 00 00 00 00	 call	 __invalid_parameter_noinfo
$LN39@erase:
  00057	8b 53 04	 mov	 edx, DWORD PTR [ebx+4]
  0005a	3b d7		 cmp	 edx, edi
  0005c	74 25		 je	 SHORT $LN63@erase

; 1038 : 			{	// worth doing, copy down over hole
; 1039 : 
; 1040 :  #if _HAS_ITERATOR_DEBUGGING
; 1041 : 			if (_Last < _First || _First._Mycont != this
; 1042 : 				|| _First._Myptr < _Myfirst || _Mylast < _Last._Myptr)
; 1043 : 				_DEBUG_ERROR("vector erase iterator outside range");
; 1044 : 			pointer _Ptr = _STDEXT unchecked_copy(_VEC_ITER_BASE(_Last), _Mylast,
; 1045 : 				_VEC_ITER_BASE(_First));
; 1046 : 			_Orphan_range(_First._Myptr, _Mylast);
; 1047 : 
; 1048 :  #else /* _HAS_ITERATOR_DEBUGGING */
; 1049 : 			pointer _Ptr = _STDEXT unchecked_copy(_VEC_ITER_BASE(_Last), _Mylast,
; 1050 : 				_VEC_ITER_BASE(_First));

  0005e	8b 46 10	 mov	 eax, DWORD PTR [esi+16]
  00061	2b c7		 sub	 eax, edi
  00063	c1 f8 02	 sar	 eax, 2
  00066	8d 0c 85 00 00
	00 00		 lea	 ecx, DWORD PTR [eax*4]
  0006d	8d 2c 11	 lea	 ebp, DWORD PTR [ecx+edx]
  00070	85 c0		 test	 eax, eax
  00072	7e 0c		 jle	 SHORT $LN60@erase
  00074	51		 push	 ecx
  00075	57		 push	 edi
  00076	51		 push	 ecx
  00077	52		 push	 edx
  00078	e8 00 00 00 00	 call	 _memmove_s
  0007d	83 c4 10	 add	 esp, 16			; 00000010H
$LN60@erase:

; 1051 :  #endif /* _HAS_ITERATOR_DEBUGGING */
; 1052 : 
; 1053 : 			_Destroy(_Ptr, _Mylast);
; 1054 : 			_Mylast = _Ptr;

  00080	89 6e 10	 mov	 DWORD PTR [esi+16], ebp
$LN63@erase:

; 1055 : 			}
; 1056 : #if _HAS_ITERATOR_DEBUGGING
; 1057 :         return (iterator(_First._Myptr, this));
; 1058 : #else
; 1059 : 		return (_First);
; 1060 : #endif
; 1061 : 		}

  00083	5f		 pop	 edi
  00084	5d		 pop	 ebp
  00085	8b c3		 mov	 eax, ebx
  00087	5b		 pop	 ebx
  00088	c2 14 00	 ret	 20			; 00000014H
?erase@?$vector@PAVASN1@@V?$allocator@PAVASN1@@@std@@@std@@QAE?AV?$_Vector_iterator@PAVASN1@@V?$allocator@PAVASN1@@@std@@@2@V?$_Vector_const_iterator@PAVASN1@@V?$allocator@PAVASN1@@@std@@@2@0@Z ENDP ; std::vector<ASN1 *,std::allocator<ASN1 *> >::erase
; Function compile flags: /Ogtpy
_TEXT	ENDS
;	COMDAT ?end@?$vector@PAVASN1@@V?$allocator@PAVASN1@@@std@@@std@@QAE?AV?$_Vector_iterator@PAVASN1@@V?$allocator@PAVASN1@@@std@@@2@XZ
_TEXT	SEGMENT
?end@?$vector@PAVASN1@@V?$allocator@PAVASN1@@@std@@@std@@QAE?AV?$_Vector_iterator@PAVASN1@@V?$allocator@PAVASN1@@@std@@@2@XZ PROC ; std::vector<ASN1 *,std::allocator<ASN1 *> >::end, COMDAT
; _this$ = edi
; ___$ReturnUdt$ = esi

; 650  : 		{	// return iterator for end of mutable sequence

  00000	53		 push	 ebx

; 651  : 		return (iterator(_Mylast, this));

  00001	8b 5f 10	 mov	 ebx, DWORD PTR [edi+16]
  00004	c7 06 00 00 00
	00		 mov	 DWORD PTR [esi], 0
  0000a	39 5f 0c	 cmp	 DWORD PTR [edi+12], ebx
  0000d	76 05		 jbe	 SHORT $LN6@end
  0000f	e8 00 00 00 00	 call	 __invalid_parameter_noinfo
$LN6@end:
  00014	8b 07		 mov	 eax, DWORD PTR [edi]
  00016	89 06		 mov	 DWORD PTR [esi], eax
  00018	89 5e 04	 mov	 DWORD PTR [esi+4], ebx
  0001b	8b c6		 mov	 eax, esi
  0001d	5b		 pop	 ebx

; 652  : 		}

  0001e	c3		 ret	 0
?end@?$vector@PAVASN1@@V?$allocator@PAVASN1@@@std@@@std@@QAE?AV?$_Vector_iterator@PAVASN1@@V?$allocator@PAVASN1@@@std@@@2@XZ ENDP ; std::vector<ASN1 *,std::allocator<ASN1 *> >::end
; Function compile flags: /Ogtpy
_TEXT	ENDS
;	COMDAT ?begin@?$vector@PAVASN1@@V?$allocator@PAVASN1@@@std@@@std@@QAE?AV?$_Vector_iterator@PAVASN1@@V?$allocator@PAVASN1@@@std@@@2@XZ
_TEXT	SEGMENT
?begin@?$vector@PAVASN1@@V?$allocator@PAVASN1@@@std@@@std@@QAE?AV?$_Vector_iterator@PAVASN1@@V?$allocator@PAVASN1@@@std@@@2@XZ PROC ; std::vector<ASN1 *,std::allocator<ASN1 *> >::begin, COMDAT
; _this$ = edi
; ___$ReturnUdt$ = esi

; 640  : 		{	// return iterator for beginning of mutable sequence

  00000	53		 push	 ebx

; 641  : 		return (iterator(_Myfirst, this));

  00001	8b 5f 0c	 mov	 ebx, DWORD PTR [edi+12]
  00004	c7 06 00 00 00
	00		 mov	 DWORD PTR [esi], 0
  0000a	3b 5f 10	 cmp	 ebx, DWORD PTR [edi+16]
  0000d	76 05		 jbe	 SHORT $LN6@begin
  0000f	e8 00 00 00 00	 call	 __invalid_parameter_noinfo
$LN6@begin:
  00014	8b 07		 mov	 eax, DWORD PTR [edi]
  00016	89 06		 mov	 DWORD PTR [esi], eax
  00018	89 5e 04	 mov	 DWORD PTR [esi+4], ebx
  0001b	8b c6		 mov	 eax, esi
  0001d	5b		 pop	 ebx

; 642  : 		}

  0001e	c3		 ret	 0
?begin@?$vector@PAVASN1@@V?$allocator@PAVASN1@@@std@@@std@@QAE?AV?$_Vector_iterator@PAVASN1@@V?$allocator@PAVASN1@@@std@@@2@XZ ENDP ; std::vector<ASN1 *,std::allocator<ASN1 *> >::begin
; Function compile flags: /Ogtpy
_TEXT	ENDS
;	COMDAT ?capacity@?$vector@PAVASN1@@V?$allocator@PAVASN1@@@std@@@std@@QBEIXZ
_TEXT	SEGMENT
?capacity@?$vector@PAVASN1@@V?$allocator@PAVASN1@@@std@@@std@@QBEIXZ PROC ; std::vector<ASN1 *,std::allocator<ASN1 *> >::capacity, COMDAT
; _this$ = eax

; 635  : 		return (_Myfirst == 0 ? 0 : _Myend - _Myfirst);

  00000	8b 48 0c	 mov	 ecx, DWORD PTR [eax+12]
  00003	85 c9		 test	 ecx, ecx
  00005	75 03		 jne	 SHORT $LN3@capacity@4
  00007	33 c0		 xor	 eax, eax

; 636  : 		}

  00009	c3		 ret	 0
$LN3@capacity@4:

; 635  : 		return (_Myfirst == 0 ? 0 : _Myend - _Myfirst);

  0000a	8b 40 14	 mov	 eax, DWORD PTR [eax+20]
  0000d	2b c1		 sub	 eax, ecx
  0000f	c1 f8 02	 sar	 eax, 2

; 636  : 		}

  00012	c3		 ret	 0
?capacity@?$vector@PAVASN1@@V?$allocator@PAVASN1@@@std@@@std@@QBEIXZ ENDP ; std::vector<ASN1 *,std::allocator<ASN1 *> >::capacity
; Function compile flags: /Ogtpy
_TEXT	ENDS
;	COMDAT ??1?$_Vector_val@PAVASN1@@V?$allocator@PAVASN1@@@std@@@std@@QAE@XZ
_TEXT	SEGMENT
??1?$_Vector_val@PAVASN1@@V?$allocator@PAVASN1@@@std@@@std@@QAE@XZ PROC ; std::_Vector_val<ASN1 *,std::allocator<ASN1 *> >::~_Vector_val<ASN1 *,std::allocator<ASN1 *> >, COMDAT
; _this$ = eax
  00000	8b 08		 mov	 ecx, DWORD PTR [eax]
  00002	51		 push	 ecx
  00003	e8 00 00 00 00	 call	 ??3@YAXPAX@Z		; operator delete
  00008	59		 pop	 ecx
  00009	c3		 ret	 0
??1?$_Vector_val@PAVASN1@@V?$allocator@PAVASN1@@@std@@@std@@QAE@XZ ENDP ; std::_Vector_val<ASN1 *,std::allocator<ASN1 *> >::~_Vector_val<ASN1 *,std::allocator<ASN1 *> >
; Function compile flags: /Ogtpy
_TEXT	ENDS
;	COMDAT ?clear@?$vector@PAVASN1@@V?$allocator@PAVASN1@@@std@@@std@@QAEXXZ
_TEXT	SEGMENT
$T49770 = -8						; size = 4
$T49722 = -8						; size = 8
?clear@?$vector@PAVASN1@@V?$allocator@PAVASN1@@@std@@@std@@QAEXXZ PROC ; std::vector<ASN1 *,std::allocator<ASN1 *> >::clear, COMDAT
; _this$ = eax

; 1064 : 		{	// erase all

  00000	55		 push	 ebp
  00001	8b ec		 mov	 ebp, esp
  00003	83 e4 f8	 and	 esp, -8			; fffffff8H
  00006	83 ec 0c	 sub	 esp, 12			; 0000000cH
  00009	53		 push	 ebx
  0000a	56		 push	 esi
  0000b	8b f0		 mov	 esi, eax

; 1065 : 		erase(begin(), end());

  0000d	8b 46 10	 mov	 eax, DWORD PTR [esi+16]
  00010	57		 push	 edi
  00011	89 44 24 10	 mov	 DWORD PTR $T49770[esp+24], eax
  00015	39 46 0c	 cmp	 DWORD PTR [esi+12], eax
  00018	76 05		 jbe	 SHORT $LN8@clear
  0001a	e8 00 00 00 00	 call	 __invalid_parameter_noinfo
$LN8@clear:
  0001f	8b 7e 0c	 mov	 edi, DWORD PTR [esi+12]
  00022	8b 1e		 mov	 ebx, DWORD PTR [esi]
  00024	3b 7e 10	 cmp	 edi, DWORD PTR [esi+16]
  00027	76 05		 jbe	 SHORT $LN24@clear
  00029	e8 00 00 00 00	 call	 __invalid_parameter_noinfo
$LN24@clear:
  0002e	8b 4c 24 10	 mov	 ecx, DWORD PTR $T49770[esp+24]
  00032	8b 06		 mov	 eax, DWORD PTR [esi]
  00034	51		 push	 ecx
  00035	53		 push	 ebx
  00036	57		 push	 edi
  00037	50		 push	 eax
  00038	8d 54 24 20	 lea	 edx, DWORD PTR $T49722[esp+40]
  0003c	52		 push	 edx
  0003d	e8 00 00 00 00	 call	 ?erase@?$vector@PAVASN1@@V?$allocator@PAVASN1@@@std@@@std@@QAE?AV?$_Vector_iterator@PAVASN1@@V?$allocator@PAVASN1@@@std@@@2@V?$_Vector_const_iterator@PAVASN1@@V?$allocator@PAVASN1@@@std@@@2@0@Z ; std::vector<ASN1 *,std::allocator<ASN1 *> >::erase

; 1066 : 		}

  00042	5f		 pop	 edi
  00043	5e		 pop	 esi
  00044	5b		 pop	 ebx
  00045	8b e5		 mov	 esp, ebp
  00047	5d		 pop	 ebp
  00048	c3		 ret	 0
?clear@?$vector@PAVASN1@@V?$allocator@PAVASN1@@@std@@@std@@QAEXXZ ENDP ; std::vector<ASN1 *,std::allocator<ASN1 *> >::clear
; Function compile flags: /Ogtpy
_TEXT	ENDS
;	COMDAT ?size@?$vector@PAVASN1@@V?$allocator@PAVASN1@@@std@@@std@@QBEIXZ
_TEXT	SEGMENT
?size@?$vector@PAVASN1@@V?$allocator@PAVASN1@@@std@@@std@@QBEIXZ PROC ; std::vector<ASN1 *,std::allocator<ASN1 *> >::size, COMDAT
; _this$ = ecx

; 726  : 		return (_Mylast - _Myfirst);

  00000	8b 41 10	 mov	 eax, DWORD PTR [ecx+16]
  00003	2b 41 0c	 sub	 eax, DWORD PTR [ecx+12]
  00006	c1 f8 02	 sar	 eax, 2

; 727  : 		}

  00009	c3		 ret	 0
?size@?$vector@PAVASN1@@V?$allocator@PAVASN1@@@std@@@std@@QBEIXZ ENDP ; std::vector<ASN1 *,std::allocator<ASN1 *> >::size
; Function compile flags: /Ogtpy
_TEXT	ENDS
;	COMDAT ??1?$vector@PAVASN1@@V?$allocator@PAVASN1@@@std@@@std@@QAE@XZ
_TEXT	SEGMENT
??1?$vector@PAVASN1@@V?$allocator@PAVASN1@@@std@@@std@@QAE@XZ PROC ; std::vector<ASN1 *,std::allocator<ASN1 *> >::~vector<ASN1 *,std::allocator<ASN1 *> >, COMDAT
; _this$ = esi

; 559  : 		_Tidy();

  00000	8b 46 0c	 mov	 eax, DWORD PTR [esi+12]
  00003	85 c0		 test	 eax, eax
  00005	74 09		 je	 SHORT $LN6@vector
  00007	50		 push	 eax
  00008	e8 00 00 00 00	 call	 ??3@YAXPAX@Z		; operator delete
  0000d	83 c4 04	 add	 esp, 4
$LN6@vector:

; 560  : 		}

  00010	8b 06		 mov	 eax, DWORD PTR [esi]
  00012	50		 push	 eax
  00013	c7 46 0c 00 00
	00 00		 mov	 DWORD PTR [esi+12], 0
  0001a	c7 46 10 00 00
	00 00		 mov	 DWORD PTR [esi+16], 0
  00021	c7 46 14 00 00
	00 00		 mov	 DWORD PTR [esi+20], 0
  00028	e8 00 00 00 00	 call	 ??3@YAXPAX@Z		; operator delete
  0002d	59		 pop	 ecx
  0002e	c3		 ret	 0
??1?$vector@PAVASN1@@V?$allocator@PAVASN1@@@std@@@std@@QAE@XZ ENDP ; std::vector<ASN1 *,std::allocator<ASN1 *> >::~vector<ASN1 *,std::allocator<ASN1 *> >
_TEXT	ENDS
PUBLIC	?Get_szInt_for_BER@ASN1@@QAEIH@Z		; ASN1::Get_szInt_for_BER
; Function compile flags: /Ogtpy
; File i:\“n•”“ÄŽj\my project\cms\cms\asn1\asn1.cpp
;	COMDAT ?Get_szInt_for_BER@ASN1@@QAEIH@Z
_TEXT	SEGMENT
?Get_szInt_for_BER@ASN1@@QAEIH@Z PROC			; ASN1::Get_szInt_for_BER, COMDAT
; __i$ = eax

; 246  : 
; 247  : 	unsigned int	iResult;
; 248  : 
; 249  : 	if((_i < 128) && (_i >= -128)) {	//-128`127

  00000	8d 88 80 00 00
	00		 lea	 ecx, DWORD PTR [eax+128]
  00006	81 f9 ff 00 00
	00		 cmp	 ecx, 255		; 000000ffH
  0000c	77 06		 ja	 SHORT $LN6@Get_szInt_

; 250  : 		iResult = 1;

  0000e	b8 01 00 00 00	 mov	 eax, 1

; 254  : 		iResult = 3;
; 255  : 	} else {
; 256  : 		iResult = 4;
; 257  : 	}
; 258  : 
; 259  : 	return(iResult);
; 260  : }

  00013	c3		 ret	 0
$LN6@Get_szInt_:

; 251  : 	} else if((_i < 32768) && (_i >= -32768)) {	//128`32767,	

  00014	8d 90 00 80 00
	00		 lea	 edx, DWORD PTR [eax+32768]
  0001a	81 fa ff ff 00
	00		 cmp	 edx, 65535		; 0000ffffH
  00020	77 06		 ja	 SHORT $LN4@Get_szInt_

; 252  : 		iResult = 2;

  00022	b8 02 00 00 00	 mov	 eax, 2

; 254  : 		iResult = 3;
; 255  : 	} else {
; 256  : 		iResult = 4;
; 257  : 	}
; 258  : 
; 259  : 	return(iResult);
; 260  : }

  00027	c3		 ret	 0
$LN4@Get_szInt_:

; 253  : 	} else if((_i < 8388608) && (_i >= -8388608)) {

  00028	05 00 00 80 00	 add	 eax, 8388608		; 00800000H
  0002d	b9 ff ff ff 00	 mov	 ecx, 16777215		; 00ffffffH
  00032	3b c8		 cmp	 ecx, eax
  00034	1b c0		 sbb	 eax, eax
  00036	f7 d8		 neg	 eax
  00038	83 c0 03	 add	 eax, 3

; 254  : 		iResult = 3;
; 255  : 	} else {
; 256  : 		iResult = 4;
; 257  : 	}
; 258  : 
; 259  : 	return(iResult);
; 260  : }

  0003b	c3		 ret	 0
?Get_szInt_for_BER@ASN1@@QAEIH@Z ENDP			; ASN1::Get_szInt_for_BER
_TEXT	ENDS
PUBLIC	?Set_ExternalDataSize@ASN1@@QAEXI@Z		; ASN1::Set_ExternalDataSize
; Function compile flags: /Ogtpy
;	COMDAT ?Set_ExternalDataSize@ASN1@@QAEXI@Z
_TEXT	SEGMENT
?Set_ExternalDataSize@ASN1@@QAEXI@Z PROC		; ASN1::Set_ExternalDataSize, COMDAT
; _this$ = eax
; _iSize$ = ecx

; 66   : 	szAddValue = iSize;

  00000	89 48 40	 mov	 DWORD PTR [eax+64], ecx

; 67   : }

  00003	c3		 ret	 0
?Set_ExternalDataSize@ASN1@@QAEXI@Z ENDP		; ASN1::Set_ExternalDataSize
_TEXT	ENDS
PUBLIC	?Clear_Construct@ASN1@@QAEXXZ			; ASN1::Clear_Construct
; Function compile flags: /Ogtpy
;	COMDAT ?Clear_Construct@ASN1@@QAEXXZ
_TEXT	SEGMENT
?Clear_Construct@ASN1@@QAEXXZ PROC			; ASN1::Clear_Construct, COMDAT
; _this$ = eax

; 53   : 	Constructed.clear();

  00000	83 c0 28	 add	 eax, 40			; 00000028H
  00003	e9 00 00 00 00	 jmp	 ?clear@?$vector@PAVASN1@@V?$allocator@PAVASN1@@@std@@@std@@QAEXXZ ; std::vector<ASN1 *,std::allocator<ASN1 *> >::clear
?Clear_Construct@ASN1@@QAEXXZ ENDP			; ASN1::Clear_Construct
; Function compile flags: /Ogtpy
; File c:\program files\microsoft visual studio 9.0\vc\include\stdexcept
;	COMDAT ?what@logic_error@std@@UBEPBDXZ
_TEXT	SEGMENT
?what@logic_error@std@@UBEPBDXZ PROC			; std::logic_error::what, COMDAT
; _this$ = ecx

; 35   : 		return (_Str.c_str());

  00000	83 79 24 10	 cmp	 DWORD PTR [ecx+36], 16	; 00000010H
  00004	72 04		 jb	 SHORT $LN7@what
  00006	8b 41 10	 mov	 eax, DWORD PTR [ecx+16]

; 36   : 		}

  00009	c3		 ret	 0

; 35   : 		return (_Str.c_str());

$LN7@what:
  0000a	8d 41 10	 lea	 eax, DWORD PTR [ecx+16]

; 36   : 		}

  0000d	c3		 ret	 0
?what@logic_error@std@@UBEPBDXZ ENDP			; std::logic_error::what
; Function compile flags: /Ogtpy
; File c:\program files\microsoft visual studio 9.0\vc\include\xutility
_TEXT	ENDS
;	COMDAT ?_Getmycont@_Iterator_base_aux@std@@QBEPBV_Container_base_aux@2@XZ
_TEXT	SEGMENT
?_Getmycont@_Iterator_base_aux@std@@QBEPBV_Container_base_aux@2@XZ PROC ; std::_Iterator_base_aux::_Getmycont, COMDAT
; _this$ = eax

; 458  : 		return _Myaux ? _Myaux->_Getcont() : 0;

  00000	8b 00		 mov	 eax, DWORD PTR [eax]
  00002	85 c0		 test	 eax, eax
  00004	74 03		 je	 SHORT $LN3@Getmycont
  00006	8b 00		 mov	 eax, DWORD PTR [eax]

; 459  : 		}

  00008	c3		 ret	 0
$LN3@Getmycont:

; 458  : 		return _Myaux ? _Myaux->_Getcont() : 0;

  00009	33 c0		 xor	 eax, eax

; 459  : 		}

  0000b	c3		 ret	 0
?_Getmycont@_Iterator_base_aux@std@@QBEPBV_Container_base_aux@2@XZ ENDP ; std::_Iterator_base_aux::_Getmycont
; Function compile flags: /Ogtpy
; File c:\program files\microsoft visual studio 9.0\vc\include\memory
_TEXT	ENDS
;	COMDAT ??$unchecked_uninitialized_copy@PAPAVASN1@@PAPAV1@V?$allocator@PAVASN1@@@std@@@stdext@@YAPAPAVASN1@@PAPAV1@00AAV?$allocator@PAVASN1@@@std@@@Z
_TEXT	SEGMENT
??$unchecked_uninitialized_copy@PAPAVASN1@@PAPAV1@V?$allocator@PAVASN1@@@std@@@stdext@@YAPAPAVASN1@@PAPAV1@00AAV?$allocator@PAVASN1@@@std@@@Z PROC ; stdext::unchecked_uninitialized_copy<ASN1 * *,ASN1 * *,std::allocator<ASN1 *> >, COMDAT
; __First$ = edi
; __Last$ = eax
; __Dest$ = edx

; 810  : 		return (_STD _Uninit_copy(_CHECKED_BASE(_First), _CHECKED_BASE(_Last), _Dest, _Al,
; 811  : 			_STD _Ptr_cat(_First, _Dest), _STD _Range_checked_iterator_tag()));

  00000	2b c7		 sub	 eax, edi
  00002	c1 f8 02	 sar	 eax, 2
  00005	8d 0c 85 00 00
	00 00		 lea	 ecx, DWORD PTR [eax*4]
  0000c	56		 push	 esi
  0000d	8d 34 11	 lea	 esi, DWORD PTR [ecx+edx]
  00010	85 c0		 test	 eax, eax
  00012	76 0c		 jbe	 SHORT $LN16@unchecked_@12
  00014	51		 push	 ecx
  00015	57		 push	 edi
  00016	51		 push	 ecx
  00017	52		 push	 edx
  00018	e8 00 00 00 00	 call	 _memmove_s
  0001d	83 c4 10	 add	 esp, 16			; 00000010H
$LN16@unchecked_@12:
  00020	8b c6		 mov	 eax, esi
  00022	5e		 pop	 esi

; 812  : 	}

  00023	c3		 ret	 0
??$unchecked_uninitialized_copy@PAPAVASN1@@PAPAV1@V?$allocator@PAVASN1@@@std@@@stdext@@YAPAPAVASN1@@PAPAV1@00AAV?$allocator@PAVASN1@@@std@@@Z ENDP ; stdext::unchecked_uninitialized_copy<ASN1 * *,ASN1 * *,std::allocator<ASN1 *> >
; Function compile flags: /Ogtpy
; File c:\program files\microsoft visual studio 9.0\vc\include\xutility
_TEXT	ENDS
;	COMDAT ??$_Fill_n@PAPAVASN1@@IPAV1@@std@@YAXPAPAVASN1@@IABQAV1@Urandom_access_iterator_tag@0@U_Range_checked_iterator_tag@0@@Z
_TEXT	SEGMENT
__First$ = 8						; size = 4
___formal$ = 12						; size = 1
___formal$ = 16						; size = 1
??$_Fill_n@PAPAVASN1@@IPAV1@@std@@YAXPAPAVASN1@@IABQAV1@Urandom_access_iterator_tag@0@U_Range_checked_iterator_tag@0@@Z PROC ; std::_Fill_n<ASN1 * *,unsigned int,ASN1 *>, COMDAT
; __Count$ = eax
; __Val$ = edx

; 3225 : 		// if _OutIt is checked, this will ensure we have enough space
; 3226 : 		_OutIt _Last = _First + _Count; (_Last);
; 3227 : 		_Fill_n(_CHECKED_BASE(_First), _Count, _Val,
; 3228 : 			_Range_checked_iterator_tag());

  00000	8b 4c 24 04	 mov	 ecx, DWORD PTR __First$[esp-4]
  00004	85 c0		 test	 eax, eax
  00006	76 15		 jbe	 SHORT $LN7@Fill_n@8
  00008	56		 push	 esi
  00009	8d a4 24 00 00
	00 00		 npad	 7
$LL9@Fill_n@8:
  00010	8b 32		 mov	 esi, DWORD PTR [edx]
  00012	89 31		 mov	 DWORD PTR [ecx], esi
  00014	48		 dec	 eax
  00015	83 c1 04	 add	 ecx, 4
  00018	85 c0		 test	 eax, eax
  0001a	77 f4		 ja	 SHORT $LL9@Fill_n@8
  0001c	5e		 pop	 esi
$LN7@Fill_n@8:

; 3229 : 	}

  0001d	c3		 ret	 0
??$_Fill_n@PAPAVASN1@@IPAV1@@std@@YAXPAPAVASN1@@IABQAV1@Urandom_access_iterator_tag@0@U_Range_checked_iterator_tag@0@@Z ENDP ; std::_Fill_n<ASN1 * *,unsigned int,ASN1 *>
; Function compile flags: /Ogtpy
; File c:\program files\microsoft visual studio 9.0\vc\include\memory
_TEXT	ENDS
;	COMDAT ??$_Uninit_move@PAPAVASN1@@PAPAV1@V?$allocator@PAVASN1@@@std@@U_Undefined_move_tag@3@@std@@YAPAPAVASN1@@PAPAV1@00AAV?$allocator@PAVASN1@@@0@U_Undefined_move_tag@0@U_Range_checked_iterator_tag@0@@Z
_TEXT	SEGMENT
___formal$ = 8						; size = 1
___formal$ = 12						; size = 1
??$_Uninit_move@PAPAVASN1@@PAPAV1@V?$allocator@PAVASN1@@@std@@U_Undefined_move_tag@3@@std@@YAPAPAVASN1@@PAPAV1@00AAV?$allocator@PAVASN1@@@0@U_Undefined_move_tag@0@U_Range_checked_iterator_tag@0@@Z PROC ; std::_Uninit_move<ASN1 * *,ASN1 * *,std::allocator<ASN1 *>,std::_Undefined_move_tag>, COMDAT
; __First$ = edi
; __Last$ = eax
; __Dest$ = edx

; 205  : 	return _STDEXT unchecked_uninitialized_copy(_First, _Last, _Dest, _Al);

  00000	2b c7		 sub	 eax, edi
  00002	c1 f8 02	 sar	 eax, 2
  00005	8d 0c 85 00 00
	00 00		 lea	 ecx, DWORD PTR [eax*4]
  0000c	56		 push	 esi
  0000d	8d 34 11	 lea	 esi, DWORD PTR [ecx+edx]
  00010	85 c0		 test	 eax, eax
  00012	76 0c		 jbe	 SHORT $LN18@Uninit_mov@4
  00014	51		 push	 ecx
  00015	57		 push	 edi
  00016	51		 push	 ecx
  00017	52		 push	 edx
  00018	e8 00 00 00 00	 call	 _memmove_s
  0001d	83 c4 10	 add	 esp, 16			; 00000010H
$LN18@Uninit_mov@4:
  00020	8b c6		 mov	 eax, esi
  00022	5e		 pop	 esi

; 206  : 	}

  00023	c3		 ret	 0
??$_Uninit_move@PAPAVASN1@@PAPAV1@V?$allocator@PAVASN1@@@std@@U_Undefined_move_tag@3@@std@@YAPAPAVASN1@@PAPAV1@00AAV?$allocator@PAVASN1@@@0@U_Undefined_move_tag@0@U_Range_checked_iterator_tag@0@@Z ENDP ; std::_Uninit_move<ASN1 * *,ASN1 * *,std::allocator<ASN1 *>,std::_Undefined_move_tag>
; Function compile flags: /Ogtpy
; File c:\program files\microsoft visual studio 9.0\vc\include\xutility
_TEXT	ENDS
;	COMDAT ??$unchecked_fill_n@PAPAVASN1@@IPAV1@@stdext@@YAXPAPAVASN1@@IABQAV1@@Z
_TEXT	SEGMENT
__First$ = 8						; size = 4
??$unchecked_fill_n@PAPAVASN1@@IPAV1@@stdext@@YAXPAPAVASN1@@IABQAV1@@Z PROC ; stdext::unchecked_fill_n<ASN1 * *,unsigned int,ASN1 *>, COMDAT
; __Count$ = eax
; __Val$ = edx

; 3695 : 		_STD _Fill_n(_First, _Count, _Val, _STD _Iter_cat(_First), _STD _Range_checked_iterator_tag());

  00000	8b 4c 24 04	 mov	 ecx, DWORD PTR __First$[esp-4]
  00004	85 c0		 test	 eax, eax
  00006	76 15		 jbe	 SHORT $LN11@unchecked_@13
  00008	56		 push	 esi
  00009	8d a4 24 00 00
	00 00		 npad	 7
$LL13@unchecked_@13:
  00010	8b 32		 mov	 esi, DWORD PTR [edx]
  00012	89 31		 mov	 DWORD PTR [ecx], esi
  00014	48		 dec	 eax
  00015	83 c1 04	 add	 ecx, 4
  00018	85 c0		 test	 eax, eax
  0001a	77 f4		 ja	 SHORT $LL13@unchecked_@13
  0001c	5e		 pop	 esi
$LN11@unchecked_@13:

; 3696 : 	}

  0001d	c3		 ret	 0
??$unchecked_fill_n@PAPAVASN1@@IPAV1@@stdext@@YAXPAPAVASN1@@IABQAV1@@Z ENDP ; stdext::unchecked_fill_n<ASN1 * *,unsigned int,ASN1 *>
; Function compile flags: /Ogtpy
_TEXT	ENDS
;	COMDAT ??$_Move_backward_opt@PAPAVASN1@@PAPAV1@Urandom_access_iterator_tag@std@@U_Undefined_move_tag@3@@std@@YAPAPAVASN1@@PAPAV1@00Urandom_access_iterator_tag@0@U_Undefined_move_tag@0@U_Range_checked_iterator_tag@0@@Z
_TEXT	SEGMENT
__First_dest_cat$ = 8					; size = 1
___formal$ = 12						; size = 1
___formal$ = 16						; size = 1
??$_Move_backward_opt@PAPAVASN1@@PAPAV1@Urandom_access_iterator_tag@std@@U_Undefined_move_tag@3@@std@@YAPAPAVASN1@@PAPAV1@00Urandom_access_iterator_tag@0@U_Undefined_move_tag@0@U_Range_checked_iterator_tag@0@@Z PROC ; std::_Move_backward_opt<ASN1 * *,ASN1 * *,std::random_access_iterator_tag,std::_Undefined_move_tag>, COMDAT
; __First$ = edi
; __Last$ = eax
; __Dest$ = ecx

; 2727 : 	return _Copy_backward_opt(_First, _Last, _Dest,
; 2728 : 		_First_dest_cat, _Ptr_cat(_First, _Dest), _Range_checked_iterator_tag());

  00000	2b c7		 sub	 eax, edi
  00002	c1 f8 02	 sar	 eax, 2
  00005	8d 14 85 00 00
	00 00		 lea	 edx, DWORD PTR [eax*4]
  0000c	2b ca		 sub	 ecx, edx
  0000e	56		 push	 esi
  0000f	8b f1		 mov	 esi, ecx
  00011	85 c0		 test	 eax, eax
  00013	7e 0c		 jle	 SHORT $LN8@Move_backw@4
  00015	52		 push	 edx
  00016	57		 push	 edi
  00017	52		 push	 edx
  00018	56		 push	 esi
  00019	e8 00 00 00 00	 call	 _memmove_s
  0001e	83 c4 10	 add	 esp, 16			; 00000010H
$LN8@Move_backw@4:
  00021	8b c6		 mov	 eax, esi
  00023	5e		 pop	 esi

; 2729 : 	}

  00024	c3		 ret	 0
??$_Move_backward_opt@PAPAVASN1@@PAPAV1@Urandom_access_iterator_tag@std@@U_Undefined_move_tag@3@@std@@YAPAPAVASN1@@PAPAV1@00Urandom_access_iterator_tag@0@U_Undefined_move_tag@0@U_Range_checked_iterator_tag@0@@Z ENDP ; std::_Move_backward_opt<ASN1 * *,ASN1 * *,std::random_access_iterator_tag,std::_Undefined_move_tag>
; Function compile flags: /Ogtpy
; File c:\program files\microsoft visual studio 9.0\vc\include\memory
_TEXT	ENDS
;	COMDAT ??$_Unchecked_uninitialized_move@PAPAVASN1@@PAPAV1@V?$allocator@PAVASN1@@@std@@@stdext@@YAPAPAVASN1@@PAPAV1@00AAV?$allocator@PAVASN1@@@std@@@Z
_TEXT	SEGMENT
??$_Unchecked_uninitialized_move@PAPAVASN1@@PAPAV1@V?$allocator@PAVASN1@@@std@@@stdext@@YAPAPAVASN1@@PAPAV1@00AAV?$allocator@PAVASN1@@@std@@@Z PROC ; stdext::_Unchecked_uninitialized_move<ASN1 * *,ASN1 * *,std::allocator<ASN1 *> >, COMDAT
; __First$ = edi
; __Last$ = eax
; __Dest$ = edx

; 850  : 		return (_STD _Uninit_move(_CHECKED_BASE(_First), _CHECKED_BASE(_Last), _Dest, _Al,
; 851  : 			_STD _Move_cat(_Dest), _STD _Range_checked_iterator_tag()));

  00000	2b c7		 sub	 eax, edi
  00002	c1 f8 02	 sar	 eax, 2
  00005	8d 0c 85 00 00
	00 00		 lea	 ecx, DWORD PTR [eax*4]
  0000c	56		 push	 esi
  0000d	8d 34 11	 lea	 esi, DWORD PTR [ecx+edx]
  00010	85 c0		 test	 eax, eax
  00012	76 0c		 jbe	 SHORT $LN30@Unchecked_@7
  00014	51		 push	 ecx
  00015	57		 push	 edi
  00016	51		 push	 ecx
  00017	52		 push	 edx
  00018	e8 00 00 00 00	 call	 _memmove_s
  0001d	83 c4 10	 add	 esp, 16			; 00000010H
$LN30@Unchecked_@7:
  00020	8b c6		 mov	 eax, esi
  00022	5e		 pop	 esi

; 852  : 	}

  00023	c3		 ret	 0
??$_Unchecked_uninitialized_move@PAPAVASN1@@PAPAV1@V?$allocator@PAVASN1@@@std@@@stdext@@YAPAPAVASN1@@PAPAV1@00AAV?$allocator@PAVASN1@@@std@@@Z ENDP ; stdext::_Unchecked_uninitialized_move<ASN1 * *,ASN1 * *,std::allocator<ASN1 *> >
; Function compile flags: /Ogtpy
_TEXT	ENDS
;	COMDAT ??$_Uninit_fill_n@PAPAVASN1@@IPAV1@V?$allocator@PAVASN1@@@std@@@std@@YAXPAPAVASN1@@IABQAV1@AAV?$allocator@PAVASN1@@@0@U_Scalar_ptr_iterator_tag@0@U_Range_checked_iterator_tag@0@@Z
_TEXT	SEGMENT
__First$ = 8						; size = 4
___formal$ = 12						; size = 1
___formal$ = 16						; size = 1
??$_Uninit_fill_n@PAPAVASN1@@IPAV1@V?$allocator@PAVASN1@@@std@@@std@@YAXPAPAVASN1@@IABQAV1@AAV?$allocator@PAVASN1@@@0@U_Scalar_ptr_iterator_tag@0@U_Range_checked_iterator_tag@0@@Z PROC ; std::_Uninit_fill_n<ASN1 * *,unsigned int,ASN1 *,std::allocator<ASN1 *> >, COMDAT
; __Count$ = eax
; __Val$ = edx

; 415  : 		_STDEXT unchecked_fill_n(_First, _Count, _Val);

  00000	8b 4c 24 04	 mov	 ecx, DWORD PTR __First$[esp-4]
  00004	85 c0		 test	 eax, eax
  00006	76 15		 jbe	 SHORT $LN13@Uninit_fil@4
  00008	56		 push	 esi
  00009	8d a4 24 00 00
	00 00		 npad	 7
$LL15@Uninit_fil@4:
  00010	8b 32		 mov	 esi, DWORD PTR [edx]
  00012	89 31		 mov	 DWORD PTR [ecx], esi
  00014	48		 dec	 eax
  00015	83 c1 04	 add	 ecx, 4
  00018	85 c0		 test	 eax, eax
  0001a	77 f4		 ja	 SHORT $LL15@Uninit_fil@4
  0001c	5e		 pop	 esi
$LN13@Uninit_fil@4:

; 416  : 	}

  0001d	c3		 ret	 0
??$_Uninit_fill_n@PAPAVASN1@@IPAV1@V?$allocator@PAVASN1@@@std@@@std@@YAXPAPAVASN1@@IABQAV1@AAV?$allocator@PAVASN1@@@0@U_Scalar_ptr_iterator_tag@0@U_Range_checked_iterator_tag@0@@Z ENDP ; std::_Uninit_fill_n<ASN1 * *,unsigned int,ASN1 *,std::allocator<ASN1 *> >
; Function compile flags: /Ogtpy
; File c:\program files\microsoft visual studio 9.0\vc\include\xmemory
_TEXT	ENDS
;	COMDAT ??$_Allocate@V_Aux_cont@std@@@std@@YAPAV_Aux_cont@0@IPAV10@@Z
_TEXT	SEGMENT
$T55029 = -16						; size = 4
$T55021 = -12						; size = 12
??$_Allocate@V_Aux_cont@std@@@std@@YAPAV_Aux_cont@0@IPAV10@@Z PROC ; std::_Allocate<std::_Aux_cont>, COMDAT
; __Count$ = ecx

; 37   : 	if (_Count <= 0)
; 38   : 		_Count = 0;
; 39   : 	else if (((_SIZT)(-1) / _Count) < sizeof (_Ty))

  00000	83 c8 ff	 or	 eax, -1
  00003	33 d2		 xor	 edx, edx
  00005	f7 f1		 div	 ecx
  00007	83 ec 10	 sub	 esp, 16			; 00000010H
  0000a	83 f8 04	 cmp	 eax, 4
  0000d	73 2c		 jae	 SHORT $LN1@Allocate@5

; 40   : 		_THROW_NCEE(std::bad_alloc, NULL);

  0000f	8d 04 24	 lea	 eax, DWORD PTR $T55029[esp+16]
  00012	50		 push	 eax
  00013	8d 4c 24 08	 lea	 ecx, DWORD PTR $T55021[esp+20]
  00017	c7 44 24 04 00
	00 00 00	 mov	 DWORD PTR $T55029[esp+20], 0
  0001f	e8 00 00 00 00	 call	 ??0exception@std@@QAE@ABQBD@Z ; std::exception::exception
  00024	68 00 00 00 00	 push	 OFFSET __TI2?AVbad_alloc@std@@
  00029	8d 4c 24 08	 lea	 ecx, DWORD PTR $T55021[esp+20]
  0002d	51		 push	 ecx
  0002e	c7 44 24 0c 00
	00 00 00	 mov	 DWORD PTR $T55021[esp+24], OFFSET ??_7bad_alloc@std@@6B@
  00036	e8 00 00 00 00	 call	 __CxxThrowException@8
$LN13@Allocate@5:
$LN1@Allocate@5:

; 41   : 
; 42   : 		// allocate storage for _Count elements of type _Ty
; 43   : 	return ((_Ty _FARQ *)::operator new(_Count * sizeof (_Ty)));

  0003b	8d 14 8d 00 00
	00 00		 lea	 edx, DWORD PTR [ecx*4]
  00042	52		 push	 edx
  00043	e8 00 00 00 00	 call	 ??2@YAPAXI@Z		; operator new
  00048	83 c4 04	 add	 esp, 4

; 44   : 	}

  0004b	83 c4 10	 add	 esp, 16			; 00000010H
  0004e	c3		 ret	 0
$LN12@Allocate@5:
??$_Allocate@V_Aux_cont@std@@@std@@YAPAV_Aux_cont@0@IPAV10@@Z ENDP ; std::_Allocate<std::_Aux_cont>
; Function compile flags: /Ogtpy
_TEXT	ENDS
;	COMDAT ??$_Allocate@PAVASN1@@@std@@YAPAPAVASN1@@IPAPAV1@@Z
_TEXT	SEGMENT
$T55043 = -16						; size = 4
$T55035 = -12						; size = 12
??$_Allocate@PAVASN1@@@std@@YAPAPAVASN1@@IPAPAV1@@Z PROC ; std::_Allocate<ASN1 *>, COMDAT
; __Count$ = ecx

; 37   : 	if (_Count <= 0)
; 38   : 		_Count = 0;
; 39   : 	else if (((_SIZT)(-1) / _Count) < sizeof (_Ty))

  00000	83 c8 ff	 or	 eax, -1
  00003	33 d2		 xor	 edx, edx
  00005	f7 f1		 div	 ecx
  00007	83 ec 10	 sub	 esp, 16			; 00000010H
  0000a	83 f8 04	 cmp	 eax, 4
  0000d	73 2c		 jae	 SHORT $LN1@Allocate@6

; 40   : 		_THROW_NCEE(std::bad_alloc, NULL);

  0000f	8d 04 24	 lea	 eax, DWORD PTR $T55043[esp+16]
  00012	50		 push	 eax
  00013	8d 4c 24 08	 lea	 ecx, DWORD PTR $T55035[esp+20]
  00017	c7 44 24 04 00
	00 00 00	 mov	 DWORD PTR $T55043[esp+20], 0
  0001f	e8 00 00 00 00	 call	 ??0exception@std@@QAE@ABQBD@Z ; std::exception::exception
  00024	68 00 00 00 00	 push	 OFFSET __TI2?AVbad_alloc@std@@
  00029	8d 4c 24 08	 lea	 ecx, DWORD PTR $T55035[esp+20]
  0002d	51		 push	 ecx
  0002e	c7 44 24 0c 00
	00 00 00	 mov	 DWORD PTR $T55035[esp+24], OFFSET ??_7bad_alloc@std@@6B@
  00036	e8 00 00 00 00	 call	 __CxxThrowException@8
$LN13@Allocate@6:
$LN1@Allocate@6:

; 41   : 
; 42   : 		// allocate storage for _Count elements of type _Ty
; 43   : 	return ((_Ty _FARQ *)::operator new(_Count * sizeof (_Ty)));

  0003b	8d 14 8d 00 00
	00 00		 lea	 edx, DWORD PTR [ecx*4]
  00042	52		 push	 edx
  00043	e8 00 00 00 00	 call	 ??2@YAPAXI@Z		; operator new
  00048	83 c4 04	 add	 esp, 4

; 44   : 	}

  0004b	83 c4 10	 add	 esp, 16			; 00000010H
  0004e	c3		 ret	 0
$LN12@Allocate@6:
??$_Allocate@PAVASN1@@@std@@YAPAPAVASN1@@IPAPAV1@@Z ENDP ; std::_Allocate<ASN1 *>
; Function compile flags: /Ogtpy
; File c:\program files\microsoft visual studio 9.0\vc\include\xutility
_TEXT	ENDS
;	COMDAT ??$_Unchecked_move_backward@PAPAVASN1@@PAPAV1@@stdext@@YAPAPAVASN1@@PAPAV1@00@Z
_TEXT	SEGMENT
??$_Unchecked_move_backward@PAPAVASN1@@PAPAV1@@stdext@@YAPAPAVASN1@@PAPAV1@00@Z PROC ; stdext::_Unchecked_move_backward<ASN1 * *,ASN1 * *>, COMDAT
; __First$ = edi
; __Last$ = eax
; __Dest$ = ecx

; 3669 : 		return (_STD _Move_backward_opt(_CHECKED_BASE(_First), _CHECKED_BASE(_Last), _Dest,
; 3670 : 			_STD _Iter_random(_First, _Dest), _STD _Move_cat(_Dest), _STD _Range_checked_iterator_tag()));

  00000	2b c7		 sub	 eax, edi
  00002	c1 f8 02	 sar	 eax, 2
  00005	8d 14 85 00 00
	00 00		 lea	 edx, DWORD PTR [eax*4]
  0000c	2b ca		 sub	 ecx, edx
  0000e	56		 push	 esi
  0000f	8b f1		 mov	 esi, ecx
  00011	85 c0		 test	 eax, eax
  00013	7e 0c		 jle	 SHORT $LN22@Unchecked_@8
  00015	52		 push	 edx
  00016	57		 push	 edi
  00017	52		 push	 edx
  00018	56		 push	 esi
  00019	e8 00 00 00 00	 call	 _memmove_s
  0001e	83 c4 10	 add	 esp, 16			; 00000010H
$LN22@Unchecked_@8:
  00021	8b c6		 mov	 eax, esi
  00023	5e		 pop	 esi

; 3671 : 	}

  00024	c3		 ret	 0
??$_Unchecked_move_backward@PAPAVASN1@@PAPAV1@@stdext@@YAPAPAVASN1@@PAPAV1@00@Z ENDP ; stdext::_Unchecked_move_backward<ASN1 * *,ASN1 * *>
; Function compile flags: /Ogtpy
; File c:\program files\microsoft visual studio 9.0\vc\include\vector
_TEXT	ENDS
;	COMDAT ??$_Umove@PAPAVASN1@@@?$vector@PAVASN1@@V?$allocator@PAVASN1@@@std@@@std@@IAEPAPAVASN1@@PAPAV2@00@Z
_TEXT	SEGMENT
??$_Umove@PAPAVASN1@@@?$vector@PAVASN1@@V?$allocator@PAVASN1@@@std@@@std@@IAEPAPAVASN1@@PAPAV2@00@Z PROC ; std::vector<ASN1 *,std::allocator<ASN1 *> >::_Umove<ASN1 * *>, COMDAT
; __First$ = edi
; __Last$ = eax
; __Ptr$ = edx

; 1151 : 		{	// move initializing [_First, _Last), using allocator
; 1152 : 		return (_STDEXT _Unchecked_uninitialized_move(_First, _Last,
; 1153 : 			_Ptr, this->_Alval));

  00000	2b c7		 sub	 eax, edi
  00002	c1 f8 02	 sar	 eax, 2
  00005	8d 0c 85 00 00
	00 00		 lea	 ecx, DWORD PTR [eax*4]
  0000c	56		 push	 esi
  0000d	8d 34 11	 lea	 esi, DWORD PTR [ecx+edx]
  00010	85 c0		 test	 eax, eax
  00012	76 0c		 jbe	 SHORT $LN32@Umove@4
  00014	51		 push	 ecx
  00015	57		 push	 edi
  00016	51		 push	 ecx
  00017	52		 push	 edx
  00018	e8 00 00 00 00	 call	 _memmove_s
  0001d	83 c4 10	 add	 esp, 16			; 00000010H
$LN32@Umove@4:
  00020	8b c6		 mov	 eax, esi
  00022	5e		 pop	 esi

; 1154 : 		}

  00023	c3		 ret	 0
??$_Umove@PAPAVASN1@@@?$vector@PAVASN1@@V?$allocator@PAVASN1@@@std@@@std@@IAEPAPAVASN1@@PAPAV2@00@Z ENDP ; std::vector<ASN1 *,std::allocator<ASN1 *> >::_Umove<ASN1 * *>
; Function compile flags: /Ogtpy
; File c:\program files\microsoft visual studio 9.0\vc\include\memory
_TEXT	ENDS
;	COMDAT ??$unchecked_uninitialized_fill_n@PAPAVASN1@@IPAV1@V?$allocator@PAVASN1@@@std@@@stdext@@YAXPAPAVASN1@@IABQAV1@AAV?$allocator@PAVASN1@@@std@@@Z
_TEXT	SEGMENT
__First$ = 8						; size = 4
??$unchecked_uninitialized_fill_n@PAPAVASN1@@IPAV1@V?$allocator@PAVASN1@@@std@@@stdext@@YAXPAPAVASN1@@IABQAV1@AAV?$allocator@PAVASN1@@@std@@@Z PROC ; stdext::unchecked_uninitialized_fill_n<ASN1 * *,unsigned int,ASN1 *,std::allocator<ASN1 *> >, COMDAT
; __Count$ = eax
; __Val$ = edx

; 921  : 		_STD _Uninit_fill_n(_First, _Count, _Val, _Al,
; 922  : 			_STD _Ptr_cat(_First, _First), _STD _Range_checked_iterator_tag());

  00000	8b 4c 24 04	 mov	 ecx, DWORD PTR __First$[esp-4]
  00004	85 c0		 test	 eax, eax
  00006	76 15		 jbe	 SHORT $LN17@unchecked_@14
  00008	56		 push	 esi
  00009	8d a4 24 00 00
	00 00		 npad	 7
$LL19@unchecked_@14:
  00010	8b 32		 mov	 esi, DWORD PTR [edx]
  00012	89 31		 mov	 DWORD PTR [ecx], esi
  00014	48		 dec	 eax
  00015	83 c1 04	 add	 ecx, 4
  00018	85 c0		 test	 eax, eax
  0001a	77 f4		 ja	 SHORT $LL19@unchecked_@14
  0001c	5e		 pop	 esi
$LN17@unchecked_@14:

; 923  : 	}

  0001d	c3		 ret	 0
??$unchecked_uninitialized_fill_n@PAPAVASN1@@IPAV1@V?$allocator@PAVASN1@@@std@@@stdext@@YAXPAPAVASN1@@IABQAV1@AAV?$allocator@PAVASN1@@@std@@@Z ENDP ; stdext::unchecked_uninitialized_fill_n<ASN1 * *,unsigned int,ASN1 *,std::allocator<ASN1 *> >
; Function compile flags: /Ogtpy
; File c:\program files\microsoft visual studio 9.0\vc\include\vector
_TEXT	ENDS
;	COMDAT ??Y?$_Vector_const_iterator@PAVASN1@@V?$allocator@PAVASN1@@@std@@@std@@QAEAAV01@H@Z
_TEXT	SEGMENT
__Off$ = 8						; size = 4
??Y?$_Vector_const_iterator@PAVASN1@@V?$allocator@PAVASN1@@@std@@@std@@QAEAAV01@H@Z PROC ; std::_Vector_const_iterator<ASN1 *,std::allocator<ASN1 *> >::operator+=, COMDAT
; _this$ = esi

; 160  : 		_SCL_SECURE_VALIDATE(this->_Has_container());

  00000	8b 06		 mov	 eax, DWORD PTR [esi]
  00002	85 c0		 test	 eax, eax
  00004	75 0b		 jne	 SHORT $LN20@operator@12
  00006	e8 00 00 00 00	 call	 __invalid_parameter_noinfo

; 161  : 		_SCL_SECURE_VALIDATE_RANGE(

  0000b	8b 06		 mov	 eax, DWORD PTR [esi]
  0000d	85 c0		 test	 eax, eax
  0000f	74 04		 je	 SHORT $LN10@operator@12
$LN20@operator@12:
  00011	8b 10		 mov	 edx, DWORD PTR [eax]
  00013	eb 02		 jmp	 SHORT $LN11@operator@12
$LN10@operator@12:
  00015	33 d2		 xor	 edx, edx
$LN11@operator@12:
  00017	8b 4e 04	 mov	 ecx, DWORD PTR [esi+4]
  0001a	57		 push	 edi
  0001b	8b 7c 24 08	 mov	 edi, DWORD PTR __Off$[esp]
  0001f	03 ff		 add	 edi, edi
  00021	03 ff		 add	 edi, edi
  00023	03 cf		 add	 ecx, edi
  00025	3b 4a 10	 cmp	 ecx, DWORD PTR [edx+16]
  00028	77 0f		 ja	 SHORT $LN1@operator@12
  0002a	85 c0		 test	 eax, eax
  0002c	74 04		 je	 SHORT $LN16@operator@12
  0002e	8b 00		 mov	 eax, DWORD PTR [eax]
  00030	eb 02		 jmp	 SHORT $LN17@operator@12
$LN16@operator@12:
  00032	33 c0		 xor	 eax, eax
$LN17@operator@12:
  00034	3b 48 0c	 cmp	 ecx, DWORD PTR [eax+12]
  00037	73 05		 jae	 SHORT $LN21@operator@12
$LN1@operator@12:

; 162  : 			_Myptr + _Off <= ((_Myvec *)(this->_Getmycont()))->_Mylast &&
; 163  : 			_Myptr + _Off >= ((_Myvec *)(this->_Getmycont()))->_Myfirst);

  00039	e8 00 00 00 00	 call	 __invalid_parameter_noinfo
$LN21@operator@12:

; 164  : 		_Myptr += _Off;

  0003e	01 7e 04	 add	 DWORD PTR [esi+4], edi

; 165  : 		return (*this);

  00041	8b c6		 mov	 eax, esi
  00043	5f		 pop	 edi

; 166  : 		}

  00044	c2 04 00	 ret	 4
??Y?$_Vector_const_iterator@PAVASN1@@V?$allocator@PAVASN1@@@std@@@std@@QAEAAV01@H@Z ENDP ; std::_Vector_const_iterator<ASN1 *,std::allocator<ASN1 *> >::operator+=
; Function compile flags: /Ogtpy
_TEXT	ENDS
;	COMDAT ??Y?$_Vector_iterator@PAVASN1@@V?$allocator@PAVASN1@@@std@@@std@@QAEAAV01@H@Z
_TEXT	SEGMENT
__Off$ = 8						; size = 4
??Y?$_Vector_iterator@PAVASN1@@V?$allocator@PAVASN1@@@std@@@std@@QAEAAV01@H@Z PROC ; std::_Vector_iterator<ASN1 *,std::allocator<ASN1 *> >::operator+=, COMDAT
; _this$ = esi

; 375  : 		(*(_Mybase *)this) += _Off;

  00000	8b 06		 mov	 eax, DWORD PTR [esi]
  00002	85 c0		 test	 eax, eax
  00004	75 0b		 jne	 SHORT $LN22@operator@13
  00006	e8 00 00 00 00	 call	 __invalid_parameter_noinfo
  0000b	8b 06		 mov	 eax, DWORD PTR [esi]
  0000d	85 c0		 test	 eax, eax
  0000f	74 04		 je	 SHORT $LN12@operator@13
$LN22@operator@13:
  00011	8b 10		 mov	 edx, DWORD PTR [eax]
  00013	eb 02		 jmp	 SHORT $LN13@operator@13
$LN12@operator@13:
  00015	33 d2		 xor	 edx, edx
$LN13@operator@13:
  00017	8b 4e 04	 mov	 ecx, DWORD PTR [esi+4]
  0001a	57		 push	 edi
  0001b	8b 7c 24 08	 mov	 edi, DWORD PTR __Off$[esp]
  0001f	03 ff		 add	 edi, edi
  00021	03 ff		 add	 edi, edi
  00023	03 cf		 add	 ecx, edi
  00025	3b 4a 10	 cmp	 ecx, DWORD PTR [edx+16]
  00028	77 0f		 ja	 SHORT $LN3@operator@13
  0002a	85 c0		 test	 eax, eax
  0002c	74 04		 je	 SHORT $LN18@operator@13
  0002e	8b 00		 mov	 eax, DWORD PTR [eax]
  00030	eb 02		 jmp	 SHORT $LN19@operator@13
$LN18@operator@13:
  00032	33 c0		 xor	 eax, eax
$LN19@operator@13:
  00034	3b 48 0c	 cmp	 ecx, DWORD PTR [eax+12]
  00037	73 05		 jae	 SHORT $LN23@operator@13
$LN3@operator@13:
  00039	e8 00 00 00 00	 call	 __invalid_parameter_noinfo
$LN23@operator@13:
  0003e	01 7e 04	 add	 DWORD PTR [esi+4], edi

; 376  : 		return (*this);

  00041	8b c6		 mov	 eax, esi
  00043	5f		 pop	 edi

; 377  : 		}

  00044	c2 04 00	 ret	 4
??Y?$_Vector_iterator@PAVASN1@@V?$allocator@PAVASN1@@@std@@@std@@QAEAAV01@H@Z ENDP ; std::_Vector_iterator<ASN1 *,std::allocator<ASN1 *> >::operator+=
; Function compile flags: /Ogtpy
; File c:\program files\microsoft visual studio 9.0\vc\include\xmemory
_TEXT	ENDS
;	COMDAT ?allocate@?$allocator@V_Aux_cont@std@@@std@@QAEPAV_Aux_cont@2@I@Z
_TEXT	SEGMENT
?allocate@?$allocator@V_Aux_cont@std@@@std@@QAEPAV_Aux_cont@2@I@Z PROC ; std::allocator<std::_Aux_cont>::allocate, COMDAT

; 145  : 		return (_Allocate(_Count, (pointer)0));

  00000	6a 04		 push	 4
  00002	e8 00 00 00 00	 call	 ??2@YAPAXI@Z		; operator new
  00007	83 c4 04	 add	 esp, 4

; 146  : 		}

  0000a	c3		 ret	 0
?allocate@?$allocator@V_Aux_cont@std@@@std@@QAEPAV_Aux_cont@2@I@Z ENDP ; std::allocator<std::_Aux_cont>::allocate
; Function compile flags: /Ogtpy
; File c:\program files\microsoft visual studio 9.0\vc\include\vector
_TEXT	ENDS
;	COMDAT ??H?$_Vector_iterator@PAVASN1@@V?$allocator@PAVASN1@@@std@@@std@@QBE?AV01@H@Z
_TEXT	SEGMENT
___$ReturnUdt$ = 8					; size = 4
__Off$ = 12						; size = 4
??H?$_Vector_iterator@PAVASN1@@V?$allocator@PAVASN1@@@std@@@std@@QBE?AV01@H@Z PROC ; std::_Vector_iterator<ASN1 *,std::allocator<ASN1 *> >::operator+, COMDAT
; _this$ = eax

; 380  : 		{	// return this + integer

  00000	53		 push	 ebx
  00001	8b 5c 24 08	 mov	 ebx, DWORD PTR ___$ReturnUdt$[esp]
  00005	56		 push	 esi

; 381  : 		_Myt _Tmp = *this;

  00006	8b 30		 mov	 esi, DWORD PTR [eax]
  00008	57		 push	 edi
  00009	8b 78 04	 mov	 edi, DWORD PTR [eax+4]

; 382  : 		return (_Tmp += _Off);

  0000c	85 f6		 test	 esi, esi
  0000e	75 1b		 jne	 SHORT $LN24@operator@14
  00010	e8 00 00 00 00	 call	 __invalid_parameter_noinfo
  00015	33 c0		 xor	 eax, eax
$LN15@operator@14:
  00017	8b 4c 24 14	 mov	 ecx, DWORD PTR __Off$[esp+8]
  0001b	8d 3c 8f	 lea	 edi, DWORD PTR [edi+ecx*4]
  0001e	3b 78 10	 cmp	 edi, DWORD PTR [eax+16]
  00021	77 13		 ja	 SHORT $LN5@operator@14
  00023	85 f6		 test	 esi, esi
  00025	74 08		 je	 SHORT $LN20@operator@14
  00027	8b 06		 mov	 eax, DWORD PTR [esi]
  00029	eb 06		 jmp	 SHORT $LN21@operator@14
$LN24@operator@14:
  0002b	8b 06		 mov	 eax, DWORD PTR [esi]
  0002d	eb e8		 jmp	 SHORT $LN15@operator@14
$LN20@operator@14:
  0002f	33 c0		 xor	 eax, eax
$LN21@operator@14:
  00031	3b 78 0c	 cmp	 edi, DWORD PTR [eax+12]
  00034	73 05		 jae	 SHORT $LN6@operator@14
$LN5@operator@14:
  00036	e8 00 00 00 00	 call	 __invalid_parameter_noinfo
$LN6@operator@14:
  0003b	89 7b 04	 mov	 DWORD PTR [ebx+4], edi

; 383  : 		}

  0003e	5f		 pop	 edi
  0003f	89 33		 mov	 DWORD PTR [ebx], esi
  00041	5e		 pop	 esi
  00042	8b c3		 mov	 eax, ebx
  00044	5b		 pop	 ebx
  00045	c2 08 00	 ret	 8
??H?$_Vector_iterator@PAVASN1@@V?$allocator@PAVASN1@@@std@@@std@@QBE?AV01@H@Z ENDP ; std::_Vector_iterator<ASN1 *,std::allocator<ASN1 *> >::operator+
; Function compile flags: /Ogtpy
; File c:\program files\microsoft visual studio 9.0\vc\include\xmemory
_TEXT	ENDS
;	COMDAT ?allocate@?$allocator@PAVASN1@@@std@@QAEPAPAVASN1@@I@Z
_TEXT	SEGMENT
$T55573 = -16						; size = 4
$T55575 = -12						; size = 12
?allocate@?$allocator@PAVASN1@@@std@@QAEPAPAVASN1@@I@Z PROC ; std::allocator<ASN1 *>::allocate, COMDAT
; __Count$ = ecx

; 144  : 		{	// allocate array of _Count elements

  00000	83 ec 10	 sub	 esp, 16			; 00000010H

; 145  : 		return (_Allocate(_Count, (pointer)0));

  00003	85 c9		 test	 ecx, ecx
  00005	77 16		 ja	 SHORT $LN5@allocate@4
  00007	33 c9		 xor	 ecx, ecx
$LN3@allocate@4:
  00009	8d 14 8d 00 00
	00 00		 lea	 edx, DWORD PTR [ecx*4]
  00010	52		 push	 edx
  00011	e8 00 00 00 00	 call	 ??2@YAPAXI@Z		; operator new
  00016	83 c4 04	 add	 esp, 4

; 146  : 		}

  00019	83 c4 10	 add	 esp, 16			; 00000010H
  0001c	c3		 ret	 0

; 145  : 		return (_Allocate(_Count, (pointer)0));

$LN5@allocate@4:
  0001d	83 c8 ff	 or	 eax, -1
  00020	33 d2		 xor	 edx, edx
  00022	f7 f1		 div	 ecx
  00024	83 f8 04	 cmp	 eax, 4
  00027	73 e0		 jae	 SHORT $LN3@allocate@4
  00029	8d 04 24	 lea	 eax, DWORD PTR $T55573[esp+16]
  0002c	50		 push	 eax
  0002d	8d 4c 24 08	 lea	 ecx, DWORD PTR $T55575[esp+20]
  00031	c7 44 24 04 00
	00 00 00	 mov	 DWORD PTR $T55573[esp+20], 0
  00039	e8 00 00 00 00	 call	 ??0exception@std@@QAE@ABQBD@Z ; std::exception::exception
  0003e	68 00 00 00 00	 push	 OFFSET __TI2?AVbad_alloc@std@@
  00043	8d 4c 24 08	 lea	 ecx, DWORD PTR $T55575[esp+20]
  00047	51		 push	 ecx
  00048	c7 44 24 0c 00
	00 00 00	 mov	 DWORD PTR $T55575[esp+24], OFFSET ??_7bad_alloc@std@@6B@
  00050	e8 00 00 00 00	 call	 __CxxThrowException@8
$LN12@allocate@4:
$LN11@allocate@4:
  00055	cc		 int	 3
?allocate@?$allocator@PAVASN1@@@std@@QAEPAPAVASN1@@I@Z ENDP ; std::allocator<ASN1 *>::allocate
; Function compile flags: /Ogtpy
; File c:\program files\microsoft visual studio 9.0\vc\include\xutility
_TEXT	ENDS
;	COMDAT ??0?$_Container_base_aux_alloc_real@V?$allocator@PAVASN1@@@std@@@std@@IAE@V?$allocator@PAVASN1@@@1@@Z
_TEXT	SEGMENT
__Al$ = 8						; size = 1
??0?$_Container_base_aux_alloc_real@V?$allocator@PAVASN1@@@std@@@std@@IAE@V?$allocator@PAVASN1@@@1@@Z PROC ; std::_Container_base_aux_alloc_real<std::allocator<ASN1 *> >::_Container_base_aux_alloc_real<std::allocator<ASN1 *> >, COMDAT
; _this$ = esi

; 420  : 		_Myownedaux = new (_Alaux.allocate(1)) _Aux_cont(this);

  00000	6a 04		 push	 4
  00002	e8 00 00 00 00	 call	 ??2@YAPAXI@Z		; operator new
  00007	83 c4 04	 add	 esp, 4
  0000a	85 c0		 test	 eax, eax
  0000c	74 09		 je	 SHORT $LN3@Container_
  0000e	89 30		 mov	 DWORD PTR [eax], esi
  00010	89 06		 mov	 DWORD PTR [esi], eax

; 421  : 		}

  00012	8b c6		 mov	 eax, esi
  00014	c2 04 00	 ret	 4
$LN3@Container_:

; 420  : 		_Myownedaux = new (_Alaux.allocate(1)) _Aux_cont(this);

  00017	33 c0		 xor	 eax, eax
  00019	89 06		 mov	 DWORD PTR [esi], eax

; 421  : 		}

  0001b	8b c6		 mov	 eax, esi
  0001d	c2 04 00	 ret	 4
??0?$_Container_base_aux_alloc_real@V?$allocator@PAVASN1@@@std@@@std@@IAE@V?$allocator@PAVASN1@@@1@@Z ENDP ; std::_Container_base_aux_alloc_real<std::allocator<ASN1 *> >::_Container_base_aux_alloc_real<std::allocator<ASN1 *> >
; Function compile flags: /Ogtpy
; File c:\program files\microsoft visual studio 9.0\vc\include\vector
_TEXT	ENDS
;	COMDAT ??0?$_Vector_val@PAVASN1@@V?$allocator@PAVASN1@@@std@@@std@@IAE@V?$allocator@PAVASN1@@@1@@Z
_TEXT	SEGMENT
__Al$ = 8						; size = 1
??0?$_Vector_val@PAVASN1@@V?$allocator@PAVASN1@@@std@@@std@@IAE@V?$allocator@PAVASN1@@@1@@Z PROC ; std::_Vector_val<ASN1 *,std::allocator<ASN1 *> >::_Vector_val<ASN1 *,std::allocator<ASN1 *> >, COMDAT
; _this$ = esi

; 425  : 		{	// construct allocator from _Al

  00000	6a 04		 push	 4
  00002	e8 00 00 00 00	 call	 ??2@YAPAXI@Z		; operator new
  00007	83 c4 04	 add	 esp, 4
  0000a	85 c0		 test	 eax, eax
  0000c	74 09		 je	 SHORT $LN8@Vector_val
  0000e	89 30		 mov	 DWORD PTR [eax], esi
  00010	89 06		 mov	 DWORD PTR [esi], eax

; 426  : 		}

  00012	8b c6		 mov	 eax, esi
  00014	c2 04 00	 ret	 4

; 425  : 		{	// construct allocator from _Al

$LN8@Vector_val:
  00017	33 c0		 xor	 eax, eax
  00019	89 06		 mov	 DWORD PTR [esi], eax

; 426  : 		}

  0001b	8b c6		 mov	 eax, esi
  0001d	c2 04 00	 ret	 4
??0?$_Vector_val@PAVASN1@@V?$allocator@PAVASN1@@@std@@@std@@IAE@V?$allocator@PAVASN1@@@1@@Z ENDP ; std::_Vector_val<ASN1 *,std::allocator<ASN1 *> >::_Vector_val<ASN1 *,std::allocator<ASN1 *> >
; Function compile flags: /Ogtpy
_TEXT	ENDS
;	COMDAT ?_Ufill@?$vector@PAVASN1@@V?$allocator@PAVASN1@@@std@@@std@@IAEPAPAVASN1@@PAPAV3@IABQAV3@@Z
_TEXT	SEGMENT
?_Ufill@?$vector@PAVASN1@@V?$allocator@PAVASN1@@@std@@@std@@IAEPAPAVASN1@@PAPAV3@IABQAV3@@Z PROC ; std::vector<ASN1 *,std::allocator<ASN1 *> >::_Ufill, COMDAT
; __Ptr$ = edi
; __Count$ = esi
; __Val$ = edx

; 1252 : 		_STDEXT unchecked_uninitialized_fill_n(_Ptr, _Count, _Val, this->_Alval);

  00000	8b c6		 mov	 eax, esi
  00002	8b cf		 mov	 ecx, edi
  00004	85 f6		 test	 esi, esi
  00006	76 15		 jbe	 SHORT $LN26@Ufill@4
  00008	53		 push	 ebx
  00009	8d a4 24 00 00
	00 00		 npad	 7
$LL21@Ufill@4:
  00010	8b 1a		 mov	 ebx, DWORD PTR [edx]
  00012	89 19		 mov	 DWORD PTR [ecx], ebx
  00014	48		 dec	 eax
  00015	83 c1 04	 add	 ecx, 4
  00018	85 c0		 test	 eax, eax
  0001a	77 f4		 ja	 SHORT $LL21@Ufill@4
  0001c	5b		 pop	 ebx
$LN26@Ufill@4:

; 1253 : 		return (_Ptr + _Count);

  0001d	8d 04 b7	 lea	 eax, DWORD PTR [edi+esi*4]

; 1254 : 		}

  00020	c3		 ret	 0
?_Ufill@?$vector@PAVASN1@@V?$allocator@PAVASN1@@@std@@@std@@IAEPAPAVASN1@@PAPAV3@IABQAV3@@Z ENDP ; std::vector<ASN1 *,std::allocator<ASN1 *> >::_Ufill
; Function compile flags: /Ogtpy
_TEXT	ENDS
;	COMDAT ??A?$vector@PAVASN1@@V?$allocator@PAVASN1@@@std@@@std@@QAEAAPAVASN1@@I@Z
_TEXT	SEGMENT
??A?$vector@PAVASN1@@V?$allocator@PAVASN1@@@std@@@std@@QAEAAPAVASN1@@I@Z PROC ; std::vector<ASN1 *,std::allocator<ASN1 *> >::operator[], COMDAT
; _this$ = esi
; __Pos$ = edi

; 775  : 
; 776  :  #if _HAS_ITERATOR_DEBUGGING
; 777  : 		if (size() <= _Pos)
; 778  : 			{
; 779  : 			_DEBUG_ERROR("vector subscript out of range");
; 780  : 			_SCL_SECURE_OUT_OF_RANGE;
; 781  : 			}
; 782  :  #endif /* _HAS_ITERATOR_DEBUGGING */
; 783  : 		_SCL_SECURE_VALIDATE_RANGE(_Pos < size());

  00000	8b 46 10	 mov	 eax, DWORD PTR [esi+16]
  00003	2b 46 0c	 sub	 eax, DWORD PTR [esi+12]
  00006	c1 f8 02	 sar	 eax, 2
  00009	3b f8		 cmp	 edi, eax
  0000b	72 05		 jb	 SHORT $LN1@operator@15
  0000d	e8 00 00 00 00	 call	 __invalid_parameter_noinfo
$LN1@operator@15:

; 784  : 
; 785  : 		return (*(_Myfirst + _Pos));

  00012	8b 4e 0c	 mov	 ecx, DWORD PTR [esi+12]
  00015	8d 04 b9	 lea	 eax, DWORD PTR [ecx+edi*4]

; 786  : 		}

  00018	c3		 ret	 0
??A?$vector@PAVASN1@@V?$allocator@PAVASN1@@@std@@@std@@QAEAAPAVASN1@@I@Z ENDP ; std::vector<ASN1 *,std::allocator<ASN1 *> >::operator[]
; Function compile flags: /Ogtpy
; File i:\“n•”“ÄŽj\my project\cms\cms\asn1\asn1.cpp
_TEXT	ENDS
;	COMDAT ?Get_BERsize@ASN1@@UAEIXZ
_TEXT	SEGMENT
?Get_BERsize@ASN1@@UAEIXZ PROC				; ASN1::Get_BERsize, COMDAT
; _this$ = ecx

; 307  : 	return(strBER.size());

  00000	8b 41 1c	 mov	 eax, DWORD PTR [ecx+28]

; 308  : };

  00003	c3		 ret	 0
?Get_BERsize@ASN1@@UAEIXZ ENDP				; ASN1::Get_BERsize
; Function compile flags: /Ogtpy
_TEXT	ENDS
;	COMDAT ?Get_BERcode@ASN1@@UAEPBDXZ
_TEXT	SEGMENT
?Get_BERcode@ASN1@@UAEPBDXZ PROC			; ASN1::Get_BERcode, COMDAT
; _this$ = ecx

; 296  : 	return(strBER.c_str());

  00000	83 79 20 10	 cmp	 DWORD PTR [ecx+32], 16	; 00000010H
  00004	72 04		 jb	 SHORT $LN7@Get_BERcod
  00006	8b 41 0c	 mov	 eax, DWORD PTR [ecx+12]

; 297  : };

  00009	c3		 ret	 0

; 296  : 	return(strBER.c_str());

$LN7@Get_BERcod:
  0000a	8d 41 0c	 lea	 eax, DWORD PTR [ecx+12]

; 297  : };

  0000d	c3		 ret	 0
?Get_BERcode@ASN1@@UAEPBDXZ ENDP			; ASN1::Get_BERcode
; Function compile flags: /Ogtpy
; File c:\program files\microsoft visual studio 9.0\vc\include\stdexcept
;	COMDAT ??1logic_error@std@@UAE@XZ
_TEXT	SEGMENT
??1logic_error@std@@UAE@XZ PROC				; std::logic_error::~logic_error, COMDAT
; _this$ = ecx

; 30   : 		{	// destroy the object

  00000	56		 push	 esi
  00001	8b f1		 mov	 esi, ecx
  00003	c7 06 00 00 00
	00		 mov	 DWORD PTR [esi], OFFSET ??_7logic_error@std@@6B@

; 31   : 		}

  00009	83 7e 24 10	 cmp	 DWORD PTR [esi+36], 16	; 00000010H
  0000d	72 0c		 jb	 SHORT $LN19@logic_erro
  0000f	8b 46 10	 mov	 eax, DWORD PTR [esi+16]
  00012	50		 push	 eax
  00013	e8 00 00 00 00	 call	 ??3@YAXPAX@Z		; operator delete
  00018	83 c4 04	 add	 esp, 4
$LN19@logic_erro:
  0001b	33 c0		 xor	 eax, eax
  0001d	c7 46 24 0f 00
	00 00		 mov	 DWORD PTR [esi+36], 15	; 0000000fH
  00024	89 46 20	 mov	 DWORD PTR [esi+32], eax
  00027	88 46 10	 mov	 BYTE PTR [esi+16], al
  0002a	8b ce		 mov	 ecx, esi
  0002c	5e		 pop	 esi
  0002d	e9 00 00 00 00	 jmp	 ??1exception@std@@UAE@XZ ; std::exception::~exception
??1logic_error@std@@UAE@XZ ENDP				; std::logic_error::~logic_error
; Function compile flags: /Ogtpy
_TEXT	ENDS
;	COMDAT ??_Glogic_error@std@@UAEPAXI@Z
_TEXT	SEGMENT
___flags$ = 8						; size = 4
??_Glogic_error@std@@UAEPAXI@Z PROC			; std::logic_error::`scalar deleting destructor', COMDAT
; _this$ = ecx
  00000	56		 push	 esi
  00001	8b f1		 mov	 esi, ecx
  00003	c7 06 00 00 00
	00		 mov	 DWORD PTR [esi], OFFSET ??_7logic_error@std@@6B@
  00009	83 7e 24 10	 cmp	 DWORD PTR [esi+36], 16	; 00000010H
  0000d	72 0c		 jb	 SHORT $LN22@scalar@16
  0000f	8b 46 10	 mov	 eax, DWORD PTR [esi+16]
  00012	50		 push	 eax
  00013	e8 00 00 00 00	 call	 ??3@YAXPAX@Z		; operator delete
  00018	83 c4 04	 add	 esp, 4
$LN22@scalar@16:
  0001b	33 c0		 xor	 eax, eax
  0001d	c7 46 24 0f 00
	00 00		 mov	 DWORD PTR [esi+36], 15	; 0000000fH
  00024	89 46 20	 mov	 DWORD PTR [esi+32], eax
  00027	8b ce		 mov	 ecx, esi
  00029	88 46 10	 mov	 BYTE PTR [esi+16], al
  0002c	e8 00 00 00 00	 call	 ??1exception@std@@UAE@XZ ; std::exception::~exception
  00031	f6 44 24 08 01	 test	 BYTE PTR ___flags$[esp], 1
  00036	74 09		 je	 SHORT $LN32@scalar@16
  00038	56		 push	 esi
  00039	e8 00 00 00 00	 call	 ??3@YAXPAX@Z		; operator delete
  0003e	83 c4 04	 add	 esp, 4
$LN32@scalar@16:
  00041	8b c6		 mov	 eax, esi
  00043	5e		 pop	 esi
  00044	c2 04 00	 ret	 4
??_Glogic_error@std@@UAEPAXI@Z ENDP			; std::logic_error::`scalar deleting destructor'
; Function compile flags: /Ogtpy
_TEXT	ENDS
;	COMDAT ??1length_error@std@@UAE@XZ
_TEXT	SEGMENT
??1length_error@std@@UAE@XZ PROC			; std::length_error::~length_error, COMDAT
; _this$ = ecx

; 109  : 		{	// destroy the object

  00000	56		 push	 esi
  00001	8b f1		 mov	 esi, ecx

; 110  : 		}

  00003	c7 06 00 00 00
	00		 mov	 DWORD PTR [esi], OFFSET ??_7logic_error@std@@6B@
  00009	83 7e 24 10	 cmp	 DWORD PTR [esi+36], 16	; 00000010H
  0000d	72 0c		 jb	 SHORT $LN21@length_err
  0000f	8b 46 10	 mov	 eax, DWORD PTR [esi+16]
  00012	50		 push	 eax
  00013	e8 00 00 00 00	 call	 ??3@YAXPAX@Z		; operator delete
  00018	83 c4 04	 add	 esp, 4
$LN21@length_err:
  0001b	33 c0		 xor	 eax, eax
  0001d	c7 46 24 0f 00
	00 00		 mov	 DWORD PTR [esi+36], 15	; 0000000fH
  00024	89 46 20	 mov	 DWORD PTR [esi+32], eax
  00027	88 46 10	 mov	 BYTE PTR [esi+16], al
  0002a	8b ce		 mov	 ecx, esi
  0002c	5e		 pop	 esi
  0002d	e9 00 00 00 00	 jmp	 ??1exception@std@@UAE@XZ ; std::exception::~exception
??1length_error@std@@UAE@XZ ENDP			; std::length_error::~length_error
; Function compile flags: /Ogtpy
; File c:\program files\microsoft visual studio 9.0\vc\include\xstring
_TEXT	ENDS
;	COMDAT ??$_Append@H@?$basic_string@DU?$char_traits@D@std@@V?$allocator@D@2@@std@@QAEAAV01@HHU_Int_iterator_tag@1@@Z
_TEXT	SEGMENT
_this$ = 8						; size = 4
___formal$ = 12						; size = 1
??$_Append@H@?$basic_string@DU?$char_traits@D@std@@V?$allocator@D@2@@std@@QAEAAV01@HHU_Int_iterator_tag@1@@Z PROC ; std::basic_string<char,std::char_traits<char>,std::allocator<char> >::_Append<int>, COMDAT
; __Count$ = ecx
; __Ch$ = eax

; 1019 : 		{	// append _Count * _Ch
; 1020 : 		return (append((size_type)_Count, (_Elem)_Ch));

  00000	50		 push	 eax
  00001	51		 push	 ecx
  00002	8b 4c 24 0c	 mov	 ecx, DWORD PTR _this$[esp+4]
  00006	e8 00 00 00 00	 call	 ?append@?$basic_string@DU?$char_traits@D@std@@V?$allocator@D@2@@std@@QAEAAV12@ID@Z ; std::basic_string<char,std::char_traits<char>,std::allocator<char> >::append

; 1021 : 		}

  0000b	c2 08 00	 ret	 8
??$_Append@H@?$basic_string@DU?$char_traits@D@std@@V?$allocator@D@2@@std@@QAEAAV01@HHU_Int_iterator_tag@1@@Z ENDP ; std::basic_string<char,std::char_traits<char>,std::allocator<char> >::_Append<int>
; Function compile flags: /Ogtpy
_TEXT	ENDS
;	COMDAT ??$append@H@?$basic_string@DU?$char_traits@D@std@@V?$allocator@D@2@@std@@QAEAAV01@HH@Z
_TEXT	SEGMENT
??$append@H@?$basic_string@DU?$char_traits@D@std@@V?$allocator@D@2@@std@@QAEAAV01@HH@Z PROC ; std::basic_string<char,std::char_traits<char>,std::allocator<char> >::append<int>, COMDAT
; _this$ = ecx
; __Last$ = eax

; 1013 : 		{	// append [_First, _Last)
; 1014 : 		return (_Append(_First, _Last, _Iter_cat(_First)));

  00000	50		 push	 eax
  00001	6a 01		 push	 1
  00003	e8 00 00 00 00	 call	 ?append@?$basic_string@DU?$char_traits@D@std@@V?$allocator@D@2@@std@@QAEAAV12@ID@Z ; std::basic_string<char,std::char_traits<char>,std::allocator<char> >::append

; 1015 : 		}

  00008	c3		 ret	 0
??$append@H@?$basic_string@DU?$char_traits@D@std@@V?$allocator@D@2@@std@@QAEAAV01@HH@Z ENDP ; std::basic_string<char,std::char_traits<char>,std::allocator<char> >::append<int>
; Function compile flags: /Ogtpy
_TEXT	ENDS
;	COMDAT ?append@?$basic_string@DU?$char_traits@D@std@@V?$allocator@D@2@@std@@QAEAAV12@ABV12@@Z
_TEXT	SEGMENT
?append@?$basic_string@DU?$char_traits@D@std@@V?$allocator@D@2@@std@@QAEAAV12@ABV12@@Z PROC ; std::basic_string<char,std::char_traits<char>,std::allocator<char> >::append, COMDAT
; _this$ = esi
; __Right$ = eax

; 946  : 		return (append(_Right, 0, npos));

  00000	6a ff		 push	 -1
  00002	6a 00		 push	 0
  00004	50		 push	 eax
  00005	e8 00 00 00 00	 call	 ?append@?$basic_string@DU?$char_traits@D@std@@V?$allocator@D@2@@std@@QAEAAV12@ABV12@II@Z ; std::basic_string<char,std::char_traits<char>,std::allocator<char> >::append

; 947  : 		}

  0000a	c3		 ret	 0
?append@?$basic_string@DU?$char_traits@D@std@@V?$allocator@D@2@@std@@QAEAAV12@ABV12@@Z ENDP ; std::basic_string<char,std::char_traits<char>,std::allocator<char> >::append
; Function compile flags: /Ogtpy
_TEXT	ENDS
;	COMDAT ??Y?$basic_string@DU?$char_traits@D@std@@V?$allocator@D@2@@std@@QAEAAV01@ABV01@@Z
_TEXT	SEGMENT
??Y?$basic_string@DU?$char_traits@D@std@@V?$allocator@D@2@@std@@QAEAAV01@ABV01@@Z PROC ; std::basic_string<char,std::char_traits<char>,std::allocator<char> >::operator+=, COMDAT
; _this$ = esi
; __Right$ = eax

; 931  : 		return (append(_Right));

  00000	6a ff		 push	 -1
  00002	6a 00		 push	 0
  00004	50		 push	 eax
  00005	e8 00 00 00 00	 call	 ?append@?$basic_string@DU?$char_traits@D@std@@V?$allocator@D@2@@std@@QAEAAV12@ABV12@II@Z ; std::basic_string<char,std::char_traits<char>,std::allocator<char> >::append

; 932  : 		}

  0000a	c3		 ret	 0
??Y?$basic_string@DU?$char_traits@D@std@@V?$allocator@D@2@@std@@QAEAAV01@ABV01@@Z ENDP ; std::basic_string<char,std::char_traits<char>,std::allocator<char> >::operator+=
_TEXT	ENDS
PUBLIC	__$ArrayPad$
PUBLIC	?encodeBER_variable@ASN1@@QAEXI@Z		; ASN1::encodeBER_variable
; Function compile flags: /Ogtpy
; File i:\“n•”“ÄŽj\my project\cms\cms\asn1\asn1.cpp
;	COMDAT ?encodeBER_variable@ASN1@@QAEXI@Z
_TEXT	SEGMENT
_cData$ = -16						; size = 9
__$ArrayPad$ = -4					; size = 4
__i$ = 8						; size = 4
?encodeBER_variable@ASN1@@QAEXI@Z PROC			; ASN1::encodeBER_variable, COMDAT
; _this$ = ecx

; 179  : {

  00000	83 ec 10	 sub	 esp, 16			; 00000010H
  00003	a1 00 00 00 00	 mov	 eax, DWORD PTR ___security_cookie
  00008	33 c4		 xor	 eax, esp
  0000a	89 44 24 0c	 mov	 DWORD PTR __$ArrayPad$[esp+16], eax
  0000e	8b 44 24 14	 mov	 eax, DWORD PTR __i$[esp+12]
  00012	56		 push	 esi
  00013	57		 push	 edi

; 180  : 	unsigned	int		count=0;		//“Ç‚Ýž‚Ý‰ñ”ƒJƒEƒ“ƒg—p

  00014	33 f6		 xor	 esi, esi
$LL7@encodeBER_:

; 181  : 				char	cData[9];
; 182  : 
; 183  : 	//----------------------------------
; 184  : 	//¡‰Â•Ï’·ƒGƒ“ƒR[ƒh
; 185  : 	do{
; 186  : 		cData[count] = _i & 0x7F;

  00016	8a d0		 mov	 dl, al
  00018	80 e2 7f	 and	 dl, 127			; 0000007fH
  0001b	88 54 34 08	 mov	 BYTE PTR _cData$[esp+esi+24], dl

; 187  : 		_i>>=7;
; 188  : 		count++;

  0001f	46		 inc	 esi
  00020	c1 e8 07	 shr	 eax, 7

; 189  : 	} while((count<9) && (_i > 0));

  00023	83 fe 09	 cmp	 esi, 9
  00026	73 04		 jae	 SHORT $LN4@encodeBER_
  00028	85 c0		 test	 eax, eax
  0002a	77 ea		 ja	 SHORT $LL7@encodeBER_
$LN4@encodeBER_:
  0002c	8d 79 08	 lea	 edi, DWORD PTR [ecx+8]
  0002f	90		 npad	 1
$LL3@encodeBER_:

; 190  : 
; 191  : 	//¡‰Â•Ï’·o—Í
; 192  : 	do{
; 193  : 		count--;

  00030	4e		 dec	 esi

; 194  : 		strBER.append(1,cData[count] | ((count==0)? 0 : 0x80));

  00031	8b c6		 mov	 eax, esi
  00033	f7 d8		 neg	 eax
  00035	1a c0		 sbb	 al, al
  00037	24 80		 and	 al, -128		; ffffff80H
  00039	0a 44 34 08	 or	 al, BYTE PTR _cData$[esp+esi+24]
  0003d	0f b6 c8	 movzx	 ecx, al
  00040	51		 push	 ecx
  00041	6a 01		 push	 1
  00043	8b cf		 mov	 ecx, edi
  00045	e8 00 00 00 00	 call	 ?append@?$basic_string@DU?$char_traits@D@std@@V?$allocator@D@2@@std@@QAEAAV12@ID@Z ; std::basic_string<char,std::char_traits<char>,std::allocator<char> >::append

; 195  : 	} while(count > 0);

  0004a	85 f6		 test	 esi, esi
  0004c	77 e2		 ja	 SHORT $LL3@encodeBER_

; 196  : }

  0004e	8b 4c 24 14	 mov	 ecx, DWORD PTR __$ArrayPad$[esp+24]
  00052	5f		 pop	 edi
  00053	5e		 pop	 esi
  00054	33 cc		 xor	 ecx, esp
  00056	e8 00 00 00 00	 call	 @__security_check_cookie@4
  0005b	83 c4 10	 add	 esp, 16			; 00000010H
  0005e	c2 04 00	 ret	 4
?encodeBER_variable@ASN1@@QAEXI@Z ENDP			; ASN1::encodeBER_variable
_TEXT	ENDS
PUBLIC	?encodeBER_int@ASN1@@QAEXH@Z			; ASN1::encodeBER_int
; Function compile flags: /Ogtpy
;	COMDAT ?encodeBER_int@ASN1@@QAEXH@Z
_TEXT	SEGMENT
__i$ = 8						; size = 4
?encodeBER_int@ASN1@@QAEXH@Z PROC			; ASN1::encodeBER_int, COMDAT
; _this$ = eax

; 151  : {

  00000	53		 push	 ebx
  00001	8b 5c 24 08	 mov	 ebx, DWORD PTR __i$[esp]

; 152  : 	if((_i < 64) && (_i >= -64)){		//-64`63

  00005	8d 4b 40	 lea	 ecx, DWORD PTR [ebx+64]
  00008	83 f9 7f	 cmp	 ecx, 127		; 0000007fH
  0000b	77 15		 ja	 SHORT $LN8@encodeBER_@2

; 153  : 		strBER.append(1,_i & 0x7F);

  0000d	80 e3 7f	 and	 bl, 127			; 0000007fH
  00010	0f b6 d3	 movzx	 edx, bl
  00013	52		 push	 edx
  00014	6a 01		 push	 1
  00016	8d 48 08	 lea	 ecx, DWORD PTR [eax+8]
  00019	e8 00 00 00 00	 call	 ?append@?$basic_string@DU?$char_traits@D@std@@V?$allocator@D@2@@std@@QAEAAV12@ID@Z ; std::basic_string<char,std::char_traits<char>,std::allocator<char> >::append
  0001e	5b		 pop	 ebx

; 168  : 	}
; 169  : }

  0001f	c2 04 00	 ret	 4
$LN8@encodeBER_@2:

; 154  : 	} else if((_i < 128) && (_i >= -128)) {	//-128`127

  00022	8d 8b 80 00 00
	00		 lea	 ecx, DWORD PTR [ebx+128]
  00028	81 f9 ff 00 00
	00		 cmp	 ecx, 255		; 000000ffH
  0002e	77 0f		 ja	 SHORT $LN6@encodeBER_@2

; 155  : 		strBER.append(1,_i & 0xFF);

  00030	53		 push	 ebx
  00031	6a 01		 push	 1
  00033	8d 48 08	 lea	 ecx, DWORD PTR [eax+8]
  00036	e8 00 00 00 00	 call	 ?append@?$basic_string@DU?$char_traits@D@std@@V?$allocator@D@2@@std@@QAEAAV12@ID@Z ; std::basic_string<char,std::char_traits<char>,std::allocator<char> >::append
  0003b	5b		 pop	 ebx

; 168  : 	}
; 169  : }

  0003c	c2 04 00	 ret	 4
$LN6@encodeBER_@2:

; 156  : 	} else if((_i < 32768) && (_i >= -32768)) {	//128`32767,	

  0003f	8d 93 00 80 00
	00		 lea	 edx, DWORD PTR [ebx+32768]
  00045	56		 push	 esi

; 157  : 		strBER.append(1,(_i>> 8) & 0xFF);

  00046	8d 70 08	 lea	 esi, DWORD PTR [eax+8]
  00049	81 fa ff ff 00
	00		 cmp	 edx, 65535		; 0000ffffH

; 158  : 		strBER.append(1,_i & 0xFF);

  0004f	76 2c		 jbe	 SHORT $LN78@encodeBER_@2

; 159  : 	} else if((_i < 8388608) && (_i >= -8388608)) {

  00051	8d 8b 00 00 80
	00		 lea	 ecx, DWORD PTR [ebx+8388608]
  00057	81 f9 ff ff ff
	00		 cmp	 ecx, 16777215		; 00ffffffH

; 160  : 		strBER.append(1,(_i>>16) & 0xFF);
; 161  : 		strBER.append(1,(_i>> 8) & 0xFF);
; 162  : 		strBER.append(1,_i & 0xFF);
; 163  : 	} else {

  0005d	76 0f		 jbe	 SHORT $LN79@encodeBER_@2

; 164  : 		strBER.append(1,(_i>>24) & 0xFF);

  0005f	8b cb		 mov	 ecx, ebx
  00061	c1 f9 18	 sar	 ecx, 24			; 00000018H
  00064	51		 push	 ecx
  00065	6a 01		 push	 1
  00067	8b ce		 mov	 ecx, esi
  00069	e8 00 00 00 00	 call	 ?append@?$basic_string@DU?$char_traits@D@std@@V?$allocator@D@2@@std@@QAEAAV12@ID@Z ; std::basic_string<char,std::char_traits<char>,std::allocator<char> >::append
$LN79@encodeBER_@2:

; 165  : 		strBER.append(1,(_i>>16) & 0xFF);

  0006e	8b d3		 mov	 edx, ebx
  00070	c1 fa 10	 sar	 edx, 16			; 00000010H
  00073	52		 push	 edx
  00074	6a 01		 push	 1
  00076	8b ce		 mov	 ecx, esi
  00078	e8 00 00 00 00	 call	 ?append@?$basic_string@DU?$char_traits@D@std@@V?$allocator@D@2@@std@@QAEAAV12@ID@Z ; std::basic_string<char,std::char_traits<char>,std::allocator<char> >::append
$LN78@encodeBER_@2:

; 166  : 		strBER.append(1,(_i>> 8) & 0xFF);

  0007d	8b c3		 mov	 eax, ebx
  0007f	c1 f8 08	 sar	 eax, 8
  00082	50		 push	 eax
  00083	6a 01		 push	 1
  00085	8b ce		 mov	 ecx, esi
  00087	e8 00 00 00 00	 call	 ?append@?$basic_string@DU?$char_traits@D@std@@V?$allocator@D@2@@std@@QAEAAV12@ID@Z ; std::basic_string<char,std::char_traits<char>,std::allocator<char> >::append

; 167  : 		strBER.append(1,_i & 0xFF);

  0008c	53		 push	 ebx
  0008d	6a 01		 push	 1
  0008f	8b ce		 mov	 ecx, esi
  00091	e8 00 00 00 00	 call	 ?append@?$basic_string@DU?$char_traits@D@std@@V?$allocator@D@2@@std@@QAEAAV12@ID@Z ; std::basic_string<char,std::char_traits<char>,std::allocator<char> >::append
  00096	5e		 pop	 esi
  00097	5b		 pop	 ebx

; 168  : 	}
; 169  : }

  00098	c2 04 00	 ret	 4
?encodeBER_int@ASN1@@QAEXH@Z ENDP			; ASN1::encodeBER_int
_TEXT	ENDS
PUBLIC	?encodeBER_size@ASN1@@QAEXI@Z			; ASN1::encodeBER_size
; Function compile flags: /Ogtpy
;	COMDAT ?encodeBER_size@ASN1@@QAEXI@Z
_TEXT	SEGMENT
_iSize$ = 8						; size = 4
?encodeBER_size@ASN1@@QAEXI@Z PROC			; ASN1::encodeBER_size, COMDAT
; _this$ = eax

; 119  : {

  00000	53		 push	 ebx
  00001	8b 5c 24 08	 mov	 ebx, DWORD PTR _iSize$[esp]

; 120  : 	if(iSize < (1<<7)){			//0`127

  00005	81 fb 80 00 00
	00		 cmp	 ebx, 128		; 00000080H
  0000b	73 15		 jae	 SHORT $LN8@encodeBER_@3

; 121  : 		strBER.append(1,iSize & 0x7F);

  0000d	80 e3 7f	 and	 bl, 127			; 0000007fH
  00010	0f b6 cb	 movzx	 ecx, bl
  00013	51		 push	 ecx
  00014	6a 01		 push	 1
  00016	8d 48 08	 lea	 ecx, DWORD PTR [eax+8]
  00019	e8 00 00 00 00	 call	 ?append@?$basic_string@DU?$char_traits@D@std@@V?$allocator@D@2@@std@@QAEAAV12@ID@Z ; std::basic_string<char,std::char_traits<char>,std::allocator<char> >::append
  0001e	5b		 pop	 ebx

; 140  : 	}
; 141  : }

  0001f	c2 04 00	 ret	 4
$LN8@encodeBER_@3:
  00022	56		 push	 esi

; 122  : 	} else if(iSize < (1<<8)) {	//128`256
; 123  : 		strBER.append(1,0x81);

  00023	8d 70 08	 lea	 esi, DWORD PTR [eax+8]
  00026	81 fb 00 01 00
	00		 cmp	 ebx, 256		; 00000100H
  0002c	73 04		 jae	 SHORT $LN6@encodeBER_@3
  0002e	6a 81		 push	 -127			; ffffff81H

; 124  : 		strBER.append(1,iSize & 0xFF);

  00030	eb 54		 jmp	 SHORT $LN36@encodeBER_@3
$LN6@encodeBER_@3:

; 125  : 	} else if(iSize < (1<<16)) {	//256`65535,	
; 126  : 		strBER.append(1,0x82);

  00032	8b ce		 mov	 ecx, esi
  00034	81 fb 00 00 01
	00		 cmp	 ebx, 65536		; 00010000H
  0003a	73 11		 jae	 SHORT $LN4@encodeBER_@3
  0003c	6a 82		 push	 -126			; ffffff82H
  0003e	6a 01		 push	 1
  00040	e8 00 00 00 00	 call	 ?append@?$basic_string@DU?$char_traits@D@std@@V?$allocator@D@2@@std@@QAEAAV12@ID@Z ; std::basic_string<char,std::char_traits<char>,std::allocator<char> >::append

; 127  : 		strBER.append(1,((iSize>>8) & 0xFF));

  00045	8b d3		 mov	 edx, ebx
  00047	c1 ea 08	 shr	 edx, 8
  0004a	52		 push	 edx

; 128  : 		strBER.append(1,(iSize & 0xFF));

  0004b	eb 39		 jmp	 SHORT $LN36@encodeBER_@3
$LN4@encodeBER_@3:

; 129  : 	} else if(iSize < (1<<24)) {	//

  0004d	81 fb 00 00 00
	01		 cmp	 ebx, 16777216		; 01000000H
  00053	73 04		 jae	 SHORT $LN2@encodeBER_@3

; 130  : 		strBER.append(1,0x83);

  00055	6a 83		 push	 -125			; ffffff83H

; 131  : 		strBER.append(1,((iSize>>16) & 0xFF));
; 132  : 		strBER.append(1,((iSize>>8) & 0xFF));
; 133  : 		strBER.append(1,(iSize & 0xFF));
; 134  : 	} else {

  00057	eb 11		 jmp	 SHORT $LN37@encodeBER_@3
$LN2@encodeBER_@3:

; 135  : 		strBER.append(1,0x84);

  00059	6a 84		 push	 -124			; ffffff84H
  0005b	6a 01		 push	 1
  0005d	e8 00 00 00 00	 call	 ?append@?$basic_string@DU?$char_traits@D@std@@V?$allocator@D@2@@std@@QAEAAV12@ID@Z ; std::basic_string<char,std::char_traits<char>,std::allocator<char> >::append

; 136  : 		strBER.append(1,((iSize>>24) & 0xFF));

  00062	8b d3		 mov	 edx, ebx
  00064	c1 ea 18	 shr	 edx, 24			; 00000018H
  00067	52		 push	 edx
  00068	8b ce		 mov	 ecx, esi
$LN37@encodeBER_@3:
  0006a	6a 01		 push	 1
  0006c	e8 00 00 00 00	 call	 ?append@?$basic_string@DU?$char_traits@D@std@@V?$allocator@D@2@@std@@QAEAAV12@ID@Z ; std::basic_string<char,std::char_traits<char>,std::allocator<char> >::append

; 137  : 		strBER.append(1,((iSize>>16) & 0xFF));

  00071	8b c3		 mov	 eax, ebx
  00073	c1 e8 10	 shr	 eax, 16			; 00000010H
  00076	50		 push	 eax
  00077	6a 01		 push	 1
  00079	8b ce		 mov	 ecx, esi
  0007b	e8 00 00 00 00	 call	 ?append@?$basic_string@DU?$char_traits@D@std@@V?$allocator@D@2@@std@@QAEAAV12@ID@Z ; std::basic_string<char,std::char_traits<char>,std::allocator<char> >::append

; 138  : 		strBER.append(1,((iSize>>8) & 0xFF));

  00080	8b cb		 mov	 ecx, ebx
  00082	c1 e9 08	 shr	 ecx, 8
  00085	51		 push	 ecx
$LN36@encodeBER_@3:
  00086	6a 01		 push	 1
  00088	8b ce		 mov	 ecx, esi
  0008a	e8 00 00 00 00	 call	 ?append@?$basic_string@DU?$char_traits@D@std@@V?$allocator@D@2@@std@@QAEAAV12@ID@Z ; std::basic_string<char,std::char_traits<char>,std::allocator<char> >::append

; 139  : 		strBER.append(1,(iSize & 0xFF));

  0008f	53		 push	 ebx
  00090	6a 01		 push	 1
  00092	8b ce		 mov	 ecx, esi
  00094	e8 00 00 00 00	 call	 ?append@?$basic_string@DU?$char_traits@D@std@@V?$allocator@D@2@@std@@QAEAAV12@ID@Z ; std::basic_string<char,std::char_traits<char>,std::allocator<char> >::append
  00099	5e		 pop	 esi
  0009a	5b		 pop	 ebx

; 140  : 	}
; 141  : }

  0009b	c2 04 00	 ret	 4
?encodeBER_size@ASN1@@QAEXI@Z ENDP			; ASN1::encodeBER_size
_TEXT	ENDS
PUBLIC	??1ASN1@@QAE@XZ					; ASN1::~ASN1
; Function compile flags: /Ogtpy
;	COMDAT ??1ASN1@@QAE@XZ
_TEXT	SEGMENT
??1ASN1@@QAE@XZ PROC					; ASN1::~ASN1, COMDAT
; _this$ = edi

; 27   : {

  00000	51		 push	 ecx
  00001	53		 push	 ebx
  00002	56		 push	 esi

; 28   : 	Clear_Construct();

  00003	8d 77 28	 lea	 esi, DWORD PTR [edi+40]
  00006	8b c6		 mov	 eax, esi
  00008	c7 07 00 00 00
	00		 mov	 DWORD PTR [edi], OFFSET ??_7ASN1@@6B@
  0000e	e8 00 00 00 00	 call	 ?clear@?$vector@PAVASN1@@V?$allocator@PAVASN1@@@std@@@std@@QAEXXZ ; std::vector<ASN1 *,std::allocator<ASN1 *> >::clear

; 29   : }

  00013	8b 46 0c	 mov	 eax, DWORD PTR [esi+12]
  00016	33 db		 xor	 ebx, ebx
  00018	3b c3		 cmp	 eax, ebx
  0001a	74 09		 je	 SHORT $LN44@ASN1
  0001c	50		 push	 eax
  0001d	e8 00 00 00 00	 call	 ??3@YAXPAX@Z		; operator delete
  00022	83 c4 04	 add	 esp, 4
$LN44@ASN1:
  00025	8b 06		 mov	 eax, DWORD PTR [esi]
  00027	50		 push	 eax
  00028	89 5e 0c	 mov	 DWORD PTR [esi+12], ebx
  0002b	89 5e 10	 mov	 DWORD PTR [esi+16], ebx
  0002e	89 5e 14	 mov	 DWORD PTR [esi+20], ebx
  00031	e8 00 00 00 00	 call	 ??3@YAXPAX@Z		; operator delete
  00036	83 c4 04	 add	 esp, 4
  00039	83 7f 20 10	 cmp	 DWORD PTR [edi+32], 16	; 00000010H
  0003d	72 0c		 jb	 SHORT $LN70@ASN1
  0003f	8b 4f 0c	 mov	 ecx, DWORD PTR [edi+12]
  00042	51		 push	 ecx
  00043	e8 00 00 00 00	 call	 ??3@YAXPAX@Z		; operator delete
  00048	83 c4 04	 add	 esp, 4
$LN70@ASN1:
  0004b	89 5f 1c	 mov	 DWORD PTR [edi+28], ebx
  0004e	c7 47 20 0f 00
	00 00		 mov	 DWORD PTR [edi+32], 15	; 0000000fH
  00055	5e		 pop	 esi
  00056	88 5f 0c	 mov	 BYTE PTR [edi+12], bl
  00059	5b		 pop	 ebx
  0005a	59		 pop	 ecx
  0005b	c3		 ret	 0
??1ASN1@@QAE@XZ ENDP					; ASN1::~ASN1
; Function compile flags: /Ogtpy
;	COMDAT ??_Glength_error@std@@UAEPAXI@Z
_TEXT	SEGMENT
___flags$ = 8						; size = 4
??_Glength_error@std@@UAEPAXI@Z PROC			; std::length_error::`scalar deleting destructor', COMDAT
; _this$ = ecx
  00000	56		 push	 esi
  00001	8b f1		 mov	 esi, ecx
  00003	c7 06 00 00 00
	00		 mov	 DWORD PTR [esi], OFFSET ??_7logic_error@std@@6B@
  00009	83 7e 24 10	 cmp	 DWORD PTR [esi+36], 16	; 00000010H
  0000d	72 0c		 jb	 SHORT $LN24@scalar@19
  0000f	8b 46 10	 mov	 eax, DWORD PTR [esi+16]
  00012	50		 push	 eax
  00013	e8 00 00 00 00	 call	 ??3@YAXPAX@Z		; operator delete
  00018	83 c4 04	 add	 esp, 4
$LN24@scalar@19:
  0001b	33 c0		 xor	 eax, eax
  0001d	c7 46 24 0f 00
	00 00		 mov	 DWORD PTR [esi+36], 15	; 0000000fH
  00024	89 46 20	 mov	 DWORD PTR [esi+32], eax
  00027	8b ce		 mov	 ecx, esi
  00029	88 46 10	 mov	 BYTE PTR [esi+16], al
  0002c	e8 00 00 00 00	 call	 ??1exception@std@@UAE@XZ ; std::exception::~exception
  00031	f6 44 24 08 01	 test	 BYTE PTR ___flags$[esp], 1
  00036	74 09		 je	 SHORT $LN34@scalar@19
  00038	56		 push	 esi
  00039	e8 00 00 00 00	 call	 ??3@YAXPAX@Z		; operator delete
  0003e	83 c4 04	 add	 esp, 4
$LN34@scalar@19:
  00041	8b c6		 mov	 eax, esi
  00043	5e		 pop	 esi
  00044	c2 04 00	 ret	 4
??_Glength_error@std@@UAEPAXI@Z ENDP			; std::length_error::`scalar deleting destructor'
; Function compile flags: /Ogtpy
; File c:\program files\microsoft visual studio 9.0\vc\include\xstring
_TEXT	ENDS
;	COMDAT ??$_Assign@H@?$basic_string@DU?$char_traits@D@std@@V?$allocator@D@2@@std@@QAEAAV01@HHU_Int_iterator_tag@1@@Z
_TEXT	SEGMENT
_this$ = 8						; size = 4
___formal$ = 12						; size = 1
??$_Assign@H@?$basic_string@DU?$char_traits@D@std@@V?$allocator@D@2@@std@@QAEAAV01@HHU_Int_iterator_tag@1@@Z PROC ; std::basic_string<char,std::char_traits<char>,std::allocator<char> >::_Assign<int>, COMDAT
; __Count$ = ecx
; __Ch$ = eax

; 1109 : 		{	// assign _Count * _Ch
; 1110 : 		return (assign((size_type)_Count, (_Elem)_Ch));

  00000	50		 push	 eax
  00001	51		 push	 ecx
  00002	8b 4c 24 0c	 mov	 ecx, DWORD PTR _this$[esp+4]
  00006	e8 00 00 00 00	 call	 ?assign@?$basic_string@DU?$char_traits@D@std@@V?$allocator@D@2@@std@@QAEAAV12@ID@Z ; std::basic_string<char,std::char_traits<char>,std::allocator<char> >::assign

; 1111 : 		}

  0000b	c2 08 00	 ret	 8
??$_Assign@H@?$basic_string@DU?$char_traits@D@std@@V?$allocator@D@2@@std@@QAEAAV01@HHU_Int_iterator_tag@1@@Z ENDP ; std::basic_string<char,std::char_traits<char>,std::allocator<char> >::_Assign<int>
; Function compile flags: /Ogtpy
_TEXT	ENDS
;	COMDAT ??$assign@H@?$basic_string@DU?$char_traits@D@std@@V?$allocator@D@2@@std@@QAEAAV01@HH@Z
_TEXT	SEGMENT
??$assign@H@?$basic_string@DU?$char_traits@D@std@@V?$allocator@D@2@@std@@QAEAAV01@HH@Z PROC ; std::basic_string<char,std::char_traits<char>,std::allocator<char> >::assign<int>, COMDAT
; _this$ = ecx
; __Last$ = eax

; 1103 : 		{	// assign [First, _Last)
; 1104 : 		return (_Assign(_First, _Last, _Iter_cat(_First)));

  00000	50		 push	 eax
  00001	6a 01		 push	 1
  00003	e8 00 00 00 00	 call	 ?assign@?$basic_string@DU?$char_traits@D@std@@V?$allocator@D@2@@std@@QAEAAV12@ID@Z ; std::basic_string<char,std::char_traits<char>,std::allocator<char> >::assign

; 1105 : 		}

  00008	c3		 ret	 0
??$assign@H@?$basic_string@DU?$char_traits@D@std@@V?$allocator@D@2@@std@@QAEAAV01@HH@Z ENDP ; std::basic_string<char,std::char_traits<char>,std::allocator<char> >::assign<int>
_TEXT	ENDS
PUBLIC	?encodeBER_TAG@ASN1@@QAEXE_NII@Z		; ASN1::encodeBER_TAG
; Function compile flags: /Ogtpy
; File i:\“n•”“ÄŽj\my project\cms\cms\asn1\asn1.cpp
;	COMDAT ?encodeBER_TAG@ASN1@@QAEXE_NII@Z
_TEXT	SEGMENT
_iTag$ = 8						; size = 4
_iSize$ = 12						; size = 4
_cTag$ = 16						; size = 1
?encodeBER_TAG@ASN1@@QAEXE_NII@Z PROC			; ASN1::encodeBER_TAG, COMDAT
; _this$ = edi

; 97   : {

  00000	53		 push	 ebx
  00001	8b 5c 24 08	 mov	 ebx, DWORD PTR _iTag$[esp]

; 98   : 	const	unsigned	char	cTag = ((fStruct&0x01)<<5) | (cClass<<6);
; 99   : 
; 100  : 	if(mode != _IMPLICIT){
; 101  : 		if(iTag <= 30){

  00005	83 fb 1e	 cmp	 ebx, 30			; 0000001eH
  00008	77 53		 ja	 SHORT $LN2@encodeBER_@4

; 102  : 			strBER.assign(1,cTag | iTag);

  0000a	83 7f 20 01	 cmp	 DWORD PTR [edi+32], 1
  0000e	56		 push	 esi
  0000f	8d 77 08	 lea	 esi, DWORD PTR [edi+8]
  00012	73 0d		 jae	 SHORT $LN17@encodeBER_@4
  00014	8b 46 14	 mov	 eax, DWORD PTR [esi+20]
  00017	50		 push	 eax
  00018	6a 01		 push	 1
  0001a	8b ce		 mov	 ecx, esi
  0001c	e8 00 00 00 00	 call	 ?_Copy@?$basic_string@DU?$char_traits@D@std@@V?$allocator@D@2@@std@@IAEXII@Z ; std::basic_string<char,std::char_traits<char>,std::allocator<char> >::_Copy
$LN17@encodeBER_@4:
  00021	0a 5c 24 14	 or	 bl, BYTE PTR _cTag$[esp+4]
  00025	ba 10 00 00 00	 mov	 edx, 16			; 00000010H
  0002a	8d 46 04	 lea	 eax, DWORD PTR [esi+4]
  0002d	39 56 18	 cmp	 DWORD PTR [esi+24], edx
  00030	72 04		 jb	 SHORT $LN69@encodeBER_@4
  00032	8b 08		 mov	 ecx, DWORD PTR [eax]
  00034	eb 02		 jmp	 SHORT $LN70@encodeBER_@4
$LN69@encodeBER_@4:
  00036	8b c8		 mov	 ecx, eax
$LN70@encodeBER_@4:
  00038	88 19		 mov	 BYTE PTR [ecx], bl
  0003a	39 56 18	 cmp	 DWORD PTR [esi+24], edx
  0003d	c7 46 14 01 00
	00 00		 mov	 DWORD PTR [esi+20], 1
  00044	5e		 pop	 esi
  00045	72 02		 jb	 SHORT $LN83@encodeBER_@4
  00047	8b 00		 mov	 eax, DWORD PTR [eax]
$LN83@encodeBER_@4:

; 106  : 		}
; 107  : 		encodeBER_size(iSize);

  00049	8b 54 24 0c	 mov	 edx, DWORD PTR _iSize$[esp]
  0004d	c6 40 01 00	 mov	 BYTE PTR [eax+1], 0
  00051	52		 push	 edx
  00052	8b c7		 mov	 eax, edi
  00054	e8 00 00 00 00	 call	 ?encodeBER_size@ASN1@@QAEXI@Z ; ASN1::encodeBER_size
  00059	5b		 pop	 ebx

; 108  : 	}
; 109  : }

  0005a	c2 0c 00	 ret	 12			; 0000000cH
$LN2@encodeBER_@4:

; 103  : 		} else {
; 104  : 			strBER.assign(1,cTag | 31);

  0005d	8a 44 24 10	 mov	 al, BYTE PTR _cTag$[esp]
  00061	0c 1f		 or	 al, 31			; 0000001fH
  00063	0f b6 c8	 movzx	 ecx, al
  00066	51		 push	 ecx
  00067	6a 01		 push	 1
  00069	8d 4f 08	 lea	 ecx, DWORD PTR [edi+8]
  0006c	e8 00 00 00 00	 call	 ?assign@?$basic_string@DU?$char_traits@D@std@@V?$allocator@D@2@@std@@QAEAAV12@ID@Z ; std::basic_string<char,std::char_traits<char>,std::allocator<char> >::assign

; 105  : 			encodeBER_variable(iTag);

  00071	53		 push	 ebx
  00072	8b cf		 mov	 ecx, edi
  00074	e8 00 00 00 00	 call	 ?encodeBER_variable@ASN1@@QAEXI@Z ; ASN1::encodeBER_variable

; 106  : 		}
; 107  : 		encodeBER_size(iSize);

  00079	8b 54 24 0c	 mov	 edx, DWORD PTR _iSize$[esp]
  0007d	52		 push	 edx
  0007e	8b c7		 mov	 eax, edi
  00080	e8 00 00 00 00	 call	 ?encodeBER_size@ASN1@@QAEXI@Z ; ASN1::encodeBER_size
  00085	5b		 pop	 ebx

; 108  : 	}
; 109  : }

  00086	c2 0c 00	 ret	 12			; 0000000cH
?encodeBER_TAG@ASN1@@QAEXE_NII@Z ENDP			; ASN1::encodeBER_TAG
;	COMDAT xdata$x
; File c:\program files\microsoft visual studio 9.0\vc\include\iosfwd
xdata$x	SEGMENT
__unwindtable$??0logic_error@std@@QAE@ABV?$basic_string@DU?$char_traits@D@std@@V?$allocator@D@2@@1@@Z DD 0ffffffffH
	DD	FLAT:__unwindfunclet$??0logic_error@std@@QAE@ABV?$basic_string@DU?$char_traits@D@std@@V?$allocator@D@2@@1@@Z$0
__ehfuncinfo$??0logic_error@std@@QAE@ABV?$basic_string@DU?$char_traits@D@std@@V?$allocator@D@2@@1@@Z DD 019930522H
	DD	01H
	DD	FLAT:__unwindtable$??0logic_error@std@@QAE@ABV?$basic_string@DU?$char_traits@D@std@@V?$allocator@D@2@@1@@Z
	DD	2 DUP(00H)
	DD	2 DUP(00H)
	DD	00H
	DD	01H
; Function compile flags: /Ogtpy
; File c:\program files\microsoft visual studio 9.0\vc\include\stdexcept
xdata$x	ENDS
;	COMDAT ??0logic_error@std@@QAE@ABV?$basic_string@DU?$char_traits@D@std@@V?$allocator@D@2@@1@@Z
_TEXT	SEGMENT
_this$ = -16						; size = 4
__$EHRec$ = -12						; size = 12
__Message$ = 8						; size = 4
??0logic_error@std@@QAE@ABV?$basic_string@DU?$char_traits@D@std@@V?$allocator@D@2@@1@@Z PROC ; std::logic_error::logic_error, COMDAT
; _this$ = ecx

; 26   : 		{	// construct from message string

  00000	6a ff		 push	 -1
  00002	68 00 00 00 00	 push	 __ehhandler$??0logic_error@std@@QAE@ABV?$basic_string@DU?$char_traits@D@std@@V?$allocator@D@2@@1@@Z
  00007	64 a1 00 00 00
	00		 mov	 eax, DWORD PTR fs:0
  0000d	50		 push	 eax
  0000e	51		 push	 ecx
  0000f	56		 push	 esi
  00010	a1 00 00 00 00	 mov	 eax, DWORD PTR ___security_cookie
  00015	33 c4		 xor	 eax, esp
  00017	50		 push	 eax
  00018	8d 44 24 0c	 lea	 eax, DWORD PTR __$EHRec$[esp+24]
  0001c	64 a3 00 00 00
	00		 mov	 DWORD PTR fs:0, eax
  00022	8b f1		 mov	 esi, ecx
  00024	89 74 24 08	 mov	 DWORD PTR _this$[esp+24], esi
  00028	e8 00 00 00 00	 call	 ??0exception@std@@QAE@XZ ; std::exception::exception
  0002d	33 c0		 xor	 eax, eax
  0002f	89 44 24 14	 mov	 DWORD PTR __$EHRec$[esp+32], eax
  00033	8d 4e 0c	 lea	 ecx, DWORD PTR [esi+12]
  00036	c7 06 00 00 00
	00		 mov	 DWORD PTR [esi], OFFSET ??_7logic_error@std@@6B@
  0003c	6a ff		 push	 -1
  0003e	89 41 14	 mov	 DWORD PTR [ecx+20], eax
  00041	c7 41 18 0f 00
	00 00		 mov	 DWORD PTR [ecx+24], 15	; 0000000fH
  00048	50		 push	 eax
  00049	88 41 04	 mov	 BYTE PTR [ecx+4], al
  0004c	8b 44 24 24	 mov	 eax, DWORD PTR __Message$[esp+28]
  00050	50		 push	 eax
  00051	e8 00 00 00 00	 call	 ?assign@?$basic_string@DU?$char_traits@D@std@@V?$allocator@D@2@@std@@QAEAAV12@ABV12@II@Z ; std::basic_string<char,std::char_traits<char>,std::allocator<char> >::assign

; 27   : 		}

  00056	8b c6		 mov	 eax, esi
  00058	8b 4c 24 0c	 mov	 ecx, DWORD PTR __$EHRec$[esp+24]
  0005c	64 89 0d 00 00
	00 00		 mov	 DWORD PTR fs:0, ecx
  00063	59		 pop	 ecx
  00064	5e		 pop	 esi
  00065	83 c4 10	 add	 esp, 16			; 00000010H
  00068	c2 04 00	 ret	 4
_TEXT	ENDS
;	COMDAT text$x
text$x	SEGMENT
__unwindfunclet$??0logic_error@std@@QAE@ABV?$basic_string@DU?$char_traits@D@std@@V?$allocator@D@2@@1@@Z$0:
  00000	8b 4d f0	 mov	 ecx, DWORD PTR _this$[ebp]
  00003	e9 00 00 00 00	 jmp	 ??1exception@std@@UAE@XZ ; std::exception::~exception
__ehhandler$??0logic_error@std@@QAE@ABV?$basic_string@DU?$char_traits@D@std@@V?$allocator@D@2@@1@@Z:
  00008	8b 54 24 08	 mov	 edx, DWORD PTR [esp+8]
  0000c	8d 42 f8	 lea	 eax, DWORD PTR [edx-8]
  0000f	8b 4a f4	 mov	 ecx, DWORD PTR [edx-12]
  00012	33 c8		 xor	 ecx, eax
  00014	e8 00 00 00 00	 call	 @__security_check_cookie@4
  00019	b8 00 00 00 00	 mov	 eax, OFFSET __ehfuncinfo$??0logic_error@std@@QAE@ABV?$basic_string@DU?$char_traits@D@std@@V?$allocator@D@2@@1@@Z
  0001e	e9 00 00 00 00	 jmp	 ___CxxFrameHandler3
text$x	ENDS
??0logic_error@std@@QAE@ABV?$basic_string@DU?$char_traits@D@std@@V?$allocator@D@2@@1@@Z ENDP ; std::logic_error::logic_error
;	COMDAT xdata$x
xdata$x	SEGMENT
__unwindtable$??0logic_error@std@@QAE@ABV01@@Z DD 0ffffffffH
	DD	FLAT:__unwindfunclet$??0logic_error@std@@QAE@ABV01@@Z$0
__ehfuncinfo$??0logic_error@std@@QAE@ABV01@@Z DD 019930522H
	DD	01H
	DD	FLAT:__unwindtable$??0logic_error@std@@QAE@ABV01@@Z
	DD	2 DUP(00H)
	DD	2 DUP(00H)
	DD	00H
	DD	01H
; Function compile flags: /Ogtpy
xdata$x	ENDS
;	COMDAT ??0logic_error@std@@QAE@ABV01@@Z
_TEXT	SEGMENT
_this$ = -16						; size = 4
__$EHRec$ = -12						; size = 12
___that$ = 8						; size = 4
??0logic_error@std@@QAE@ABV01@@Z PROC			; std::logic_error::logic_error, COMDAT
; _this$ = ecx
  00000	6a ff		 push	 -1
  00002	68 00 00 00 00	 push	 __ehhandler$??0logic_error@std@@QAE@ABV01@@Z
  00007	64 a1 00 00 00
	00		 mov	 eax, DWORD PTR fs:0
  0000d	50		 push	 eax
  0000e	51		 push	 ecx
  0000f	56		 push	 esi
  00010	57		 push	 edi
  00011	a1 00 00 00 00	 mov	 eax, DWORD PTR ___security_cookie
  00016	33 c4		 xor	 eax, esp
  00018	50		 push	 eax
  00019	8d 44 24 10	 lea	 eax, DWORD PTR __$EHRec$[esp+28]
  0001d	64 a3 00 00 00
	00		 mov	 DWORD PTR fs:0, eax
  00023	8b f1		 mov	 esi, ecx
  00025	89 74 24 0c	 mov	 DWORD PTR _this$[esp+28], esi
  00029	8b 7c 24 20	 mov	 edi, DWORD PTR ___that$[esp+24]
  0002d	57		 push	 edi
  0002e	e8 00 00 00 00	 call	 ??0exception@std@@QAE@ABV01@@Z ; std::exception::exception
  00033	33 d2		 xor	 edx, edx
  00035	89 54 24 18	 mov	 DWORD PTR __$EHRec$[esp+36], edx
  00039	6a ff		 push	 -1
  0003b	8d 4e 0c	 lea	 ecx, DWORD PTR [esi+12]
  0003e	c7 06 00 00 00
	00		 mov	 DWORD PTR [esi], OFFSET ??_7logic_error@std@@6B@
  00044	8d 47 0c	 lea	 eax, DWORD PTR [edi+12]
  00047	52		 push	 edx
  00048	c7 41 18 0f 00
	00 00		 mov	 DWORD PTR [ecx+24], 15	; 0000000fH
  0004f	89 51 14	 mov	 DWORD PTR [ecx+20], edx
  00052	50		 push	 eax
  00053	88 51 04	 mov	 BYTE PTR [ecx+4], dl
  00056	e8 00 00 00 00	 call	 ?assign@?$basic_string@DU?$char_traits@D@std@@V?$allocator@D@2@@std@@QAEAAV12@ABV12@II@Z ; std::basic_string<char,std::char_traits<char>,std::allocator<char> >::assign
  0005b	8b c6		 mov	 eax, esi
  0005d	8b 4c 24 10	 mov	 ecx, DWORD PTR __$EHRec$[esp+28]
  00061	64 89 0d 00 00
	00 00		 mov	 DWORD PTR fs:0, ecx
  00068	59		 pop	 ecx
  00069	5f		 pop	 edi
  0006a	5e		 pop	 esi
  0006b	83 c4 10	 add	 esp, 16			; 00000010H
  0006e	c2 04 00	 ret	 4
_TEXT	ENDS
;	COMDAT text$x
text$x	SEGMENT
__unwindfunclet$??0logic_error@std@@QAE@ABV01@@Z$0:
  00000	8b 4d f0	 mov	 ecx, DWORD PTR _this$[ebp]
  00003	e9 00 00 00 00	 jmp	 ??1exception@std@@UAE@XZ ; std::exception::~exception
__ehhandler$??0logic_error@std@@QAE@ABV01@@Z:
  00008	8b 54 24 08	 mov	 edx, DWORD PTR [esp+8]
  0000c	8d 42 f4	 lea	 eax, DWORD PTR [edx-12]
  0000f	8b 4a f0	 mov	 ecx, DWORD PTR [edx-16]
  00012	33 c8		 xor	 ecx, eax
  00014	e8 00 00 00 00	 call	 @__security_check_cookie@4
  00019	b8 00 00 00 00	 mov	 eax, OFFSET __ehfuncinfo$??0logic_error@std@@QAE@ABV01@@Z
  0001e	e9 00 00 00 00	 jmp	 ___CxxFrameHandler3
text$x	ENDS
??0logic_error@std@@QAE@ABV01@@Z ENDP			; std::logic_error::logic_error
; Function compile flags: /Ogtpy
;	COMDAT ??0length_error@std@@QAE@ABV01@@Z
_TEXT	SEGMENT
___that$ = 8						; size = 4
??0length_error@std@@QAE@ABV01@@Z PROC			; std::length_error::length_error, COMDAT
; _this$ = ecx
  00000	8b 44 24 04	 mov	 eax, DWORD PTR ___that$[esp-4]
  00004	56		 push	 esi
  00005	50		 push	 eax
  00006	8b f1		 mov	 esi, ecx
  00008	e8 00 00 00 00	 call	 ??0logic_error@std@@QAE@ABV01@@Z
  0000d	c7 06 00 00 00
	00		 mov	 DWORD PTR [esi], OFFSET ??_7length_error@std@@6B@
  00013	8b c6		 mov	 eax, esi
  00015	5e		 pop	 esi
  00016	c2 04 00	 ret	 4
??0length_error@std@@QAE@ABV01@@Z ENDP			; std::length_error::length_error
; Function compile flags: /Ogtpy
; File i:\“n•”“ÄŽj\my project\cms\cms\asn1\asn1.cpp
_TEXT	ENDS
;	COMDAT ?encodeBER@ASN1@@UAEXXZ
_TEXT	SEGMENT
?encodeBER@ASN1@@UAEXXZ PROC				; ASN1::encodeBER, COMDAT
; _this$ = ecx

; 235  : 	encodeBER_TAG(BER_Class_General, false, BER_TAG_NULL, 0);

  00000	83 79 24 01	 cmp	 DWORD PTR [ecx+36], 1
  00004	74 4b		 je	 SHORT $LN92@encodeBER@4
  00006	83 79 20 01	 cmp	 DWORD PTR [ecx+32], 1
  0000a	56		 push	 esi
  0000b	8d 71 08	 lea	 esi, DWORD PTR [ecx+8]
  0000e	73 0d		 jae	 SHORT $LN16@encodeBER@4
  00010	8b 46 14	 mov	 eax, DWORD PTR [esi+20]
  00013	50		 push	 eax
  00014	6a 01		 push	 1
  00016	8b ce		 mov	 ecx, esi
  00018	e8 00 00 00 00	 call	 ?_Copy@?$basic_string@DU?$char_traits@D@std@@V?$allocator@D@2@@std@@IAEXII@Z ; std::basic_string<char,std::char_traits<char>,std::allocator<char> >::_Copy
$LN16@encodeBER@4:
  0001d	ba 10 00 00 00	 mov	 edx, 16			; 00000010H
  00022	8d 46 04	 lea	 eax, DWORD PTR [esi+4]
  00025	39 56 18	 cmp	 DWORD PTR [esi+24], edx
  00028	72 04		 jb	 SHORT $LN68@encodeBER@4
  0002a	8b 08		 mov	 ecx, DWORD PTR [eax]
  0002c	eb 02		 jmp	 SHORT $LN69@encodeBER@4
$LN68@encodeBER@4:
  0002e	8b c8		 mov	 ecx, eax
$LN69@encodeBER@4:
  00030	c6 01 05	 mov	 BYTE PTR [ecx], 5
  00033	c7 46 14 01 00
	00 00		 mov	 DWORD PTR [esi+20], 1
  0003a	39 56 18	 cmp	 DWORD PTR [esi+24], edx
  0003d	72 02		 jb	 SHORT $LN82@encodeBER@4
  0003f	8b 00		 mov	 eax, DWORD PTR [eax]
$LN82@encodeBER@4:
  00041	6a 00		 push	 0
  00043	6a 01		 push	 1
  00045	8b ce		 mov	 ecx, esi
  00047	c6 40 01 00	 mov	 BYTE PTR [eax+1], 0
  0004b	e8 00 00 00 00	 call	 ?append@?$basic_string@DU?$char_traits@D@std@@V?$allocator@D@2@@std@@QAEAAV12@ID@Z ; std::basic_string<char,std::char_traits<char>,std::allocator<char> >::append
  00050	5e		 pop	 esi
$LN92@encodeBER@4:

; 236  : }

  00051	c3		 ret	 0
?encodeBER@ASN1@@UAEXXZ ENDP				; ASN1::encodeBER
; Function compile flags: /Ogtpy
; File c:\program files\microsoft visual studio 9.0\vc\include\stdexcept
;	COMDAT ??0length_error@std@@QAE@ABV?$basic_string@DU?$char_traits@D@std@@V?$allocator@D@2@@1@@Z
_TEXT	SEGMENT
__Message$ = 8						; size = 4
??0length_error@std@@QAE@ABV?$basic_string@DU?$char_traits@D@std@@V?$allocator@D@2@@1@@Z PROC ; std::length_error::length_error, COMDAT
; _this$ = ecx

; 105  : 		{	// construct from message string

  00000	8b 44 24 04	 mov	 eax, DWORD PTR __Message$[esp-4]
  00004	56		 push	 esi
  00005	50		 push	 eax
  00006	8b f1		 mov	 esi, ecx
  00008	e8 00 00 00 00	 call	 ??0logic_error@std@@QAE@ABV?$basic_string@DU?$char_traits@D@std@@V?$allocator@D@2@@1@@Z ; std::logic_error::logic_error
  0000d	c7 06 00 00 00
	00		 mov	 DWORD PTR [esi], OFFSET ??_7length_error@std@@6B@

; 106  : 		}

  00013	8b c6		 mov	 eax, esi
  00015	5e		 pop	 esi
  00016	c2 04 00	 ret	 4
??0length_error@std@@QAE@ABV?$basic_string@DU?$char_traits@D@std@@V?$allocator@D@2@@1@@Z ENDP ; std::length_error::length_error
_TEXT	ENDS
;	COMDAT xdata$x
xdata$x	SEGMENT
__unwindtable$?_Xlen@?$vector@PAVASN1@@V?$allocator@PAVASN1@@@std@@@std@@KAXXZ DD 0ffffffffH
	DD	FLAT:__unwindfunclet$?_Xlen@?$vector@PAVASN1@@V?$allocator@PAVASN1@@@std@@@std@@KAXXZ$0
__ehfuncinfo$?_Xlen@?$vector@PAVASN1@@V?$allocator@PAVASN1@@@std@@@std@@KAXXZ DD 019930522H
	DD	01H
	DD	FLAT:__unwindtable$?_Xlen@?$vector@PAVASN1@@V?$allocator@PAVASN1@@@std@@@std@@KAXXZ
	DD	2 DUP(00H)
	DD	2 DUP(00H)
	DD	00H
	DD	01H
; Function compile flags: /Ogtpy
; File c:\program files\microsoft visual studio 9.0\vc\include\vector
xdata$x	ENDS
;	COMDAT ?_Xlen@?$vector@PAVASN1@@V?$allocator@PAVASN1@@@std@@@std@@KAXXZ
_TEXT	SEGMENT
$T77465 = -84						; size = 28
$T77464 = -56						; size = 40
__$EHRec$ = -12						; size = 12
?_Xlen@?$vector@PAVASN1@@V?$allocator@PAVASN1@@@std@@@std@@KAXXZ PROC ; std::vector<ASN1 *,std::allocator<ASN1 *> >::_Xlen, COMDAT

; 1257 : 		{	// report a length_error

  00000	55		 push	 ebp
  00001	8b ec		 mov	 ebp, esp
  00003	83 e4 f8	 and	 esp, -8			; fffffff8H
  00006	6a ff		 push	 -1
  00008	68 00 00 00 00	 push	 __ehhandler$?_Xlen@?$vector@PAVASN1@@V?$allocator@PAVASN1@@@std@@@std@@KAXXZ
  0000d	64 a1 00 00 00
	00		 mov	 eax, DWORD PTR fs:0
  00013	50		 push	 eax
  00014	83 ec 4c	 sub	 esp, 76			; 0000004cH
  00017	a1 00 00 00 00	 mov	 eax, DWORD PTR ___security_cookie
  0001c	33 c4		 xor	 eax, esp
  0001e	50		 push	 eax
  0001f	8d 44 24 50	 lea	 eax, DWORD PTR __$EHRec$[esp+92]
  00023	64 a3 00 00 00
	00		 mov	 DWORD PTR fs:0, eax

; 1258 : 		_THROW(length_error, "vector<T> too long");

  00029	6a 12		 push	 18			; 00000012H
  0002b	68 00 00 00 00	 push	 OFFSET ??_C@_0BD@OLBABOEK@vector?$DMT?$DO?5too?5long?$AA@
  00030	8d 4c 24 10	 lea	 ecx, DWORD PTR $T77465[esp+100]
  00034	c7 44 24 28 0f
	00 00 00	 mov	 DWORD PTR $T77465[esp+124], 15 ; 0000000fH
  0003c	c7 44 24 24 00
	00 00 00	 mov	 DWORD PTR $T77465[esp+120], 0
  00044	c6 44 24 14 00	 mov	 BYTE PTR $T77465[esp+104], 0
  00049	e8 00 00 00 00	 call	 ?assign@?$basic_string@DU?$char_traits@D@std@@V?$allocator@D@2@@std@@QAEAAV12@PBDI@Z ; std::basic_string<char,std::char_traits<char>,std::allocator<char> >::assign
  0004e	8d 44 24 08	 lea	 eax, DWORD PTR $T77465[esp+92]
  00052	50		 push	 eax
  00053	8d 4c 24 28	 lea	 ecx, DWORD PTR $T77464[esp+96]
  00057	c7 44 24 5c 00
	00 00 00	 mov	 DWORD PTR __$EHRec$[esp+104], 0
  0005f	e8 00 00 00 00	 call	 ??0logic_error@std@@QAE@ABV?$basic_string@DU?$char_traits@D@std@@V?$allocator@D@2@@1@@Z ; std::logic_error::logic_error
  00064	68 00 00 00 00	 push	 OFFSET __TI3?AVlength_error@std@@
  00069	8d 4c 24 28	 lea	 ecx, DWORD PTR $T77464[esp+96]
  0006d	51		 push	 ecx
  0006e	c7 44 24 2c 00
	00 00 00	 mov	 DWORD PTR $T77464[esp+100], OFFSET ??_7length_error@std@@6B@
  00076	e8 00 00 00 00	 call	 __CxxThrowException@8
$LN45@Xlen:
$LN44@Xlen:
  0007b	cc		 int	 3
_TEXT	ENDS
;	COMDAT text$x
text$x	SEGMENT
__unwindfunclet$?_Xlen@?$vector@PAVASN1@@V?$allocator@PAVASN1@@@std@@@std@@KAXXZ$0:
  00000	8d 4d ac	 lea	 ecx, DWORD PTR $T77465[ebp]
  00003	e9 00 00 00 00	 jmp	 ??1?$basic_string@DU?$char_traits@D@std@@V?$allocator@D@2@@std@@QAE@XZ ; std::basic_string<char,std::char_traits<char>,std::allocator<char> >::~basic_string<char,std::char_traits<char>,std::allocator<char> >
__ehhandler$?_Xlen@?$vector@PAVASN1@@V?$allocator@PAVASN1@@@std@@@std@@KAXXZ:
  00008	8b 54 24 08	 mov	 edx, DWORD PTR [esp+8]
  0000c	8d 42 b4	 lea	 eax, DWORD PTR [edx-76]
  0000f	8b 4a b0	 mov	 ecx, DWORD PTR [edx-80]
  00012	33 c8		 xor	 ecx, eax
  00014	e8 00 00 00 00	 call	 @__security_check_cookie@4
  00019	b8 00 00 00 00	 mov	 eax, OFFSET __ehfuncinfo$?_Xlen@?$vector@PAVASN1@@V?$allocator@PAVASN1@@@std@@@std@@KAXXZ
  0001e	e9 00 00 00 00	 jmp	 ___CxxFrameHandler3
text$x	ENDS
?_Xlen@?$vector@PAVASN1@@V?$allocator@PAVASN1@@@std@@@std@@KAXXZ ENDP ; std::vector<ASN1 *,std::allocator<ASN1 *> >::_Xlen
; Function compile flags: /Ogtpy
;	COMDAT ?_Insert_n@?$vector@PAVASN1@@V?$allocator@PAVASN1@@@std@@@std@@IAEXV?$_Vector_const_iterator@PAVASN1@@V?$allocator@PAVASN1@@@std@@@2@IABQAVASN1@@@Z
_TEXT	SEGMENT
_this$ = 8						; size = 4
__Tmp$39482 = 12					; size = 4
__Val$ = 12						; size = 4
__Where$ = 16						; size = 8
?_Insert_n@?$vector@PAVASN1@@V?$allocator@PAVASN1@@@std@@@std@@IAEXV?$_Vector_const_iterator@PAVASN1@@V?$allocator@PAVASN1@@@std@@@2@IABQAVASN1@@@Z PROC ; std::vector<ASN1 *,std::allocator<ASN1 *> >::_Insert_n, COMDAT

; 1158 : 		{	// insert _Count * _Val at _Where

  00000	53		 push	 ebx
  00001	8b 5c 24 08	 mov	 ebx, DWORD PTR _this$[esp]

; 1159 : 
; 1160 :  #if _HAS_ITERATOR_DEBUGGING
; 1161 : 		if (_Where._Mycont != this
; 1162 : 			|| _Where._Myptr < _Myfirst || _Mylast < _Where._Myptr)
; 1163 : 			_DEBUG_ERROR("vector insert iterator outside range");
; 1164 :  #endif /* _HAS_ITERATOR_DEBUGGING */
; 1165 : 
; 1166 : 		size_type _Capacity = capacity();

  00005	8b 4b 0c	 mov	 ecx, DWORD PTR [ebx+12]
  00008	55		 push	 ebp
  00009	56		 push	 esi
  0000a	57		 push	 edi
  0000b	85 c9		 test	 ecx, ecx
  0000d	75 04		 jne	 SHORT $LN27@Insert_n
  0000f	33 ed		 xor	 ebp, ebp
  00011	eb 08		 jmp	 SHORT $LN199@Insert_n
$LN27@Insert_n:
  00013	8b 6b 14	 mov	 ebp, DWORD PTR [ebx+20]
  00016	2b e9		 sub	 ebp, ecx
  00018	c1 fd 02	 sar	 ebp, 2
$LN199@Insert_n:

; 1167 : 
; 1168 : 		if (_Count == 0)
; 1169 : 			;
; 1170 : 		else if (max_size() - size() < _Count)

  0001b	8b 73 10	 mov	 esi, DWORD PTR [ebx+16]
  0001e	8b c6		 mov	 eax, esi
  00020	2b c1		 sub	 eax, ecx
  00022	c1 f8 02	 sar	 eax, 2
  00025	b9 ff ff ff 3f	 mov	 ecx, 1073741823		; 3fffffffH
  0002a	2b c8		 sub	 ecx, eax
  0002c	83 f9 01	 cmp	 ecx, 1
  0002f	73 05		 jae	 SHORT $LN10@Insert_n

; 1171 : 			_Xlen();	// result too long

  00031	e8 00 00 00 00	 call	 ?_Xlen@?$vector@PAVASN1@@V?$allocator@PAVASN1@@@std@@@std@@KAXXZ ; std::vector<ASN1 *,std::allocator<ASN1 *> >::_Xlen
$LN201@Insert_n:
$LN10@Insert_n:

; 1172 : 		else if (_Capacity < size() + _Count)

  00036	40		 inc	 eax
  00037	3b e8		 cmp	 ebp, eax
  00039	0f 83 a2 00 00
	00		 jae	 $LN8@Insert_n

; 1173 : 			{	// not enough room, reallocate
; 1174 : 			_Capacity = max_size() - _Capacity / 2 < _Capacity
; 1175 : 				? 0 : _Capacity + _Capacity / 2;	// try to grow by 50%

  0003f	8b cd		 mov	 ecx, ebp
  00041	d1 e9		 shr	 ecx, 1
  00043	ba ff ff ff 3f	 mov	 edx, 1073741823		; 3fffffffH
  00048	2b d1		 sub	 edx, ecx
  0004a	3b d5		 cmp	 edx, ebp
  0004c	73 04		 jae	 SHORT $LN15@Insert_n
  0004e	33 ed		 xor	 ebp, ebp
  00050	eb 02		 jmp	 SHORT $LN16@Insert_n
$LN15@Insert_n:
  00052	03 e9		 add	 ebp, ecx
$LN16@Insert_n:

; 1176 : 			if (_Capacity < size() + _Count)

  00054	3b e8		 cmp	 ebp, eax

; 1177 : 				_Capacity = size() + _Count;

  00056	0f 42 e8	 cmovb	 ebp, eax

; 1178 : 			pointer _Newvec = this->_Alval.allocate(_Capacity);

  00059	8b cd		 mov	 ecx, ebp
  0005b	e8 00 00 00 00	 call	 ?allocate@?$allocator@PAVASN1@@@std@@QAEPAPAVASN1@@I@Z ; std::allocator<ASN1 *>::allocate

; 1179 : 			pointer _Ptr = _Newvec;
; 1180 : 
; 1181 : 			_TRY_BEGIN
; 1182 : 			_Ptr = _Umove(_Myfirst, _VEC_ITER_BASE(_Where),
; 1183 : 				_Newvec);	// copy prefix

  00060	8b 4b 0c	 mov	 ecx, DWORD PTR [ebx+12]
  00063	8b f0		 mov	 esi, eax
  00065	8b 44 24 20	 mov	 eax, DWORD PTR __Where$[esp+16]
  00069	2b c1		 sub	 eax, ecx
  0006b	c1 f8 02	 sar	 eax, 2
  0006e	8d 3c 85 00 00
	00 00		 lea	 edi, DWORD PTR [eax*4]
  00075	85 c0		 test	 eax, eax
  00077	76 0c		 jbe	 SHORT $LN77@Insert_n
  00079	57		 push	 edi
  0007a	51		 push	 ecx
  0007b	57		 push	 edi
  0007c	56		 push	 esi
  0007d	e8 00 00 00 00	 call	 _memmove_s
  00082	83 c4 10	 add	 esp, 16			; 00000010H
$LN77@Insert_n:

; 1184 : 			_Ptr = _Ufill(_Ptr, _Count, _Val);	// add new stuff

  00085	8b 44 24 18	 mov	 eax, DWORD PTR __Val$[esp+12]
  00089	8b 08		 mov	 ecx, DWORD PTR [eax]
  0008b	89 0c 37	 mov	 DWORD PTR [edi+esi], ecx

; 1185 : 			_Umove(_VEC_ITER_BASE(_Where), _Mylast, _Ptr);	// copy suffix

  0008e	8b 43 10	 mov	 eax, DWORD PTR [ebx+16]
  00091	8b 4c 24 20	 mov	 ecx, DWORD PTR __Where$[esp+16]
  00095	2b c1		 sub	 eax, ecx
  00097	c1 f8 02	 sar	 eax, 2
  0009a	85 c0		 test	 eax, eax
  0009c	76 14		 jbe	 SHORT $LN131@Insert_n
  0009e	03 c0		 add	 eax, eax
  000a0	03 c0		 add	 eax, eax
  000a2	50		 push	 eax
  000a3	51		 push	 ecx
  000a4	50		 push	 eax
  000a5	8d 54 37 04	 lea	 edx, DWORD PTR [edi+esi+4]
  000a9	52		 push	 edx
  000aa	e8 00 00 00 00	 call	 _memmove_s
  000af	83 c4 10	 add	 esp, 16			; 00000010H
$LN131@Insert_n:

; 1186 : 			_CATCH_ALL
; 1187 : 			_Destroy(_Newvec, _Ptr);
; 1188 : 			this->_Alval.deallocate(_Newvec, _Capacity);
; 1189 : 			_RERAISE;
; 1190 : 			_CATCH_END
; 1191 : 
; 1192 : 			_Count += size();

  000b2	8b 43 0c	 mov	 eax, DWORD PTR [ebx+12]
  000b5	8b 7b 10	 mov	 edi, DWORD PTR [ebx+16]
  000b8	2b f8		 sub	 edi, eax
  000ba	c1 ff 02	 sar	 edi, 2
  000bd	47		 inc	 edi

; 1193 : 			if (_Myfirst != 0)

  000be	85 c0		 test	 eax, eax
  000c0	74 09		 je	 SHORT $LN138@Insert_n

; 1194 : 				{	// destroy and deallocate old array
; 1195 : 				_Destroy(_Myfirst, _Mylast);
; 1196 : 				this->_Alval.deallocate(_Myfirst, _Myend - _Myfirst);

  000c2	50		 push	 eax
  000c3	e8 00 00 00 00	 call	 ??3@YAXPAX@Z		; operator delete
  000c8	83 c4 04	 add	 esp, 4
$LN138@Insert_n:

; 1197 : 				}
; 1198 : 
; 1199 :  #if _HAS_ITERATOR_DEBUGGING
; 1200 : 			this->_Orphan_all();
; 1201 :  #endif /* _HAS_ITERATOR_DEBUGGING */
; 1202 : 
; 1203 : 			_Myend = _Newvec + _Capacity;

  000cb	8d 04 ae	 lea	 eax, DWORD PTR [esi+ebp*4]

; 1204 : 			_Mylast = _Newvec + _Count;

  000ce	8d 0c be	 lea	 ecx, DWORD PTR [esi+edi*4]
  000d1	89 43 14	 mov	 DWORD PTR [ebx+20], eax
  000d4	89 4b 10	 mov	 DWORD PTR [ebx+16], ecx

; 1205 : 			_Myfirst = _Newvec;

  000d7	89 73 0c	 mov	 DWORD PTR [ebx+12], esi

; 1247 : 			}
; 1248 : 		}

  000da	5f		 pop	 edi
  000db	5e		 pop	 esi
  000dc	5d		 pop	 ebp
  000dd	5b		 pop	 ebx
  000de	c2 10 00	 ret	 16			; 00000010H
$LN8@Insert_n:

; 1206 : 			}
; 1207 : 		else if ((size_type)(_Mylast - _VEC_ITER_BASE(_Where)) < _Count)

  000e1	8b 4c 24 20	 mov	 ecx, DWORD PTR __Where$[esp+16]
  000e5	8b d6		 mov	 edx, esi
  000e7	2b d1		 sub	 edx, ecx
  000e9	c1 fa 02	 sar	 edx, 2
  000ec	83 fa 01	 cmp	 edx, 1
  000ef	73 54		 jae	 SHORT $LN3@Insert_n

; 1208 : 			{	// new stuff spills off end
; 1209 : 			_Ty _Tmp = _Val;	// in case _Val is in sequence

  000f1	8b 44 24 18	 mov	 eax, DWORD PTR __Val$[esp+12]
  000f5	8b 28		 mov	 ebp, DWORD PTR [eax]

; 1210 : 
; 1211 : 			_Umove(_VEC_ITER_BASE(_Where), _Mylast,
; 1212 : 				_VEC_ITER_BASE(_Where) + _Count);	// copy suffix

  000f7	8d 51 04	 lea	 edx, DWORD PTR [ecx+4]
  000fa	8b c6		 mov	 eax, esi
  000fc	8b f9		 mov	 edi, ecx
  000fe	89 6c 24 18	 mov	 DWORD PTR __Tmp$39482[esp+12], ebp
  00102	e8 00 00 00 00	 call	 ??$_Umove@PAPAVASN1@@@?$vector@PAVASN1@@V?$allocator@PAVASN1@@@std@@@std@@IAEPAPAVASN1@@PAPAV2@00@Z ; std::vector<ASN1 *,std::allocator<ASN1 *> >::_Umove<ASN1 * *>

; 1213 : 
; 1214 : 			_TRY_BEGIN
; 1215 : 			_Ufill(_Mylast, _Count - (_Mylast - _VEC_ITER_BASE(_Where)),
; 1216 : 				_Tmp);	// insert new stuff off end

  00107	8b 7b 10	 mov	 edi, DWORD PTR [ebx+16]
  0010a	8b cf		 mov	 ecx, edi
  0010c	2b 4c 24 20	 sub	 ecx, DWORD PTR __Where$[esp+16]
  00110	be 01 00 00 00	 mov	 esi, 1
  00115	c1 f9 02	 sar	 ecx, 2
  00118	2b f1		 sub	 esi, ecx
  0011a	8d 54 24 18	 lea	 edx, DWORD PTR __Tmp$39482[esp+12]
  0011e	e8 00 00 00 00	 call	 ?_Ufill@?$vector@PAVASN1@@V?$allocator@PAVASN1@@@std@@@std@@IAEPAPAVASN1@@PAPAV3@IABQAV3@@Z ; std::vector<ASN1 *,std::allocator<ASN1 *> >::_Ufill

; 1217 : 			_CATCH_ALL
; 1218 : 			_Destroy(_VEC_ITER_BASE(_Where) + _Count, _Mylast + _Count);
; 1219 : 			_RERAISE;
; 1220 : 			_CATCH_END
; 1221 : 
; 1222 : 			_Mylast += _Count;

  00123	83 43 10 04	 add	 DWORD PTR [ebx+16], 4
  00127	8b 5b 10	 mov	 ebx, DWORD PTR [ebx+16]

; 1223 : 
; 1224 :  #if _HAS_ITERATOR_DEBUGGING
; 1225 : 			_Orphan_range(_Where._Myptr, _Mylast);
; 1226 :  #endif /* _HAS_ITERATOR_DEBUGGING */
; 1227 : 
; 1228 : 			std::fill(_VEC_ITER_BASE(_Where), _Mylast - _Count,
; 1229 : 				_Tmp);	// insert up to old end

  0012a	8b 44 24 20	 mov	 eax, DWORD PTR __Where$[esp+16]
  0012e	8d 4b fc	 lea	 ecx, DWORD PTR [ebx-4]
  00131	3b c1		 cmp	 eax, ecx
  00133	74 5b		 je	 SHORT $LN186@Insert_n
$LL152@Insert_n:
  00135	89 28		 mov	 DWORD PTR [eax], ebp
  00137	83 c0 04	 add	 eax, 4
  0013a	3b c1		 cmp	 eax, ecx
  0013c	75 f7		 jne	 SHORT $LL152@Insert_n

; 1247 : 			}
; 1248 : 		}

  0013e	5f		 pop	 edi
  0013f	5e		 pop	 esi
  00140	5d		 pop	 ebp
  00141	5b		 pop	 ebx
  00142	c2 10 00	 ret	 16			; 00000010H
$LN3@Insert_n:

; 1230 : 			}
; 1231 : 		else
; 1232 : 			{	// new stuff can all be assigned
; 1233 : 			_Ty _Tmp = _Val;	// in case _Val is in sequence

  00145	8b 54 24 18	 mov	 edx, DWORD PTR __Val$[esp+12]
  00149	8b 2a		 mov	 ebp, DWORD PTR [edx]

; 1234 : 
; 1235 : 			pointer _Oldend = _Mylast;
; 1236 : 			_Mylast = _Umove(_Oldend - _Count, _Oldend,
; 1237 : 				_Mylast);	// copy suffix

  0014b	8d 7e fc	 lea	 edi, DWORD PTR [esi-4]
  0014e	8b d6		 mov	 edx, esi
  00150	8b c6		 mov	 eax, esi
  00152	e8 00 00 00 00	 call	 ??$_Umove@PAPAVASN1@@@?$vector@PAVASN1@@V?$allocator@PAVASN1@@@std@@@std@@IAEPAPAVASN1@@PAPAV2@00@Z ; std::vector<ASN1 *,std::allocator<ASN1 *> >::_Umove<ASN1 * *>
  00157	89 43 10	 mov	 DWORD PTR [ebx+16], eax

; 1238 : 
; 1239 :  #if _HAS_ITERATOR_DEBUGGING
; 1240 : 			_Orphan_range(_Where._Myptr, _Mylast);
; 1241 :  #endif /* _HAS_ITERATOR_DEBUGGING */
; 1242 : 
; 1243 : 			_STDEXT _Unchecked_move_backward(_VEC_ITER_BASE(_Where), _Oldend - _Count,
; 1244 : 				_Oldend);	// copy hole

  0015a	8b 44 24 20	 mov	 eax, DWORD PTR __Where$[esp+16]
  0015e	2b f8		 sub	 edi, eax
  00160	c1 ff 02	 sar	 edi, 2
  00163	85 ff		 test	 edi, edi
  00165	7e 19		 jle	 SHORT $LN173@Insert_n
  00167	8d 0c bd 00 00
	00 00		 lea	 ecx, DWORD PTR [edi*4]
  0016e	51		 push	 ecx
  0016f	50		 push	 eax
  00170	51		 push	 ecx
  00171	2b f1		 sub	 esi, ecx
  00173	56		 push	 esi
  00174	e8 00 00 00 00	 call	 _memmove_s
  00179	8b 44 24 30	 mov	 eax, DWORD PTR __Where$[esp+32]
  0017d	83 c4 10	 add	 esp, 16			; 00000010H
$LN173@Insert_n:

; 1245 : 			std::fill(_VEC_ITER_BASE(_Where), _VEC_ITER_BASE(_Where) + _Count,
; 1246 : 				_Tmp);	// insert into hole

  00180	8d 48 04	 lea	 ecx, DWORD PTR [eax+4]
  00183	3b c1		 cmp	 eax, ecx
  00185	74 09		 je	 SHORT $LN186@Insert_n
$LL188@Insert_n:
  00187	89 28		 mov	 DWORD PTR [eax], ebp
  00189	83 c0 04	 add	 eax, 4
  0018c	3b c1		 cmp	 eax, ecx
  0018e	75 f7		 jne	 SHORT $LL188@Insert_n
$LN186@Insert_n:

; 1247 : 			}
; 1248 : 		}

  00190	5f		 pop	 edi
  00191	5e		 pop	 esi
  00192	5d		 pop	 ebp
  00193	5b		 pop	 ebx
  00194	c2 10 00	 ret	 16			; 00000010H
$LN200@Insert_n:
?_Insert_n@?$vector@PAVASN1@@V?$allocator@PAVASN1@@@std@@@std@@IAEXV?$_Vector_const_iterator@PAVASN1@@V?$allocator@PAVASN1@@@std@@@2@IABQAVASN1@@@Z ENDP ; std::vector<ASN1 *,std::allocator<ASN1 *> >::_Insert_n
; Function compile flags: /Ogtpy
_TEXT	ENDS
;	COMDAT ?_Buy@?$vector@PAVASN1@@V?$allocator@PAVASN1@@@std@@@std@@IAE_NI@Z
_TEXT	SEGMENT
?_Buy@?$vector@PAVASN1@@V?$allocator@PAVASN1@@@std@@@std@@IAE_NI@Z PROC ; std::vector<ASN1 *,std::allocator<ASN1 *> >::_Buy, COMDAT
; _this$ = esi
; __Capacity$ = edi

; 1108 : 		_Myfirst = 0, _Mylast = 0, _Myend = 0;
; 1109 : 		if (_Capacity == 0)
; 1110 : 			return (false);
; 1111 : 		else if (max_size() < _Capacity)

  00000	81 ff ff ff ff
	3f		 cmp	 edi, 1073741823		; 3fffffffH
  00006	76 05		 jbe	 SHORT $LN2@Buy

; 1112 : 			_Xlen();	// result too long

  00008	e9 00 00 00 00	 jmp	 ?_Xlen@?$vector@PAVASN1@@V?$allocator@PAVASN1@@@std@@@std@@KAXXZ ; std::vector<ASN1 *,std::allocator<ASN1 *> >::_Xlen
$LN2@Buy:

; 1113 : 		else
; 1114 : 			{	// nonempty array, allocate storage
; 1115 : 			_Myfirst = this->_Alval.allocate(_Capacity);

  0000d	8b cf		 mov	 ecx, edi
  0000f	e8 00 00 00 00	 call	 ?allocate@?$allocator@PAVASN1@@@std@@QAEPAPAVASN1@@I@Z ; std::allocator<ASN1 *>::allocate
  00014	89 46 0c	 mov	 DWORD PTR [esi+12], eax

; 1116 : 			_Mylast = _Myfirst;

  00017	89 46 10	 mov	 DWORD PTR [esi+16], eax

; 1117 : 			_Myend = _Myfirst + _Capacity;

  0001a	8d 04 b8	 lea	 eax, DWORD PTR [eax+edi*4]
  0001d	89 46 14	 mov	 DWORD PTR [esi+20], eax

; 1118 : 			}
; 1119 : 		return (true);

  00020	b0 01		 mov	 al, 1

; 1120 : 		}

  00022	c3		 ret	 0
?_Buy@?$vector@PAVASN1@@V?$allocator@PAVASN1@@@std@@@std@@IAE_NI@Z ENDP ; std::vector<ASN1 *,std::allocator<ASN1 *> >::_Buy
; Function compile flags: /Ogtpy
_TEXT	ENDS
;	COMDAT ?insert@?$vector@PAVASN1@@V?$allocator@PAVASN1@@@std@@@std@@QAE?AV?$_Vector_iterator@PAVASN1@@V?$allocator@PAVASN1@@@std@@@2@V?$_Vector_const_iterator@PAVASN1@@V?$allocator@PAVASN1@@@std@@@2@ABQAVASN1@@@Z
_TEXT	SEGMENT
__Tmp$78720 = -8					; size = 8
___$ReturnUdt$ = 8					; size = 4
__Val$ = 12						; size = 4
__Where$ = 16						; size = 8
?insert@?$vector@PAVASN1@@V?$allocator@PAVASN1@@@std@@@std@@QAE?AV?$_Vector_iterator@PAVASN1@@V?$allocator@PAVASN1@@@std@@@2@V?$_Vector_const_iterator@PAVASN1@@V?$allocator@PAVASN1@@@std@@@2@ABQAVASN1@@@Z PROC ; std::vector<ASN1 *,std::allocator<ASN1 *> >::insert, COMDAT
; _this$ = eax

; 875  : 		{	// insert _Val at _Where

  00000	83 ec 0c	 sub	 esp, 12			; 0000000cH
  00003	53		 push	 ebx
  00004	55		 push	 ebp
  00005	56		 push	 esi
  00006	8b f0		 mov	 esi, eax

; 876  : 		size_type _Off = size() == 0 ? 0 : _Where - begin();

  00008	8b 46 10	 mov	 eax, DWORD PTR [esi+16]
  0000b	57		 push	 edi
  0000c	8b 7e 0c	 mov	 edi, DWORD PTR [esi+12]
  0000f	8b c8		 mov	 ecx, eax
  00011	2b cf		 sub	 ecx, edi
  00013	f7 c1 fc ff ff
	ff		 test	 ecx, -4			; fffffffcH
  00019	75 04		 jne	 SHORT $LN3@insert@2
  0001b	33 db		 xor	 ebx, ebx
  0001d	eb 25		 jmp	 SHORT $LN4@insert@2
$LN3@insert@2:
  0001f	3b f8		 cmp	 edi, eax
  00021	76 05		 jbe	 SHORT $LN12@insert@2
  00023	e8 00 00 00 00	 call	 __invalid_parameter_noinfo
$LN12@insert@2:
  00028	8b 4c 24 28	 mov	 ecx, DWORD PTR __Where$[esp+24]
  0002c	8b 06		 mov	 eax, DWORD PTR [esi]
  0002e	85 c9		 test	 ecx, ecx
  00030	74 04		 je	 SHORT $LN23@insert@2
  00032	3b c8		 cmp	 ecx, eax
  00034	74 05		 je	 SHORT $LN24@insert@2
$LN23@insert@2:
  00036	e8 00 00 00 00	 call	 __invalid_parameter_noinfo
$LN24@insert@2:
  0003b	8b 5c 24 2c	 mov	 ebx, DWORD PTR __Where$[esp+28]
  0003f	2b df		 sub	 ebx, edi
  00041	c1 fb 02	 sar	 ebx, 2
$LN4@insert@2:

; 877  : 		_Insert_n(_Where, (size_type)1, _Val);

  00044	8b 54 24 2c	 mov	 edx, DWORD PTR __Where$[esp+28]
  00048	8b 44 24 28	 mov	 eax, DWORD PTR __Where$[esp+24]
  0004c	8b 4c 24 24	 mov	 ecx, DWORD PTR __Val$[esp+24]
  00050	52		 push	 edx
  00051	50		 push	 eax
  00052	51		 push	 ecx
  00053	56		 push	 esi
  00054	e8 00 00 00 00	 call	 ?_Insert_n@?$vector@PAVASN1@@V?$allocator@PAVASN1@@@std@@@std@@IAEXV?$_Vector_const_iterator@PAVASN1@@V?$allocator@PAVASN1@@@std@@@2@IABQAVASN1@@@Z ; std::vector<ASN1 *,std::allocator<ASN1 *> >::_Insert_n

; 878  : 		return (begin() + _Off);

  00059	8b 7e 0c	 mov	 edi, DWORD PTR [esi+12]
  0005c	3b 7e 10	 cmp	 edi, DWORD PTR [esi+16]
  0005f	76 05		 jbe	 SHORT $LN36@insert@2
  00061	e8 00 00 00 00	 call	 __invalid_parameter_noinfo
$LN36@insert@2:
  00066	8b 36		 mov	 esi, DWORD PTR [esi]
  00068	8b ee		 mov	 ebp, esi
  0006a	89 7c 24 18	 mov	 DWORD PTR __Tmp$78720[esp+32], edi
  0006e	85 f6		 test	 esi, esi
  00070	75 17		 jne	 SHORT $LN70@insert@2
  00072	e8 00 00 00 00	 call	 __invalid_parameter_noinfo
  00077	33 c0		 xor	 eax, eax
$LN61@insert@2:
  00079	8d 3c 9f	 lea	 edi, DWORD PTR [edi+ebx*4]
  0007c	3b 78 10	 cmp	 edi, DWORD PTR [eax+16]
  0007f	77 13		 ja	 SHORT $LN51@insert@2
  00081	85 f6		 test	 esi, esi
  00083	74 08		 je	 SHORT $LN66@insert@2
  00085	8b 36		 mov	 esi, DWORD PTR [esi]
  00087	eb 06		 jmp	 SHORT $LN67@insert@2
$LN70@insert@2:
  00089	8b 06		 mov	 eax, DWORD PTR [esi]
  0008b	eb ec		 jmp	 SHORT $LN61@insert@2
$LN66@insert@2:
  0008d	33 f6		 xor	 esi, esi
$LN67@insert@2:
  0008f	3b 7e 0c	 cmp	 edi, DWORD PTR [esi+12]
  00092	73 05		 jae	 SHORT $LN52@insert@2
$LN51@insert@2:
  00094	e8 00 00 00 00	 call	 __invalid_parameter_noinfo
$LN52@insert@2:
  00099	8b 44 24 20	 mov	 eax, DWORD PTR ___$ReturnUdt$[esp+24]
  0009d	89 78 04	 mov	 DWORD PTR [eax+4], edi

; 879  : 		}

  000a0	5f		 pop	 edi
  000a1	5e		 pop	 esi
  000a2	89 28		 mov	 DWORD PTR [eax], ebp
  000a4	5d		 pop	 ebp
  000a5	5b		 pop	 ebx
  000a6	83 c4 0c	 add	 esp, 12			; 0000000cH
  000a9	c2 10 00	 ret	 16			; 00000010H
?insert@?$vector@PAVASN1@@V?$allocator@PAVASN1@@@std@@@std@@QAE?AV?$_Vector_iterator@PAVASN1@@V?$allocator@PAVASN1@@@std@@@2@V?$_Vector_const_iterator@PAVASN1@@V?$allocator@PAVASN1@@@std@@@2@ABQAVASN1@@@Z ENDP ; std::vector<ASN1 *,std::allocator<ASN1 *> >::insert
; Function compile flags: /Ogtpy
_TEXT	ENDS
;	COMDAT ?push_back@?$vector@PAVASN1@@V?$allocator@PAVASN1@@@std@@@std@@QAEXABQAVASN1@@@Z
_TEXT	SEGMENT
$T78749 = -8						; size = 8
__Val$ = 8						; size = 4
?push_back@?$vector@PAVASN1@@V?$allocator@PAVASN1@@@std@@@std@@QAEXABQAVASN1@@@Z PROC ; std::vector<ASN1 *,std::allocator<ASN1 *> >::push_back, COMDAT
; _this$ = edi

; 809  : 		{	// insert element at end

  00000	55		 push	 ebp
  00001	8b ec		 mov	 ebp, esp
  00003	83 e4 f8	 and	 esp, -8			; fffffff8H

; 810  : 		if (size() < capacity())

  00006	8b 4f 0c	 mov	 ecx, DWORD PTR [edi+12]
  00009	83 ec 08	 sub	 esp, 8
  0000c	53		 push	 ebx
  0000d	8b 5d 08	 mov	 ebx, DWORD PTR __Val$[ebp]
  00010	56		 push	 esi
  00011	85 c9		 test	 ecx, ecx
  00013	75 04		 jne	 SHORT $LN9@push_back
  00015	33 c0		 xor	 eax, eax
  00017	eb 08		 jmp	 SHORT $LN10@push_back
$LN9@push_back:
  00019	8b 47 14	 mov	 eax, DWORD PTR [edi+20]
  0001c	2b c1		 sub	 eax, ecx
  0001e	c1 f8 02	 sar	 eax, 2
$LN10@push_back:
  00021	8b 77 10	 mov	 esi, DWORD PTR [edi+16]
  00024	8b d6		 mov	 edx, esi
  00026	2b d1		 sub	 edx, ecx
  00028	c1 fa 02	 sar	 edx, 2
  0002b	3b d0		 cmp	 edx, eax
  0002d	73 12		 jae	 SHORT $LN2@push_back

; 811  : 
; 812  :  #if _HAS_ITERATOR_DEBUGGING
; 813  : 			{ // room at end, construct it there
; 814  : 			_Orphan_range(_Mylast, _Mylast);
; 815  : 			_Mylast = _Ufill(_Mylast, 1, _Val);
; 816  : 			}
; 817  : 
; 818  :  #else /* _HAS_ITERATOR_DEBUGGING */
; 819  : 			_Mylast = _Ufill(_Mylast, 1, _Val);

  0002f	8b 03		 mov	 eax, DWORD PTR [ebx]
  00031	89 06		 mov	 DWORD PTR [esi], eax
  00033	83 c6 04	 add	 esi, 4
  00036	89 77 10	 mov	 DWORD PTR [edi+16], esi

; 824  : 		}

  00039	5e		 pop	 esi
  0003a	5b		 pop	 ebx
  0003b	8b e5		 mov	 esp, ebp
  0003d	5d		 pop	 ebp
  0003e	c2 04 00	 ret	 4
$LN2@push_back:

; 820  :  #endif /* _HAS_ITERATOR_DEBUGGING */
; 821  : 
; 822  : 		else
; 823  : 			insert(end(), _Val);

  00041	3b ce		 cmp	 ecx, esi
  00043	76 05		 jbe	 SHORT $LN39@push_back
  00045	e8 00 00 00 00	 call	 __invalid_parameter_noinfo
$LN39@push_back:
  0004a	8b 07		 mov	 eax, DWORD PTR [edi]
  0004c	56		 push	 esi
  0004d	50		 push	 eax
  0004e	53		 push	 ebx
  0004f	8d 4c 24 14	 lea	 ecx, DWORD PTR $T78749[esp+28]
  00053	51		 push	 ecx
  00054	8b c7		 mov	 eax, edi
  00056	e8 00 00 00 00	 call	 ?insert@?$vector@PAVASN1@@V?$allocator@PAVASN1@@@std@@@std@@QAE?AV?$_Vector_iterator@PAVASN1@@V?$allocator@PAVASN1@@@std@@@2@V?$_Vector_const_iterator@PAVASN1@@V?$allocator@PAVASN1@@@std@@@2@ABQAVASN1@@@Z ; std::vector<ASN1 *,std::allocator<ASN1 *> >::insert

; 824  : 		}

  0005b	5e		 pop	 esi
  0005c	5b		 pop	 ebx
  0005d	8b e5		 mov	 esp, ebp
  0005f	5d		 pop	 ebp
  00060	c2 04 00	 ret	 4
?push_back@?$vector@PAVASN1@@V?$allocator@PAVASN1@@@std@@@std@@QAEXABQAVASN1@@@Z ENDP ; std::vector<ASN1 *,std::allocator<ASN1 *> >::push_back
_TEXT	ENDS
;	COMDAT xdata$x
; File c:\program files\microsoft visual studio 9.0\vc\include\exception
xdata$x	SEGMENT
__unwindtable$??0?$vector@PAVASN1@@V?$allocator@PAVASN1@@@std@@@std@@QAE@XZ DD 0ffffffffH
	DD	FLAT:__unwindfunclet$??0?$vector@PAVASN1@@V?$allocator@PAVASN1@@@std@@@std@@QAE@XZ$0
__ehfuncinfo$??0?$vector@PAVASN1@@V?$allocator@PAVASN1@@@std@@@std@@QAE@XZ DD 019930522H
	DD	01H
	DD	FLAT:__unwindtable$??0?$vector@PAVASN1@@V?$allocator@PAVASN1@@@std@@@std@@QAE@XZ
	DD	2 DUP(00H)
	DD	2 DUP(00H)
	DD	00H
	DD	01H
; Function compile flags: /Ogtpy
; File c:\program files\microsoft visual studio 9.0\vc\include\vector
xdata$x	ENDS
;	COMDAT ??0?$vector@PAVASN1@@V?$allocator@PAVASN1@@@std@@@std@@QAE@XZ
_TEXT	SEGMENT
__$EHRec$ = -12						; size = 12
_this$ = 8						; size = 4
??0?$vector@PAVASN1@@V?$allocator@PAVASN1@@@std@@@std@@QAE@XZ PROC ; std::vector<ASN1 *,std::allocator<ASN1 *> >::vector<ASN1 *,std::allocator<ASN1 *> >, COMDAT

; 470  : 		{	// construct empty vector

  00000	6a ff		 push	 -1
  00002	68 00 00 00 00	 push	 __ehhandler$??0?$vector@PAVASN1@@V?$allocator@PAVASN1@@@std@@@std@@QAE@XZ
  00007	64 a1 00 00 00
	00		 mov	 eax, DWORD PTR fs:0
  0000d	50		 push	 eax
  0000e	51		 push	 ecx
  0000f	56		 push	 esi
  00010	a1 00 00 00 00	 mov	 eax, DWORD PTR ___security_cookie
  00015	33 c4		 xor	 eax, esp
  00017	50		 push	 eax
  00018	8d 44 24 0c	 lea	 eax, DWORD PTR __$EHRec$[esp+24]
  0001c	64 a3 00 00 00
	00		 mov	 DWORD PTR fs:0, eax
  00022	8b 74 24 1c	 mov	 esi, DWORD PTR _this$[esp+20]
  00026	6a 04		 push	 4
  00028	e8 00 00 00 00	 call	 ??2@YAPAXI@Z		; operator new
  0002d	33 c9		 xor	 ecx, ecx
  0002f	83 c4 04	 add	 esp, 4
  00032	3b c1		 cmp	 eax, ecx
  00034	74 04		 je	 SHORT $LN13@vector@6
  00036	89 30		 mov	 DWORD PTR [eax], esi
  00038	eb 02		 jmp	 SHORT $LN14@vector@6
$LN13@vector@6:
  0003a	33 c0		 xor	 eax, eax
$LN14@vector@6:
  0003c	89 06		 mov	 DWORD PTR [esi], eax

; 471  : 		_Buy(0);

  0003e	89 4e 0c	 mov	 DWORD PTR [esi+12], ecx
  00041	89 4e 10	 mov	 DWORD PTR [esi+16], ecx
  00044	89 4e 14	 mov	 DWORD PTR [esi+20], ecx

; 472  : 		}

  00047	8b c6		 mov	 eax, esi
  00049	8b 4c 24 0c	 mov	 ecx, DWORD PTR __$EHRec$[esp+24]
  0004d	64 89 0d 00 00
	00 00		 mov	 DWORD PTR fs:0, ecx
  00054	59		 pop	 ecx
  00055	5e		 pop	 esi
  00056	83 c4 10	 add	 esp, 16			; 00000010H
  00059	c2 04 00	 ret	 4
_TEXT	ENDS
;	COMDAT text$x
text$x	SEGMENT
__unwindfunclet$??0?$vector@PAVASN1@@V?$allocator@PAVASN1@@@std@@@std@@QAE@XZ$0:
  00000	8b 45 04	 mov	 eax, DWORD PTR _this$[ebp-4]
  00003	e9 00 00 00 00	 jmp	 ??1?$_Vector_val@PAVASN1@@V?$allocator@PAVASN1@@@std@@@std@@QAE@XZ
__ehhandler$??0?$vector@PAVASN1@@V?$allocator@PAVASN1@@@std@@@std@@QAE@XZ:
  00008	8b 54 24 08	 mov	 edx, DWORD PTR [esp+8]
  0000c	8d 42 f8	 lea	 eax, DWORD PTR [edx-8]
  0000f	8b 4a f4	 mov	 ecx, DWORD PTR [edx-12]
  00012	33 c8		 xor	 ecx, eax
  00014	e8 00 00 00 00	 call	 @__security_check_cookie@4
  00019	b8 00 00 00 00	 mov	 eax, OFFSET __ehfuncinfo$??0?$vector@PAVASN1@@V?$allocator@PAVASN1@@@std@@@std@@QAE@XZ
  0001e	e9 00 00 00 00	 jmp	 ___CxxFrameHandler3
text$x	ENDS
??0?$vector@PAVASN1@@V?$allocator@PAVASN1@@@std@@@std@@QAE@XZ ENDP ; std::vector<ASN1 *,std::allocator<ASN1 *> >::vector<ASN1 *,std::allocator<ASN1 *> >
PUBLIC	?Set_Construct@ASN1@@QAEXPAV1@@Z		; ASN1::Set_Construct
; Function compile flags: /Ogtpy
; File i:\“n•”“ÄŽj\my project\cms\cms\asn1\asn1.cpp
;	COMDAT ?Set_Construct@ASN1@@QAEXPAV1@@Z
_TEXT	SEGMENT
_asn1$ = 8						; size = 4
?Set_Construct@ASN1@@QAEXPAV1@@Z PROC			; ASN1::Set_Construct, COMDAT
; _this$ = ecx

; 39   : {

  00000	57		 push	 edi

; 40   : 	Constructed.push_back(asn1);

  00001	8d 44 24 08	 lea	 eax, DWORD PTR _asn1$[esp]
  00005	8b f9		 mov	 edi, ecx
  00007	50		 push	 eax
  00008	83 c7 28	 add	 edi, 40			; 00000028H
  0000b	e8 00 00 00 00	 call	 ?push_back@?$vector@PAVASN1@@V?$allocator@PAVASN1@@@std@@@std@@QAEXABQAVASN1@@@Z ; std::vector<ASN1 *,std::allocator<ASN1 *> >::push_back

; 41   : }

  00010	5f		 pop	 edi
  00011	c2 04 00	 ret	 4
?Set_Construct@ASN1@@QAEXPAV1@@Z ENDP			; ASN1::Set_Construct
_TEXT	ENDS
PUBLIC	??0ASN1@@QAE@QBD@Z				; ASN1::ASN1
;	COMDAT xdata$x
; File c:\program files\microsoft visual studio 9.0\vc\include\iosfwd
xdata$x	SEGMENT
__unwindtable$??0ASN1@@QAE@QBD@Z DD 0ffffffffH
	DD	FLAT:__unwindfunclet$??0ASN1@@QAE@QBD@Z$0
__ehfuncinfo$??0ASN1@@QAE@QBD@Z DD 019930522H
	DD	01H
	DD	FLAT:__unwindtable$??0ASN1@@QAE@QBD@Z
	DD	2 DUP(00H)
	DD	2 DUP(00H)
	DD	00H
	DD	01H
; Function compile flags: /Ogtpy
; File i:\“n•”“ÄŽj\my project\cms\cms\asn1\asn1.cpp
xdata$x	ENDS
;	COMDAT ??0ASN1@@QAE@QBD@Z
_TEXT	SEGMENT
__$EHRec$ = -12						; size = 12
_this$ = 8						; size = 4
__strName$ = 12						; size = 4
??0ASN1@@QAE@QBD@Z PROC					; ASN1::ASN1, COMDAT

; 16   : {

  00000	6a ff		 push	 -1
  00002	68 00 00 00 00	 push	 __ehhandler$??0ASN1@@QAE@QBD@Z
  00007	64 a1 00 00 00
	00		 mov	 eax, DWORD PTR fs:0
  0000d	50		 push	 eax
  0000e	51		 push	 ecx
  0000f	53		 push	 ebx
  00010	56		 push	 esi
  00011	a1 00 00 00 00	 mov	 eax, DWORD PTR ___security_cookie
  00016	33 c4		 xor	 eax, esp
  00018	50		 push	 eax
  00019	8d 44 24 10	 lea	 eax, DWORD PTR __$EHRec$[esp+28]
  0001d	64 a3 00 00 00
	00		 mov	 DWORD PTR fs:0, eax
  00023	8b 74 24 20	 mov	 esi, DWORD PTR _this$[esp+24]
  00027	8b 44 24 24	 mov	 eax, DWORD PTR __strName$[esp+24]
  0002b	c7 06 00 00 00
	00		 mov	 DWORD PTR [esi], OFFSET ??_7ASN1@@6B@
  00031	89 46 04	 mov	 DWORD PTR [esi+4], eax
  00034	33 db		 xor	 ebx, ebx
  00036	c7 46 20 0f 00
	00 00		 mov	 DWORD PTR [esi+32], 15	; 0000000fH
  0003d	89 5e 1c	 mov	 DWORD PTR [esi+28], ebx
  00040	88 5e 0c	 mov	 BYTE PTR [esi+12], bl
  00043	8d 4e 28	 lea	 ecx, DWORD PTR [esi+40]
  00046	89 5c 24 18	 mov	 DWORD PTR __$EHRec$[esp+36], ebx
  0004a	51		 push	 ecx
  0004b	89 5e 24	 mov	 DWORD PTR [esi+36], ebx
  0004e	e8 00 00 00 00	 call	 ??0?$vector@PAVASN1@@V?$allocator@PAVASN1@@@std@@@std@@QAE@XZ ; std::vector<ASN1 *,std::allocator<ASN1 *> >::vector<ASN1 *,std::allocator<ASN1 *> >
  00053	89 5e 40	 mov	 DWORD PTR [esi+64], ebx

; 17   : }

  00056	8b c6		 mov	 eax, esi
  00058	8b 4c 24 10	 mov	 ecx, DWORD PTR __$EHRec$[esp+28]
  0005c	64 89 0d 00 00
	00 00		 mov	 DWORD PTR fs:0, ecx
  00063	59		 pop	 ecx
  00064	5e		 pop	 esi
  00065	5b		 pop	 ebx
  00066	83 c4 10	 add	 esp, 16			; 00000010H
  00069	c2 08 00	 ret	 8
_TEXT	ENDS
;	COMDAT text$x
text$x	SEGMENT
__unwindfunclet$??0ASN1@@QAE@QBD@Z$0:
  00000	8b 4d 04	 mov	 ecx, DWORD PTR _this$[ebp-4]
  00003	83 c1 08	 add	 ecx, 8
  00006	e9 00 00 00 00	 jmp	 ??1?$basic_string@DU?$char_traits@D@std@@V?$allocator@D@2@@std@@QAE@XZ ; std::basic_string<char,std::char_traits<char>,std::allocator<char> >::~basic_string<char,std::char_traits<char>,std::allocator<char> >
__ehhandler$??0ASN1@@QAE@QBD@Z:
  0000b	8b 54 24 08	 mov	 edx, DWORD PTR [esp+8]
  0000f	8d 42 f4	 lea	 eax, DWORD PTR [edx-12]
  00012	8b 4a f0	 mov	 ecx, DWORD PTR [edx-16]
  00015	33 c8		 xor	 ecx, eax
  00017	e8 00 00 00 00	 call	 @__security_check_cookie@4
  0001c	b8 00 00 00 00	 mov	 eax, OFFSET __ehfuncinfo$??0ASN1@@QAE@QBD@Z
  00021	e9 00 00 00 00	 jmp	 ___CxxFrameHandler3
text$x	ENDS
??0ASN1@@QAE@QBD@Z ENDP					; ASN1::ASN1
PUBLIC	?error@ASN1@@QAEXI@Z				; ASN1::error
; Function compile flags: /Ogtpy
;	COMDAT ?error@ASN1@@QAEXI@Z
_TEXT	SEGMENT
?error@ASN1@@QAEXI@Z PROC				; ASN1::error, COMDAT
; _iEer$ = eax

; 78   : 	static	const	char*	const	msg_err[2]={
; 79   : 		"Context include ASN.1 and Binary.",					//0x00: Context‚ÉAASN.1‚ÆBIN—¼•û‚ª‚ ‚éB
; 80   : 		"Part of the constructed data include external data."	//0x01: \‘¢‰»ƒf[ƒ^‚Ì“r’†‚ÉAŠO•”ƒf[ƒ^‚ª‚ ‚éB
; 81   : 	};
; 82   : 	errPrint("ASN.1 BER Encode Error :", msg_err[iEer]);

  00000	8b 04 85 00 00
	00 00		 mov	 eax, DWORD PTR ?msg_err@?1??error@ASN1@@QAEXI@Z@4QBQBDB[eax*4]
  00007	b9 00 00 00 00	 mov	 ecx, OFFSET ??_C@_0BJ@IMFJFLAM@ASN?41?5BER?5Encode?5Error?5?3?$AA@
  0000c	e9 00 00 00 00	 jmp	 ?errPrint@@YAXPBD0@Z	; errPrint
?error@ASN1@@QAEXI@Z ENDP				; ASN1::error
PUBLIC	__$ArrayPad$
PUBLIC	?encodeBER_Constructed@ASN1@@QAEXEI@Z		; ASN1::encodeBER_Constructed
;	COMDAT xdata$x
; File c:\program files\microsoft visual studio 9.0\vc\include\iosfwd
xdata$x	SEGMENT
__unwindtable$?encodeBER_Constructed@ASN1@@QAEXEI@Z DD 0ffffffffH
	DD	FLAT:__unwindfunclet$?encodeBER_Constructed@ASN1@@QAEXEI@Z$0
__ehfuncinfo$?encodeBER_Constructed@ASN1@@QAEXEI@Z DD 019930522H
	DD	01H
	DD	FLAT:__unwindtable$?encodeBER_Constructed@ASN1@@QAEXEI@Z
	DD	2 DUP(00H)
	DD	2 DUP(00H)
	DD	00H
	DD	01H
; Function compile flags: /Ogtpy
; File i:\“n•”“ÄŽj\my project\cms\cms\asn1\asn1.cpp
xdata$x	ENDS
;	COMDAT ?encodeBER_Constructed@ASN1@@QAEXEI@Z
_TEXT	SEGMENT
_strSEQ$ = -44						; size = 28
__$ArrayPad$ = -16					; size = 4
__$EHRec$ = -12						; size = 12
_cClass$ = 8						; size = 1
_iTag$ = 12						; size = 4
?encodeBER_Constructed@ASN1@@QAEXEI@Z PROC		; ASN1::encodeBER_Constructed, COMDAT
; _this$ = ecx

; 207  : {

  00000	6a ff		 push	 -1
  00002	68 00 00 00 00	 push	 __ehhandler$?encodeBER_Constructed@ASN1@@QAEXEI@Z
  00007	64 a1 00 00 00
	00		 mov	 eax, DWORD PTR fs:0
  0000d	50		 push	 eax
  0000e	83 ec 20	 sub	 esp, 32			; 00000020H
  00011	a1 00 00 00 00	 mov	 eax, DWORD PTR ___security_cookie
  00016	33 c4		 xor	 eax, esp
  00018	89 44 24 1c	 mov	 DWORD PTR __$ArrayPad$[esp+44], eax
  0001c	53		 push	 ebx
  0001d	55		 push	 ebp
  0001e	56		 push	 esi
  0001f	57		 push	 edi
  00020	a1 00 00 00 00	 mov	 eax, DWORD PTR ___security_cookie
  00025	33 c4		 xor	 eax, esp
  00027	50		 push	 eax
  00028	8d 44 24 34	 lea	 eax, DWORD PTR __$EHRec$[esp+64]
  0002c	64 a3 00 00 00
	00		 mov	 DWORD PTR fs:0, eax

; 208  : 	unsigned	int		i=0;

  00032	33 f6		 xor	 esi, esi
  00034	8b f9		 mov	 edi, ecx

; 209  : 	string				strSEQ;

  00036	c7 44 24 2c 0f
	00 00 00	 mov	 DWORD PTR _strSEQ$[esp+88], 15 ; 0000000fH
  0003e	89 74 24 28	 mov	 DWORD PTR _strSEQ$[esp+84], esi
  00042	c6 44 24 18 00	 mov	 BYTE PTR _strSEQ$[esp+68], 0
  00047	89 74 24 3c	 mov	 DWORD PTR __$EHRec$[esp+72], esi

; 210  : 
; 211  : 	while(i < Constructed.size()){

  0004b	8b 47 38	 mov	 eax, DWORD PTR [edi+56]
  0004e	2b 47 34	 sub	 eax, DWORD PTR [edi+52]
  00051	c1 f8 02	 sar	 eax, 2
  00054	85 c0		 test	 eax, eax
  00056	0f 86 b2 00 00
	00		 jbe	 $LN3@encodeBER_@6
  0005c	8d 64 24 00	 npad	 4
$LL4@encodeBER_@6:

; 212  : 		Constructed[i]->encodeBER();

  00060	8b 4f 38	 mov	 ecx, DWORD PTR [edi+56]
  00063	2b 4f 34	 sub	 ecx, DWORD PTR [edi+52]
  00066	c1 f9 02	 sar	 ecx, 2
  00069	3b f1		 cmp	 esi, ecx
  0006b	72 05		 jb	 SHORT $LN42@encodeBER_@6
  0006d	e8 00 00 00 00	 call	 __invalid_parameter_noinfo
$LN42@encodeBER_@6:
  00072	8b 57 34	 mov	 edx, DWORD PTR [edi+52]
  00075	8b 0c b2	 mov	 ecx, DWORD PTR [edx+esi*4]
  00078	8b 01		 mov	 eax, DWORD PTR [ecx]
  0007a	8b 10		 mov	 edx, DWORD PTR [eax]
  0007c	ff d2		 call	 edx

; 213  : 		szAddValue += Constructed[i]->Get_ExternalDataSize();	//’Ç‰Áƒf[ƒ^‚ª—L‚é‚©H

  0007e	8b 47 38	 mov	 eax, DWORD PTR [edi+56]
  00081	2b 47 34	 sub	 eax, DWORD PTR [edi+52]
  00084	c1 f8 02	 sar	 eax, 2
  00087	3b f0		 cmp	 esi, eax
  00089	72 05		 jb	 SHORT $LN47@encodeBER_@6
  0008b	e8 00 00 00 00	 call	 __invalid_parameter_noinfo
$LN47@encodeBER_@6:
  00090	8b 4f 34	 mov	 ecx, DWORD PTR [edi+52]
  00093	8b 14 b1	 mov	 edx, DWORD PTR [ecx+esi*4]
  00096	8b 42 40	 mov	 eax, DWORD PTR [edx+64]
  00099	01 47 40	 add	 DWORD PTR [edi+64], eax

; 214  : 		strSEQ.append(Constructed[i]->Get_BERcode(), Constructed[i]->Get_BERsize());

  0009c	8b 4f 38	 mov	 ecx, DWORD PTR [edi+56]
  0009f	2b 4f 34	 sub	 ecx, DWORD PTR [edi+52]
  000a2	c1 f9 02	 sar	 ecx, 2
  000a5	3b f1		 cmp	 esi, ecx
  000a7	72 05		 jb	 SHORT $LN54@encodeBER_@6
  000a9	e8 00 00 00 00	 call	 __invalid_parameter_noinfo
$LN54@encodeBER_@6:
  000ae	8b 57 34	 mov	 edx, DWORD PTR [edi+52]
  000b1	8b 47 38	 mov	 eax, DWORD PTR [edi+56]
  000b4	8b 1c b2	 mov	 ebx, DWORD PTR [edx+esi*4]
  000b7	2b c2		 sub	 eax, edx
  000b9	c1 f8 02	 sar	 eax, 2
  000bc	3b f0		 cmp	 esi, eax
  000be	72 05		 jb	 SHORT $LN59@encodeBER_@6
  000c0	e8 00 00 00 00	 call	 __invalid_parameter_noinfo
$LN59@encodeBER_@6:
  000c5	8b 4f 34	 mov	 ecx, DWORD PTR [edi+52]
  000c8	8b 13		 mov	 edx, DWORD PTR [ebx]
  000ca	8b 2c b1	 mov	 ebp, DWORD PTR [ecx+esi*4]
  000cd	8b 42 08	 mov	 eax, DWORD PTR [edx+8]
  000d0	8b cb		 mov	 ecx, ebx
  000d2	ff d0		 call	 eax
  000d4	8b 55 00	 mov	 edx, DWORD PTR [ebp]
  000d7	50		 push	 eax
  000d8	8b 42 04	 mov	 eax, DWORD PTR [edx+4]
  000db	8b cd		 mov	 ecx, ebp
  000dd	ff d0		 call	 eax
  000df	50		 push	 eax
  000e0	8d 44 24 1c	 lea	 eax, DWORD PTR _strSEQ$[esp+72]
  000e4	e8 00 00 00 00	 call	 ?append@?$basic_string@DU?$char_traits@D@std@@V?$allocator@D@2@@std@@QAEAAV12@PBDI@Z ; std::basic_string<char,std::char_traits<char>,std::allocator<char> >::append

; 215  : 		i++;
; 216  : 		if(i < Constructed.size()){

  000e9	8b 4f 38	 mov	 ecx, DWORD PTR [edi+56]
  000ec	2b 4f 34	 sub	 ecx, DWORD PTR [edi+52]
  000ef	46		 inc	 esi
  000f0	c1 f9 02	 sar	 ecx, 2
  000f3	3b f1		 cmp	 esi, ecx
  000f5	73 06		 jae	 SHORT $LN1@encodeBER_@6

; 217  : 			if(szAddValue != 0){

  000f7	83 7f 40 00	 cmp	 DWORD PTR [edi+64], 0
  000fb	75 7c		 jne	 SHORT $LN109@encodeBER_@6
$LN1@encodeBER_@6:

; 210  : 
; 211  : 	while(i < Constructed.size()){

  000fd	8b 57 38	 mov	 edx, DWORD PTR [edi+56]
  00100	2b 57 34	 sub	 edx, DWORD PTR [edi+52]
  00103	c1 fa 02	 sar	 edx, 2
  00106	3b f2		 cmp	 esi, edx
  00108	0f 82 52 ff ff
	ff		 jb	 $LL4@encodeBER_@6
$LN3@encodeBER_@6:

; 219  : 			}
; 220  : 		}
; 221  : 	}
; 222  : 	encodeBER_TAG(cClass, true, iTag, strSEQ.size() + szAddValue);

  0010e	83 7f 24 01	 cmp	 DWORD PTR [edi+36], 1
  00112	74 1f		 je	 SHORT $LN73@encodeBER_@6
  00114	8a 44 24 44	 mov	 al, BYTE PTR _cClass$[esp+60]
  00118	8b 4f 40	 mov	 ecx, DWORD PTR [edi+64]
  0011b	03 4c 24 28	 add	 ecx, DWORD PTR _strSEQ$[esp+84]
  0011f	8b 54 24 48	 mov	 edx, DWORD PTR _iTag$[esp+60]
  00123	c0 e0 06	 shl	 al, 6
  00126	0c 20		 or	 al, 32			; 00000020H
  00128	0f b6 c0	 movzx	 eax, al
  0012b	50		 push	 eax
  0012c	51		 push	 ecx
  0012d	52		 push	 edx
  0012e	e8 00 00 00 00	 call	 ?encodeBER_TAG@ASN1@@QAEXE_NII@Z ; ASN1::encodeBER_TAG
$LN73@encodeBER_@6:

; 223  : 	strBER += strSEQ;

  00133	6a ff		 push	 -1
  00135	6a 00		 push	 0
  00137	8d 44 24 1c	 lea	 eax, DWORD PTR _strSEQ$[esp+72]
  0013b	50		 push	 eax
  0013c	8d 77 08	 lea	 esi, DWORD PTR [edi+8]
  0013f	e8 00 00 00 00	 call	 ?append@?$basic_string@DU?$char_traits@D@std@@V?$allocator@D@2@@std@@QAEAAV12@ABV12@II@Z ; std::basic_string<char,std::char_traits<char>,std::allocator<char> >::append

; 224  : }

  00144	83 7c 24 2c 10	 cmp	 DWORD PTR _strSEQ$[esp+88], 16 ; 00000010H
  00149	72 0d		 jb	 SHORT $LN98@encodeBER_@6
  0014b	8b 4c 24 18	 mov	 ecx, DWORD PTR _strSEQ$[esp+68]
  0014f	51		 push	 ecx
  00150	e8 00 00 00 00	 call	 ??3@YAXPAX@Z		; operator delete
  00155	83 c4 04	 add	 esp, 4
$LN98@encodeBER_@6:
  00158	8b 4c 24 34	 mov	 ecx, DWORD PTR __$EHRec$[esp+64]
  0015c	64 89 0d 00 00
	00 00		 mov	 DWORD PTR fs:0, ecx
  00163	59		 pop	 ecx
  00164	5f		 pop	 edi
  00165	5e		 pop	 esi
  00166	5d		 pop	 ebp
  00167	5b		 pop	 ebx
  00168	8b 4c 24 1c	 mov	 ecx, DWORD PTR __$ArrayPad$[esp+44]
  0016c	33 cc		 xor	 ecx, esp
  0016e	e8 00 00 00 00	 call	 @__security_check_cookie@4
  00173	83 c4 2c	 add	 esp, 44			; 0000002cH
  00176	c2 08 00	 ret	 8
$LN109@encodeBER_@6:

; 218  : 				error(1);

  00179	a1 04 00 00 00	 mov	 eax, DWORD PTR ?msg_err@?1??error@ASN1@@QAEXI@Z@4QBQBDB+4
  0017e	b9 00 00 00 00	 mov	 ecx, OFFSET ??_C@_0BJ@IMFJFLAM@ASN?41?5BER?5Encode?5Error?5?3?$AA@
  00183	e8 00 00 00 00	 call	 ?errPrint@@YAXPBD0@Z	; errPrint
$LN112@encodeBER_@6:
$LN111@encodeBER_@6:
  00188	cc		 int	 3
_TEXT	ENDS
;	COMDAT text$x
text$x	SEGMENT
__unwindfunclet$?encodeBER_Constructed@ASN1@@QAEXEI@Z$0:
  00000	8d 4d d4	 lea	 ecx, DWORD PTR _strSEQ$[ebp]
  00003	e9 00 00 00 00	 jmp	 ??1?$basic_string@DU?$char_traits@D@std@@V?$allocator@D@2@@std@@QAE@XZ ; std::basic_string<char,std::char_traits<char>,std::allocator<char> >::~basic_string<char,std::char_traits<char>,std::allocator<char> >
__ehhandler$?encodeBER_Constructed@ASN1@@QAEXEI@Z:
  00008	8b 54 24 08	 mov	 edx, DWORD PTR [esp+8]
  0000c	8d 42 d0	 lea	 eax, DWORD PTR [edx-48]
  0000f	8b 4a cc	 mov	 ecx, DWORD PTR [edx-52]
  00012	33 c8		 xor	 ecx, eax
  00014	e8 00 00 00 00	 call	 @__security_check_cookie@4
  00019	83 c0 10	 add	 eax, 16			; 00000010H
  0001c	8b 4a fc	 mov	 ecx, DWORD PTR [edx-4]
  0001f	33 c8		 xor	 ecx, eax
  00021	e8 00 00 00 00	 call	 @__security_check_cookie@4
  00026	b8 00 00 00 00	 mov	 eax, OFFSET __ehfuncinfo$?encodeBER_Constructed@ASN1@@QAEXEI@Z
  0002b	e9 00 00 00 00	 jmp	 ___CxxFrameHandler3
text$x	ENDS
?encodeBER_Constructed@ASN1@@QAEXEI@Z ENDP		; ASN1::encodeBER_Constructed
END
