; Listing generated by Microsoft (R) Optimizing Compiler Version 15.00.30729.01 

	TITLE	i:\?n????j\My Project\CMS\CMS\ASN1\BER_Input.cpp
	.686P
	.XMM
	include listing.inc
	.model	flat

INCLUDELIB OLDNAMES

PUBLIC	??_R4BER_Input@@6B@				; BER_Input::`RTTI Complete Object Locator'
PUBLIC	??_R3BER_Input@@8				; BER_Input::`RTTI Class Hierarchy Descriptor'
PUBLIC	??_R2BER_Input@@8				; BER_Input::`RTTI Base Class Array'
PUBLIC	??_R1A@?0A@EA@BER_Input@@8			; BER_Input::`RTTI Base Class Descriptor at (0,-1,0,64)'
PUBLIC	??_R0?AVBER_Input@@@8				; BER_Input `RTTI Type Descriptor'
PUBLIC	??_C@_0BC@OJGKEKLM@Different?5Struct?4?$AA@	; `string'
PUBLIC	??_DBER_Input@@QAEXXZ				; BER_Input::`vbase destructor'
PUBLIC	??_GBER_Input@@UAEPAXI@Z			; BER_Input::`scalar deleting destructor'
PUBLIC	??0?$allocator@I@std@@QAE@XZ			; std::allocator<unsigned int>::allocator<unsigned int>
PUBLIC	??0?$vector@IV?$allocator@I@std@@@std@@QAE@XZ	; std::vector<unsigned int,std::allocator<unsigned int> >::vector<unsigned int,std::allocator<unsigned int> >
PUBLIC	??$?0I@?$allocator@V_Aux_cont@std@@@std@@QAE@ABV?$allocator@I@1@@Z ; std::allocator<std::_Aux_cont>::allocator<std::_Aux_cont><unsigned int>
PUBLIC	??0?$_Container_base_aux_alloc_real@V?$allocator@I@std@@@std@@IAE@V?$allocator@I@1@@Z ; std::_Container_base_aux_alloc_real<std::allocator<unsigned int> >::_Container_base_aux_alloc_real<std::allocator<unsigned int> >
PUBLIC	??0?$allocator@I@std@@QAE@ABV01@@Z		; std::allocator<unsigned int>::allocator<unsigned int>
PUBLIC	??0?$_Vector_val@IV?$allocator@I@std@@@std@@IAE@V?$allocator@I@1@@Z ; std::_Vector_val<unsigned int,std::allocator<unsigned int> >::_Vector_val<unsigned int,std::allocator<unsigned int> >
PUBLIC	?begin@?$vector@IV?$allocator@I@std@@@std@@QBE?AV?$_Vector_const_iterator@IV?$allocator@I@std@@@2@XZ ; std::vector<unsigned int,std::allocator<unsigned int> >::begin
PUBLIC	?end@?$vector@IV?$allocator@I@std@@@std@@QBE?AV?$_Vector_const_iterator@IV?$allocator@I@std@@@2@XZ ; std::vector<unsigned int,std::allocator<unsigned int> >::end
PUBLIC	?_Buy@?$vector@IV?$allocator@I@std@@@std@@IAE_NI@Z ; std::vector<unsigned int,std::allocator<unsigned int> >::_Buy
PUBLIC	?_Checked_iterator_base@?$_Vector_const_iterator@IV?$allocator@I@std@@@std@@QBEPBIXZ ; std::_Vector_const_iterator<unsigned int,std::allocator<unsigned int> >::_Checked_iterator_base
PUBLIC	??$_Checked_base@V?$_Vector_const_iterator@IV?$allocator@I@std@@@std@@U_Different_checked_iterator_base_type_tag@2@@std@@YAPBIAAV?$_Vector_const_iterator@IV?$allocator@I@std@@@0@U_Different_checked_iterator_base_type_tag@0@@Z ; std::_Checked_base<std::_Vector_const_iterator<unsigned int,std::allocator<unsigned int> >,std::_Different_checked_iterator_base_type_tag>
PUBLIC	??$_Checked_base@V?$_Vector_const_iterator@IV?$allocator@I@std@@@std@@@std@@YAPBIAAV?$_Vector_const_iterator@IV?$allocator@I@std@@@0@@Z ; std::_Checked_base<std::_Vector_const_iterator<unsigned int,std::allocator<unsigned int> > >
PUBLIC	??$_Ptr_cat@V?$_Vector_const_iterator@IV?$allocator@I@std@@@std@@PAI@std@@YA?AU_Scalar_ptr_iterator_tag@0@AAV?$_Vector_const_iterator@IV?$allocator@I@std@@@0@AAPAI@Z ; std::_Ptr_cat<std::_Vector_const_iterator<unsigned int,std::allocator<unsigned int> >,unsigned int *>
PUBLIC	??$_Uninit_copy@PBIPAIV?$allocator@I@std@@@std@@YAPAIPBI0PAIAAV?$allocator@I@0@U_Scalar_ptr_iterator_tag@0@U_Range_checked_iterator_tag@0@@Z ; std::_Uninit_copy<unsigned int const *,unsigned int *,std::allocator<unsigned int> >
PUBLIC	??$unchecked_uninitialized_copy@V?$_Vector_const_iterator@IV?$allocator@I@std@@@std@@PAIV?$allocator@I@2@@stdext@@YAPAIV?$_Vector_const_iterator@IV?$allocator@I@std@@@std@@0PAIAAV?$allocator@I@2@@Z ; stdext::unchecked_uninitialized_copy<std::_Vector_const_iterator<unsigned int,std::allocator<unsigned int> >,unsigned int *,std::allocator<unsigned int> >
PUBLIC	??$_Ucopy@V?$_Vector_const_iterator@IV?$allocator@I@std@@@std@@@?$vector@IV?$allocator@I@std@@@std@@IAEPAIV?$_Vector_const_iterator@IV?$allocator@I@std@@@1@0PAI@Z ; std::vector<unsigned int,std::allocator<unsigned int> >::_Ucopy<std::_Vector_const_iterator<unsigned int,std::allocator<unsigned int> > >
PUBLIC	??0?$vector@IV?$allocator@I@std@@@std@@QAE@ABV01@@Z ; std::vector<unsigned int,std::allocator<unsigned int> >::vector<unsigned int,std::allocator<unsigned int> >
PUBLIC	??1?$_Container_base_aux_alloc_real@V?$allocator@I@std@@@std@@IAE@XZ ; std::_Container_base_aux_alloc_real<std::allocator<unsigned int> >::~_Container_base_aux_alloc_real<std::allocator<unsigned int> >
PUBLIC	??1?$_Vector_val@IV?$allocator@I@std@@@std@@QAE@XZ ; std::_Vector_val<unsigned int,std::allocator<unsigned int> >::~_Vector_val<unsigned int,std::allocator<unsigned int> >
PUBLIC	?_Tidy@?$vector@IV?$allocator@I@std@@@std@@IAEXXZ ; std::vector<unsigned int,std::allocator<unsigned int> >::_Tidy
PUBLIC	??1?$vector@IV?$allocator@I@std@@@std@@QAE@XZ	; std::vector<unsigned int,std::allocator<unsigned int> >::~vector<unsigned int,std::allocator<unsigned int> >
PUBLIC	?end@?$vector@IV?$allocator@I@std@@@std@@QAE?AV?$_Vector_iterator@IV?$allocator@I@std@@@2@XZ ; std::vector<unsigned int,std::allocator<unsigned int> >::end
PUBLIC	??0?$_Iterator_with_base@Urandom_access_iterator_tag@std@@IHPBIABIV_Iterator_base_aux@2@@std@@QAE@XZ ; std::_Iterator_with_base<std::random_access_iterator_tag,unsigned int,int,unsigned int const *,unsigned int const &,std::_Iterator_base_aux>::_Iterator_with_base<std::random_access_iterator_tag,unsigned int,int,unsigned int const *,unsigned int const &,std::_Iterator_base_aux>
PUBLIC	??0?$_Ranit@IHPBIABI@std@@QAE@XZ		; std::_Ranit<unsigned int,int,unsigned int const *,unsigned int const &>::_Ranit<unsigned int,int,unsigned int const *,unsigned int const &>
PUBLIC	??0?$_Vector_const_iterator@IV?$allocator@I@std@@@std@@QAE@PAIPBV_Container_base_aux@1@@Z ; std::_Vector_const_iterator<unsigned int,std::allocator<unsigned int> >::_Vector_const_iterator<unsigned int,std::allocator<unsigned int> >
PUBLIC	??0?$_Vector_iterator@IV?$allocator@I@std@@@std@@QAE@PAIPBV_Container_base_aux@1@@Z ; std::_Vector_iterator<unsigned int,std::allocator<unsigned int> >::_Vector_iterator<unsigned int,std::allocator<unsigned int> >
PUBLIC	?begin@?$vector@IV?$allocator@I@std@@@std@@QAE?AV?$_Vector_iterator@IV?$allocator@I@std@@@2@XZ ; std::vector<unsigned int,std::allocator<unsigned int> >::begin
PUBLIC	?deallocate@?$allocator@I@std@@QAEXPAII@Z	; std::allocator<unsigned int>::deallocate
PUBLIC	??$_Allocate@I@std@@YAPAIIPAI@Z			; std::_Allocate<unsigned int>
PUBLIC	?allocate@?$allocator@I@std@@QAEPAII@Z		; std::allocator<unsigned int>::allocate
PUBLIC	?capacity@?$vector@IV?$allocator@I@std@@@std@@QBEIXZ ; std::vector<unsigned int,std::allocator<unsigned int> >::capacity
PUBLIC	?size@?$vector@IV?$allocator@I@std@@@std@@QBEIXZ ; std::vector<unsigned int,std::allocator<unsigned int> >::size
PUBLIC	?max_size@?$allocator@I@std@@QBEIXZ		; std::allocator<unsigned int>::max_size
PUBLIC	?max_size@?$vector@IV?$allocator@I@std@@@std@@QBEIXZ ; std::vector<unsigned int,std::allocator<unsigned int> >::max_size
PUBLIC	??$_Destroy_range@V?$allocator@I@std@@@std@@YAXPAI0AAV?$allocator@I@0@U_Scalar_ptr_iterator_tag@0@@Z ; std::_Destroy_range<std::allocator<unsigned int> >
PUBLIC	??$_Destroy_range@V?$allocator@I@std@@@std@@YAXPAI0AAV?$allocator@I@0@@Z ; std::_Destroy_range<std::allocator<unsigned int> >
PUBLIC	?_Destroy@?$vector@IV?$allocator@I@std@@@std@@IAEXPAI0@Z ; std::vector<unsigned int,std::allocator<unsigned int> >::_Destroy
PUBLIC	?_Xlen@?$vector@IV?$allocator@I@std@@@std@@KAXXZ ; std::vector<unsigned int,std::allocator<unsigned int> >::_Xlen
PUBLIC	??$_Uninit_copy@PAIPAIV?$allocator@I@std@@@std@@YAPAIPAI00AAV?$allocator@I@0@U_Scalar_ptr_iterator_tag@0@U_Range_checked_iterator_tag@0@@Z ; std::_Uninit_copy<unsigned int *,unsigned int *,std::allocator<unsigned int> >
PUBLIC	??$unchecked_uninitialized_copy@PAIPAIV?$allocator@I@std@@@stdext@@YAPAIPAI00AAV?$allocator@I@std@@@Z ; stdext::unchecked_uninitialized_copy<unsigned int *,unsigned int *,std::allocator<unsigned int> >
PUBLIC	??$_Uninit_move@PAIPAIV?$allocator@I@std@@U_Undefined_move_tag@2@@std@@YAPAIPAI00AAV?$allocator@I@0@U_Undefined_move_tag@0@U_Range_checked_iterator_tag@0@@Z ; std::_Uninit_move<unsigned int *,unsigned int *,std::allocator<unsigned int>,std::_Undefined_move_tag>
PUBLIC	??$_Unchecked_uninitialized_move@PAIPAIV?$allocator@I@std@@@stdext@@YAPAIPAI00AAV?$allocator@I@std@@@Z ; stdext::_Unchecked_uninitialized_move<unsigned int *,unsigned int *,std::allocator<unsigned int> >
PUBLIC	??$_Umove@PAI@?$vector@IV?$allocator@I@std@@@std@@IAEPAIPAI00@Z ; std::vector<unsigned int,std::allocator<unsigned int> >::_Umove<unsigned int *>
PUBLIC	??$_Fill@PAII@std@@YAXPAI0ABI@Z			; std::_Fill<unsigned int *,unsigned int>
PUBLIC	??$fill@PAII@std@@YAXPAI0ABI@Z			; std::fill<unsigned int *,unsigned int>
PUBLIC	??$_Iter_random@PAIPAI@std@@YA?AUrandom_access_iterator_tag@0@ABQAI0@Z ; std::_Iter_random<unsigned int *,unsigned int *>
PUBLIC	??$_Move_cat@PAI@std@@YA?AU_Undefined_move_tag@0@ABQAI@Z ; std::_Move_cat<unsigned int *>
PUBLIC	??$_Copy_backward_opt@PAIPAIUrandom_access_iterator_tag@std@@@std@@YAPAIPAI00Urandom_access_iterator_tag@0@U_Scalar_ptr_iterator_tag@0@U_Range_checked_iterator_tag@0@@Z ; std::_Copy_backward_opt<unsigned int *,unsigned int *,std::random_access_iterator_tag>
PUBLIC	??$_Move_backward_opt@PAIPAIUrandom_access_iterator_tag@std@@U_Undefined_move_tag@2@@std@@YAPAIPAI00Urandom_access_iterator_tag@0@U_Undefined_move_tag@0@U_Range_checked_iterator_tag@0@@Z ; std::_Move_backward_opt<unsigned int *,unsigned int *,std::random_access_iterator_tag,std::_Undefined_move_tag>
PUBLIC	??$_Unchecked_move_backward@PAIPAI@stdext@@YAPAIPAI00@Z ; stdext::_Unchecked_move_backward<unsigned int *,unsigned int *>
PUBLIC	?_Insert_n@?$vector@IV?$allocator@I@std@@@std@@IAEXV?$_Vector_const_iterator@IV?$allocator@I@std@@@2@IABI@Z ; std::vector<unsigned int,std::allocator<unsigned int> >::_Insert_n
PUBLIC	??G?$_Vector_const_iterator@IV?$allocator@I@std@@@std@@QBEHABV01@@Z ; std::_Vector_const_iterator<unsigned int,std::allocator<unsigned int> >::operator-
PUBLIC	??Y?$_Vector_const_iterator@IV?$allocator@I@std@@@std@@QAEAAV01@H@Z ; std::_Vector_const_iterator<unsigned int,std::allocator<unsigned int> >::operator+=
PUBLIC	??Y?$_Vector_iterator@IV?$allocator@I@std@@@std@@QAEAAV01@H@Z ; std::_Vector_iterator<unsigned int,std::allocator<unsigned int> >::operator+=
PUBLIC	??H?$_Vector_iterator@IV?$allocator@I@std@@@std@@QBE?AV01@H@Z ; std::_Vector_iterator<unsigned int,std::allocator<unsigned int> >::operator+
PUBLIC	?insert@?$vector@IV?$allocator@I@std@@@std@@QAE?AV?$_Vector_iterator@IV?$allocator@I@std@@@2@V?$_Vector_const_iterator@IV?$allocator@I@std@@@2@ABI@Z ; std::vector<unsigned int,std::allocator<unsigned int> >::insert
PUBLIC	??$_Ptr_cat@PAIPAI@std@@YA?AU_Scalar_ptr_iterator_tag@0@AAPAI0@Z ; std::_Ptr_cat<unsigned int *,unsigned int *>
PUBLIC	??$_Iter_cat@PAI@std@@YA?AUrandom_access_iterator_tag@0@ABQAI@Z ; std::_Iter_cat<unsigned int *>
PUBLIC	??$_Checked_base@PAI@std@@YAPAIAAPAIU_Unchanged_checked_iterator_base_type_tag@0@@Z ; std::_Checked_base<unsigned int *>
PUBLIC	??$_Checked_base@PAI@std@@YAPAIAAPAI@Z		; std::_Checked_base<unsigned int *>
PUBLIC	??$_Fill_n@PAIII@std@@YAXPAIIABIU_Range_checked_iterator_tag@0@@Z ; std::_Fill_n<unsigned int *,unsigned int,unsigned int>
PUBLIC	??$_Fill_n@PAIII@std@@YAXPAIIABIUrandom_access_iterator_tag@0@U_Range_checked_iterator_tag@0@@Z ; std::_Fill_n<unsigned int *,unsigned int,unsigned int>
PUBLIC	??$unchecked_fill_n@PAIII@stdext@@YAXPAIIABI@Z	; stdext::unchecked_fill_n<unsigned int *,unsigned int,unsigned int>
PUBLIC	??$_Uninit_fill_n@PAIIIV?$allocator@I@std@@@std@@YAXPAIIABIAAV?$allocator@I@0@U_Scalar_ptr_iterator_tag@0@U_Range_checked_iterator_tag@0@@Z ; std::_Uninit_fill_n<unsigned int *,unsigned int,unsigned int,std::allocator<unsigned int> >
PUBLIC	??$unchecked_uninitialized_fill_n@PAIIIV?$allocator@I@std@@@stdext@@YAXPAIIABIAAV?$allocator@I@std@@@Z ; stdext::unchecked_uninitialized_fill_n<unsigned int *,unsigned int,unsigned int,std::allocator<unsigned int> >
PUBLIC	?_Ufill@?$vector@IV?$allocator@I@std@@@std@@IAEPAIPAIIABI@Z ; std::vector<unsigned int,std::allocator<unsigned int> >::_Ufill
PUBLIC	?push_back@?$vector@IV?$allocator@I@std@@@std@@QAEXABI@Z ; std::vector<unsigned int,std::allocator<unsigned int> >::push_back
PUBLIC	?size@?$vector@HV?$allocator@H@std@@@std@@QBEIXZ ; std::vector<int,std::allocator<int> >::size
PUBLIC	??A?$vector@HV?$allocator@H@std@@@std@@QAEAAHI@Z ; std::vector<int,std::allocator<int> >::operator[]
PUBLIC	??_C@_0BJ@HKJKLLAJ@ASN?41?5BER?5Decode?5Error?5?3?$AA@ ; `string'
PUBLIC	??_7BER_Input@@6B@				; BER_Input::`vftable'
PUBLIC	??_8BER_Input@@7B@				; BER_Input::`vbtable'
EXTRN	??_EBER_Input@@UAEPAXI@Z:PROC			; BER_Input::`vector deleting destructor'
;	COMDAT ??_8BER_Input@@7B@
CONST	SEGMENT
??_8BER_Input@@7B@ DD 00H				; BER_Input::`vbtable'
	DD	058H
CONST	ENDS
;	COMDAT ??_7BER_Input@@6B@
CONST	SEGMENT
??_7BER_Input@@6B@ DD FLAT:??_R4BER_Input@@6B@		; BER_Input::`vftable'
	DD	FLAT:??_EBER_Input@@UAEPAXI@Z
CONST	ENDS
;	COMDAT ??_R4BER_Input@@6B@
rdata$r	SEGMENT
??_R4BER_Input@@6B@ DD 00H				; BER_Input::`RTTI Complete Object Locator'
	DD	058H
	DD	00H
	DD	FLAT:??_R0?AVBER_Input@@@8
	DD	FLAT:??_R3BER_Input@@8
rdata$r	ENDS
;	COMDAT ??_R3BER_Input@@8
rdata$r	SEGMENT
??_R3BER_Input@@8 DD 00H				; BER_Input::`RTTI Class Hierarchy Descriptor'
	DD	00H
	DD	07H
	DD	FLAT:??_R2BER_Input@@8
rdata$r	ENDS
;	COMDAT ??_R2BER_Input@@8
rdata$r	SEGMENT
??_R2BER_Input@@8 DD FLAT:??_R1A@?0A@EA@BER_Input@@8	; BER_Input::`RTTI Base Class Array'
	DD	FLAT:??_R1A@?0A@EA@FileInput@@8
	DD	FLAT:??_R1A@?0A@EA@?$basic_ifstream@DU?$char_traits@D@std@@@std@@8
	DD	FLAT:??_R1A@?0A@EA@?$basic_istream@DU?$char_traits@D@std@@@std@@8
	DD	FLAT:??_R1A@A@3FA@?$basic_ios@DU?$char_traits@D@std@@@std@@8
	DD	FLAT:??_R1A@A@3EA@ios_base@std@@8
	DD	FLAT:??_R13A@3EA@?$_Iosb@H@std@@8
rdata$r	ENDS
;	COMDAT ??_R1A@?0A@EA@BER_Input@@8
rdata$r	SEGMENT
??_R1A@?0A@EA@BER_Input@@8 DD FLAT:??_R0?AVBER_Input@@@8 ; BER_Input::`RTTI Base Class Descriptor at (0,-1,0,64)'
	DD	06H
	DD	00H
	DD	0ffffffffH
	DD	00H
	DD	040H
	DD	FLAT:??_R3BER_Input@@8
rdata$r	ENDS
;	COMDAT ??_R0?AVBER_Input@@@8
_DATA	SEGMENT
??_R0?AVBER_Input@@@8 DD FLAT:??_7type_info@@6B@	; BER_Input `RTTI Type Descriptor'
	DD	00H
	DB	'.?AVBER_Input@@', 00H
_DATA	ENDS
;	COMDAT ??_C@_0BJ@HKJKLLAJ@ASN?41?5BER?5Decode?5Error?5?3?$AA@
CONST	SEGMENT
??_C@_0BJ@HKJKLLAJ@ASN?41?5BER?5Decode?5Error?5?3?$AA@ DB 'ASN.1 BER Deco'
	DB	'de Error :', 00H				; `string'
CONST	ENDS
;	COMDAT ?msg_err@?1??DecodeError@BER_Input@@QAEXI@Z@4QBQBDB
CONST	SEGMENT
?msg_err@?1??DecodeError@BER_Input@@QAEXI@Z@4QBQBDB DD FLAT:??_C@_0BC@OJGKEKLM@Different?5Struct?4?$AA@ ; `BER_Input::DecodeError'::`2'::msg_err
	ORG $+4
CONST	ENDS
;	COMDAT ??_C@_0BC@OJGKEKLM@Different?5Struct?4?$AA@
CONST	SEGMENT
??_C@_0BC@OJGKEKLM@Different?5Struct?4?$AA@ DB 'Different Struct.', 00H ; `string'
; Function compile flags: /Ogtpy
; File c:\program files\microsoft visual studio 9.0\vc\include\memory
;	COMDAT ??$_Uninit_copy@PAIPAIV?$allocator@I@std@@@std@@YAPAIPAI00AAV?$allocator@I@0@U_Scalar_ptr_iterator_tag@0@U_Range_checked_iterator_tag@0@@Z
_TEXT	SEGMENT
__Dest$ = 8						; size = 4
__Result$ = 12						; size = 4
??$_Uninit_copy@PAIPAIV?$allocator@I@std@@@std@@YAPAIPAI00AAV?$allocator@I@0@U_Scalar_ptr_iterator_tag@0@U_Range_checked_iterator_tag@0@@Z PROC ; std::_Uninit_copy<unsigned int *,unsigned int *,std::allocator<unsigned int> >, COMDAT
; __First$ = ecx
; __Count$ = eax

; 144  : 	_DEBUG_RANGE(_First, _Last);
; 145  : 	_DEBUG_POINTER(_Dest);
; 146  : 	size_t _Count = (size_t)(_Last - _First);
; 147  : 	_FwdIt _Result = _Dest + _Count;
; 148  : 	if (_Count > 0)
; 149  : 		_CRT_SECURE_MEMMOVE(&*_Dest, _Count * sizeof (*_First), &*_First, _Count * sizeof (*_First));	// NB: non-overlapping move

  00000	8b 54 24 04	 mov	 edx, DWORD PTR __Dest$[esp-4]
  00004	03 c0		 add	 eax, eax
  00006	03 c0		 add	 eax, eax
  00008	50		 push	 eax
  00009	51		 push	 ecx
  0000a	50		 push	 eax
  0000b	52		 push	 edx
  0000c	e8 00 00 00 00	 call	 _memmove_s

; 150  : 	return _Result;

  00011	8b 44 24 18	 mov	 eax, DWORD PTR __Result$[esp+12]
  00015	83 c4 10	 add	 esp, 16			; 00000010H

; 151  : 	}

  00018	c3		 ret	 0
??$_Uninit_copy@PAIPAIV?$allocator@I@std@@@std@@YAPAIPAI00AAV?$allocator@I@0@U_Scalar_ptr_iterator_tag@0@U_Range_checked_iterator_tag@0@@Z ENDP ; std::_Uninit_copy<unsigned int *,unsigned int *,std::allocator<unsigned int> >
; Function compile flags: /Ogtpy
; File c:\program files\microsoft visual studio 9.0\vc\include\xutility
_TEXT	ENDS
;	COMDAT ??$_Fill_n@PAIII@std@@YAXPAIIABIU_Range_checked_iterator_tag@0@@Z
_TEXT	SEGMENT
__First$ = 8						; size = 4
___formal$ = 12						; size = 1
??$_Fill_n@PAIII@std@@YAXPAIIABIU_Range_checked_iterator_tag@0@@Z PROC ; std::_Fill_n<unsigned int *,unsigned int,unsigned int>, COMDAT
; __Count$ = eax
; __Val$ = edx

; 3170 : 	{	// copy _Val _Count times through [_First, ...)

  00000	8b 4c 24 04	 mov	 ecx, DWORD PTR __First$[esp-4]

; 3171 : 	for (; 0 < _Count; --_Count, ++_First)

  00004	85 c0		 test	 eax, eax
  00006	76 15		 jbe	 SHORT $LN1@Fill_n@3
  00008	56		 push	 esi
  00009	8d a4 24 00 00
	00 00		 npad	 7
$LL3@Fill_n@3:

; 3172 : 		*_First = _Val;

  00010	8b 32		 mov	 esi, DWORD PTR [edx]
  00012	89 31		 mov	 DWORD PTR [ecx], esi
  00014	48		 dec	 eax
  00015	83 c1 04	 add	 ecx, 4
  00018	85 c0		 test	 eax, eax
  0001a	77 f4		 ja	 SHORT $LL3@Fill_n@3
  0001c	5e		 pop	 esi
$LN1@Fill_n@3:

; 3173 : 	}

  0001d	c3		 ret	 0
??$_Fill_n@PAIII@std@@YAXPAIIABIU_Range_checked_iterator_tag@0@@Z ENDP ; std::_Fill_n<unsigned int *,unsigned int,unsigned int>
; Function compile flags: /Ogtpy
; File c:\program files\microsoft visual studio 9.0\vc\include\vector
_TEXT	ENDS
;	COMDAT ?_Checked_iterator_base@?$_Vector_const_iterator@IV?$allocator@I@std@@@std@@QBEPBIXZ
_TEXT	SEGMENT
?_Checked_iterator_base@?$_Vector_const_iterator@IV?$allocator@I@std@@@std@@QBEPBIXZ PROC ; std::_Vector_const_iterator<unsigned int,std::allocator<unsigned int> >::_Checked_iterator_base, COMDAT
; _this$ = eax

; 47   : 		return _Myptr;

  00000	8b 40 04	 mov	 eax, DWORD PTR [eax+4]

; 48   : 	}

  00003	c3		 ret	 0
?_Checked_iterator_base@?$_Vector_const_iterator@IV?$allocator@I@std@@@std@@QBEPBIXZ ENDP ; std::_Vector_const_iterator<unsigned int,std::allocator<unsigned int> >::_Checked_iterator_base
; Function compile flags: /Ogtpy
; File c:\program files\microsoft visual studio 9.0\vc\include\xutility
_TEXT	ENDS
;	COMDAT ??$_Iter_cat@PAI@std@@YA?AUrandom_access_iterator_tag@0@ABQAI@Z
_TEXT	SEGMENT
??$_Iter_cat@PAI@std@@YA?AUrandom_access_iterator_tag@0@ABQAI@Z PROC ; std::_Iter_cat<unsigned int *>, COMDAT
; ___$ReturnUdt$ = eax

; 953  : 	typename iterator_traits<_Iter>::iterator_category _Cat;
; 954  : 	return (_Cat);
; 955  : 	}

  00000	c3		 ret	 0
??$_Iter_cat@PAI@std@@YA?AUrandom_access_iterator_tag@0@ABQAI@Z ENDP ; std::_Iter_cat<unsigned int *>
; Function compile flags: /Ogtpy
_TEXT	ENDS
;	COMDAT ??$_Checked_base@V?$_Vector_const_iterator@IV?$allocator@I@std@@@std@@U_Different_checked_iterator_base_type_tag@2@@std@@YAPBIAAV?$_Vector_const_iterator@IV?$allocator@I@std@@@0@U_Different_checked_iterator_base_type_tag@0@@Z
_TEXT	SEGMENT
___formal$ = 8						; size = 1
??$_Checked_base@V?$_Vector_const_iterator@IV?$allocator@I@std@@@std@@U_Different_checked_iterator_base_type_tag@2@@std@@YAPBIAAV?$_Vector_const_iterator@IV?$allocator@I@std@@@0@U_Different_checked_iterator_base_type_tag@0@@Z PROC ; std::_Checked_base<std::_Vector_const_iterator<unsigned int,std::allocator<unsigned int> >,std::_Different_checked_iterator_base_type_tag>, COMDAT
; __It$ = eax

; 1139 : 		return _It._Checked_iterator_base();

  00000	8b 40 04	 mov	 eax, DWORD PTR [eax+4]

; 1140 : 	}

  00003	c3		 ret	 0
??$_Checked_base@V?$_Vector_const_iterator@IV?$allocator@I@std@@@std@@U_Different_checked_iterator_base_type_tag@2@@std@@YAPBIAAV?$_Vector_const_iterator@IV?$allocator@I@std@@@0@U_Different_checked_iterator_base_type_tag@0@@Z ENDP ; std::_Checked_base<std::_Vector_const_iterator<unsigned int,std::allocator<unsigned int> >,std::_Different_checked_iterator_base_type_tag>
; Function compile flags: /Ogtpy
_TEXT	ENDS
;	COMDAT ??$_Copy_backward_opt@PAIPAIUrandom_access_iterator_tag@std@@@std@@YAPAIPAI00Urandom_access_iterator_tag@0@U_Scalar_ptr_iterator_tag@0@U_Range_checked_iterator_tag@0@@Z
_TEXT	SEGMENT
??$_Copy_backward_opt@PAIPAIUrandom_access_iterator_tag@std@@@std@@YAPAIPAI00Urandom_access_iterator_tag@0@U_Scalar_ptr_iterator_tag@0@U_Range_checked_iterator_tag@0@@Z PROC ; std::_Copy_backward_opt<unsigned int *,unsigned int *,std::random_access_iterator_tag>, COMDAT
; __First$ = ecx
; __Off$ = eax
; __Result$ = esi

; 2673 : 
; 2674 :  #if _HAS_ITERATOR_DEBUGGING
; 2675 : 	_DEBUG_RANGE(_First, _Last);
; 2676 : 	if (_First != _Last)
; 2677 : 		_DEBUG_POINTER(_Dest);
; 2678 :  #endif /* _HAS_ITERATOR_DEBUGGING */
; 2679 : 
; 2680 : 	ptrdiff_t _Off = _Last - _First;	// NB: non-overlapping move
; 2681 : 	/* if _OutIt is range checked, this will make sure there is enough space for 
; 2682 : 	 * the memmove
; 2683 : 	 */
; 2684 : 	_OutIt _Result = _Dest - _Off;
; 2685 : 	if (_Off > 0)
; 2686 : 		_CRT_SECURE_MEMMOVE(&*_Result, _Off * sizeof (*_First), &*_First, _Off * sizeof (*_First));

  00000	03 c0		 add	 eax, eax
  00002	03 c0		 add	 eax, eax
  00004	50		 push	 eax
  00005	51		 push	 ecx
  00006	50		 push	 eax
  00007	56		 push	 esi
  00008	e8 00 00 00 00	 call	 _memmove_s
  0000d	83 c4 10	 add	 esp, 16			; 00000010H

; 2687 : 	return _Result;

  00010	8b c6		 mov	 eax, esi

; 2688 : 	}

  00012	c3		 ret	 0
??$_Copy_backward_opt@PAIPAIUrandom_access_iterator_tag@std@@@std@@YAPAIPAI00Urandom_access_iterator_tag@0@U_Scalar_ptr_iterator_tag@0@U_Range_checked_iterator_tag@0@@Z ENDP ; std::_Copy_backward_opt<unsigned int *,unsigned int *,std::random_access_iterator_tag>
; Function compile flags: /Ogtpy
_TEXT	ENDS
;	COMDAT ??$_Checked_base@PAI@std@@YAPAIAAPAIU_Unchanged_checked_iterator_base_type_tag@0@@Z
_TEXT	SEGMENT
___formal$ = 8						; size = 1
??$_Checked_base@PAI@std@@YAPAIAAPAIU_Unchanged_checked_iterator_base_type_tag@0@@Z PROC ; std::_Checked_base<unsigned int *>, COMDAT
; __It$ = eax

; 1147 : 		return _It;

  00000	8b 00		 mov	 eax, DWORD PTR [eax]

; 1148 : 	}

  00002	c3		 ret	 0
??$_Checked_base@PAI@std@@YAPAIAAPAIU_Unchanged_checked_iterator_base_type_tag@0@@Z ENDP ; std::_Checked_base<unsigned int *>
; Function compile flags: /Ogtpy
; File c:\program files\microsoft visual studio 9.0\vc\include\memory
_TEXT	ENDS
;	COMDAT ??$_Uninit_copy@PBIPAIV?$allocator@I@std@@@std@@YAPAIPBI0PAIAAV?$allocator@I@0@U_Scalar_ptr_iterator_tag@0@U_Range_checked_iterator_tag@0@@Z
_TEXT	SEGMENT
__Dest$ = 8						; size = 4
__Result$ = 12						; size = 4
??$_Uninit_copy@PBIPAIV?$allocator@I@std@@@std@@YAPAIPBI0PAIAAV?$allocator@I@0@U_Scalar_ptr_iterator_tag@0@U_Range_checked_iterator_tag@0@@Z PROC ; std::_Uninit_copy<unsigned int const *,unsigned int *,std::allocator<unsigned int> >, COMDAT
; __First$ = ecx
; __Count$ = eax

; 144  : 	_DEBUG_RANGE(_First, _Last);
; 145  : 	_DEBUG_POINTER(_Dest);
; 146  : 	size_t _Count = (size_t)(_Last - _First);
; 147  : 	_FwdIt _Result = _Dest + _Count;
; 148  : 	if (_Count > 0)
; 149  : 		_CRT_SECURE_MEMMOVE(&*_Dest, _Count * sizeof (*_First), &*_First, _Count * sizeof (*_First));	// NB: non-overlapping move

  00000	8b 54 24 04	 mov	 edx, DWORD PTR __Dest$[esp-4]
  00004	03 c0		 add	 eax, eax
  00006	03 c0		 add	 eax, eax
  00008	50		 push	 eax
  00009	51		 push	 ecx
  0000a	50		 push	 eax
  0000b	52		 push	 edx
  0000c	e8 00 00 00 00	 call	 _memmove_s

; 150  : 	return _Result;

  00011	8b 44 24 18	 mov	 eax, DWORD PTR __Result$[esp+12]
  00015	83 c4 10	 add	 esp, 16			; 00000010H

; 151  : 	}

  00018	c3		 ret	 0
??$_Uninit_copy@PBIPAIV?$allocator@I@std@@@std@@YAPAIPBI0PAIAAV?$allocator@I@0@U_Scalar_ptr_iterator_tag@0@U_Range_checked_iterator_tag@0@@Z ENDP ; std::_Uninit_copy<unsigned int const *,unsigned int *,std::allocator<unsigned int> >
; Function compile flags: /Ogtpy
; File c:\program files\microsoft visual studio 9.0\vc\include\xutility
_TEXT	ENDS
;	COMDAT ??$_Ptr_cat@V?$_Vector_const_iterator@IV?$allocator@I@std@@@std@@PAI@std@@YA?AU_Scalar_ptr_iterator_tag@0@AAV?$_Vector_const_iterator@IV?$allocator@I@std@@@0@AAPAI@Z
_TEXT	SEGMENT
__Cat$ = -1						; size = 1
??$_Ptr_cat@V?$_Vector_const_iterator@IV?$allocator@I@std@@@std@@PAI@std@@YA?AU_Scalar_ptr_iterator_tag@0@AAV?$_Vector_const_iterator@IV?$allocator@I@std@@@0@AAPAI@Z PROC ; std::_Ptr_cat<std::_Vector_const_iterator<unsigned int,std::allocator<unsigned int> >,unsigned int *>, COMDAT

; 1483 : 	{

  00000	51		 push	 ecx

; 1484 : 	typename _Ptr_cat_helper<_T1, _T2>::_Ptr_cat _Cat;
; 1485 : 	return (_Cat);

  00001	8a 44 24 03	 mov	 al, BYTE PTR __Cat$[esp+4]

; 1486 : 	}

  00005	59		 pop	 ecx
  00006	c3		 ret	 0
??$_Ptr_cat@V?$_Vector_const_iterator@IV?$allocator@I@std@@@std@@PAI@std@@YA?AU_Scalar_ptr_iterator_tag@0@AAV?$_Vector_const_iterator@IV?$allocator@I@std@@@0@AAPAI@Z ENDP ; std::_Ptr_cat<std::_Vector_const_iterator<unsigned int,std::allocator<unsigned int> >,unsigned int *>
; Function compile flags: /Ogtpy
_TEXT	ENDS
;	COMDAT ??$_Checked_base@V?$_Vector_const_iterator@IV?$allocator@I@std@@@std@@@std@@YAPBIAAV?$_Vector_const_iterator@IV?$allocator@I@std@@@0@@Z
_TEXT	SEGMENT
??$_Checked_base@V?$_Vector_const_iterator@IV?$allocator@I@std@@@std@@@std@@YAPBIAAV?$_Vector_const_iterator@IV?$allocator@I@std@@@0@@Z PROC ; std::_Checked_base<std::_Vector_const_iterator<unsigned int,std::allocator<unsigned int> > >, COMDAT
; __It$ = eax

; 1164 : 		typename _Checked_iterator_base_helper<_Iter>::_Checked_iterator_base_type_tag _Base_tag;
; 1165 : 		return _Checked_base(_It, _Base_tag);

  00000	8b 40 04	 mov	 eax, DWORD PTR [eax+4]

; 1166 : 	}

  00003	c3		 ret	 0
??$_Checked_base@V?$_Vector_const_iterator@IV?$allocator@I@std@@@std@@@std@@YAPBIAAV?$_Vector_const_iterator@IV?$allocator@I@std@@@0@@Z ENDP ; std::_Checked_base<std::_Vector_const_iterator<unsigned int,std::allocator<unsigned int> > >
; Function compile flags: /Ogtpy
_TEXT	ENDS
;	COMDAT ??$_Move_cat@PAI@std@@YA?AU_Undefined_move_tag@0@ABQAI@Z
_TEXT	SEGMENT
__Cat$ = -1						; size = 1
??$_Move_cat@PAI@std@@YA?AU_Undefined_move_tag@0@ABQAI@Z PROC ; std::_Move_cat<unsigned int *>, COMDAT

; 1200 : 	{

  00000	51		 push	 ecx

; 1201 : 		typename _Move_operation_category<typename iterator_traits<_Iter>::value_type>::_Move_cat _Cat;
; 1202 : 		return (_Cat);

  00001	8a 44 24 03	 mov	 al, BYTE PTR __Cat$[esp+4]

; 1203 : 	}

  00005	59		 pop	 ecx
  00006	c3		 ret	 0
??$_Move_cat@PAI@std@@YA?AU_Undefined_move_tag@0@ABQAI@Z ENDP ; std::_Move_cat<unsigned int *>
; Function compile flags: /Ogtpy
_TEXT	ENDS
;	COMDAT ??$_Iter_random@PAIPAI@std@@YA?AUrandom_access_iterator_tag@0@ABQAI0@Z
_TEXT	SEGMENT
??$_Iter_random@PAIPAI@std@@YA?AUrandom_access_iterator_tag@0@ABQAI0@Z PROC ; std::_Iter_random<unsigned int *,unsigned int *>, COMDAT
; ___$ReturnUdt$ = eax

; 994  : 	typename _Iter_random_helper<
; 995  : 		iterator_traits<_Iter1>::iterator_category, 
; 996  : 		iterator_traits<_Iter2>::iterator_category>::_Iter_random_cat _Cat;
; 997  : 	return (_Cat);
; 998  : 	}

  00000	c3		 ret	 0
??$_Iter_random@PAIPAI@std@@YA?AUrandom_access_iterator_tag@0@ABQAI0@Z ENDP ; std::_Iter_random<unsigned int *,unsigned int *>
; Function compile flags: /Ogtpy
_TEXT	ENDS
;	COMDAT ??$_Fill@PAII@std@@YAXPAI0ABI@Z
_TEXT	SEGMENT
__Val$ = 8						; size = 4
??$_Fill@PAII@std@@YAXPAI0ABI@Z PROC			; std::_Fill<unsigned int *,unsigned int>, COMDAT
; __First$ = eax
; __Last$ = edx

; 3131 : 	_DEBUG_RANGE(_First, _Last);
; 3132 : 	for (; _First != _Last; ++_First)

  00000	3b c2		 cmp	 eax, edx
  00002	74 15		 je	 SHORT $LN1@Fill@3
  00004	8b 4c 24 04	 mov	 ecx, DWORD PTR __Val$[esp-4]
  00008	8b 09		 mov	 ecx, DWORD PTR [ecx]
  0000a	8d 9b 00 00 00
	00		 npad	 6
$LL3@Fill@3:

; 3133 : 		*_First = _Val;

  00010	89 08		 mov	 DWORD PTR [eax], ecx
  00012	83 c0 04	 add	 eax, 4
  00015	3b c2		 cmp	 eax, edx
  00017	75 f7		 jne	 SHORT $LL3@Fill@3
$LN1@Fill@3:

; 3134 : 	}

  00019	c3		 ret	 0
??$_Fill@PAII@std@@YAXPAI0ABI@Z ENDP			; std::_Fill<unsigned int *,unsigned int>
; Function compile flags: /Ogtpy
_TEXT	ENDS
;	COMDAT ??$_Checked_base@PAI@std@@YAPAIAAPAI@Z
_TEXT	SEGMENT
??$_Checked_base@PAI@std@@YAPAIAAPAI@Z PROC		; std::_Checked_base<unsigned int *>, COMDAT
; __It$ = eax

; 1164 : 		typename _Checked_iterator_base_helper<_Iter>::_Checked_iterator_base_type_tag _Base_tag;
; 1165 : 		return _Checked_base(_It, _Base_tag);

  00000	8b 00		 mov	 eax, DWORD PTR [eax]

; 1166 : 	}

  00002	c3		 ret	 0
??$_Checked_base@PAI@std@@YAPAIAAPAI@Z ENDP		; std::_Checked_base<unsigned int *>
; Function compile flags: /Ogtpy
; File c:\program files\microsoft visual studio 9.0\vc\include\xmemory
_TEXT	ENDS
;	COMDAT ??$_Destroy_range@V?$allocator@I@std@@@std@@YAXPAI0AAV?$allocator@I@0@U_Scalar_ptr_iterator_tag@0@@Z
_TEXT	SEGMENT
___formal$ = 8						; size = 1
??$_Destroy_range@V?$allocator@I@std@@@std@@YAXPAI0AAV?$allocator@I@0@U_Scalar_ptr_iterator_tag@0@@Z PROC ; std::_Destroy_range<std::allocator<unsigned int> >, COMDAT

; 242  : 	}

  00000	c3		 ret	 0
??$_Destroy_range@V?$allocator@I@std@@@std@@YAXPAI0AAV?$allocator@I@0@U_Scalar_ptr_iterator_tag@0@@Z ENDP ; std::_Destroy_range<std::allocator<unsigned int> >
; Function compile flags: /Ogtpy
; File c:\program files\microsoft visual studio 9.0\vc\include\xutility
_TEXT	ENDS
;	COMDAT ??$_Ptr_cat@PAIPAI@std@@YA?AU_Scalar_ptr_iterator_tag@0@AAPAI0@Z
_TEXT	SEGMENT
__Cat$ = -1						; size = 1
??$_Ptr_cat@PAIPAI@std@@YA?AU_Scalar_ptr_iterator_tag@0@AAPAI0@Z PROC ; std::_Ptr_cat<unsigned int *,unsigned int *>, COMDAT

; 1483 : 	{

  00000	51		 push	 ecx

; 1484 : 	typename _Ptr_cat_helper<_T1, _T2>::_Ptr_cat _Cat;
; 1485 : 	return (_Cat);

  00001	8a 44 24 03	 mov	 al, BYTE PTR __Cat$[esp+4]

; 1486 : 	}

  00005	59		 pop	 ecx
  00006	c3		 ret	 0
??$_Ptr_cat@PAIPAI@std@@YA?AU_Scalar_ptr_iterator_tag@0@AAPAI0@Z ENDP ; std::_Ptr_cat<unsigned int *,unsigned int *>
; Function compile flags: /Ogtpy
; File c:\program files\microsoft visual studio 9.0\vc\include\memory
_TEXT	ENDS
;	COMDAT ??$unchecked_uninitialized_copy@V?$_Vector_const_iterator@IV?$allocator@I@std@@@std@@PAIV?$allocator@I@2@@stdext@@YAPAIV?$_Vector_const_iterator@IV?$allocator@I@std@@@std@@0PAIAAV?$allocator@I@2@@Z
_TEXT	SEGMENT
__First$ = 8						; size = 8
__Last$ = 16						; size = 8
??$unchecked_uninitialized_copy@V?$_Vector_const_iterator@IV?$allocator@I@std@@@std@@PAIV?$allocator@I@2@@stdext@@YAPAIV?$_Vector_const_iterator@IV?$allocator@I@std@@@std@@0PAIAAV?$allocator@I@2@@Z PROC ; stdext::unchecked_uninitialized_copy<std::_Vector_const_iterator<unsigned int,std::allocator<unsigned int> >,unsigned int *,std::allocator<unsigned int> >, COMDAT
; __Dest$ = edx

; 810  : 		return (_STD _Uninit_copy(_CHECKED_BASE(_First), _CHECKED_BASE(_Last), _Dest, _Al,
; 811  : 			_STD _Ptr_cat(_First, _Dest), _STD _Range_checked_iterator_tag()));

  00000	8b 44 24 10	 mov	 eax, DWORD PTR __Last$[esp]
  00004	56		 push	 esi
  00005	57		 push	 edi
  00006	8b 7c 24 10	 mov	 edi, DWORD PTR __First$[esp+8]
  0000a	2b c7		 sub	 eax, edi
  0000c	c1 f8 02	 sar	 eax, 2
  0000f	8d 0c 85 00 00
	00 00		 lea	 ecx, DWORD PTR [eax*4]
  00016	8d 34 11	 lea	 esi, DWORD PTR [ecx+edx]
  00019	85 c0		 test	 eax, eax
  0001b	76 0c		 jbe	 SHORT $LN20@unchecked_
  0001d	51		 push	 ecx
  0001e	57		 push	 edi
  0001f	51		 push	 ecx
  00020	52		 push	 edx
  00021	e8 00 00 00 00	 call	 _memmove_s
  00026	83 c4 10	 add	 esp, 16			; 00000010H
$LN20@unchecked_:
  00029	5f		 pop	 edi
  0002a	8b c6		 mov	 eax, esi
  0002c	5e		 pop	 esi

; 812  : 	}

  0002d	c3		 ret	 0
??$unchecked_uninitialized_copy@V?$_Vector_const_iterator@IV?$allocator@I@std@@@std@@PAIV?$allocator@I@2@@stdext@@YAPAIV?$_Vector_const_iterator@IV?$allocator@I@std@@@std@@0PAIAAV?$allocator@I@2@@Z ENDP ; stdext::unchecked_uninitialized_copy<std::_Vector_const_iterator<unsigned int,std::allocator<unsigned int> >,unsigned int *,std::allocator<unsigned int> >
; Function compile flags: /Ogtpy
; File c:\program files\microsoft visual studio 9.0\vc\include\xmemory
_TEXT	ENDS
;	COMDAT ??$?0I@?$allocator@V_Aux_cont@std@@@std@@QAE@ABV?$allocator@I@1@@Z
_TEXT	SEGMENT
??$?0I@?$allocator@V_Aux_cont@std@@@std@@QAE@ABV?$allocator@I@1@@Z PROC ; std::allocator<std::_Aux_cont>::allocator<std::_Aux_cont><unsigned int>, COMDAT
; _this$ = eax

; 129  : 		{	// construct from a related allocator (do nothing)
; 130  : 		}

  00000	c3		 ret	 0
??$?0I@?$allocator@V_Aux_cont@std@@@std@@QAE@ABV?$allocator@I@1@@Z ENDP ; std::allocator<std::_Aux_cont>::allocator<std::_Aux_cont><unsigned int>
; Function compile flags: /Ogtpy
; File c:\program files\microsoft visual studio 9.0\vc\include\xutility
_TEXT	ENDS
;	COMDAT ??$fill@PAII@std@@YAXPAI0ABI@Z
_TEXT	SEGMENT
__Val$ = 8						; size = 4
??$fill@PAII@std@@YAXPAI0ABI@Z PROC			; std::fill<unsigned int *,unsigned int>, COMDAT
; __First$ = eax
; __Last$ = ecx

; 3161 : 	_Fill(_CHECKED_BASE(_First), _CHECKED_BASE(_Last), _Val);

  00000	3b c1		 cmp	 eax, ecx
  00002	74 15		 je	 SHORT $LN11@fill@3
  00004	8b 54 24 04	 mov	 edx, DWORD PTR __Val$[esp-4]
  00008	8b 12		 mov	 edx, DWORD PTR [edx]
  0000a	8d 9b 00 00 00
	00		 npad	 6
$LL13@fill@3:
  00010	89 10		 mov	 DWORD PTR [eax], edx
  00012	83 c0 04	 add	 eax, 4
  00015	3b c1		 cmp	 eax, ecx
  00017	75 f7		 jne	 SHORT $LL13@fill@3
$LN11@fill@3:

; 3162 : 	}

  00019	c3		 ret	 0
??$fill@PAII@std@@YAXPAI0ABI@Z ENDP			; std::fill<unsigned int *,unsigned int>
; Function compile flags: /Ogtpy
; File c:\program files\microsoft visual studio 9.0\vc\include\xmemory
_TEXT	ENDS
;	COMDAT ??$_Destroy_range@V?$allocator@I@std@@@std@@YAXPAI0AAV?$allocator@I@0@@Z
_TEXT	SEGMENT
??$_Destroy_range@V?$allocator@I@std@@@std@@YAXPAI0AAV?$allocator@I@0@@Z PROC ; std::_Destroy_range<std::allocator<unsigned int> >, COMDAT

; 225  : 	_Destroy_range(_First, _Last, _Al, _Ptr_cat(_First, _Last));
; 226  : 	}

  00000	c3		 ret	 0
??$_Destroy_range@V?$allocator@I@std@@@std@@YAXPAI0AAV?$allocator@I@0@@Z ENDP ; std::_Destroy_range<std::allocator<unsigned int> >
; Function compile flags: /Ogtpy
; File c:\program files\microsoft visual studio 9.0\vc\include\vector
_TEXT	ENDS
;	COMDAT ??$_Ucopy@V?$_Vector_const_iterator@IV?$allocator@I@std@@@std@@@?$vector@IV?$allocator@I@std@@@std@@IAEPAIV?$_Vector_const_iterator@IV?$allocator@I@std@@@1@0PAI@Z
_TEXT	SEGMENT
__First$ = 8						; size = 8
__Last$ = 16						; size = 8
??$_Ucopy@V?$_Vector_const_iterator@IV?$allocator@I@std@@@std@@@?$vector@IV?$allocator@I@std@@@std@@IAEPAIV?$_Vector_const_iterator@IV?$allocator@I@std@@@1@0PAI@Z PROC ; std::vector<unsigned int,std::allocator<unsigned int> >::_Ucopy<std::_Vector_const_iterator<unsigned int,std::allocator<unsigned int> > >, COMDAT
; __Ptr$ = edx

; 1144 : 		{	// copy initializing [_First, _Last), using allocator
; 1145 : 		return (_STDEXT unchecked_uninitialized_copy(_First, _Last,
; 1146 : 			_Ptr, this->_Alval));

  00000	8b 44 24 10	 mov	 eax, DWORD PTR __Last$[esp]
  00004	56		 push	 esi
  00005	57		 push	 edi
  00006	8b 7c 24 10	 mov	 edi, DWORD PTR __First$[esp+8]
  0000a	2b c7		 sub	 eax, edi
  0000c	c1 f8 02	 sar	 eax, 2
  0000f	8d 0c 85 00 00
	00 00		 lea	 ecx, DWORD PTR [eax*4]
  00016	8d 34 11	 lea	 esi, DWORD PTR [ecx+edx]
  00019	85 c0		 test	 eax, eax
  0001b	76 0c		 jbe	 SHORT $LN22@Ucopy
  0001d	51		 push	 ecx
  0001e	57		 push	 edi
  0001f	51		 push	 ecx
  00020	52		 push	 edx
  00021	e8 00 00 00 00	 call	 _memmove_s
  00026	83 c4 10	 add	 esp, 16			; 00000010H
$LN22@Ucopy:

; 1147 : 		}

  00029	5f		 pop	 edi
  0002a	8b c6		 mov	 eax, esi
  0002c	5e		 pop	 esi
  0002d	c2 10 00	 ret	 16			; 00000010H
??$_Ucopy@V?$_Vector_const_iterator@IV?$allocator@I@std@@@std@@@?$vector@IV?$allocator@I@std@@@std@@IAEPAIV?$_Vector_const_iterator@IV?$allocator@I@std@@@1@0PAI@Z ENDP ; std::vector<unsigned int,std::allocator<unsigned int> >::_Ucopy<std::_Vector_const_iterator<unsigned int,std::allocator<unsigned int> > >
; Function compile flags: /Ogtpy
; File c:\program files\microsoft visual studio 9.0\vc\include\xmemory
_TEXT	ENDS
;	COMDAT ?max_size@?$allocator@I@std@@QBEIXZ
_TEXT	SEGMENT
?max_size@?$allocator@I@std@@QBEIXZ PROC		; std::allocator<unsigned int>::max_size, COMDAT

; 165  : 		_SIZT _Count = (_SIZT)(-1) / sizeof (_Ty);
; 166  : 		return (0 < _Count ? _Count : 1);

  00000	b8 ff ff ff 3f	 mov	 eax, 1073741823		; 3fffffffH

; 167  : 		}

  00005	c3		 ret	 0
?max_size@?$allocator@I@std@@QBEIXZ ENDP		; std::allocator<unsigned int>::max_size
; Function compile flags: /Ogtpy
_TEXT	ENDS
;	COMDAT ?deallocate@?$allocator@I@std@@QAEXPAII@Z
_TEXT	SEGMENT
?deallocate@?$allocator@I@std@@QAEXPAII@Z PROC		; std::allocator<unsigned int>::deallocate, COMDAT
; __Ptr$ = eax

; 140  : 		::operator delete(_Ptr);

  00000	50		 push	 eax
  00001	e8 00 00 00 00	 call	 ??3@YAXPAX@Z		; operator delete
  00006	59		 pop	 ecx

; 141  : 		}

  00007	c3		 ret	 0
?deallocate@?$allocator@I@std@@QAEXPAII@Z ENDP		; std::allocator<unsigned int>::deallocate
; Function compile flags: /Ogtpy
; File c:\program files\microsoft visual studio 9.0\vc\include\vector
_TEXT	ENDS
;	COMDAT ?_Destroy@?$vector@IV?$allocator@I@std@@@std@@IAEXPAI0@Z
_TEXT	SEGMENT
?_Destroy@?$vector@IV?$allocator@I@std@@@std@@IAEXPAI0@Z PROC ; std::vector<unsigned int,std::allocator<unsigned int> >::_Destroy, COMDAT

; 1124 : 		_Destroy_range(_First, _Last, this->_Alval);
; 1125 : 		}

  00000	c3		 ret	 0
?_Destroy@?$vector@IV?$allocator@I@std@@@std@@IAEXPAI0@Z ENDP ; std::vector<unsigned int,std::allocator<unsigned int> >::_Destroy
; Function compile flags: /Ogtpy
_TEXT	ENDS
;	COMDAT ?max_size@?$vector@IV?$allocator@I@std@@@std@@QBEIXZ
_TEXT	SEGMENT
?max_size@?$vector@IV?$allocator@I@std@@@std@@QBEIXZ PROC ; std::vector<unsigned int,std::allocator<unsigned int> >::max_size, COMDAT

; 731  : 		return (this->_Alval.max_size());

  00000	b8 ff ff ff 3f	 mov	 eax, 1073741823		; 3fffffffH

; 732  : 		}

  00005	c3		 ret	 0
?max_size@?$vector@IV?$allocator@I@std@@@std@@QBEIXZ ENDP ; std::vector<unsigned int,std::allocator<unsigned int> >::max_size
; Function compile flags: /Ogtpy
; File c:\program files\microsoft visual studio 9.0\vc\include\xmemory
_TEXT	ENDS
;	COMDAT ??0?$allocator@I@std@@QAE@ABV01@@Z
_TEXT	SEGMENT
??0?$allocator@I@std@@QAE@ABV01@@Z PROC			; std::allocator<unsigned int>::allocator<unsigned int>, COMDAT
; _this$ = eax

; 124  : 		{	// construct by copying (do nothing)
; 125  : 		}

  00000	c3		 ret	 0
??0?$allocator@I@std@@QAE@ABV01@@Z ENDP			; std::allocator<unsigned int>::allocator<unsigned int>
; Function compile flags: /Ogtpy
_TEXT	ENDS
;	COMDAT ??0?$allocator@I@std@@QAE@XZ
_TEXT	SEGMENT
??0?$allocator@I@std@@QAE@XZ PROC			; std::allocator<unsigned int>::allocator<unsigned int>, COMDAT
; _this$ = eax

; 120  : 		{	// construct default allocator (do nothing)
; 121  : 		}

  00000	c3		 ret	 0
??0?$allocator@I@std@@QAE@XZ ENDP			; std::allocator<unsigned int>::allocator<unsigned int>
; Function compile flags: /Ogtpy
; File c:\program files\microsoft visual studio 9.0\vc\include\vector
_TEXT	ENDS
;	COMDAT ?_Tidy@?$vector@IV?$allocator@I@std@@@std@@IAEXXZ
_TEXT	SEGMENT
?_Tidy@?$vector@IV?$allocator@I@std@@@std@@IAEXXZ PROC	; std::vector<unsigned int,std::allocator<unsigned int> >::_Tidy, COMDAT
; _this$ = esi

; 1129 : 		if (_Myfirst != 0)

  00000	8b 46 0c	 mov	 eax, DWORD PTR [esi+12]
  00003	85 c0		 test	 eax, eax
  00005	74 09		 je	 SHORT $LN4@Tidy@2

; 1130 : 			{	// something to free, destroy and deallocate it
; 1131 : 
; 1132 :  #if _HAS_ITERATOR_DEBUGGING
; 1133 : 			this->_Orphan_all();
; 1134 :  #endif /* _HAS_ITERATOR_DEBUGGING */
; 1135 : 
; 1136 : 			_Destroy(_Myfirst, _Mylast);
; 1137 : 			this->_Alval.deallocate(_Myfirst, _Myend - _Myfirst);

  00007	50		 push	 eax
  00008	e8 00 00 00 00	 call	 ??3@YAXPAX@Z		; operator delete
  0000d	83 c4 04	 add	 esp, 4
$LN4@Tidy@2:

; 1138 : 			}
; 1139 : 		_Myfirst = 0, _Mylast = 0, _Myend = 0;

  00010	c7 46 0c 00 00
	00 00		 mov	 DWORD PTR [esi+12], 0
  00017	c7 46 10 00 00
	00 00		 mov	 DWORD PTR [esi+16], 0
  0001e	c7 46 14 00 00
	00 00		 mov	 DWORD PTR [esi+20], 0

; 1140 : 		}

  00025	c3		 ret	 0
?_Tidy@?$vector@IV?$allocator@I@std@@@std@@IAEXXZ ENDP	; std::vector<unsigned int,std::allocator<unsigned int> >::_Tidy
; Function compile flags: /Ogtpy
_TEXT	ENDS
;	COMDAT ?size@?$vector@IV?$allocator@I@std@@@std@@QBEIXZ
_TEXT	SEGMENT
?size@?$vector@IV?$allocator@I@std@@@std@@QBEIXZ PROC	; std::vector<unsigned int,std::allocator<unsigned int> >::size, COMDAT
; _this$ = ecx

; 726  : 		return (_Mylast - _Myfirst);

  00000	8b 41 10	 mov	 eax, DWORD PTR [ecx+16]
  00003	2b 41 0c	 sub	 eax, DWORD PTR [ecx+12]
  00006	c1 f8 02	 sar	 eax, 2

; 727  : 		}

  00009	c3		 ret	 0
?size@?$vector@IV?$allocator@I@std@@@std@@QBEIXZ ENDP	; std::vector<unsigned int,std::allocator<unsigned int> >::size
; Function compile flags: /Ogtpy
_TEXT	ENDS
;	COMDAT ?capacity@?$vector@IV?$allocator@I@std@@@std@@QBEIXZ
_TEXT	SEGMENT
?capacity@?$vector@IV?$allocator@I@std@@@std@@QBEIXZ PROC ; std::vector<unsigned int,std::allocator<unsigned int> >::capacity, COMDAT
; _this$ = eax

; 635  : 		return (_Myfirst == 0 ? 0 : _Myend - _Myfirst);

  00000	8b 48 0c	 mov	 ecx, DWORD PTR [eax+12]
  00003	85 c9		 test	 ecx, ecx
  00005	75 03		 jne	 SHORT $LN3@capacity@3
  00007	33 c0		 xor	 eax, eax

; 636  : 		}

  00009	c3		 ret	 0
$LN3@capacity@3:

; 635  : 		return (_Myfirst == 0 ? 0 : _Myend - _Myfirst);

  0000a	8b 40 14	 mov	 eax, DWORD PTR [eax+20]
  0000d	2b c1		 sub	 eax, ecx
  0000f	c1 f8 02	 sar	 eax, 2

; 636  : 		}

  00012	c3		 ret	 0
?capacity@?$vector@IV?$allocator@I@std@@@std@@QBEIXZ ENDP ; std::vector<unsigned int,std::allocator<unsigned int> >::capacity
; Function compile flags: /Ogtpy
_TEXT	ENDS
;	COMDAT ?size@?$vector@HV?$allocator@H@std@@@std@@QBEIXZ
_TEXT	SEGMENT
?size@?$vector@HV?$allocator@H@std@@@std@@QBEIXZ PROC	; std::vector<int,std::allocator<int> >::size, COMDAT
; _this$ = ecx

; 726  : 		return (_Mylast - _Myfirst);

  00000	8b 41 10	 mov	 eax, DWORD PTR [ecx+16]
  00003	2b 41 0c	 sub	 eax, DWORD PTR [ecx+12]
  00006	c1 f8 02	 sar	 eax, 2

; 727  : 		}

  00009	c3		 ret	 0
?size@?$vector@HV?$allocator@H@std@@@std@@QBEIXZ ENDP	; std::vector<int,std::allocator<int> >::size
; Function compile flags: /Ogtpy
; File c:\program files\microsoft visual studio 9.0\vc\include\memory
;	COMDAT ??$unchecked_uninitialized_copy@PAIPAIV?$allocator@I@std@@@stdext@@YAPAIPAI00AAV?$allocator@I@std@@@Z
_TEXT	SEGMENT
??$unchecked_uninitialized_copy@PAIPAIV?$allocator@I@std@@@stdext@@YAPAIPAI00AAV?$allocator@I@std@@@Z PROC ; stdext::unchecked_uninitialized_copy<unsigned int *,unsigned int *,std::allocator<unsigned int> >, COMDAT
; __First$ = edi
; __Last$ = eax
; __Dest$ = edx

; 810  : 		return (_STD _Uninit_copy(_CHECKED_BASE(_First), _CHECKED_BASE(_Last), _Dest, _Al,
; 811  : 			_STD _Ptr_cat(_First, _Dest), _STD _Range_checked_iterator_tag()));

  00000	2b c7		 sub	 eax, edi
  00002	c1 f8 02	 sar	 eax, 2
  00005	8d 0c 85 00 00
	00 00		 lea	 ecx, DWORD PTR [eax*4]
  0000c	56		 push	 esi
  0000d	8d 34 11	 lea	 esi, DWORD PTR [ecx+edx]
  00010	85 c0		 test	 eax, eax
  00012	76 0c		 jbe	 SHORT $LN16@unchecked_@9
  00014	51		 push	 ecx
  00015	57		 push	 edi
  00016	51		 push	 ecx
  00017	52		 push	 edx
  00018	e8 00 00 00 00	 call	 _memmove_s
  0001d	83 c4 10	 add	 esp, 16			; 00000010H
$LN16@unchecked_@9:
  00020	8b c6		 mov	 eax, esi
  00022	5e		 pop	 esi

; 812  : 	}

  00023	c3		 ret	 0
??$unchecked_uninitialized_copy@PAIPAIV?$allocator@I@std@@@stdext@@YAPAIPAI00AAV?$allocator@I@std@@@Z ENDP ; stdext::unchecked_uninitialized_copy<unsigned int *,unsigned int *,std::allocator<unsigned int> >
; Function compile flags: /Ogtpy
; File c:\program files\microsoft visual studio 9.0\vc\include\xutility
_TEXT	ENDS
;	COMDAT ??$_Fill_n@PAIII@std@@YAXPAIIABIUrandom_access_iterator_tag@0@U_Range_checked_iterator_tag@0@@Z
_TEXT	SEGMENT
__First$ = 8						; size = 4
___formal$ = 12						; size = 1
___formal$ = 16						; size = 1
??$_Fill_n@PAIII@std@@YAXPAIIABIUrandom_access_iterator_tag@0@U_Range_checked_iterator_tag@0@@Z PROC ; std::_Fill_n<unsigned int *,unsigned int,unsigned int>, COMDAT
; __Count$ = eax
; __Val$ = edx

; 3225 : 		// if _OutIt is checked, this will ensure we have enough space
; 3226 : 		_OutIt _Last = _First + _Count; (_Last);
; 3227 : 		_Fill_n(_CHECKED_BASE(_First), _Count, _Val,
; 3228 : 			_Range_checked_iterator_tag());

  00000	8b 4c 24 04	 mov	 ecx, DWORD PTR __First$[esp-4]
  00004	85 c0		 test	 eax, eax
  00006	76 15		 jbe	 SHORT $LN7@Fill_n@7
  00008	56		 push	 esi
  00009	8d a4 24 00 00
	00 00		 npad	 7
$LL9@Fill_n@7:
  00010	8b 32		 mov	 esi, DWORD PTR [edx]
  00012	89 31		 mov	 DWORD PTR [ecx], esi
  00014	48		 dec	 eax
  00015	83 c1 04	 add	 ecx, 4
  00018	85 c0		 test	 eax, eax
  0001a	77 f4		 ja	 SHORT $LL9@Fill_n@7
  0001c	5e		 pop	 esi
$LN7@Fill_n@7:

; 3229 : 	}

  0001d	c3		 ret	 0
??$_Fill_n@PAIII@std@@YAXPAIIABIUrandom_access_iterator_tag@0@U_Range_checked_iterator_tag@0@@Z ENDP ; std::_Fill_n<unsigned int *,unsigned int,unsigned int>
; Function compile flags: /Ogtpy
; File c:\program files\microsoft visual studio 9.0\vc\include\memory
_TEXT	ENDS
;	COMDAT ??$_Uninit_move@PAIPAIV?$allocator@I@std@@U_Undefined_move_tag@2@@std@@YAPAIPAI00AAV?$allocator@I@0@U_Undefined_move_tag@0@U_Range_checked_iterator_tag@0@@Z
_TEXT	SEGMENT
___formal$ = 8						; size = 1
___formal$ = 12						; size = 1
??$_Uninit_move@PAIPAIV?$allocator@I@std@@U_Undefined_move_tag@2@@std@@YAPAIPAI00AAV?$allocator@I@0@U_Undefined_move_tag@0@U_Range_checked_iterator_tag@0@@Z PROC ; std::_Uninit_move<unsigned int *,unsigned int *,std::allocator<unsigned int>,std::_Undefined_move_tag>, COMDAT
; __First$ = edi
; __Last$ = eax
; __Dest$ = edx

; 205  : 	return _STDEXT unchecked_uninitialized_copy(_First, _Last, _Dest, _Al);

  00000	2b c7		 sub	 eax, edi
  00002	c1 f8 02	 sar	 eax, 2
  00005	8d 0c 85 00 00
	00 00		 lea	 ecx, DWORD PTR [eax*4]
  0000c	56		 push	 esi
  0000d	8d 34 11	 lea	 esi, DWORD PTR [ecx+edx]
  00010	85 c0		 test	 eax, eax
  00012	76 0c		 jbe	 SHORT $LN18@Uninit_mov@3
  00014	51		 push	 ecx
  00015	57		 push	 edi
  00016	51		 push	 ecx
  00017	52		 push	 edx
  00018	e8 00 00 00 00	 call	 _memmove_s
  0001d	83 c4 10	 add	 esp, 16			; 00000010H
$LN18@Uninit_mov@3:
  00020	8b c6		 mov	 eax, esi
  00022	5e		 pop	 esi

; 206  : 	}

  00023	c3		 ret	 0
??$_Uninit_move@PAIPAIV?$allocator@I@std@@U_Undefined_move_tag@2@@std@@YAPAIPAI00AAV?$allocator@I@0@U_Undefined_move_tag@0@U_Range_checked_iterator_tag@0@@Z ENDP ; std::_Uninit_move<unsigned int *,unsigned int *,std::allocator<unsigned int>,std::_Undefined_move_tag>
; Function compile flags: /Ogtpy
; File c:\program files\microsoft visual studio 9.0\vc\include\xutility
_TEXT	ENDS
;	COMDAT ??$unchecked_fill_n@PAIII@stdext@@YAXPAIIABI@Z
_TEXT	SEGMENT
__First$ = 8						; size = 4
??$unchecked_fill_n@PAIII@stdext@@YAXPAIIABI@Z PROC	; stdext::unchecked_fill_n<unsigned int *,unsigned int,unsigned int>, COMDAT
; __Count$ = eax
; __Val$ = edx

; 3695 : 		_STD _Fill_n(_First, _Count, _Val, _STD _Iter_cat(_First), _STD _Range_checked_iterator_tag());

  00000	8b 4c 24 04	 mov	 ecx, DWORD PTR __First$[esp-4]
  00004	85 c0		 test	 eax, eax
  00006	76 15		 jbe	 SHORT $LN11@unchecked_@10
  00008	56		 push	 esi
  00009	8d a4 24 00 00
	00 00		 npad	 7
$LL13@unchecked_@10:
  00010	8b 32		 mov	 esi, DWORD PTR [edx]
  00012	89 31		 mov	 DWORD PTR [ecx], esi
  00014	48		 dec	 eax
  00015	83 c1 04	 add	 ecx, 4
  00018	85 c0		 test	 eax, eax
  0001a	77 f4		 ja	 SHORT $LL13@unchecked_@10
  0001c	5e		 pop	 esi
$LN11@unchecked_@10:

; 3696 : 	}

  0001d	c3		 ret	 0
??$unchecked_fill_n@PAIII@stdext@@YAXPAIIABI@Z ENDP	; stdext::unchecked_fill_n<unsigned int *,unsigned int,unsigned int>
; Function compile flags: /Ogtpy
_TEXT	ENDS
;	COMDAT ??$_Move_backward_opt@PAIPAIUrandom_access_iterator_tag@std@@U_Undefined_move_tag@2@@std@@YAPAIPAI00Urandom_access_iterator_tag@0@U_Undefined_move_tag@0@U_Range_checked_iterator_tag@0@@Z
_TEXT	SEGMENT
__First_dest_cat$ = 8					; size = 1
___formal$ = 12						; size = 1
___formal$ = 16						; size = 1
??$_Move_backward_opt@PAIPAIUrandom_access_iterator_tag@std@@U_Undefined_move_tag@2@@std@@YAPAIPAI00Urandom_access_iterator_tag@0@U_Undefined_move_tag@0@U_Range_checked_iterator_tag@0@@Z PROC ; std::_Move_backward_opt<unsigned int *,unsigned int *,std::random_access_iterator_tag,std::_Undefined_move_tag>, COMDAT
; __First$ = edi
; __Last$ = eax
; __Dest$ = ecx

; 2727 : 	return _Copy_backward_opt(_First, _Last, _Dest,
; 2728 : 		_First_dest_cat, _Ptr_cat(_First, _Dest), _Range_checked_iterator_tag());

  00000	2b c7		 sub	 eax, edi
  00002	c1 f8 02	 sar	 eax, 2
  00005	8d 14 85 00 00
	00 00		 lea	 edx, DWORD PTR [eax*4]
  0000c	2b ca		 sub	 ecx, edx
  0000e	56		 push	 esi
  0000f	8b f1		 mov	 esi, ecx
  00011	85 c0		 test	 eax, eax
  00013	7e 0c		 jle	 SHORT $LN8@Move_backw@3
  00015	52		 push	 edx
  00016	57		 push	 edi
  00017	52		 push	 edx
  00018	56		 push	 esi
  00019	e8 00 00 00 00	 call	 _memmove_s
  0001e	83 c4 10	 add	 esp, 16			; 00000010H
$LN8@Move_backw@3:
  00021	8b c6		 mov	 eax, esi
  00023	5e		 pop	 esi

; 2729 : 	}

  00024	c3		 ret	 0
??$_Move_backward_opt@PAIPAIUrandom_access_iterator_tag@std@@U_Undefined_move_tag@2@@std@@YAPAIPAI00Urandom_access_iterator_tag@0@U_Undefined_move_tag@0@U_Range_checked_iterator_tag@0@@Z ENDP ; std::_Move_backward_opt<unsigned int *,unsigned int *,std::random_access_iterator_tag,std::_Undefined_move_tag>
; Function compile flags: /Ogtpy
; File c:\program files\microsoft visual studio 9.0\vc\include\memory
_TEXT	ENDS
;	COMDAT ??$_Unchecked_uninitialized_move@PAIPAIV?$allocator@I@std@@@stdext@@YAPAIPAI00AAV?$allocator@I@std@@@Z
_TEXT	SEGMENT
??$_Unchecked_uninitialized_move@PAIPAIV?$allocator@I@std@@@stdext@@YAPAIPAI00AAV?$allocator@I@std@@@Z PROC ; stdext::_Unchecked_uninitialized_move<unsigned int *,unsigned int *,std::allocator<unsigned int> >, COMDAT
; __First$ = edi
; __Last$ = eax
; __Dest$ = edx

; 850  : 		return (_STD _Uninit_move(_CHECKED_BASE(_First), _CHECKED_BASE(_Last), _Dest, _Al,
; 851  : 			_STD _Move_cat(_Dest), _STD _Range_checked_iterator_tag()));

  00000	2b c7		 sub	 eax, edi
  00002	c1 f8 02	 sar	 eax, 2
  00005	8d 0c 85 00 00
	00 00		 lea	 ecx, DWORD PTR [eax*4]
  0000c	56		 push	 esi
  0000d	8d 34 11	 lea	 esi, DWORD PTR [ecx+edx]
  00010	85 c0		 test	 eax, eax
  00012	76 0c		 jbe	 SHORT $LN30@Unchecked_@5
  00014	51		 push	 ecx
  00015	57		 push	 edi
  00016	51		 push	 ecx
  00017	52		 push	 edx
  00018	e8 00 00 00 00	 call	 _memmove_s
  0001d	83 c4 10	 add	 esp, 16			; 00000010H
$LN30@Unchecked_@5:
  00020	8b c6		 mov	 eax, esi
  00022	5e		 pop	 esi

; 852  : 	}

  00023	c3		 ret	 0
??$_Unchecked_uninitialized_move@PAIPAIV?$allocator@I@std@@@stdext@@YAPAIPAI00AAV?$allocator@I@std@@@Z ENDP ; stdext::_Unchecked_uninitialized_move<unsigned int *,unsigned int *,std::allocator<unsigned int> >
; Function compile flags: /Ogtpy
_TEXT	ENDS
;	COMDAT ??$_Uninit_fill_n@PAIIIV?$allocator@I@std@@@std@@YAXPAIIABIAAV?$allocator@I@0@U_Scalar_ptr_iterator_tag@0@U_Range_checked_iterator_tag@0@@Z
_TEXT	SEGMENT
__First$ = 8						; size = 4
___formal$ = 12						; size = 1
___formal$ = 16						; size = 1
??$_Uninit_fill_n@PAIIIV?$allocator@I@std@@@std@@YAXPAIIABIAAV?$allocator@I@0@U_Scalar_ptr_iterator_tag@0@U_Range_checked_iterator_tag@0@@Z PROC ; std::_Uninit_fill_n<unsigned int *,unsigned int,unsigned int,std::allocator<unsigned int> >, COMDAT
; __Count$ = eax
; __Val$ = edx

; 415  : 		_STDEXT unchecked_fill_n(_First, _Count, _Val);

  00000	8b 4c 24 04	 mov	 ecx, DWORD PTR __First$[esp-4]
  00004	85 c0		 test	 eax, eax
  00006	76 15		 jbe	 SHORT $LN13@Uninit_fil@3
  00008	56		 push	 esi
  00009	8d a4 24 00 00
	00 00		 npad	 7
$LL15@Uninit_fil@3:
  00010	8b 32		 mov	 esi, DWORD PTR [edx]
  00012	89 31		 mov	 DWORD PTR [ecx], esi
  00014	48		 dec	 eax
  00015	83 c1 04	 add	 ecx, 4
  00018	85 c0		 test	 eax, eax
  0001a	77 f4		 ja	 SHORT $LL15@Uninit_fil@3
  0001c	5e		 pop	 esi
$LN13@Uninit_fil@3:

; 416  : 	}

  0001d	c3		 ret	 0
??$_Uninit_fill_n@PAIIIV?$allocator@I@std@@@std@@YAXPAIIABIAAV?$allocator@I@0@U_Scalar_ptr_iterator_tag@0@U_Range_checked_iterator_tag@0@@Z ENDP ; std::_Uninit_fill_n<unsigned int *,unsigned int,unsigned int,std::allocator<unsigned int> >
; Function compile flags: /Ogtpy
; File c:\program files\microsoft visual studio 9.0\vc\include\xmemory
_TEXT	ENDS
;	COMDAT ??$_Allocate@I@std@@YAPAIIPAI@Z
_TEXT	SEGMENT
$T53929 = -16						; size = 4
$T53921 = -12						; size = 12
??$_Allocate@I@std@@YAPAIIPAI@Z PROC			; std::_Allocate<unsigned int>, COMDAT
; __Count$ = ecx

; 37   : 	if (_Count <= 0)
; 38   : 		_Count = 0;
; 39   : 	else if (((_SIZT)(-1) / _Count) < sizeof (_Ty))

  00000	83 c8 ff	 or	 eax, -1
  00003	33 d2		 xor	 edx, edx
  00005	f7 f1		 div	 ecx
  00007	83 ec 10	 sub	 esp, 16			; 00000010H
  0000a	83 f8 04	 cmp	 eax, 4
  0000d	73 2c		 jae	 SHORT $LN1@Allocate@4

; 40   : 		_THROW_NCEE(std::bad_alloc, NULL);

  0000f	8d 04 24	 lea	 eax, DWORD PTR $T53929[esp+16]
  00012	50		 push	 eax
  00013	8d 4c 24 08	 lea	 ecx, DWORD PTR $T53921[esp+20]
  00017	c7 44 24 04 00
	00 00 00	 mov	 DWORD PTR $T53929[esp+20], 0
  0001f	e8 00 00 00 00	 call	 ??0exception@std@@QAE@ABQBD@Z ; std::exception::exception
  00024	68 00 00 00 00	 push	 OFFSET __TI2?AVbad_alloc@std@@
  00029	8d 4c 24 08	 lea	 ecx, DWORD PTR $T53921[esp+20]
  0002d	51		 push	 ecx
  0002e	c7 44 24 0c 00
	00 00 00	 mov	 DWORD PTR $T53921[esp+24], OFFSET ??_7bad_alloc@std@@6B@
  00036	e8 00 00 00 00	 call	 __CxxThrowException@8
$LN13@Allocate@4:
$LN1@Allocate@4:

; 41   : 
; 42   : 		// allocate storage for _Count elements of type _Ty
; 43   : 	return ((_Ty _FARQ *)::operator new(_Count * sizeof (_Ty)));

  0003b	8d 14 8d 00 00
	00 00		 lea	 edx, DWORD PTR [ecx*4]
  00042	52		 push	 edx
  00043	e8 00 00 00 00	 call	 ??2@YAPAXI@Z		; operator new
  00048	83 c4 04	 add	 esp, 4

; 44   : 	}

  0004b	83 c4 10	 add	 esp, 16			; 00000010H
  0004e	c3		 ret	 0
$LN12@Allocate@4:
??$_Allocate@I@std@@YAPAIIPAI@Z ENDP			; std::_Allocate<unsigned int>
; Function compile flags: /Ogtpy
; File c:\program files\microsoft visual studio 9.0\vc\include\xutility
_TEXT	ENDS
;	COMDAT ??$_Unchecked_move_backward@PAIPAI@stdext@@YAPAIPAI00@Z
_TEXT	SEGMENT
??$_Unchecked_move_backward@PAIPAI@stdext@@YAPAIPAI00@Z PROC ; stdext::_Unchecked_move_backward<unsigned int *,unsigned int *>, COMDAT
; __First$ = edi
; __Last$ = eax
; __Dest$ = ecx

; 3669 : 		return (_STD _Move_backward_opt(_CHECKED_BASE(_First), _CHECKED_BASE(_Last), _Dest,
; 3670 : 			_STD _Iter_random(_First, _Dest), _STD _Move_cat(_Dest), _STD _Range_checked_iterator_tag()));

  00000	2b c7		 sub	 eax, edi
  00002	c1 f8 02	 sar	 eax, 2
  00005	8d 14 85 00 00
	00 00		 lea	 edx, DWORD PTR [eax*4]
  0000c	2b ca		 sub	 ecx, edx
  0000e	56		 push	 esi
  0000f	8b f1		 mov	 esi, ecx
  00011	85 c0		 test	 eax, eax
  00013	7e 0c		 jle	 SHORT $LN22@Unchecked_@6
  00015	52		 push	 edx
  00016	57		 push	 edi
  00017	52		 push	 edx
  00018	56		 push	 esi
  00019	e8 00 00 00 00	 call	 _memmove_s
  0001e	83 c4 10	 add	 esp, 16			; 00000010H
$LN22@Unchecked_@6:
  00021	8b c6		 mov	 eax, esi
  00023	5e		 pop	 esi

; 3671 : 	}

  00024	c3		 ret	 0
??$_Unchecked_move_backward@PAIPAI@stdext@@YAPAIPAI00@Z ENDP ; stdext::_Unchecked_move_backward<unsigned int *,unsigned int *>
; Function compile flags: /Ogtpy
; File c:\program files\microsoft visual studio 9.0\vc\include\vector
_TEXT	ENDS
;	COMDAT ??$_Umove@PAI@?$vector@IV?$allocator@I@std@@@std@@IAEPAIPAI00@Z
_TEXT	SEGMENT
??$_Umove@PAI@?$vector@IV?$allocator@I@std@@@std@@IAEPAIPAI00@Z PROC ; std::vector<unsigned int,std::allocator<unsigned int> >::_Umove<unsigned int *>, COMDAT
; __First$ = edi
; __Last$ = eax
; __Ptr$ = edx

; 1151 : 		{	// move initializing [_First, _Last), using allocator
; 1152 : 		return (_STDEXT _Unchecked_uninitialized_move(_First, _Last,
; 1153 : 			_Ptr, this->_Alval));

  00000	2b c7		 sub	 eax, edi
  00002	c1 f8 02	 sar	 eax, 2
  00005	8d 0c 85 00 00
	00 00		 lea	 ecx, DWORD PTR [eax*4]
  0000c	56		 push	 esi
  0000d	8d 34 11	 lea	 esi, DWORD PTR [ecx+edx]
  00010	85 c0		 test	 eax, eax
  00012	76 0c		 jbe	 SHORT $LN32@Umove@3
  00014	51		 push	 ecx
  00015	57		 push	 edi
  00016	51		 push	 ecx
  00017	52		 push	 edx
  00018	e8 00 00 00 00	 call	 _memmove_s
  0001d	83 c4 10	 add	 esp, 16			; 00000010H
$LN32@Umove@3:
  00020	8b c6		 mov	 eax, esi
  00022	5e		 pop	 esi

; 1154 : 		}

  00023	c3		 ret	 0
??$_Umove@PAI@?$vector@IV?$allocator@I@std@@@std@@IAEPAIPAI00@Z ENDP ; std::vector<unsigned int,std::allocator<unsigned int> >::_Umove<unsigned int *>
; Function compile flags: /Ogtpy
; File c:\program files\microsoft visual studio 9.0\vc\include\memory
_TEXT	ENDS
;	COMDAT ??$unchecked_uninitialized_fill_n@PAIIIV?$allocator@I@std@@@stdext@@YAXPAIIABIAAV?$allocator@I@std@@@Z
_TEXT	SEGMENT
__First$ = 8						; size = 4
??$unchecked_uninitialized_fill_n@PAIIIV?$allocator@I@std@@@stdext@@YAXPAIIABIAAV?$allocator@I@std@@@Z PROC ; stdext::unchecked_uninitialized_fill_n<unsigned int *,unsigned int,unsigned int,std::allocator<unsigned int> >, COMDAT
; __Count$ = eax
; __Val$ = edx

; 921  : 		_STD _Uninit_fill_n(_First, _Count, _Val, _Al,
; 922  : 			_STD _Ptr_cat(_First, _First), _STD _Range_checked_iterator_tag());

  00000	8b 4c 24 04	 mov	 ecx, DWORD PTR __First$[esp-4]
  00004	85 c0		 test	 eax, eax
  00006	76 15		 jbe	 SHORT $LN17@unchecked_@11
  00008	56		 push	 esi
  00009	8d a4 24 00 00
	00 00		 npad	 7
$LL19@unchecked_@11:
  00010	8b 32		 mov	 esi, DWORD PTR [edx]
  00012	89 31		 mov	 DWORD PTR [ecx], esi
  00014	48		 dec	 eax
  00015	83 c1 04	 add	 ecx, 4
  00018	85 c0		 test	 eax, eax
  0001a	77 f4		 ja	 SHORT $LL19@unchecked_@11
  0001c	5e		 pop	 esi
$LN17@unchecked_@11:

; 923  : 	}

  0001d	c3		 ret	 0
??$unchecked_uninitialized_fill_n@PAIIIV?$allocator@I@std@@@stdext@@YAXPAIIABIAAV?$allocator@I@std@@@Z ENDP ; stdext::unchecked_uninitialized_fill_n<unsigned int *,unsigned int,unsigned int,std::allocator<unsigned int> >
; Function compile flags: /Ogtpy
_TEXT	ENDS
;	COMDAT ??0?$_Iterator_with_base@Urandom_access_iterator_tag@std@@IHPBIABIV_Iterator_base_aux@2@@std@@QAE@XZ
_TEXT	SEGMENT
??0?$_Iterator_with_base@Urandom_access_iterator_tag@std@@IHPBIABIV_Iterator_base_aux@2@@std@@QAE@XZ PROC ; std::_Iterator_with_base<std::random_access_iterator_tag,unsigned int,int,unsigned int const *,unsigned int const &,std::_Iterator_base_aux>::_Iterator_with_base<std::random_access_iterator_tag,unsigned int,int,unsigned int const *,unsigned int const &,std::_Iterator_base_aux>, COMDAT
; _this$ = eax
  00000	c7 00 00 00 00
	00		 mov	 DWORD PTR [eax], 0
  00006	c3		 ret	 0
??0?$_Iterator_with_base@Urandom_access_iterator_tag@std@@IHPBIABIV_Iterator_base_aux@2@@std@@QAE@XZ ENDP ; std::_Iterator_with_base<std::random_access_iterator_tag,unsigned int,int,unsigned int const *,unsigned int const &,std::_Iterator_base_aux>::_Iterator_with_base<std::random_access_iterator_tag,unsigned int,int,unsigned int const *,unsigned int const &,std::_Iterator_base_aux>
; Function compile flags: /Ogtpy
_TEXT	ENDS
;	COMDAT ??0?$_Ranit@IHPBIABI@std@@QAE@XZ
_TEXT	SEGMENT
??0?$_Ranit@IHPBIABI@std@@QAE@XZ PROC			; std::_Ranit<unsigned int,int,unsigned int const *,unsigned int const &>::_Ranit<unsigned int,int,unsigned int const *,unsigned int const &>, COMDAT
; _this$ = eax
  00000	c7 00 00 00 00
	00		 mov	 DWORD PTR [eax], 0
  00006	c3		 ret	 0
??0?$_Ranit@IHPBIABI@std@@QAE@XZ ENDP			; std::_Ranit<unsigned int,int,unsigned int const *,unsigned int const &>::_Ranit<unsigned int,int,unsigned int const *,unsigned int const &>
; Function compile flags: /Ogtpy
; File c:\program files\microsoft visual studio 9.0\vc\include\vector
_TEXT	ENDS
;	COMDAT ??G?$_Vector_const_iterator@IV?$allocator@I@std@@@std@@QBEHABV01@@Z
_TEXT	SEGMENT
??G?$_Vector_const_iterator@IV?$allocator@I@std@@@std@@QBEHABV01@@Z PROC ; std::_Vector_const_iterator<unsigned int,std::allocator<unsigned int> >::operator-, COMDAT
; _this$ = edi
; __Right$ = esi

; 187  : 
; 188  :  #if _HAS_ITERATOR_DEBUGGING
; 189  : 		_Compat(_Right);
; 190  :  #else
; 191  : 		_SCL_SECURE_VALIDATE(this->_Has_container() && this->_Same_container(_Right));

  00000	8b 07		 mov	 eax, DWORD PTR [edi]
  00002	85 c0		 test	 eax, eax
  00004	74 04		 je	 SHORT $LN1@operator@10
  00006	3b 06		 cmp	 eax, DWORD PTR [esi]
  00008	74 05		 je	 SHORT $LN2@operator@10
$LN1@operator@10:
  0000a	e8 00 00 00 00	 call	 __invalid_parameter_noinfo
$LN2@operator@10:

; 192  :  #endif /* _HAS_ITERATOR_DEBUGGING */
; 193  : 
; 194  : 		return (_Myptr - _Right._Myptr);

  0000f	8b 47 04	 mov	 eax, DWORD PTR [edi+4]
  00012	2b 46 04	 sub	 eax, DWORD PTR [esi+4]
  00015	c1 f8 02	 sar	 eax, 2

; 195  : 		}

  00018	c3		 ret	 0
??G?$_Vector_const_iterator@IV?$allocator@I@std@@@std@@QBEHABV01@@Z ENDP ; std::_Vector_const_iterator<unsigned int,std::allocator<unsigned int> >::operator-
; Function compile flags: /Ogtpy
_TEXT	ENDS
;	COMDAT ??0?$_Vector_const_iterator@IV?$allocator@I@std@@@std@@QAE@PAIPBV_Container_base_aux@1@@Z
_TEXT	SEGMENT
__Ptr$ = 8						; size = 4
??0?$_Vector_const_iterator@IV?$allocator@I@std@@@std@@QAE@PAIPBV_Container_base_aux@1@@Z PROC ; std::_Vector_const_iterator<unsigned int,std::allocator<unsigned int> >::_Vector_const_iterator<unsigned int,std::allocator<unsigned int> >, COMDAT
; _this$ = edi
; __Pvector$ = esi

; 76   : 	_Vector_const_iterator(_Tptr _Ptr, const _Container_base *_Pvector)

  00000	53		 push	 ebx
  00001	8b 5c 24 08	 mov	 ebx, DWORD PTR __Ptr$[esp]
  00005	c7 07 00 00 00
	00		 mov	 DWORD PTR [edi], 0

; 77   : 		{	// construct with pointer _Ptr
; 78   : 		_SCL_SECURE_VALIDATE(_Pvector != NULL && ((_Myvec *)_Pvector)->_Myfirst <= _Ptr && _Ptr <= ((_Myvec *)_Pvector)->_Mylast);

  0000b	85 f6		 test	 esi, esi
  0000d	74 0a		 je	 SHORT $LN1@Vector_con@4
  0000f	39 5e 0c	 cmp	 DWORD PTR [esi+12], ebx
  00012	77 05		 ja	 SHORT $LN1@Vector_con@4
  00014	3b 5e 10	 cmp	 ebx, DWORD PTR [esi+16]
  00017	76 05		 jbe	 SHORT $LN2@Vector_con@4
$LN1@Vector_con@4:
  00019	e8 00 00 00 00	 call	 __invalid_parameter_noinfo
$LN2@Vector_con@4:

; 79   : 		this->_Set_container(_Pvector);

  0001e	8b 06		 mov	 eax, DWORD PTR [esi]
  00020	89 07		 mov	 DWORD PTR [edi], eax

; 80   : 		_Myptr = _Ptr;

  00022	89 5f 04	 mov	 DWORD PTR [edi+4], ebx

; 81   : 		}

  00025	8b c7		 mov	 eax, edi
  00027	5b		 pop	 ebx
  00028	c2 04 00	 ret	 4
??0?$_Vector_const_iterator@IV?$allocator@I@std@@@std@@QAE@PAIPBV_Container_base_aux@1@@Z ENDP ; std::_Vector_const_iterator<unsigned int,std::allocator<unsigned int> >::_Vector_const_iterator<unsigned int,std::allocator<unsigned int> >
; Function compile flags: /Ogtpy
; File c:\program files\microsoft visual studio 9.0\vc\include\xmemory
_TEXT	ENDS
;	COMDAT ?allocate@?$allocator@I@std@@QAEPAII@Z
_TEXT	SEGMENT
$T54319 = -16						; size = 4
$T54321 = -12						; size = 12
?allocate@?$allocator@I@std@@QAEPAII@Z PROC		; std::allocator<unsigned int>::allocate, COMDAT
; __Count$ = ecx

; 144  : 		{	// allocate array of _Count elements

  00000	83 ec 10	 sub	 esp, 16			; 00000010H

; 145  : 		return (_Allocate(_Count, (pointer)0));

  00003	85 c9		 test	 ecx, ecx
  00005	77 16		 ja	 SHORT $LN5@allocate@3
  00007	33 c9		 xor	 ecx, ecx
$LN3@allocate@3:
  00009	8d 14 8d 00 00
	00 00		 lea	 edx, DWORD PTR [ecx*4]
  00010	52		 push	 edx
  00011	e8 00 00 00 00	 call	 ??2@YAPAXI@Z		; operator new
  00016	83 c4 04	 add	 esp, 4

; 146  : 		}

  00019	83 c4 10	 add	 esp, 16			; 00000010H
  0001c	c3		 ret	 0

; 145  : 		return (_Allocate(_Count, (pointer)0));

$LN5@allocate@3:
  0001d	83 c8 ff	 or	 eax, -1
  00020	33 d2		 xor	 edx, edx
  00022	f7 f1		 div	 ecx
  00024	83 f8 04	 cmp	 eax, 4
  00027	73 e0		 jae	 SHORT $LN3@allocate@3
  00029	8d 04 24	 lea	 eax, DWORD PTR $T54319[esp+16]
  0002c	50		 push	 eax
  0002d	8d 4c 24 08	 lea	 ecx, DWORD PTR $T54321[esp+20]
  00031	c7 44 24 04 00
	00 00 00	 mov	 DWORD PTR $T54319[esp+20], 0
  00039	e8 00 00 00 00	 call	 ??0exception@std@@QAE@ABQBD@Z ; std::exception::exception
  0003e	68 00 00 00 00	 push	 OFFSET __TI2?AVbad_alloc@std@@
  00043	8d 4c 24 08	 lea	 ecx, DWORD PTR $T54321[esp+20]
  00047	51		 push	 ecx
  00048	c7 44 24 0c 00
	00 00 00	 mov	 DWORD PTR $T54321[esp+24], OFFSET ??_7bad_alloc@std@@6B@
  00050	e8 00 00 00 00	 call	 __CxxThrowException@8
$LN12@allocate@3:
$LN11@allocate@3:
  00055	cc		 int	 3
?allocate@?$allocator@I@std@@QAEPAII@Z ENDP		; std::allocator<unsigned int>::allocate
; Function compile flags: /Ogtpy
; File c:\program files\microsoft visual studio 9.0\vc\include\xutility
_TEXT	ENDS
;	COMDAT ??1?$_Container_base_aux_alloc_real@V?$allocator@I@std@@@std@@IAE@XZ
_TEXT	SEGMENT
??1?$_Container_base_aux_alloc_real@V?$allocator@I@std@@@std@@IAE@XZ PROC ; std::_Container_base_aux_alloc_real<std::allocator<unsigned int> >::~_Container_base_aux_alloc_real<std::allocator<unsigned int> >, COMDAT
; _this$ = eax

; 437  : 		_Myownedaux->~_Aux_cont();
; 438  : 
; 439  : 		_Alaux.deallocate(_Myownedaux, 1);

  00000	8b 08		 mov	 ecx, DWORD PTR [eax]
  00002	51		 push	 ecx
  00003	e8 00 00 00 00	 call	 ??3@YAXPAX@Z		; operator delete
  00008	59		 pop	 ecx

; 440  : 		}

  00009	c3		 ret	 0
??1?$_Container_base_aux_alloc_real@V?$allocator@I@std@@@std@@IAE@XZ ENDP ; std::_Container_base_aux_alloc_real<std::allocator<unsigned int> >::~_Container_base_aux_alloc_real<std::allocator<unsigned int> >
; Function compile flags: /Ogtpy
; File c:\program files\microsoft visual studio 9.0\vc\include\vector
_TEXT	ENDS
;	COMDAT ?_Ufill@?$vector@IV?$allocator@I@std@@@std@@IAEPAIPAIIABI@Z
_TEXT	SEGMENT
?_Ufill@?$vector@IV?$allocator@I@std@@@std@@IAEPAIPAIIABI@Z PROC ; std::vector<unsigned int,std::allocator<unsigned int> >::_Ufill, COMDAT
; __Ptr$ = edi
; __Count$ = esi
; __Val$ = edx

; 1252 : 		_STDEXT unchecked_uninitialized_fill_n(_Ptr, _Count, _Val, this->_Alval);

  00000	8b c6		 mov	 eax, esi
  00002	8b cf		 mov	 ecx, edi
  00004	85 f6		 test	 esi, esi
  00006	76 15		 jbe	 SHORT $LN26@Ufill@3
  00008	53		 push	 ebx
  00009	8d a4 24 00 00
	00 00		 npad	 7
$LL21@Ufill@3:
  00010	8b 1a		 mov	 ebx, DWORD PTR [edx]
  00012	89 19		 mov	 DWORD PTR [ecx], ebx
  00014	48		 dec	 eax
  00015	83 c1 04	 add	 ecx, 4
  00018	85 c0		 test	 eax, eax
  0001a	77 f4		 ja	 SHORT $LL21@Ufill@3
  0001c	5b		 pop	 ebx
$LN26@Ufill@3:

; 1253 : 		return (_Ptr + _Count);

  0001d	8d 04 b7	 lea	 eax, DWORD PTR [edi+esi*4]

; 1254 : 		}

  00020	c3		 ret	 0
?_Ufill@?$vector@IV?$allocator@I@std@@@std@@IAEPAIPAIIABI@Z ENDP ; std::vector<unsigned int,std::allocator<unsigned int> >::_Ufill
; Function compile flags: /Ogtpy
_TEXT	ENDS
;	COMDAT ?end@?$vector@IV?$allocator@I@std@@@std@@QBE?AV?$_Vector_const_iterator@IV?$allocator@I@std@@@2@XZ
_TEXT	SEGMENT
?end@?$vector@IV?$allocator@I@std@@@std@@QBE?AV?$_Vector_const_iterator@IV?$allocator@I@std@@@2@XZ PROC ; std::vector<unsigned int,std::allocator<unsigned int> >::end, COMDAT
; _this$ = edi
; ___$ReturnUdt$ = esi

; 655  : 		{	// return iterator for end of nonmutable sequence

  00000	53		 push	 ebx

; 656  : 		return (const_iterator(_Mylast, this));

  00001	8b 5f 10	 mov	 ebx, DWORD PTR [edi+16]
  00004	c7 06 00 00 00
	00		 mov	 DWORD PTR [esi], 0
  0000a	39 5f 0c	 cmp	 DWORD PTR [edi+12], ebx
  0000d	76 05		 jbe	 SHORT $LN4@end@4
  0000f	e8 00 00 00 00	 call	 __invalid_parameter_noinfo
$LN4@end@4:
  00014	8b 07		 mov	 eax, DWORD PTR [edi]
  00016	89 06		 mov	 DWORD PTR [esi], eax
  00018	89 5e 04	 mov	 DWORD PTR [esi+4], ebx
  0001b	8b c6		 mov	 eax, esi
  0001d	5b		 pop	 ebx

; 657  : 		}

  0001e	c3		 ret	 0
?end@?$vector@IV?$allocator@I@std@@@std@@QBE?AV?$_Vector_const_iterator@IV?$allocator@I@std@@@2@XZ ENDP ; std::vector<unsigned int,std::allocator<unsigned int> >::end
; Function compile flags: /Ogtpy
_TEXT	ENDS
;	COMDAT ?begin@?$vector@IV?$allocator@I@std@@@std@@QBE?AV?$_Vector_const_iterator@IV?$allocator@I@std@@@2@XZ
_TEXT	SEGMENT
?begin@?$vector@IV?$allocator@I@std@@@std@@QBE?AV?$_Vector_const_iterator@IV?$allocator@I@std@@@2@XZ PROC ; std::vector<unsigned int,std::allocator<unsigned int> >::begin, COMDAT
; _this$ = edi
; ___$ReturnUdt$ = esi

; 645  : 		{	// return iterator for beginning of nonmutable sequence

  00000	53		 push	 ebx

; 646  : 		return (const_iterator(_Myfirst, this));

  00001	8b 5f 0c	 mov	 ebx, DWORD PTR [edi+12]
  00004	c7 06 00 00 00
	00		 mov	 DWORD PTR [esi], 0
  0000a	3b 5f 10	 cmp	 ebx, DWORD PTR [edi+16]
  0000d	76 05		 jbe	 SHORT $LN4@begin@4
  0000f	e8 00 00 00 00	 call	 __invalid_parameter_noinfo
$LN4@begin@4:
  00014	8b 07		 mov	 eax, DWORD PTR [edi]
  00016	89 06		 mov	 DWORD PTR [esi], eax
  00018	89 5e 04	 mov	 DWORD PTR [esi+4], ebx
  0001b	8b c6		 mov	 eax, esi
  0001d	5b		 pop	 ebx

; 647  : 		}

  0001e	c3		 ret	 0
?begin@?$vector@IV?$allocator@I@std@@@std@@QBE?AV?$_Vector_const_iterator@IV?$allocator@I@std@@@2@XZ ENDP ; std::vector<unsigned int,std::allocator<unsigned int> >::begin
; Function compile flags: /Ogtpy
_TEXT	ENDS
;	COMDAT ??1?$_Vector_val@IV?$allocator@I@std@@@std@@QAE@XZ
_TEXT	SEGMENT
??1?$_Vector_val@IV?$allocator@I@std@@@std@@QAE@XZ PROC	; std::_Vector_val<unsigned int,std::allocator<unsigned int> >::~_Vector_val<unsigned int,std::allocator<unsigned int> >, COMDAT
; _this$ = eax
  00000	8b 08		 mov	 ecx, DWORD PTR [eax]
  00002	51		 push	 ecx
  00003	e8 00 00 00 00	 call	 ??3@YAXPAX@Z		; operator delete
  00008	59		 pop	 ecx
  00009	c3		 ret	 0
??1?$_Vector_val@IV?$allocator@I@std@@@std@@QAE@XZ ENDP	; std::_Vector_val<unsigned int,std::allocator<unsigned int> >::~_Vector_val<unsigned int,std::allocator<unsigned int> >
; Function compile flags: /Ogtpy
_TEXT	ENDS
;	COMDAT ??1?$vector@IV?$allocator@I@std@@@std@@QAE@XZ
_TEXT	SEGMENT
??1?$vector@IV?$allocator@I@std@@@std@@QAE@XZ PROC	; std::vector<unsigned int,std::allocator<unsigned int> >::~vector<unsigned int,std::allocator<unsigned int> >, COMDAT
; _this$ = esi

; 559  : 		_Tidy();

  00000	8b 46 0c	 mov	 eax, DWORD PTR [esi+12]
  00003	85 c0		 test	 eax, eax
  00005	74 09		 je	 SHORT $LN6@vector@4
  00007	50		 push	 eax
  00008	e8 00 00 00 00	 call	 ??3@YAXPAX@Z		; operator delete
  0000d	83 c4 04	 add	 esp, 4
$LN6@vector@4:

; 560  : 		}

  00010	8b 06		 mov	 eax, DWORD PTR [esi]
  00012	50		 push	 eax
  00013	c7 46 0c 00 00
	00 00		 mov	 DWORD PTR [esi+12], 0
  0001a	c7 46 10 00 00
	00 00		 mov	 DWORD PTR [esi+16], 0
  00021	c7 46 14 00 00
	00 00		 mov	 DWORD PTR [esi+20], 0
  00028	e8 00 00 00 00	 call	 ??3@YAXPAX@Z		; operator delete
  0002d	59		 pop	 ecx
  0002e	c3		 ret	 0
??1?$vector@IV?$allocator@I@std@@@std@@QAE@XZ ENDP	; std::vector<unsigned int,std::allocator<unsigned int> >::~vector<unsigned int,std::allocator<unsigned int> >
; Function compile flags: /Ogtpy
_TEXT	ENDS
;	COMDAT ??A?$vector@HV?$allocator@H@std@@@std@@QAEAAHI@Z
_TEXT	SEGMENT
??A?$vector@HV?$allocator@H@std@@@std@@QAEAAHI@Z PROC	; std::vector<int,std::allocator<int> >::operator[], COMDAT
; _this$ = esi
; __Pos$ = edi

; 775  : 
; 776  :  #if _HAS_ITERATOR_DEBUGGING
; 777  : 		if (size() <= _Pos)
; 778  : 			{
; 779  : 			_DEBUG_ERROR("vector subscript out of range");
; 780  : 			_SCL_SECURE_OUT_OF_RANGE;
; 781  : 			}
; 782  :  #endif /* _HAS_ITERATOR_DEBUGGING */
; 783  : 		_SCL_SECURE_VALIDATE_RANGE(_Pos < size());

  00000	8b 46 10	 mov	 eax, DWORD PTR [esi+16]
  00003	2b 46 0c	 sub	 eax, DWORD PTR [esi+12]
  00006	c1 f8 02	 sar	 eax, 2
  00009	3b f8		 cmp	 edi, eax
  0000b	72 05		 jb	 SHORT $LN1@operator@11
  0000d	e8 00 00 00 00	 call	 __invalid_parameter_noinfo
$LN1@operator@11:

; 784  : 
; 785  : 		return (*(_Myfirst + _Pos));

  00012	8b 4e 0c	 mov	 ecx, DWORD PTR [esi+12]
  00015	8d 04 b9	 lea	 eax, DWORD PTR [ecx+edi*4]

; 786  : 		}

  00018	c3		 ret	 0
??A?$vector@HV?$allocator@H@std@@@std@@QAEAAHI@Z ENDP	; std::vector<int,std::allocator<int> >::operator[]
; Function compile flags: /Ogtpy
;	COMDAT ??Y?$_Vector_const_iterator@IV?$allocator@I@std@@@std@@QAEAAV01@H@Z
_TEXT	SEGMENT
__Off$ = 8						; size = 4
??Y?$_Vector_const_iterator@IV?$allocator@I@std@@@std@@QAEAAV01@H@Z PROC ; std::_Vector_const_iterator<unsigned int,std::allocator<unsigned int> >::operator+=, COMDAT
; _this$ = esi

; 160  : 		_SCL_SECURE_VALIDATE(this->_Has_container());

  00000	8b 06		 mov	 eax, DWORD PTR [esi]
  00002	85 c0		 test	 eax, eax
  00004	75 0b		 jne	 SHORT $LN20@operator@28
  00006	e8 00 00 00 00	 call	 __invalid_parameter_noinfo

; 161  : 		_SCL_SECURE_VALIDATE_RANGE(

  0000b	8b 06		 mov	 eax, DWORD PTR [esi]
  0000d	85 c0		 test	 eax, eax
  0000f	74 04		 je	 SHORT $LN10@operator@28
$LN20@operator@28:
  00011	8b 10		 mov	 edx, DWORD PTR [eax]
  00013	eb 02		 jmp	 SHORT $LN11@operator@28
$LN10@operator@28:
  00015	33 d2		 xor	 edx, edx
$LN11@operator@28:
  00017	8b 4e 04	 mov	 ecx, DWORD PTR [esi+4]
  0001a	57		 push	 edi
  0001b	8b 7c 24 08	 mov	 edi, DWORD PTR __Off$[esp]
  0001f	03 ff		 add	 edi, edi
  00021	03 ff		 add	 edi, edi
  00023	03 cf		 add	 ecx, edi
  00025	3b 4a 10	 cmp	 ecx, DWORD PTR [edx+16]
  00028	77 0f		 ja	 SHORT $LN1@operator@28
  0002a	85 c0		 test	 eax, eax
  0002c	74 04		 je	 SHORT $LN16@operator@28
  0002e	8b 00		 mov	 eax, DWORD PTR [eax]
  00030	eb 02		 jmp	 SHORT $LN17@operator@28
$LN16@operator@28:
  00032	33 c0		 xor	 eax, eax
$LN17@operator@28:
  00034	3b 48 0c	 cmp	 ecx, DWORD PTR [eax+12]
  00037	73 05		 jae	 SHORT $LN21@operator@28
$LN1@operator@28:

; 162  : 			_Myptr + _Off <= ((_Myvec *)(this->_Getmycont()))->_Mylast &&
; 163  : 			_Myptr + _Off >= ((_Myvec *)(this->_Getmycont()))->_Myfirst);

  00039	e8 00 00 00 00	 call	 __invalid_parameter_noinfo
$LN21@operator@28:

; 164  : 		_Myptr += _Off;

  0003e	01 7e 04	 add	 DWORD PTR [esi+4], edi

; 165  : 		return (*this);

  00041	8b c6		 mov	 eax, esi
  00043	5f		 pop	 edi

; 166  : 		}

  00044	c2 04 00	 ret	 4
??Y?$_Vector_const_iterator@IV?$allocator@I@std@@@std@@QAEAAV01@H@Z ENDP ; std::_Vector_const_iterator<unsigned int,std::allocator<unsigned int> >::operator+=
; Function compile flags: /Ogtpy
_TEXT	ENDS
;	COMDAT ??Y?$_Vector_iterator@IV?$allocator@I@std@@@std@@QAEAAV01@H@Z
_TEXT	SEGMENT
__Off$ = 8						; size = 4
??Y?$_Vector_iterator@IV?$allocator@I@std@@@std@@QAEAAV01@H@Z PROC ; std::_Vector_iterator<unsigned int,std::allocator<unsigned int> >::operator+=, COMDAT
; _this$ = esi

; 375  : 		(*(_Mybase *)this) += _Off;

  00000	8b 06		 mov	 eax, DWORD PTR [esi]
  00002	85 c0		 test	 eax, eax
  00004	75 0b		 jne	 SHORT $LN22@operator@29
  00006	e8 00 00 00 00	 call	 __invalid_parameter_noinfo
  0000b	8b 06		 mov	 eax, DWORD PTR [esi]
  0000d	85 c0		 test	 eax, eax
  0000f	74 04		 je	 SHORT $LN12@operator@29
$LN22@operator@29:
  00011	8b 10		 mov	 edx, DWORD PTR [eax]
  00013	eb 02		 jmp	 SHORT $LN13@operator@29
$LN12@operator@29:
  00015	33 d2		 xor	 edx, edx
$LN13@operator@29:
  00017	8b 4e 04	 mov	 ecx, DWORD PTR [esi+4]
  0001a	57		 push	 edi
  0001b	8b 7c 24 08	 mov	 edi, DWORD PTR __Off$[esp]
  0001f	03 ff		 add	 edi, edi
  00021	03 ff		 add	 edi, edi
  00023	03 cf		 add	 ecx, edi
  00025	3b 4a 10	 cmp	 ecx, DWORD PTR [edx+16]
  00028	77 0f		 ja	 SHORT $LN3@operator@29
  0002a	85 c0		 test	 eax, eax
  0002c	74 04		 je	 SHORT $LN18@operator@29
  0002e	8b 00		 mov	 eax, DWORD PTR [eax]
  00030	eb 02		 jmp	 SHORT $LN19@operator@29
$LN18@operator@29:
  00032	33 c0		 xor	 eax, eax
$LN19@operator@29:
  00034	3b 48 0c	 cmp	 ecx, DWORD PTR [eax+12]
  00037	73 05		 jae	 SHORT $LN23@operator@29
$LN3@operator@29:
  00039	e8 00 00 00 00	 call	 __invalid_parameter_noinfo
$LN23@operator@29:
  0003e	01 7e 04	 add	 DWORD PTR [esi+4], edi

; 376  : 		return (*this);

  00041	8b c6		 mov	 eax, esi
  00043	5f		 pop	 edi

; 377  : 		}

  00044	c2 04 00	 ret	 4
??Y?$_Vector_iterator@IV?$allocator@I@std@@@std@@QAEAAV01@H@Z ENDP ; std::_Vector_iterator<unsigned int,std::allocator<unsigned int> >::operator+=
; Function compile flags: /Ogtpy
_TEXT	ENDS
;	COMDAT ??H?$_Vector_iterator@IV?$allocator@I@std@@@std@@QBE?AV01@H@Z
_TEXT	SEGMENT
___$ReturnUdt$ = 8					; size = 4
__Off$ = 12						; size = 4
??H?$_Vector_iterator@IV?$allocator@I@std@@@std@@QBE?AV01@H@Z PROC ; std::_Vector_iterator<unsigned int,std::allocator<unsigned int> >::operator+, COMDAT
; _this$ = eax

; 380  : 		{	// return this + integer

  00000	53		 push	 ebx
  00001	8b 5c 24 08	 mov	 ebx, DWORD PTR ___$ReturnUdt$[esp]
  00005	56		 push	 esi

; 381  : 		_Myt _Tmp = *this;

  00006	8b 30		 mov	 esi, DWORD PTR [eax]
  00008	57		 push	 edi
  00009	8b 78 04	 mov	 edi, DWORD PTR [eax+4]

; 382  : 		return (_Tmp += _Off);

  0000c	85 f6		 test	 esi, esi
  0000e	75 1b		 jne	 SHORT $LN24@operator@30
  00010	e8 00 00 00 00	 call	 __invalid_parameter_noinfo
  00015	33 c0		 xor	 eax, eax
$LN15@operator@30:
  00017	8b 4c 24 14	 mov	 ecx, DWORD PTR __Off$[esp+8]
  0001b	8d 3c 8f	 lea	 edi, DWORD PTR [edi+ecx*4]
  0001e	3b 78 10	 cmp	 edi, DWORD PTR [eax+16]
  00021	77 13		 ja	 SHORT $LN5@operator@30
  00023	85 f6		 test	 esi, esi
  00025	74 08		 je	 SHORT $LN20@operator@30
  00027	8b 06		 mov	 eax, DWORD PTR [esi]
  00029	eb 06		 jmp	 SHORT $LN21@operator@30
$LN24@operator@30:
  0002b	8b 06		 mov	 eax, DWORD PTR [esi]
  0002d	eb e8		 jmp	 SHORT $LN15@operator@30
$LN20@operator@30:
  0002f	33 c0		 xor	 eax, eax
$LN21@operator@30:
  00031	3b 78 0c	 cmp	 edi, DWORD PTR [eax+12]
  00034	73 05		 jae	 SHORT $LN6@operator@30
$LN5@operator@30:
  00036	e8 00 00 00 00	 call	 __invalid_parameter_noinfo
$LN6@operator@30:
  0003b	89 7b 04	 mov	 DWORD PTR [ebx+4], edi

; 383  : 		}

  0003e	5f		 pop	 edi
  0003f	89 33		 mov	 DWORD PTR [ebx], esi
  00041	5e		 pop	 esi
  00042	8b c3		 mov	 eax, ebx
  00044	5b		 pop	 ebx
  00045	c2 08 00	 ret	 8
??H?$_Vector_iterator@IV?$allocator@I@std@@@std@@QBE?AV01@H@Z ENDP ; std::_Vector_iterator<unsigned int,std::allocator<unsigned int> >::operator+
; Function compile flags: /Ogtpy
_TEXT	ENDS
;	COMDAT ??0?$_Vector_iterator@IV?$allocator@I@std@@@std@@QAE@PAIPBV_Container_base_aux@1@@Z
_TEXT	SEGMENT
__Ptr$ = 8						; size = 4
??0?$_Vector_iterator@IV?$allocator@I@std@@@std@@QAE@PAIPBV_Container_base_aux@1@@Z PROC ; std::_Vector_iterator<unsigned int,std::allocator<unsigned int> >::_Vector_iterator<unsigned int,std::allocator<unsigned int> >, COMDAT
; _this$ = edi
; __Pvector$ = esi

; 327  : 		{	// construct with pointer _Ptr

  00000	53		 push	 ebx
  00001	8b 5c 24 08	 mov	 ebx, DWORD PTR __Ptr$[esp]
  00005	c7 07 00 00 00
	00		 mov	 DWORD PTR [edi], 0
  0000b	85 f6		 test	 esi, esi
  0000d	74 0a		 je	 SHORT $LN3@Vector_ite@4
  0000f	39 5e 0c	 cmp	 DWORD PTR [esi+12], ebx
  00012	77 05		 ja	 SHORT $LN3@Vector_ite@4
  00014	3b 5e 10	 cmp	 ebx, DWORD PTR [esi+16]
  00017	76 05		 jbe	 SHORT $LN4@Vector_ite@4
$LN3@Vector_ite@4:
  00019	e8 00 00 00 00	 call	 __invalid_parameter_noinfo
$LN4@Vector_ite@4:
  0001e	8b 06		 mov	 eax, DWORD PTR [esi]
  00020	89 07		 mov	 DWORD PTR [edi], eax
  00022	89 5f 04	 mov	 DWORD PTR [edi+4], ebx

; 328  : 		}

  00025	8b c7		 mov	 eax, edi
  00027	5b		 pop	 ebx
  00028	c2 04 00	 ret	 4
??0?$_Vector_iterator@IV?$allocator@I@std@@@std@@QAE@PAIPBV_Container_base_aux@1@@Z ENDP ; std::_Vector_iterator<unsigned int,std::allocator<unsigned int> >::_Vector_iterator<unsigned int,std::allocator<unsigned int> >
; Function compile flags: /Ogtpy
; File c:\program files\microsoft visual studio 9.0\vc\include\xutility
_TEXT	ENDS
;	COMDAT ??0?$_Container_base_aux_alloc_real@V?$allocator@I@std@@@std@@IAE@V?$allocator@I@1@@Z
_TEXT	SEGMENT
__Al$ = 8						; size = 1
??0?$_Container_base_aux_alloc_real@V?$allocator@I@std@@@std@@IAE@V?$allocator@I@1@@Z PROC ; std::_Container_base_aux_alloc_real<std::allocator<unsigned int> >::_Container_base_aux_alloc_real<std::allocator<unsigned int> >, COMDAT
; _this$ = esi

; 420  : 		_Myownedaux = new (_Alaux.allocate(1)) _Aux_cont(this);

  00000	6a 04		 push	 4
  00002	e8 00 00 00 00	 call	 ??2@YAPAXI@Z		; operator new
  00007	83 c4 04	 add	 esp, 4
  0000a	85 c0		 test	 eax, eax
  0000c	74 09		 je	 SHORT $LN3@Container_@5
  0000e	89 30		 mov	 DWORD PTR [eax], esi
  00010	89 06		 mov	 DWORD PTR [esi], eax

; 421  : 		}

  00012	8b c6		 mov	 eax, esi
  00014	c2 04 00	 ret	 4
$LN3@Container_@5:

; 420  : 		_Myownedaux = new (_Alaux.allocate(1)) _Aux_cont(this);

  00017	33 c0		 xor	 eax, eax
  00019	89 06		 mov	 DWORD PTR [esi], eax

; 421  : 		}

  0001b	8b c6		 mov	 eax, esi
  0001d	c2 04 00	 ret	 4
??0?$_Container_base_aux_alloc_real@V?$allocator@I@std@@@std@@IAE@V?$allocator@I@1@@Z ENDP ; std::_Container_base_aux_alloc_real<std::allocator<unsigned int> >::_Container_base_aux_alloc_real<std::allocator<unsigned int> >
; Function compile flags: /Ogtpy
; File c:\program files\microsoft visual studio 9.0\vc\include\vector
_TEXT	ENDS
;	COMDAT ?begin@?$vector@IV?$allocator@I@std@@@std@@QAE?AV?$_Vector_iterator@IV?$allocator@I@std@@@2@XZ
_TEXT	SEGMENT
?begin@?$vector@IV?$allocator@I@std@@@std@@QAE?AV?$_Vector_iterator@IV?$allocator@I@std@@@2@XZ PROC ; std::vector<unsigned int,std::allocator<unsigned int> >::begin, COMDAT
; _this$ = edi
; ___$ReturnUdt$ = esi

; 640  : 		{	// return iterator for beginning of mutable sequence

  00000	53		 push	 ebx

; 641  : 		return (iterator(_Myfirst, this));

  00001	8b 5f 0c	 mov	 ebx, DWORD PTR [edi+12]
  00004	c7 06 00 00 00
	00		 mov	 DWORD PTR [esi], 0
  0000a	3b 5f 10	 cmp	 ebx, DWORD PTR [edi+16]
  0000d	76 05		 jbe	 SHORT $LN6@begin@5
  0000f	e8 00 00 00 00	 call	 __invalid_parameter_noinfo
$LN6@begin@5:
  00014	8b 07		 mov	 eax, DWORD PTR [edi]
  00016	89 06		 mov	 DWORD PTR [esi], eax
  00018	89 5e 04	 mov	 DWORD PTR [esi+4], ebx
  0001b	8b c6		 mov	 eax, esi
  0001d	5b		 pop	 ebx

; 642  : 		}

  0001e	c3		 ret	 0
?begin@?$vector@IV?$allocator@I@std@@@std@@QAE?AV?$_Vector_iterator@IV?$allocator@I@std@@@2@XZ ENDP ; std::vector<unsigned int,std::allocator<unsigned int> >::begin
; Function compile flags: /Ogtpy
_TEXT	ENDS
;	COMDAT ??0?$_Vector_val@IV?$allocator@I@std@@@std@@IAE@V?$allocator@I@1@@Z
_TEXT	SEGMENT
__Al$ = 8						; size = 1
??0?$_Vector_val@IV?$allocator@I@std@@@std@@IAE@V?$allocator@I@1@@Z PROC ; std::_Vector_val<unsigned int,std::allocator<unsigned int> >::_Vector_val<unsigned int,std::allocator<unsigned int> >, COMDAT
; _this$ = esi

; 425  : 		{	// construct allocator from _Al

  00000	6a 04		 push	 4
  00002	e8 00 00 00 00	 call	 ??2@YAPAXI@Z		; operator new
  00007	83 c4 04	 add	 esp, 4
  0000a	85 c0		 test	 eax, eax
  0000c	74 09		 je	 SHORT $LN8@Vector_val@5
  0000e	89 30		 mov	 DWORD PTR [eax], esi
  00010	89 06		 mov	 DWORD PTR [esi], eax

; 426  : 		}

  00012	8b c6		 mov	 eax, esi
  00014	c2 04 00	 ret	 4

; 425  : 		{	// construct allocator from _Al

$LN8@Vector_val@5:
  00017	33 c0		 xor	 eax, eax
  00019	89 06		 mov	 DWORD PTR [esi], eax

; 426  : 		}

  0001b	8b c6		 mov	 eax, esi
  0001d	c2 04 00	 ret	 4
??0?$_Vector_val@IV?$allocator@I@std@@@std@@IAE@V?$allocator@I@1@@Z ENDP ; std::_Vector_val<unsigned int,std::allocator<unsigned int> >::_Vector_val<unsigned int,std::allocator<unsigned int> >
; Function compile flags: /Ogtpy
_TEXT	ENDS
;	COMDAT ?end@?$vector@IV?$allocator@I@std@@@std@@QAE?AV?$_Vector_iterator@IV?$allocator@I@std@@@2@XZ
_TEXT	SEGMENT
?end@?$vector@IV?$allocator@I@std@@@std@@QAE?AV?$_Vector_iterator@IV?$allocator@I@std@@@2@XZ PROC ; std::vector<unsigned int,std::allocator<unsigned int> >::end, COMDAT
; _this$ = edi
; ___$ReturnUdt$ = esi

; 650  : 		{	// return iterator for end of mutable sequence

  00000	53		 push	 ebx

; 651  : 		return (iterator(_Mylast, this));

  00001	8b 5f 10	 mov	 ebx, DWORD PTR [edi+16]
  00004	c7 06 00 00 00
	00		 mov	 DWORD PTR [esi], 0
  0000a	39 5f 0c	 cmp	 DWORD PTR [edi+12], ebx
  0000d	76 05		 jbe	 SHORT $LN6@end@5
  0000f	e8 00 00 00 00	 call	 __invalid_parameter_noinfo
$LN6@end@5:
  00014	8b 07		 mov	 eax, DWORD PTR [edi]
  00016	89 06		 mov	 DWORD PTR [esi], eax
  00018	89 5e 04	 mov	 DWORD PTR [esi+4], ebx
  0001b	8b c6		 mov	 eax, esi
  0001d	5b		 pop	 ebx

; 652  : 		}

  0001e	c3		 ret	 0
?end@?$vector@IV?$allocator@I@std@@@std@@QAE?AV?$_Vector_iterator@IV?$allocator@I@std@@@2@XZ ENDP ; std::vector<unsigned int,std::allocator<unsigned int> >::end
;	COMDAT xdata$x
; File c:\program files\microsoft visual studio 9.0\vc\include\stdexcept
xdata$x	SEGMENT
__unwindtable$?_Xlen@?$vector@IV?$allocator@I@std@@@std@@KAXXZ DD 0ffffffffH
	DD	FLAT:__unwindfunclet$?_Xlen@?$vector@IV?$allocator@I@std@@@std@@KAXXZ$0
__ehfuncinfo$?_Xlen@?$vector@IV?$allocator@I@std@@@std@@KAXXZ DD 019930522H
	DD	01H
	DD	FLAT:__unwindtable$?_Xlen@?$vector@IV?$allocator@I@std@@@std@@KAXXZ
	DD	2 DUP(00H)
	DD	2 DUP(00H)
	DD	00H
	DD	01H
; Function compile flags: /Ogtpy
; File c:\program files\microsoft visual studio 9.0\vc\include\vector
xdata$x	ENDS
;	COMDAT ?_Xlen@?$vector@IV?$allocator@I@std@@@std@@KAXXZ
_TEXT	SEGMENT
$T87309 = -80						; size = 28
$T87308 = -52						; size = 40
__$EHRec$ = -12						; size = 12
?_Xlen@?$vector@IV?$allocator@I@std@@@std@@KAXXZ PROC	; std::vector<unsigned int,std::allocator<unsigned int> >::_Xlen, COMDAT

; 1257 : 		{	// report a length_error

  00000	6a ff		 push	 -1
  00002	68 00 00 00 00	 push	 __ehhandler$?_Xlen@?$vector@IV?$allocator@I@std@@@std@@KAXXZ
  00007	64 a1 00 00 00
	00		 mov	 eax, DWORD PTR fs:0
  0000d	50		 push	 eax
  0000e	83 ec 44	 sub	 esp, 68			; 00000044H
  00011	a1 00 00 00 00	 mov	 eax, DWORD PTR ___security_cookie
  00016	33 c4		 xor	 eax, esp
  00018	50		 push	 eax
  00019	8d 44 24 48	 lea	 eax, DWORD PTR __$EHRec$[esp+84]
  0001d	64 a3 00 00 00
	00		 mov	 DWORD PTR fs:0, eax

; 1258 : 		_THROW(length_error, "vector<T> too long");

  00023	6a 12		 push	 18			; 00000012H
  00025	68 00 00 00 00	 push	 OFFSET ??_C@_0BD@OLBABOEK@vector?$DMT?$DO?5too?5long?$AA@
  0002a	8d 4c 24 0c	 lea	 ecx, DWORD PTR $T87309[esp+92]
  0002e	c7 44 24 24 0f
	00 00 00	 mov	 DWORD PTR $T87309[esp+116], 15 ; 0000000fH
  00036	c7 44 24 20 00
	00 00 00	 mov	 DWORD PTR $T87309[esp+112], 0
  0003e	c6 44 24 10 00	 mov	 BYTE PTR $T87309[esp+96], 0
  00043	e8 00 00 00 00	 call	 ?assign@?$basic_string@DU?$char_traits@D@std@@V?$allocator@D@2@@std@@QAEAAV12@PBDI@Z ; std::basic_string<char,std::char_traits<char>,std::allocator<char> >::assign
  00048	8d 44 24 04	 lea	 eax, DWORD PTR $T87309[esp+84]
  0004c	50		 push	 eax
  0004d	8d 4c 24 24	 lea	 ecx, DWORD PTR $T87308[esp+88]
  00051	c7 44 24 54 00
	00 00 00	 mov	 DWORD PTR __$EHRec$[esp+96], 0
  00059	e8 00 00 00 00	 call	 ??0logic_error@std@@QAE@ABV?$basic_string@DU?$char_traits@D@std@@V?$allocator@D@2@@1@@Z ; std::logic_error::logic_error
  0005e	68 00 00 00 00	 push	 OFFSET __TI3?AVlength_error@std@@
  00063	8d 4c 24 24	 lea	 ecx, DWORD PTR $T87308[esp+88]
  00067	51		 push	 ecx
  00068	c7 44 24 28 00
	00 00 00	 mov	 DWORD PTR $T87308[esp+92], OFFSET ??_7length_error@std@@6B@
  00070	e8 00 00 00 00	 call	 __CxxThrowException@8
$LN45@Xlen@5:
$LN44@Xlen@5:
  00075	cc		 int	 3
_TEXT	ENDS
;	COMDAT text$x
text$x	SEGMENT
__unwindfunclet$?_Xlen@?$vector@IV?$allocator@I@std@@@std@@KAXXZ$0:
  00000	8d 4d b0	 lea	 ecx, DWORD PTR $T87309[ebp]
  00003	e9 00 00 00 00	 jmp	 ??1?$basic_string@DU?$char_traits@D@std@@V?$allocator@D@2@@std@@QAE@XZ ; std::basic_string<char,std::char_traits<char>,std::allocator<char> >::~basic_string<char,std::char_traits<char>,std::allocator<char> >
__ehhandler$?_Xlen@?$vector@IV?$allocator@I@std@@@std@@KAXXZ:
  00008	8b 54 24 08	 mov	 edx, DWORD PTR [esp+8]
  0000c	8d 42 bc	 lea	 eax, DWORD PTR [edx-68]
  0000f	8b 4a b8	 mov	 ecx, DWORD PTR [edx-72]
  00012	33 c8		 xor	 ecx, eax
  00014	e8 00 00 00 00	 call	 @__security_check_cookie@4
  00019	b8 00 00 00 00	 mov	 eax, OFFSET __ehfuncinfo$?_Xlen@?$vector@IV?$allocator@I@std@@@std@@KAXXZ
  0001e	e9 00 00 00 00	 jmp	 ___CxxFrameHandler3
text$x	ENDS
?_Xlen@?$vector@IV?$allocator@I@std@@@std@@KAXXZ ENDP	; std::vector<unsigned int,std::allocator<unsigned int> >::_Xlen
; Function compile flags: /Ogtpy
;	COMDAT ?_Insert_n@?$vector@IV?$allocator@I@std@@@std@@IAEXV?$_Vector_const_iterator@IV?$allocator@I@std@@@2@IABI@Z
_TEXT	SEGMENT
_this$ = 8						; size = 4
__Tmp$39788 = 12					; size = 4
__Val$ = 12						; size = 4
__Where$ = 16						; size = 8
?_Insert_n@?$vector@IV?$allocator@I@std@@@std@@IAEXV?$_Vector_const_iterator@IV?$allocator@I@std@@@2@IABI@Z PROC ; std::vector<unsigned int,std::allocator<unsigned int> >::_Insert_n, COMDAT

; 1158 : 		{	// insert _Count * _Val at _Where

  00000	51		 push	 ecx
  00001	53		 push	 ebx
  00002	8b 5c 24 0c	 mov	 ebx, DWORD PTR _this$[esp+4]

; 1159 : 
; 1160 :  #if _HAS_ITERATOR_DEBUGGING
; 1161 : 		if (_Where._Mycont != this
; 1162 : 			|| _Where._Myptr < _Myfirst || _Mylast < _Where._Myptr)
; 1163 : 			_DEBUG_ERROR("vector insert iterator outside range");
; 1164 :  #endif /* _HAS_ITERATOR_DEBUGGING */
; 1165 : 
; 1166 : 		size_type _Capacity = capacity();

  00006	8b 4b 0c	 mov	 ecx, DWORD PTR [ebx+12]
  00009	55		 push	 ebp
  0000a	56		 push	 esi
  0000b	57		 push	 edi
  0000c	85 c9		 test	 ecx, ecx
  0000e	75 04		 jne	 SHORT $LN27@Insert_n@4
  00010	33 ed		 xor	 ebp, ebp
  00012	eb 08		 jmp	 SHORT $LN199@Insert_n@4
$LN27@Insert_n@4:
  00014	8b 6b 14	 mov	 ebp, DWORD PTR [ebx+20]
  00017	2b e9		 sub	 ebp, ecx
  00019	c1 fd 02	 sar	 ebp, 2
$LN199@Insert_n@4:

; 1167 : 
; 1168 : 		if (_Count == 0)
; 1169 : 			;
; 1170 : 		else if (max_size() - size() < _Count)

  0001c	8b 73 10	 mov	 esi, DWORD PTR [ebx+16]
  0001f	8b c6		 mov	 eax, esi
  00021	2b c1		 sub	 eax, ecx
  00023	c1 f8 02	 sar	 eax, 2
  00026	b9 ff ff ff 3f	 mov	 ecx, 1073741823		; 3fffffffH
  0002b	2b c8		 sub	 ecx, eax
  0002d	83 f9 01	 cmp	 ecx, 1
  00030	73 05		 jae	 SHORT $LN10@Insert_n@4

; 1171 : 			_Xlen();	// result too long

  00032	e8 00 00 00 00	 call	 ?_Xlen@?$vector@IV?$allocator@I@std@@@std@@KAXXZ ; std::vector<unsigned int,std::allocator<unsigned int> >::_Xlen
$LN201@Insert_n@4:
$LN10@Insert_n@4:

; 1172 : 		else if (_Capacity < size() + _Count)

  00037	40		 inc	 eax
  00038	3b e8		 cmp	 ebp, eax
  0003a	0f 83 a3 00 00
	00		 jae	 $LN8@Insert_n@4

; 1173 : 			{	// not enough room, reallocate
; 1174 : 			_Capacity = max_size() - _Capacity / 2 < _Capacity
; 1175 : 				? 0 : _Capacity + _Capacity / 2;	// try to grow by 50%

  00040	8b cd		 mov	 ecx, ebp
  00042	d1 e9		 shr	 ecx, 1
  00044	ba ff ff ff 3f	 mov	 edx, 1073741823		; 3fffffffH
  00049	2b d1		 sub	 edx, ecx
  0004b	3b d5		 cmp	 edx, ebp
  0004d	73 04		 jae	 SHORT $LN15@Insert_n@4
  0004f	33 ed		 xor	 ebp, ebp
  00051	eb 02		 jmp	 SHORT $LN16@Insert_n@4
$LN15@Insert_n@4:
  00053	03 e9		 add	 ebp, ecx
$LN16@Insert_n@4:

; 1176 : 			if (_Capacity < size() + _Count)

  00055	3b e8		 cmp	 ebp, eax

; 1177 : 				_Capacity = size() + _Count;

  00057	0f 42 e8	 cmovb	 ebp, eax

; 1178 : 			pointer _Newvec = this->_Alval.allocate(_Capacity);

  0005a	8b cd		 mov	 ecx, ebp
  0005c	e8 00 00 00 00	 call	 ?allocate@?$allocator@I@std@@QAEPAII@Z ; std::allocator<unsigned int>::allocate

; 1179 : 			pointer _Ptr = _Newvec;
; 1180 : 
; 1181 : 			_TRY_BEGIN
; 1182 : 			_Ptr = _Umove(_Myfirst, _VEC_ITER_BASE(_Where),
; 1183 : 				_Newvec);	// copy prefix

  00061	8b 4b 0c	 mov	 ecx, DWORD PTR [ebx+12]
  00064	8b f0		 mov	 esi, eax
  00066	8b 44 24 24	 mov	 eax, DWORD PTR __Where$[esp+20]
  0006a	2b c1		 sub	 eax, ecx
  0006c	c1 f8 02	 sar	 eax, 2
  0006f	8d 3c 85 00 00
	00 00		 lea	 edi, DWORD PTR [eax*4]
  00076	85 c0		 test	 eax, eax
  00078	76 0c		 jbe	 SHORT $LN77@Insert_n@4
  0007a	57		 push	 edi
  0007b	51		 push	 ecx
  0007c	57		 push	 edi
  0007d	56		 push	 esi
  0007e	e8 00 00 00 00	 call	 _memmove_s
  00083	83 c4 10	 add	 esp, 16			; 00000010H
$LN77@Insert_n@4:

; 1184 : 			_Ptr = _Ufill(_Ptr, _Count, _Val);	// add new stuff

  00086	8b 44 24 1c	 mov	 eax, DWORD PTR __Val$[esp+16]
  0008a	8b 08		 mov	 ecx, DWORD PTR [eax]
  0008c	89 0c 37	 mov	 DWORD PTR [edi+esi], ecx

; 1185 : 			_Umove(_VEC_ITER_BASE(_Where), _Mylast, _Ptr);	// copy suffix

  0008f	8b 43 10	 mov	 eax, DWORD PTR [ebx+16]
  00092	8b 4c 24 24	 mov	 ecx, DWORD PTR __Where$[esp+20]
  00096	2b c1		 sub	 eax, ecx
  00098	c1 f8 02	 sar	 eax, 2
  0009b	85 c0		 test	 eax, eax
  0009d	76 14		 jbe	 SHORT $LN131@Insert_n@4
  0009f	03 c0		 add	 eax, eax
  000a1	03 c0		 add	 eax, eax
  000a3	50		 push	 eax
  000a4	51		 push	 ecx
  000a5	50		 push	 eax
  000a6	8d 54 37 04	 lea	 edx, DWORD PTR [edi+esi+4]
  000aa	52		 push	 edx
  000ab	e8 00 00 00 00	 call	 _memmove_s
  000b0	83 c4 10	 add	 esp, 16			; 00000010H
$LN131@Insert_n@4:

; 1186 : 			_CATCH_ALL
; 1187 : 			_Destroy(_Newvec, _Ptr);
; 1188 : 			this->_Alval.deallocate(_Newvec, _Capacity);
; 1189 : 			_RERAISE;
; 1190 : 			_CATCH_END
; 1191 : 
; 1192 : 			_Count += size();

  000b3	8b 43 0c	 mov	 eax, DWORD PTR [ebx+12]
  000b6	8b 7b 10	 mov	 edi, DWORD PTR [ebx+16]
  000b9	2b f8		 sub	 edi, eax
  000bb	c1 ff 02	 sar	 edi, 2
  000be	47		 inc	 edi

; 1193 : 			if (_Myfirst != 0)

  000bf	85 c0		 test	 eax, eax
  000c1	74 09		 je	 SHORT $LN138@Insert_n@4

; 1194 : 				{	// destroy and deallocate old array
; 1195 : 				_Destroy(_Myfirst, _Mylast);
; 1196 : 				this->_Alval.deallocate(_Myfirst, _Myend - _Myfirst);

  000c3	50		 push	 eax
  000c4	e8 00 00 00 00	 call	 ??3@YAXPAX@Z		; operator delete
  000c9	83 c4 04	 add	 esp, 4
$LN138@Insert_n@4:

; 1197 : 				}
; 1198 : 
; 1199 :  #if _HAS_ITERATOR_DEBUGGING
; 1200 : 			this->_Orphan_all();
; 1201 :  #endif /* _HAS_ITERATOR_DEBUGGING */
; 1202 : 
; 1203 : 			_Myend = _Newvec + _Capacity;

  000cc	8d 04 ae	 lea	 eax, DWORD PTR [esi+ebp*4]

; 1204 : 			_Mylast = _Newvec + _Count;

  000cf	8d 0c be	 lea	 ecx, DWORD PTR [esi+edi*4]
  000d2	89 43 14	 mov	 DWORD PTR [ebx+20], eax
  000d5	89 4b 10	 mov	 DWORD PTR [ebx+16], ecx

; 1205 : 			_Myfirst = _Newvec;

  000d8	89 73 0c	 mov	 DWORD PTR [ebx+12], esi

; 1247 : 			}
; 1248 : 		}

  000db	5f		 pop	 edi
  000dc	5e		 pop	 esi
  000dd	5d		 pop	 ebp
  000de	5b		 pop	 ebx
  000df	59		 pop	 ecx
  000e0	c2 10 00	 ret	 16			; 00000010H
$LN8@Insert_n@4:

; 1206 : 			}
; 1207 : 		else if ((size_type)(_Mylast - _VEC_ITER_BASE(_Where)) < _Count)

  000e3	8b 4c 24 24	 mov	 ecx, DWORD PTR __Where$[esp+20]
  000e7	8b d6		 mov	 edx, esi
  000e9	2b d1		 sub	 edx, ecx
  000eb	c1 fa 02	 sar	 edx, 2
  000ee	83 fa 01	 cmp	 edx, 1
  000f1	73 55		 jae	 SHORT $LN3@Insert_n@4

; 1208 : 			{	// new stuff spills off end
; 1209 : 			_Ty _Tmp = _Val;	// in case _Val is in sequence

  000f3	8b 44 24 1c	 mov	 eax, DWORD PTR __Val$[esp+16]
  000f7	8b 28		 mov	 ebp, DWORD PTR [eax]

; 1210 : 
; 1211 : 			_Umove(_VEC_ITER_BASE(_Where), _Mylast,
; 1212 : 				_VEC_ITER_BASE(_Where) + _Count);	// copy suffix

  000f9	8d 51 04	 lea	 edx, DWORD PTR [ecx+4]
  000fc	8b c6		 mov	 eax, esi
  000fe	8b f9		 mov	 edi, ecx
  00100	89 6c 24 1c	 mov	 DWORD PTR __Tmp$39788[esp+16], ebp
  00104	e8 00 00 00 00	 call	 ??$_Umove@PAI@?$vector@IV?$allocator@I@std@@@std@@IAEPAIPAI00@Z ; std::vector<unsigned int,std::allocator<unsigned int> >::_Umove<unsigned int *>

; 1213 : 
; 1214 : 			_TRY_BEGIN
; 1215 : 			_Ufill(_Mylast, _Count - (_Mylast - _VEC_ITER_BASE(_Where)),
; 1216 : 				_Tmp);	// insert new stuff off end

  00109	8b 7b 10	 mov	 edi, DWORD PTR [ebx+16]
  0010c	8b cf		 mov	 ecx, edi
  0010e	2b 4c 24 24	 sub	 ecx, DWORD PTR __Where$[esp+20]
  00112	be 01 00 00 00	 mov	 esi, 1
  00117	c1 f9 02	 sar	 ecx, 2
  0011a	2b f1		 sub	 esi, ecx
  0011c	8d 54 24 1c	 lea	 edx, DWORD PTR __Tmp$39788[esp+16]
  00120	e8 00 00 00 00	 call	 ?_Ufill@?$vector@IV?$allocator@I@std@@@std@@IAEPAIPAIIABI@Z ; std::vector<unsigned int,std::allocator<unsigned int> >::_Ufill

; 1217 : 			_CATCH_ALL
; 1218 : 			_Destroy(_VEC_ITER_BASE(_Where) + _Count, _Mylast + _Count);
; 1219 : 			_RERAISE;
; 1220 : 			_CATCH_END
; 1221 : 
; 1222 : 			_Mylast += _Count;

  00125	83 43 10 04	 add	 DWORD PTR [ebx+16], 4
  00129	8b 5b 10	 mov	 ebx, DWORD PTR [ebx+16]

; 1223 : 
; 1224 :  #if _HAS_ITERATOR_DEBUGGING
; 1225 : 			_Orphan_range(_Where._Myptr, _Mylast);
; 1226 :  #endif /* _HAS_ITERATOR_DEBUGGING */
; 1227 : 
; 1228 : 			std::fill(_VEC_ITER_BASE(_Where), _Mylast - _Count,
; 1229 : 				_Tmp);	// insert up to old end

  0012c	8b 44 24 24	 mov	 eax, DWORD PTR __Where$[esp+20]
  00130	8d 4b fc	 lea	 ecx, DWORD PTR [ebx-4]
  00133	3b c1		 cmp	 eax, ecx
  00135	74 62		 je	 SHORT $LN186@Insert_n@4
$LL152@Insert_n@4:
  00137	89 28		 mov	 DWORD PTR [eax], ebp
  00139	83 c0 04	 add	 eax, 4
  0013c	3b c1		 cmp	 eax, ecx
  0013e	75 f7		 jne	 SHORT $LL152@Insert_n@4

; 1247 : 			}
; 1248 : 		}

  00140	5f		 pop	 edi
  00141	5e		 pop	 esi
  00142	5d		 pop	 ebp
  00143	5b		 pop	 ebx
  00144	59		 pop	 ecx
  00145	c2 10 00	 ret	 16			; 00000010H
$LN3@Insert_n@4:

; 1230 : 			}
; 1231 : 		else
; 1232 : 			{	// new stuff can all be assigned
; 1233 : 			_Ty _Tmp = _Val;	// in case _Val is in sequence

  00148	8b 54 24 1c	 mov	 edx, DWORD PTR __Val$[esp+16]
  0014c	8b 2a		 mov	 ebp, DWORD PTR [edx]

; 1234 : 
; 1235 : 			pointer _Oldend = _Mylast;
; 1236 : 			_Mylast = _Umove(_Oldend - _Count, _Oldend,
; 1237 : 				_Mylast);	// copy suffix

  0014e	8d 7e fc	 lea	 edi, DWORD PTR [esi-4]
  00151	8b d6		 mov	 edx, esi
  00153	8b c6		 mov	 eax, esi
  00155	e8 00 00 00 00	 call	 ??$_Umove@PAI@?$vector@IV?$allocator@I@std@@@std@@IAEPAIPAI00@Z ; std::vector<unsigned int,std::allocator<unsigned int> >::_Umove<unsigned int *>
  0015a	89 43 10	 mov	 DWORD PTR [ebx+16], eax

; 1238 : 
; 1239 :  #if _HAS_ITERATOR_DEBUGGING
; 1240 : 			_Orphan_range(_Where._Myptr, _Mylast);
; 1241 :  #endif /* _HAS_ITERATOR_DEBUGGING */
; 1242 : 
; 1243 : 			_STDEXT _Unchecked_move_backward(_VEC_ITER_BASE(_Where), _Oldend - _Count,
; 1244 : 				_Oldend);	// copy hole

  0015d	8b 44 24 24	 mov	 eax, DWORD PTR __Where$[esp+20]
  00161	2b f8		 sub	 edi, eax
  00163	c1 ff 02	 sar	 edi, 2
  00166	85 ff		 test	 edi, edi
  00168	7e 19		 jle	 SHORT $LN173@Insert_n@4
  0016a	8d 0c bd 00 00
	00 00		 lea	 ecx, DWORD PTR [edi*4]
  00171	51		 push	 ecx
  00172	50		 push	 eax
  00173	51		 push	 ecx
  00174	2b f1		 sub	 esi, ecx
  00176	56		 push	 esi
  00177	e8 00 00 00 00	 call	 _memmove_s
  0017c	8b 44 24 34	 mov	 eax, DWORD PTR __Where$[esp+36]
  00180	83 c4 10	 add	 esp, 16			; 00000010H
$LN173@Insert_n@4:

; 1245 : 			std::fill(_VEC_ITER_BASE(_Where), _VEC_ITER_BASE(_Where) + _Count,
; 1246 : 				_Tmp);	// insert into hole

  00183	8d 48 04	 lea	 ecx, DWORD PTR [eax+4]
  00186	3b c1		 cmp	 eax, ecx
  00188	74 0f		 je	 SHORT $LN186@Insert_n@4
  0018a	8d 9b 00 00 00
	00		 npad	 6
$LL188@Insert_n@4:
  00190	89 28		 mov	 DWORD PTR [eax], ebp
  00192	83 c0 04	 add	 eax, 4
  00195	3b c1		 cmp	 eax, ecx
  00197	75 f7		 jne	 SHORT $LL188@Insert_n@4
$LN186@Insert_n@4:

; 1247 : 			}
; 1248 : 		}

  00199	5f		 pop	 edi
  0019a	5e		 pop	 esi
  0019b	5d		 pop	 ebp
  0019c	5b		 pop	 ebx
  0019d	59		 pop	 ecx
  0019e	c2 10 00	 ret	 16			; 00000010H
$LN200@Insert_n@4:
?_Insert_n@?$vector@IV?$allocator@I@std@@@std@@IAEXV?$_Vector_const_iterator@IV?$allocator@I@std@@@2@IABI@Z ENDP ; std::vector<unsigned int,std::allocator<unsigned int> >::_Insert_n
; Function compile flags: /Ogtpy
_TEXT	ENDS
;	COMDAT ?_Buy@?$vector@IV?$allocator@I@std@@@std@@IAE_NI@Z
_TEXT	SEGMENT
?_Buy@?$vector@IV?$allocator@I@std@@@std@@IAE_NI@Z PROC	; std::vector<unsigned int,std::allocator<unsigned int> >::_Buy, COMDAT
; _this$ = esi
; __Capacity$ = edi

; 1107 : 		{	// allocate array with _Capacity elements

  00000	51		 push	 ecx

; 1108 : 		_Myfirst = 0, _Mylast = 0, _Myend = 0;
; 1109 : 		if (_Capacity == 0)
; 1110 : 			return (false);
; 1111 : 		else if (max_size() < _Capacity)

  00001	81 ff ff ff ff
	3f		 cmp	 edi, 1073741823		; 3fffffffH
  00007	76 05		 jbe	 SHORT $LN2@Buy@5

; 1112 : 			_Xlen();	// result too long

  00009	e8 00 00 00 00	 call	 ?_Xlen@?$vector@IV?$allocator@I@std@@@std@@KAXXZ ; std::vector<unsigned int,std::allocator<unsigned int> >::_Xlen
$LN18@Buy@5:
$LN2@Buy@5:

; 1113 : 		else
; 1114 : 			{	// nonempty array, allocate storage
; 1115 : 			_Myfirst = this->_Alval.allocate(_Capacity);

  0000e	8b cf		 mov	 ecx, edi
  00010	e8 00 00 00 00	 call	 ?allocate@?$allocator@I@std@@QAEPAII@Z ; std::allocator<unsigned int>::allocate
  00015	89 46 0c	 mov	 DWORD PTR [esi+12], eax

; 1116 : 			_Mylast = _Myfirst;

  00018	89 46 10	 mov	 DWORD PTR [esi+16], eax

; 1117 : 			_Myend = _Myfirst + _Capacity;

  0001b	8d 04 b8	 lea	 eax, DWORD PTR [eax+edi*4]
  0001e	89 46 14	 mov	 DWORD PTR [esi+20], eax

; 1118 : 			}
; 1119 : 		return (true);

  00021	b0 01		 mov	 al, 1
  00023	59		 pop	 ecx

; 1120 : 		}

  00024	c3		 ret	 0
$LN17@Buy@5:
?_Buy@?$vector@IV?$allocator@I@std@@@std@@IAE_NI@Z ENDP	; std::vector<unsigned int,std::allocator<unsigned int> >::_Buy
; Function compile flags: /Ogtpy
_TEXT	ENDS
;	COMDAT ?insert@?$vector@IV?$allocator@I@std@@@std@@QAE?AV?$_Vector_iterator@IV?$allocator@I@std@@@2@V?$_Vector_const_iterator@IV?$allocator@I@std@@@2@ABI@Z
_TEXT	SEGMENT
__Tmp$88588 = -8					; size = 8
___$ReturnUdt$ = 8					; size = 4
__Val$ = 12						; size = 4
__Where$ = 16						; size = 8
?insert@?$vector@IV?$allocator@I@std@@@std@@QAE?AV?$_Vector_iterator@IV?$allocator@I@std@@@2@V?$_Vector_const_iterator@IV?$allocator@I@std@@@2@ABI@Z PROC ; std::vector<unsigned int,std::allocator<unsigned int> >::insert, COMDAT
; _this$ = eax

; 875  : 		{	// insert _Val at _Where

  00000	83 ec 0c	 sub	 esp, 12			; 0000000cH
  00003	53		 push	 ebx
  00004	55		 push	 ebp
  00005	56		 push	 esi
  00006	8b f0		 mov	 esi, eax

; 876  : 		size_type _Off = size() == 0 ? 0 : _Where - begin();

  00008	8b 46 10	 mov	 eax, DWORD PTR [esi+16]
  0000b	57		 push	 edi
  0000c	8b 7e 0c	 mov	 edi, DWORD PTR [esi+12]
  0000f	8b c8		 mov	 ecx, eax
  00011	2b cf		 sub	 ecx, edi
  00013	f7 c1 fc ff ff
	ff		 test	 ecx, -4			; fffffffcH
  00019	75 04		 jne	 SHORT $LN3@insert@5
  0001b	33 db		 xor	 ebx, ebx
  0001d	eb 25		 jmp	 SHORT $LN4@insert@5
$LN3@insert@5:
  0001f	3b f8		 cmp	 edi, eax
  00021	76 05		 jbe	 SHORT $LN12@insert@5
  00023	e8 00 00 00 00	 call	 __invalid_parameter_noinfo
$LN12@insert@5:
  00028	8b 4c 24 28	 mov	 ecx, DWORD PTR __Where$[esp+24]
  0002c	8b 06		 mov	 eax, DWORD PTR [esi]
  0002e	85 c9		 test	 ecx, ecx
  00030	74 04		 je	 SHORT $LN23@insert@5
  00032	3b c8		 cmp	 ecx, eax
  00034	74 05		 je	 SHORT $LN24@insert@5
$LN23@insert@5:
  00036	e8 00 00 00 00	 call	 __invalid_parameter_noinfo
$LN24@insert@5:
  0003b	8b 5c 24 2c	 mov	 ebx, DWORD PTR __Where$[esp+28]
  0003f	2b df		 sub	 ebx, edi
  00041	c1 fb 02	 sar	 ebx, 2
$LN4@insert@5:

; 877  : 		_Insert_n(_Where, (size_type)1, _Val);

  00044	8b 54 24 2c	 mov	 edx, DWORD PTR __Where$[esp+28]
  00048	8b 44 24 28	 mov	 eax, DWORD PTR __Where$[esp+24]
  0004c	8b 4c 24 24	 mov	 ecx, DWORD PTR __Val$[esp+24]
  00050	52		 push	 edx
  00051	50		 push	 eax
  00052	51		 push	 ecx
  00053	56		 push	 esi
  00054	e8 00 00 00 00	 call	 ?_Insert_n@?$vector@IV?$allocator@I@std@@@std@@IAEXV?$_Vector_const_iterator@IV?$allocator@I@std@@@2@IABI@Z ; std::vector<unsigned int,std::allocator<unsigned int> >::_Insert_n

; 878  : 		return (begin() + _Off);

  00059	8b 7e 0c	 mov	 edi, DWORD PTR [esi+12]
  0005c	3b 7e 10	 cmp	 edi, DWORD PTR [esi+16]
  0005f	76 05		 jbe	 SHORT $LN36@insert@5
  00061	e8 00 00 00 00	 call	 __invalid_parameter_noinfo
$LN36@insert@5:
  00066	8b 36		 mov	 esi, DWORD PTR [esi]
  00068	8b ee		 mov	 ebp, esi
  0006a	89 7c 24 18	 mov	 DWORD PTR __Tmp$88588[esp+32], edi
  0006e	85 f6		 test	 esi, esi
  00070	75 17		 jne	 SHORT $LN70@insert@5
  00072	e8 00 00 00 00	 call	 __invalid_parameter_noinfo
  00077	33 c0		 xor	 eax, eax
$LN61@insert@5:
  00079	8d 3c 9f	 lea	 edi, DWORD PTR [edi+ebx*4]
  0007c	3b 78 10	 cmp	 edi, DWORD PTR [eax+16]
  0007f	77 13		 ja	 SHORT $LN51@insert@5
  00081	85 f6		 test	 esi, esi
  00083	74 08		 je	 SHORT $LN66@insert@5
  00085	8b 36		 mov	 esi, DWORD PTR [esi]
  00087	eb 06		 jmp	 SHORT $LN67@insert@5
$LN70@insert@5:
  00089	8b 06		 mov	 eax, DWORD PTR [esi]
  0008b	eb ec		 jmp	 SHORT $LN61@insert@5
$LN66@insert@5:
  0008d	33 f6		 xor	 esi, esi
$LN67@insert@5:
  0008f	3b 7e 0c	 cmp	 edi, DWORD PTR [esi+12]
  00092	73 05		 jae	 SHORT $LN52@insert@5
$LN51@insert@5:
  00094	e8 00 00 00 00	 call	 __invalid_parameter_noinfo
$LN52@insert@5:
  00099	8b 44 24 20	 mov	 eax, DWORD PTR ___$ReturnUdt$[esp+24]
  0009d	89 78 04	 mov	 DWORD PTR [eax+4], edi

; 879  : 		}

  000a0	5f		 pop	 edi
  000a1	5e		 pop	 esi
  000a2	89 28		 mov	 DWORD PTR [eax], ebp
  000a4	5d		 pop	 ebp
  000a5	5b		 pop	 ebx
  000a6	83 c4 0c	 add	 esp, 12			; 0000000cH
  000a9	c2 10 00	 ret	 16			; 00000010H
?insert@?$vector@IV?$allocator@I@std@@@std@@QAE?AV?$_Vector_iterator@IV?$allocator@I@std@@@2@V?$_Vector_const_iterator@IV?$allocator@I@std@@@2@ABI@Z ENDP ; std::vector<unsigned int,std::allocator<unsigned int> >::insert
; Function compile flags: /Ogtpy
_TEXT	ENDS
;	COMDAT ?push_back@?$vector@IV?$allocator@I@std@@@std@@QAEXABI@Z
_TEXT	SEGMENT
$T88595 = -8						; size = 8
__Val$ = 8						; size = 4
?push_back@?$vector@IV?$allocator@I@std@@@std@@QAEXABI@Z PROC ; std::vector<unsigned int,std::allocator<unsigned int> >::push_back, COMDAT
; _this$ = edi

; 810  : 		if (size() < capacity())

  00000	8b 4f 0c	 mov	 ecx, DWORD PTR [edi+12]
  00003	83 ec 08	 sub	 esp, 8
  00006	53		 push	 ebx
  00007	8b 5c 24 10	 mov	 ebx, DWORD PTR __Val$[esp+8]
  0000b	56		 push	 esi
  0000c	85 c9		 test	 ecx, ecx
  0000e	75 04		 jne	 SHORT $LN9@push_back@4
  00010	33 c0		 xor	 eax, eax
  00012	eb 08		 jmp	 SHORT $LN10@push_back@4
$LN9@push_back@4:
  00014	8b 47 14	 mov	 eax, DWORD PTR [edi+20]
  00017	2b c1		 sub	 eax, ecx
  00019	c1 f8 02	 sar	 eax, 2
$LN10@push_back@4:
  0001c	8b 77 10	 mov	 esi, DWORD PTR [edi+16]
  0001f	8b d6		 mov	 edx, esi
  00021	2b d1		 sub	 edx, ecx
  00023	c1 fa 02	 sar	 edx, 2
  00026	3b d0		 cmp	 edx, eax
  00028	73 12		 jae	 SHORT $LN2@push_back@4

; 811  : 
; 812  :  #if _HAS_ITERATOR_DEBUGGING
; 813  : 			{ // room at end, construct it there
; 814  : 			_Orphan_range(_Mylast, _Mylast);
; 815  : 			_Mylast = _Ufill(_Mylast, 1, _Val);
; 816  : 			}
; 817  : 
; 818  :  #else /* _HAS_ITERATOR_DEBUGGING */
; 819  : 			_Mylast = _Ufill(_Mylast, 1, _Val);

  0002a	8b 03		 mov	 eax, DWORD PTR [ebx]
  0002c	89 06		 mov	 DWORD PTR [esi], eax
  0002e	83 c6 04	 add	 esi, 4
  00031	89 77 10	 mov	 DWORD PTR [edi+16], esi

; 824  : 		}

  00034	5e		 pop	 esi
  00035	5b		 pop	 ebx
  00036	83 c4 08	 add	 esp, 8
  00039	c2 04 00	 ret	 4
$LN2@push_back@4:

; 820  :  #endif /* _HAS_ITERATOR_DEBUGGING */
; 821  : 
; 822  : 		else
; 823  : 			insert(end(), _Val);

  0003c	3b ce		 cmp	 ecx, esi
  0003e	76 05		 jbe	 SHORT $LN39@push_back@4
  00040	e8 00 00 00 00	 call	 __invalid_parameter_noinfo
$LN39@push_back@4:
  00045	8b 07		 mov	 eax, DWORD PTR [edi]
  00047	56		 push	 esi
  00048	50		 push	 eax
  00049	53		 push	 ebx
  0004a	8d 4c 24 14	 lea	 ecx, DWORD PTR $T88595[esp+28]
  0004e	51		 push	 ecx
  0004f	8b c7		 mov	 eax, edi
  00051	e8 00 00 00 00	 call	 ?insert@?$vector@IV?$allocator@I@std@@@std@@QAE?AV?$_Vector_iterator@IV?$allocator@I@std@@@2@V?$_Vector_const_iterator@IV?$allocator@I@std@@@2@ABI@Z ; std::vector<unsigned int,std::allocator<unsigned int> >::insert

; 824  : 		}

  00056	5e		 pop	 esi
  00057	5b		 pop	 ebx
  00058	83 c4 08	 add	 esp, 8
  0005b	c2 04 00	 ret	 4
?push_back@?$vector@IV?$allocator@I@std@@@std@@QAEXABI@Z ENDP ; std::vector<unsigned int,std::allocator<unsigned int> >::push_back
_TEXT	ENDS
;	COMDAT xdata$x
; File c:\program files\microsoft visual studio 9.0\vc\include\memory
xdata$x	SEGMENT
__unwindtable$??0?$vector@IV?$allocator@I@std@@@std@@QAE@ABV01@@Z DD 0ffffffffH
	DD	FLAT:__unwindfunclet$??0?$vector@IV?$allocator@I@std@@@std@@QAE@ABV01@@Z$2
	DD	00H
	DD	00H
	DD	00H
	DD	00H
__ehfuncinfo$??0?$vector@IV?$allocator@I@std@@@std@@QAE@ABV01@@Z DD 019930522H
	DD	03H
	DD	FLAT:__unwindtable$??0?$vector@IV?$allocator@I@std@@@std@@QAE@ABV01@@Z
	DD	2 DUP(00H)
	DD	2 DUP(00H)
	DD	00H
	DD	01H
; Function compile flags: /Ogtpy
; File c:\program files\microsoft visual studio 9.0\vc\include\vector
xdata$x	ENDS
;	COMDAT ??0?$vector@IV?$allocator@I@std@@@std@@QAE@ABV01@@Z
_TEXT	SEGMENT
__$EHRec$ = -12						; size = 12
_this$ = 8						; size = 4
__Right$ = 12						; size = 4
??0?$vector@IV?$allocator@I@std@@@std@@QAE@ABV01@@Z PROC ; std::vector<unsigned int,std::allocator<unsigned int> >::vector<unsigned int,std::allocator<unsigned int> >, COMDAT

; 500  : 		{	// construct by copying _Right

  00000	6a ff		 push	 -1
  00002	68 00 00 00 00	 push	 __ehhandler$??0?$vector@IV?$allocator@I@std@@@std@@QAE@ABV01@@Z
  00007	64 a1 00 00 00
	00		 mov	 eax, DWORD PTR fs:0
  0000d	50		 push	 eax
  0000e	51		 push	 ecx
  0000f	53		 push	 ebx
  00010	55		 push	 ebp
  00011	56		 push	 esi
  00012	57		 push	 edi
  00013	a1 00 00 00 00	 mov	 eax, DWORD PTR ___security_cookie
  00018	33 c4		 xor	 eax, esp
  0001a	50		 push	 eax
  0001b	8d 44 24 18	 lea	 eax, DWORD PTR __$EHRec$[esp+36]
  0001f	64 a3 00 00 00
	00		 mov	 DWORD PTR fs:0, eax
  00025	8b 5c 24 2c	 mov	 ebx, DWORD PTR __Right$[esp+32]
  00029	8b 74 24 28	 mov	 esi, DWORD PTR _this$[esp+32]
  0002d	6a 04		 push	 4
  0002f	e8 00 00 00 00	 call	 ??2@YAPAXI@Z		; operator new
  00034	33 c9		 xor	 ecx, ecx
  00036	83 c4 04	 add	 esp, 4
  00039	3b c1		 cmp	 eax, ecx
  0003b	74 04		 je	 SHORT $LN19@vector@10
  0003d	89 30		 mov	 DWORD PTR [eax], esi
  0003f	eb 02		 jmp	 SHORT $LN20@vector@10
$LN19@vector@10:
  00041	33 c0		 xor	 eax, eax
$LN20@vector@10:
  00043	89 06		 mov	 DWORD PTR [esi], eax
  00045	89 4c 24 20	 mov	 DWORD PTR __$EHRec$[esp+44], ecx

; 501  : 		if (_Buy(_Right.size()))

  00049	8b 7b 10	 mov	 edi, DWORD PTR [ebx+16]
  0004c	2b 7b 0c	 sub	 edi, DWORD PTR [ebx+12]
  0004f	89 4e 0c	 mov	 DWORD PTR [esi+12], ecx
  00052	c1 ff 02	 sar	 edi, 2
  00055	89 4e 10	 mov	 DWORD PTR [esi+16], ecx
  00058	89 4e 14	 mov	 DWORD PTR [esi+20], ecx
  0005b	3b f9		 cmp	 edi, ecx
  0005d	74 5f		 je	 SHORT $LN5@vector@10
  0005f	81 ff ff ff ff
	3f		 cmp	 edi, 1073741823		; 3fffffffH
  00065	76 05		 jbe	 SHORT $LN46@vector@10
  00067	e8 00 00 00 00	 call	 ?_Xlen@?$vector@IV?$allocator@I@std@@@std@@KAXXZ ; std::vector<unsigned int,std::allocator<unsigned int> >::_Xlen
$LN110@vector@10:
$LN46@vector@10:
  0006c	8b cf		 mov	 ecx, edi
  0006e	e8 00 00 00 00	 call	 ?allocate@?$allocator@I@std@@QAEPAII@Z ; std::allocator<unsigned int>::allocate
  00073	89 46 0c	 mov	 DWORD PTR [esi+12], eax
  00076	89 46 10	 mov	 DWORD PTR [esi+16], eax
  00079	8d 04 b8	 lea	 eax, DWORD PTR [eax+edi*4]
  0007c	89 46 14	 mov	 DWORD PTR [esi+20], eax

; 502  : 			_TRY_BEGIN
; 503  : 			_Mylast = _Ucopy(_Right.begin(), _Right.end(), _Myfirst);

  0007f	8b 7b 10	 mov	 edi, DWORD PTR [ebx+16]
  00082	39 7b 0c	 cmp	 DWORD PTR [ebx+12], edi
  00085	76 05		 jbe	 SHORT $LN60@vector@10
  00087	e8 00 00 00 00	 call	 __invalid_parameter_noinfo
$LN60@vector@10:
  0008c	8b 6b 0c	 mov	 ebp, DWORD PTR [ebx+12]
  0008f	3b 6b 10	 cmp	 ebp, DWORD PTR [ebx+16]
  00092	76 05		 jbe	 SHORT $LN74@vector@10
  00094	e8 00 00 00 00	 call	 __invalid_parameter_noinfo
$LN74@vector@10:
  00099	8b 4e 0c	 mov	 ecx, DWORD PTR [esi+12]
  0009c	2b fd		 sub	 edi, ebp
  0009e	c1 ff 02	 sar	 edi, 2
  000a1	8d 04 bd 00 00
	00 00		 lea	 eax, DWORD PTR [edi*4]
  000a8	8d 1c 08	 lea	 ebx, DWORD PTR [eax+ecx]
  000ab	85 ff		 test	 edi, edi
  000ad	76 0c		 jbe	 SHORT $LN103@vector@10
  000af	50		 push	 eax
  000b0	55		 push	 ebp
  000b1	50		 push	 eax
  000b2	51		 push	 ecx
  000b3	e8 00 00 00 00	 call	 _memmove_s
  000b8	83 c4 10	 add	 esp, 16			; 00000010H
$LN103@vector@10:
  000bb	89 5e 10	 mov	 DWORD PTR [esi+16], ebx
$LN5@vector@10:

; 504  : 			_CATCH_ALL
; 505  : 			_Tidy();
; 506  : 			_RERAISE;
; 507  : 			_CATCH_END
; 508  : 		}

  000be	8b c6		 mov	 eax, esi
  000c0	8b 4c 24 18	 mov	 ecx, DWORD PTR __$EHRec$[esp+36]
  000c4	64 89 0d 00 00
	00 00		 mov	 DWORD PTR fs:0, ecx
  000cb	59		 pop	 ecx
  000cc	5f		 pop	 edi
  000cd	5e		 pop	 esi
  000ce	5d		 pop	 ebp
  000cf	5b		 pop	 ebx
  000d0	83 c4 10	 add	 esp, 16			; 00000010H
  000d3	c2 08 00	 ret	 8
$LN109@vector@10:
_TEXT	ENDS
;	COMDAT text$x
text$x	SEGMENT
__unwindfunclet$??0?$vector@IV?$allocator@I@std@@@std@@QAE@ABV01@@Z$2:
  00000	8b 45 04	 mov	 eax, DWORD PTR _this$[ebp-4]
  00003	e9 00 00 00 00	 jmp	 ??1?$_Vector_val@IV?$allocator@I@std@@@std@@QAE@XZ
__ehhandler$??0?$vector@IV?$allocator@I@std@@@std@@QAE@ABV01@@Z:
  00008	8b 54 24 08	 mov	 edx, DWORD PTR [esp+8]
  0000c	8d 42 ec	 lea	 eax, DWORD PTR [edx-20]
  0000f	8b 4a e8	 mov	 ecx, DWORD PTR [edx-24]
  00012	33 c8		 xor	 ecx, eax
  00014	e8 00 00 00 00	 call	 @__security_check_cookie@4
  00019	b8 00 00 00 00	 mov	 eax, OFFSET __ehfuncinfo$??0?$vector@IV?$allocator@I@std@@@std@@QAE@ABV01@@Z
  0001e	e9 00 00 00 00	 jmp	 ___CxxFrameHandler3
text$x	ENDS
??0?$vector@IV?$allocator@I@std@@@std@@QAE@ABV01@@Z ENDP ; std::vector<unsigned int,std::allocator<unsigned int> >::vector<unsigned int,std::allocator<unsigned int> >
;	COMDAT xdata$x
; File c:\program files\microsoft visual studio 9.0\vc\include\exception
xdata$x	SEGMENT
__unwindtable$??0?$vector@IV?$allocator@I@std@@@std@@QAE@XZ DD 0ffffffffH
	DD	FLAT:__unwindfunclet$??0?$vector@IV?$allocator@I@std@@@std@@QAE@XZ$0
__ehfuncinfo$??0?$vector@IV?$allocator@I@std@@@std@@QAE@XZ DD 019930522H
	DD	01H
	DD	FLAT:__unwindtable$??0?$vector@IV?$allocator@I@std@@@std@@QAE@XZ
	DD	2 DUP(00H)
	DD	2 DUP(00H)
	DD	00H
	DD	01H
; Function compile flags: /Ogtpy
; File c:\program files\microsoft visual studio 9.0\vc\include\vector
xdata$x	ENDS
;	COMDAT ??0?$vector@IV?$allocator@I@std@@@std@@QAE@XZ
_TEXT	SEGMENT
__$EHRec$ = -12						; size = 12
_this$ = 8						; size = 4
??0?$vector@IV?$allocator@I@std@@@std@@QAE@XZ PROC	; std::vector<unsigned int,std::allocator<unsigned int> >::vector<unsigned int,std::allocator<unsigned int> >, COMDAT

; 470  : 		{	// construct empty vector

  00000	6a ff		 push	 -1
  00002	68 00 00 00 00	 push	 __ehhandler$??0?$vector@IV?$allocator@I@std@@@std@@QAE@XZ
  00007	64 a1 00 00 00
	00		 mov	 eax, DWORD PTR fs:0
  0000d	50		 push	 eax
  0000e	51		 push	 ecx
  0000f	56		 push	 esi
  00010	a1 00 00 00 00	 mov	 eax, DWORD PTR ___security_cookie
  00015	33 c4		 xor	 eax, esp
  00017	50		 push	 eax
  00018	8d 44 24 0c	 lea	 eax, DWORD PTR __$EHRec$[esp+24]
  0001c	64 a3 00 00 00
	00		 mov	 DWORD PTR fs:0, eax
  00022	8b 74 24 1c	 mov	 esi, DWORD PTR _this$[esp+20]
  00026	6a 04		 push	 4
  00028	e8 00 00 00 00	 call	 ??2@YAPAXI@Z		; operator new
  0002d	33 c9		 xor	 ecx, ecx
  0002f	83 c4 04	 add	 esp, 4
  00032	3b c1		 cmp	 eax, ecx
  00034	74 04		 je	 SHORT $LN13@vector@11
  00036	89 30		 mov	 DWORD PTR [eax], esi
  00038	eb 02		 jmp	 SHORT $LN14@vector@11
$LN13@vector@11:
  0003a	33 c0		 xor	 eax, eax
$LN14@vector@11:
  0003c	89 06		 mov	 DWORD PTR [esi], eax

; 471  : 		_Buy(0);

  0003e	89 4e 0c	 mov	 DWORD PTR [esi+12], ecx
  00041	89 4e 10	 mov	 DWORD PTR [esi+16], ecx
  00044	89 4e 14	 mov	 DWORD PTR [esi+20], ecx

; 472  : 		}

  00047	8b c6		 mov	 eax, esi
  00049	8b 4c 24 0c	 mov	 ecx, DWORD PTR __$EHRec$[esp+24]
  0004d	64 89 0d 00 00
	00 00		 mov	 DWORD PTR fs:0, ecx
  00054	59		 pop	 ecx
  00055	5e		 pop	 esi
  00056	83 c4 10	 add	 esp, 16			; 00000010H
  00059	c2 04 00	 ret	 4
_TEXT	ENDS
;	COMDAT text$x
text$x	SEGMENT
__unwindfunclet$??0?$vector@IV?$allocator@I@std@@@std@@QAE@XZ$0:
  00000	8b 45 04	 mov	 eax, DWORD PTR _this$[ebp-4]
  00003	e9 00 00 00 00	 jmp	 ??1?$_Vector_val@IV?$allocator@I@std@@@std@@QAE@XZ
__ehhandler$??0?$vector@IV?$allocator@I@std@@@std@@QAE@XZ:
  00008	8b 54 24 08	 mov	 edx, DWORD PTR [esp+8]
  0000c	8d 42 f8	 lea	 eax, DWORD PTR [edx-8]
  0000f	8b 4a f4	 mov	 ecx, DWORD PTR [edx-12]
  00012	33 c8		 xor	 ecx, eax
  00014	e8 00 00 00 00	 call	 @__security_check_cookie@4
  00019	b8 00 00 00 00	 mov	 eax, OFFSET __ehfuncinfo$??0?$vector@IV?$allocator@I@std@@@std@@QAE@XZ
  0001e	e9 00 00 00 00	 jmp	 ___CxxFrameHandler3
text$x	ENDS
??0?$vector@IV?$allocator@I@std@@@std@@QAE@XZ ENDP	; std::vector<unsigned int,std::allocator<unsigned int> >::vector<unsigned int,std::allocator<unsigned int> >
PUBLIC	??1BER_Input@@UAE@XZ				; BER_Input::~BER_Input
; Function compile flags: /Ogtpy
; File i:\nj\my project\cms\cms\asn1\ber_input.cpp
;	COMDAT ??1BER_Input@@UAE@XZ
_TEXT	SEGMENT
??1BER_Input@@UAE@XZ PROC				; BER_Input::~BER_Input, COMDAT
; _this$ = eax

; 25   : {

  00000	51		 push	 ecx
  00001	8b 48 a8	 mov	 ecx, DWORD PTR [eax-88]
  00004	8b 51 04	 mov	 edx, DWORD PTR [ecx+4]

; 26   : }

  00007	50		 push	 eax
  00008	c7 44 02 a8 00
	00 00 00	 mov	 DWORD PTR [edx+eax-88], OFFSET ??_7BER_Input@@6B@
  00010	e8 00 00 00 00	 call	 ??1FileInput@@UAE@XZ	; FileInput::~FileInput
  00015	59		 pop	 ecx
  00016	c3		 ret	 0
??1BER_Input@@UAE@XZ ENDP				; BER_Input::~BER_Input
; Function compile flags: /Ogtpy
_TEXT	ENDS
;	COMDAT ??_DBER_Input@@QAEXXZ
_TEXT	SEGMENT
??_DBER_Input@@QAEXXZ PROC				; BER_Input::`vbase destructor', COMDAT
; _this$ = eax
  00000	56		 push	 esi
  00001	8b f0		 mov	 esi, eax
  00003	8b 06		 mov	 eax, DWORD PTR [esi]
  00005	8b 48 04	 mov	 ecx, DWORD PTR [eax+4]
  00008	83 c6 58	 add	 esi, 88			; 00000058H
  0000b	56		 push	 esi
  0000c	c7 44 31 a8 00
	00 00 00	 mov	 DWORD PTR [ecx+esi-88], OFFSET ??_7BER_Input@@6B@
  00014	e8 00 00 00 00	 call	 ??1FileInput@@UAE@XZ	; FileInput::~FileInput
  00019	56		 push	 esi
  0001a	c7 06 00 00 00
	00		 mov	 DWORD PTR [esi], OFFSET ??_7ios_base@std@@6B@
  00020	e8 00 00 00 00	 call	 ?_Ios_base_dtor@ios_base@std@@CAXPAV12@@Z ; std::ios_base::_Ios_base_dtor
  00025	83 c4 04	 add	 esp, 4
  00028	5e		 pop	 esi
  00029	c3		 ret	 0
??_DBER_Input@@QAEXXZ ENDP				; BER_Input::`vbase destructor'
; Function compile flags: /Ogtpy
_TEXT	ENDS
;	COMDAT ??_GBER_Input@@UAEPAXI@Z
_TEXT	SEGMENT
___flags$ = 8						; size = 4
??_GBER_Input@@UAEPAXI@Z PROC				; BER_Input::`scalar deleting destructor', COMDAT
; _this$ = ecx
  00000	56		 push	 esi
  00001	57		 push	 edi
  00002	8d 79 a8	 lea	 edi, DWORD PTR [ecx-88]
  00005	8b 07		 mov	 eax, DWORD PTR [edi]
  00007	8b 48 04	 mov	 ecx, DWORD PTR [eax+4]
  0000a	8d 77 58	 lea	 esi, DWORD PTR [edi+88]
  0000d	56		 push	 esi
  0000e	c7 44 31 a8 00
	00 00 00	 mov	 DWORD PTR [ecx+esi-88], OFFSET ??_7BER_Input@@6B@
  00016	e8 00 00 00 00	 call	 ??1FileInput@@UAE@XZ	; FileInput::~FileInput
  0001b	56		 push	 esi
  0001c	c7 06 00 00 00
	00		 mov	 DWORD PTR [esi], OFFSET ??_7ios_base@std@@6B@
  00022	e8 00 00 00 00	 call	 ?_Ios_base_dtor@ios_base@std@@CAXPAV12@@Z ; std::ios_base::_Ios_base_dtor
  00027	83 c4 04	 add	 esp, 4
  0002a	f6 44 24 0c 01	 test	 BYTE PTR ___flags$[esp+4], 1
  0002f	74 09		 je	 SHORT $LN14@scalar@26
  00031	57		 push	 edi
  00032	e8 00 00 00 00	 call	 ??3@YAXPAX@Z		; operator delete
  00037	83 c4 04	 add	 esp, 4
$LN14@scalar@26:
  0003a	8b c7		 mov	 eax, edi
  0003c	5f		 pop	 edi
  0003d	5e		 pop	 esi
  0003e	c2 04 00	 ret	 4
??_GBER_Input@@UAEPAXI@Z ENDP				; BER_Input::`scalar deleting destructor'
_TEXT	ENDS
PUBLIC	??0BER_Input@@QAE@PBD@Z				; BER_Input::BER_Input
;	COMDAT xdata$x
; File c:\program files\microsoft visual studio 9.0\vc\include\xiosbase
xdata$x	SEGMENT
__unwindtable$??0BER_Input@@QAE@PBD@Z DD 0ffffffffH
	DD	00H
__ehfuncinfo$??0BER_Input@@QAE@PBD@Z DD 019930522H
	DD	01H
	DD	FLAT:__unwindtable$??0BER_Input@@QAE@PBD@Z
	DD	2 DUP(00H)
	DD	2 DUP(00H)
	DD	00H
	DD	01H
; Function compile flags: /Ogtpy
; File i:\nj\my project\cms\cms\asn1\ber_input.cpp
xdata$x	ENDS
;	COMDAT ??0BER_Input@@QAE@PBD@Z
_TEXT	SEGMENT
$T96992 = -16						; size = 4
__$EHRec$ = -12						; size = 12
_this$ = 8						; size = 4
_strFileName$ = 12					; size = 4
??0BER_Input@@QAE@PBD@Z PROC				; BER_Input::BER_Input, COMDAT

; 14   : {

  00000	6a ff		 push	 -1
  00002	68 00 00 00 00	 push	 __ehhandler$??0BER_Input@@QAE@PBD@Z
  00007	64 a1 00 00 00
	00		 mov	 eax, DWORD PTR fs:0
  0000d	50		 push	 eax
  0000e	83 ec 08	 sub	 esp, 8
  00011	56		 push	 esi
  00012	a1 00 00 00 00	 mov	 eax, DWORD PTR ___security_cookie
  00017	33 c4		 xor	 eax, esp
  00019	50		 push	 eax
  0001a	8d 44 24 10	 lea	 eax, DWORD PTR __$EHRec$[esp+28]
  0001e	64 a3 00 00 00
	00		 mov	 DWORD PTR fs:0, eax
  00024	8b 74 24 20	 mov	 esi, DWORD PTR _this$[esp+24]
  00028	8b 44 24 24	 mov	 eax, DWORD PTR _strFileName$[esp+24]
  0002c	6a 00		 push	 0
  0002e	50		 push	 eax
  0002f	56		 push	 esi
  00030	c7 44 24 18 00
	00 00 00	 mov	 DWORD PTR $T96992[esp+40], 0
  00038	e8 00 00 00 00	 call	 ??0FileInput@@QAE@PBD@Z	; FileInput::FileInput
  0003d	8b 0e		 mov	 ecx, DWORD PTR [esi]
  0003f	8b 51 04	 mov	 edx, DWORD PTR [ecx+4]
  00042	c7 04 16 00 00
	00 00		 mov	 DWORD PTR [esi+edx], OFFSET ??_7BER_Input@@6B@

; 15   : }

  00049	8b c6		 mov	 eax, esi
  0004b	8b 4c 24 10	 mov	 ecx, DWORD PTR __$EHRec$[esp+28]
  0004f	64 89 0d 00 00
	00 00		 mov	 DWORD PTR fs:0, ecx
  00056	59		 pop	 ecx
  00057	5e		 pop	 esi
  00058	83 c4 14	 add	 esp, 20			; 00000014H
  0005b	c2 08 00	 ret	 8
_TEXT	ENDS
;	COMDAT text$x
text$x	SEGMENT
__ehhandler$??0BER_Input@@QAE@PBD@Z:
  00000	8b 54 24 08	 mov	 edx, DWORD PTR [esp+8]
  00004	8d 42 f4	 lea	 eax, DWORD PTR [edx-12]
  00007	8b 4a f0	 mov	 ecx, DWORD PTR [edx-16]
  0000a	33 c8		 xor	 ecx, eax
  0000c	e8 00 00 00 00	 call	 @__security_check_cookie@4
  00011	b8 00 00 00 00	 mov	 eax, OFFSET __ehfuncinfo$??0BER_Input@@QAE@PBD@Z
  00016	e9 00 00 00 00	 jmp	 ___CxxFrameHandler3
text$x	ENDS
??0BER_Input@@QAE@PBD@Z ENDP				; BER_Input::BER_Input
PUBLIC	?read_variable@BER_Input@@QAEIXZ		; BER_Input::read_variable
; Function compile flags: /Ogtpy
;	COMDAT ?read_variable@BER_Input@@QAEIXZ
_TEXT	SEGMENT
_cData$101136 = 8					; size = 1
_this$ = 8						; size = 4
?read_variable@BER_Input@@QAEIXZ PROC			; BER_Input::read_variable, COMDAT

; 98   : {

  00000	51		 push	 ecx
  00001	53		 push	 ebx
  00002	8b 5c 24 0c	 mov	 ebx, DWORD PTR _this$[esp+4]
  00006	56		 push	 esi

; 99   : 	//----------------------------------
; 100  : 	//Local 
; 101  : 	unsigned	int			iData=0;		//l

  00007	33 f6		 xor	 esi, esi
  00009	57		 push	 edi

; 102  : 	unsigned	int			count=9;		//JEgp

  0000a	8d 7e 09	 lea	 edi, DWORD PTR [esi+9]
  0000d	8d 49 00	 npad	 3
$LL4@read_varia:

; 103  : 	unsigned	char		cData;			//p
; 104  : 
; 105  : 	//----------------------------------
; 106  : 	//f^^C
; 107  : 	do{
; 108  : 		iData <<= 7;
; 109  : 		cData = cRead();

  00010	6a 01		 push	 1
  00012	8d 44 24 18	 lea	 eax, DWORD PTR _cData$101136[esp+16]
  00016	50		 push	 eax
  00017	53		 push	 ebx
  00018	e8 00 00 00 00	 call	 ?_Read_s@?$basic_istream@DU?$char_traits@D@std@@@std@@QAEAAV12@PADIH@Z ; std::basic_istream<char,std::char_traits<char> >::_Read_s

; 110  : 		iData	|= (unsigned int)cData & 0x7F;

  0001d	8a 44 24 14	 mov	 al, BYTE PTR _cData$101136[esp+12]
  00021	0f b6 c8	 movzx	 ecx, al
  00024	83 e1 7f	 and	 ecx, 127		; 0000007fH
  00027	c1 e6 07	 shl	 esi, 7
  0002a	0b f1		 or	 esi, ecx

; 111  : 		count--;

  0002c	83 ef 01	 sub	 edi, 1

; 112  : 	} while ( (count > 0) && (cData & 0x80) );

  0002f	74 04		 je	 SHORT $LN12@read_varia
  00031	84 c0		 test	 al, al
  00033	78 db		 js	 SHORT $LL4@read_varia
$LN12@read_varia:

; 113  : 
; 114  : 	return(iData);
; 115  : }

  00035	5f		 pop	 edi
  00036	8b c6		 mov	 eax, esi
  00038	5e		 pop	 esi
  00039	5b		 pop	 ebx
  0003a	59		 pop	 ecx
  0003b	c2 04 00	 ret	 4
?read_variable@BER_Input@@QAEIXZ ENDP			; BER_Input::read_variable
_TEXT	ENDS
PUBLIC	?read_uint@BER_Input@@QAEIH@Z			; BER_Input::read_uint
; Function compile flags: /Ogtpy
;	COMDAT ?read_uint@BER_Input@@QAEIH@Z
_TEXT	SEGMENT
_cData$101150 = 8					; size = 1
_this$ = 8						; size = 4
?read_uint@BER_Input@@QAEIH@Z PROC			; BER_Input::read_uint, COMDAT
; _iSize$ = eax

; 78   : {

  00000	51		 push	 ecx
  00001	53		 push	 ebx
  00002	8b 5c 24 0c	 mov	 ebx, DWORD PTR _this$[esp+4]
  00006	56		 push	 esi
  00007	57		 push	 edi
  00008	8b f8		 mov	 edi, eax

; 79   : 	unsigned int	iResult = 0;

  0000a	33 f6		 xor	 esi, esi
  0000c	8d 64 24 00	 npad	 4
$LL3@read_uint:

; 80   : 
; 81   : 	do{
; 82   : 		iResult <<= 8;
; 83   : 		iResult |= cRead();

  00010	6a 01		 push	 1
  00012	8d 44 24 18	 lea	 eax, DWORD PTR _cData$101150[esp+16]
  00016	50		 push	 eax
  00017	53		 push	 ebx
  00018	e8 00 00 00 00	 call	 ?_Read_s@?$basic_istream@DU?$char_traits@D@std@@@std@@QAEAAV12@PADIH@Z ; std::basic_istream<char,std::char_traits<char> >::_Read_s
  0001d	0f b6 4c 24 14	 movzx	 ecx, BYTE PTR _cData$101150[esp+12]
  00022	c1 e6 08	 shl	 esi, 8

; 84   : 		iSize--;

  00025	4f		 dec	 edi
  00026	0b f1		 or	 esi, ecx

; 85   : 	} while (iSize>0);

  00028	85 ff		 test	 edi, edi
  0002a	7f e4		 jg	 SHORT $LL3@read_uint

; 86   : 
; 87   : 	return(iResult);
; 88   : }

  0002c	5f		 pop	 edi
  0002d	8b c6		 mov	 eax, esi
  0002f	5e		 pop	 esi
  00030	5b		 pop	 ebx
  00031	59		 pop	 ecx
  00032	c2 04 00	 ret	 4
?read_uint@BER_Input@@QAEIH@Z ENDP			; BER_Input::read_uint
_TEXT	ENDS
PUBLIC	?read_int@BER_Input@@QAEHH@Z			; BER_Input::read_int
; Function compile flags: /Ogtpy
;	COMDAT ?read_int@BER_Input@@QAEHH@Z
_TEXT	SEGMENT
_cData$101172 = -1					; size = 1
_cData$101163 = -1					; size = 1
?read_int@BER_Input@@QAEHH@Z PROC			; BER_Input::read_int, COMDAT
; _this$ = edi
; _iSize$ = eax

; 53   : {

  00000	51		 push	 ecx
  00001	53		 push	 ebx
  00002	56		 push	 esi
  00003	8b f0		 mov	 esi, eax

; 54   : 	int		iResult	= cRead();

  00005	6a 01		 push	 1
  00007	8d 44 24 0f	 lea	 eax, DWORD PTR _cData$101163[esp+16]
  0000b	50		 push	 eax
  0000c	57		 push	 edi
  0000d	e8 00 00 00 00	 call	 ?_Read_s@?$basic_istream@DU?$char_traits@D@std@@@std@@QAEAAV12@PADIH@Z ; std::basic_istream<char,std::char_traits<char> >::_Read_s
  00012	0f b6 5c 24 0b	 movzx	 ebx, BYTE PTR _cData$101163[esp+12]

; 55   : 
; 56   : 	if(iResult & 0x80){			//H

  00017	84 db		 test	 bl, bl
  00019	79 06		 jns	 SHORT $LN3@read_int

; 57   : 		iResult |= 0xFFFFFF00;

  0001b	81 cb 00 ff ff
	ff		 or	 ebx, -256		; ffffff00H
$LN3@read_int:

; 58   : 	}
; 59   : 
; 60   : 	iSize--;

  00021	4e		 dec	 esi

; 61   : 	while(iSize>0){

  00022	85 f6		 test	 esi, esi
  00024	7e 1c		 jle	 SHORT $LN16@read_int
$LL2@read_int:

; 62   : 		iResult <<= 8;
; 63   : 		iResult |= cRead();

  00026	6a 01		 push	 1
  00028	8d 4c 24 0f	 lea	 ecx, DWORD PTR _cData$101172[esp+16]
  0002c	51		 push	 ecx
  0002d	57		 push	 edi
  0002e	e8 00 00 00 00	 call	 ?_Read_s@?$basic_istream@DU?$char_traits@D@std@@@std@@QAEAAV12@PADIH@Z ; std::basic_istream<char,std::char_traits<char> >::_Read_s
  00033	0f b6 54 24 0b	 movzx	 edx, BYTE PTR _cData$101172[esp+12]
  00038	c1 e3 08	 shl	 ebx, 8

; 64   : 		iSize--;

  0003b	4e		 dec	 esi
  0003c	0b da		 or	 ebx, edx
  0003e	85 f6		 test	 esi, esi
  00040	7f e4		 jg	 SHORT $LL2@read_int
$LN16@read_int:

; 65   : 	};
; 66   : 
; 67   : 	return(iResult);
; 68   : }

  00042	5e		 pop	 esi
  00043	8b c3		 mov	 eax, ebx
  00045	5b		 pop	 ebx
  00046	59		 pop	 ecx
  00047	c3		 ret	 0
?read_int@BER_Input@@QAEHH@Z ENDP			; BER_Input::read_int
PUBLIC	?read_TAG@BER_Input@@QAEIPAEPA_NPAI@Z		; BER_Input::read_TAG
; Function compile flags: /Ogtpy
;	COMDAT ?read_TAG@BER_Input@@QAEIPAEPA_NPAI@Z
_TEXT	SEGMENT
_cData$101545 = -1					; size = 1
_cData$101554 = 8					; size = 1
_cClass$ = 8						; size = 4
_fStruct$ = 12						; size = 4
_iTag$ = 16						; size = 4
?read_TAG@BER_Input@@QAEIPAEPA_NPAI@Z PROC		; BER_Input::read_TAG, COMDAT
; _this$ = esi

; 128  : {

  00000	83 ec 08	 sub	 esp, 8

; 129  : 	unsigned	char	cTag = cRead();

  00003	6a 01		 push	 1
  00005	8d 44 24 0b	 lea	 eax, DWORD PTR _cData$101545[esp+12]
  00009	50		 push	 eax
  0000a	56		 push	 esi
  0000b	e8 00 00 00 00	 call	 ?_Read_s@?$basic_istream@DU?$char_traits@D@std@@@std@@QAEAAV12@PADIH@Z ; std::basic_istream<char,std::char_traits<char> >::_Read_s

; 130  : 	unsigned	int		iSize;
; 131  : 
; 132  : 	*cClass		= cTag>>6;

  00010	8a 44 24 07	 mov	 al, BYTE PTR _cData$101545[esp+8]
  00014	8b 54 24 0c	 mov	 edx, DWORD PTR _cClass$[esp+4]
  00018	8a c8		 mov	 cl, al
  0001a	c0 e9 06	 shr	 cl, 6
  0001d	88 0a		 mov	 BYTE PTR [edx], cl

; 133  : 	*fStruct	= (cTag & (0x01<<5))? true : false;

  0001f	8b 54 24 10	 mov	 edx, DWORD PTR _fStruct$[esp+4]
  00023	8a c8		 mov	 cl, al
  00025	c0 e9 05	 shr	 cl, 5
  00028	80 e1 01	 and	 cl, 1

; 134  : 	
; 135  : 	cTag &= 0x1F;

  0002b	24 1f		 and	 al, 31			; 0000001fH
  0002d	88 0a		 mov	 BYTE PTR [edx], cl

; 136  : 
; 137  : 	*iTag = ((cTag <= 30)? cTag : read_variable());

  0002f	3c 1e		 cmp	 al, 30			; 0000001eH
  00031	77 05		 ja	 SHORT $LN4@read_TAG
  00033	0f b6 c0	 movzx	 eax, al
  00036	eb 06		 jmp	 SHORT $LN5@read_TAG
$LN4@read_TAG:
  00038	56		 push	 esi
  00039	e8 00 00 00 00	 call	 ?read_variable@BER_Input@@QAEIXZ ; BER_Input::read_variable
$LN5@read_TAG:
  0003e	8b 4c 24 14	 mov	 ecx, DWORD PTR _iTag$[esp+4]

; 138  : 
; 139  : 	iSize = cRead();

  00042	6a 01		 push	 1
  00044	8d 54 24 10	 lea	 edx, DWORD PTR _cData$101554[esp+8]
  00048	52		 push	 edx
  00049	56		 push	 esi
  0004a	89 01		 mov	 DWORD PTR [ecx], eax
  0004c	e8 00 00 00 00	 call	 ?_Read_s@?$basic_istream@DU?$char_traits@D@std@@@std@@QAEAAV12@PADIH@Z ; std::basic_istream<char,std::char_traits<char> >::_Read_s
  00051	0f b6 44 24 0c	 movzx	 eax, BYTE PTR _cData$101554[esp+4]

; 140  : 	if(iSize >= 0x81){

  00056	3d 81 00 00 00	 cmp	 eax, 129		; 00000081H
  0005b	72 09		 jb	 SHORT $LN1@read_TAG

; 141  : 		iSize = read_uint(iSize & 0x7F);

  0005d	83 e0 7f	 and	 eax, 127		; 0000007fH
  00060	56		 push	 esi
  00061	e8 00 00 00 00	 call	 ?read_uint@BER_Input@@QAEIH@Z ; BER_Input::read_uint
$LN1@read_TAG:

; 142  : 	}
; 143  : 
; 144  : 	return(iSize);
; 145  : }

  00066	83 c4 08	 add	 esp, 8
  00069	c2 0c 00	 ret	 12			; 0000000cH
?read_TAG@BER_Input@@QAEIPAEPA_NPAI@Z ENDP		; BER_Input::read_TAG
_TEXT	ENDS
PUBLIC	?DecodeError@BER_Input@@QAEXI@Z			; BER_Input::DecodeError
; Function compile flags: /Ogtpy
;	COMDAT ?DecodeError@BER_Input@@QAEXI@Z
_TEXT	SEGMENT
?DecodeError@BER_Input@@QAEXI@Z PROC			; BER_Input::DecodeError, COMDAT

; 37   : 	static	const	char*	const	msg_err[2]={
; 38   : 		"Different Struct.",		//0x00: \B
; 39   : 	};
; 40   : 
; 41   : 	errPrint("ASN.1 BER Decode Error :", msg_err[iEer]);

  00000	a1 00 00 00 00	 mov	 eax, DWORD PTR ?msg_err@?1??DecodeError@BER_Input@@QAEXI@Z@4QBQBDB
  00005	b9 00 00 00 00	 mov	 ecx, OFFSET ??_C@_0BJ@HKJKLLAJ@ASN?41?5BER?5Decode?5Error?5?3?$AA@
  0000a	e9 00 00 00 00	 jmp	 ?errPrint@@YAXPBD0@Z	; errPrint
?DecodeError@BER_Input@@QAEXI@Z ENDP			; BER_Input::DecodeError
PUBLIC	?read_TAG_with_Check@BER_Input@@QAEIE_NI@Z	; BER_Input::read_TAG_with_Check
; Function compile flags: /Ogtpy
;	COMDAT ?read_TAG_with_Check@BER_Input@@QAEIE_NI@Z
_TEXT	SEGMENT
_read_class$ = -6					; size = 1
_read_fStruct$ = -5					; size = 1
_read_tag$ = -4						; size = 4
_cClass$ = 8						; size = 1
_fStruct$ = 12						; size = 1
_iTag$ = 16						; size = 4
?read_TAG_with_Check@BER_Input@@QAEIE_NI@Z PROC		; BER_Input::read_TAG_with_Check, COMDAT
; _this$ = esi

; 159  : {

  00000	83 ec 08	 sub	 esp, 8

; 160  : 	unsigned	int		read_tag;
; 161  : 	unsigned	char	read_class;
; 162  : 				bool	read_fStruct;
; 163  : 	unsigned	int		iSize;
; 164  : 
; 165  : 	iSize = read_TAG(&read_class, &read_fStruct, &read_tag);

  00003	8d 44 24 04	 lea	 eax, DWORD PTR _read_tag$[esp+8]
  00007	50		 push	 eax
  00008	8d 4c 24 07	 lea	 ecx, DWORD PTR _read_fStruct$[esp+12]
  0000c	51		 push	 ecx
  0000d	8d 54 24 0a	 lea	 edx, DWORD PTR _read_class$[esp+16]
  00011	52		 push	 edx
  00012	e8 00 00 00 00	 call	 ?read_TAG@BER_Input@@QAEIPAEPA_NPAI@Z ; BER_Input::read_TAG

; 166  : 
; 167  : 	if((read_class != cClass)||(read_tag != iTag)||(fStruct != read_fStruct)){

  00017	8a 4c 24 02	 mov	 cl, BYTE PTR _read_class$[esp+8]
  0001b	3a 4c 24 0c	 cmp	 cl, BYTE PTR _cClass$[esp+4]
  0001f	75 14		 jne	 SHORT $LN1@read_TAG_w
  00021	8b 54 24 04	 mov	 edx, DWORD PTR _read_tag$[esp+8]
  00025	3b 54 24 14	 cmp	 edx, DWORD PTR _iTag$[esp+4]
  00029	75 0a		 jne	 SHORT $LN1@read_TAG_w
  0002b	8a 4c 24 10	 mov	 cl, BYTE PTR _fStruct$[esp+4]
  0002f	3a 4c 24 03	 cmp	 cl, BYTE PTR _read_fStruct$[esp+8]

; 169  : 	}
; 170  : 
; 171  : 	return(iSize);

  00033	74 0f		 je	 SHORT $LN3@read_TAG_w
$LN1@read_TAG_w:

; 168  : 		DecodeError(0);

  00035	a1 00 00 00 00	 mov	 eax, DWORD PTR ?msg_err@?1??DecodeError@BER_Input@@QAEXI@Z@4QBQBDB
  0003a	b9 00 00 00 00	 mov	 ecx, OFFSET ??_C@_0BJ@HKJKLLAJ@ASN?41?5BER?5Decode?5Error?5?3?$AA@
  0003f	e8 00 00 00 00	 call	 ?errPrint@@YAXPBD0@Z	; errPrint
$LN9@read_TAG_w:
$LN3@read_TAG_w:

; 172  : }

  00044	83 c4 08	 add	 esp, 8
  00047	c2 0c 00	 ret	 12			; 0000000cH
$LN8@read_TAG_w:
?read_TAG_with_Check@BER_Input@@QAEIE_NI@Z ENDP		; BER_Input::read_TAG_with_Check
PUBLIC	?read_Octet_Strings@BER_Input@@QAEIPAVOctetString@@@Z ; BER_Input::read_Octet_Strings
; Function compile flags: /Ogtpy
;	COMDAT ?read_Octet_Strings@BER_Input@@QAEIPAVOctetString@@@Z
_TEXT	SEGMENT
_read_class$103834 = -6					; size = 1
_read_fStruct$103835 = -5				; size = 1
_read_tag$103833 = -4					; size = 4
__str$ = 8						; size = 4
?read_Octet_Strings@BER_Input@@QAEIPAVOctetString@@@Z PROC ; BER_Input::read_Octet_Strings, COMDAT
; _this$ = eax

; 256  : {

  00000	83 ec 0c	 sub	 esp, 12			; 0000000cH
  00003	53		 push	 ebx
  00004	56		 push	 esi
  00005	57		 push	 edi
  00006	8b f0		 mov	 esi, eax

; 257  : 	const		int		iSize	= read_TAG_with_Check(BER_Class_General, false, BER_TAG_OCTET_STRING);

  00008	8d 44 24 14	 lea	 eax, DWORD PTR _read_tag$103833[esp+24]
  0000c	50		 push	 eax
  0000d	8d 4c 24 17	 lea	 ecx, DWORD PTR _read_fStruct$103835[esp+28]
  00011	51		 push	 ecx
  00012	8d 54 24 1a	 lea	 edx, DWORD PTR _read_class$103834[esp+32]
  00016	52		 push	 edx
  00017	e8 00 00 00 00	 call	 ?read_TAG@BER_Input@@QAEIPAEPA_NPAI@Z ; BER_Input::read_TAG
  0001c	80 7c 24 12 00	 cmp	 BYTE PTR _read_class$103834[esp+24], 0
  00021	8b f8		 mov	 edi, eax
  00023	75 43		 jne	 SHORT $LN3@read_Octet
  00025	83 7c 24 14 04	 cmp	 DWORD PTR _read_tag$103833[esp+24], 4
  0002a	75 3c		 jne	 SHORT $LN3@read_Octet
  0002c	80 7c 24 13 00	 cmp	 BYTE PTR _read_fStruct$103835[esp+24], 0
  00031	75 35		 jne	 SHORT $LN3@read_Octet

; 258  : 	
; 259  : 	unsigned	char*	data	= new unsigned char[iSize];

  00033	57		 push	 edi
  00034	e8 00 00 00 00	 call	 ??_U@YAPAXI@Z		; operator new[]
  00039	83 c4 04	 add	 esp, 4

; 260  : 
; 261  : 	read((char *)data, iSize);

  0003c	57		 push	 edi
  0003d	8b d8		 mov	 ebx, eax
  0003f	53		 push	 ebx
  00040	56		 push	 esi
  00041	e8 00 00 00 00	 call	 ?_Read_s@?$basic_istream@DU?$char_traits@D@std@@@std@@QAEAAV12@PADIH@Z ; std::basic_istream<char,std::char_traits<char> >::_Read_s

; 262  : 	_str->Set((char *)data,iSize);

  00046	8b 4c 24 1c	 mov	 ecx, DWORD PTR __str$[esp+20]
  0004a	57		 push	 edi
  0004b	53		 push	 ebx
  0004c	83 c1 44	 add	 ecx, 68			; 00000044H
  0004f	e8 00 00 00 00	 call	 ?assign@?$basic_string@DU?$char_traits@D@std@@V?$allocator@D@2@@std@@QAEAAV12@PBDI@Z ; std::basic_string<char,std::char_traits<char>,std::allocator<char> >::assign

; 263  : 	
; 264  : 	delete	data;

  00054	53		 push	 ebx
  00055	e8 00 00 00 00	 call	 ??3@YAXPAX@Z		; operator delete
  0005a	83 c4 04	 add	 esp, 4

; 265  : 
; 266  : 	return(iSize);

  0005d	8b c7		 mov	 eax, edi

; 267  : }

  0005f	5f		 pop	 edi
  00060	5e		 pop	 esi
  00061	5b		 pop	 ebx
  00062	83 c4 0c	 add	 esp, 12			; 0000000cH
  00065	c2 04 00	 ret	 4

; 257  : 	const		int		iSize	= read_TAG_with_Check(BER_Class_General, false, BER_TAG_OCTET_STRING);

$LN3@read_Octet:
  00068	a1 00 00 00 00	 mov	 eax, DWORD PTR ?msg_err@?1??DecodeError@BER_Input@@QAEXI@Z@4QBQBDB
  0006d	b9 00 00 00 00	 mov	 ecx, OFFSET ??_C@_0BJ@HKJKLLAJ@ASN?41?5BER?5Decode?5Error?5?3?$AA@
  00072	e8 00 00 00 00	 call	 ?errPrint@@YAXPBD0@Z	; errPrint
$LN16@read_Octet:
$LN15@read_Octet:
  00077	cc		 int	 3
?read_Octet_Strings@BER_Input@@QAEIPAVOctetString@@@Z ENDP ; BER_Input::read_Octet_Strings
_TEXT	ENDS
PUBLIC	?read_Object_Identifier@BER_Input@@QAEIPAVObjectIdentifier@@@Z ; BER_Input::read_Object_Identifier
;	COMDAT xdata$x
; File c:\program files\microsoft visual studio 9.0\vc\include\xutility
xdata$x	SEGMENT
__unwindtable$?read_Object_Identifier@BER_Input@@QAEIPAVObjectIdentifier@@@Z DD 0ffffffffH
	DD	FLAT:__unwindfunclet$?read_Object_Identifier@BER_Input@@QAEIPAVObjectIdentifier@@@Z$0
__ehfuncinfo$?read_Object_Identifier@BER_Input@@QAEIPAVObjectIdentifier@@@Z DD 019930522H
	DD	01H
	DD	FLAT:__unwindtable$?read_Object_Identifier@BER_Input@@QAEIPAVObjectIdentifier@@@Z
	DD	2 DUP(00H)
	DD	2 DUP(00H)
	DD	00H
	DD	01H
; Function compile flags: /Ogtpy
; File i:\nj\my project\cms\cms\asn1\ber_input.cpp
xdata$x	ENDS
;	COMDAT ?read_Object_Identifier@BER_Input@@QAEIPAVObjectIdentifier@@@Z
_TEXT	SEGMENT
_read_class$103873 = -86				; size = 1
_read_fStruct$103874 = -85				; size = 1
_read_tag$103872 = -84					; size = 4
$T103860 = -84						; size = 4
$T103858 = -84						; size = 4
$T103857 = -84						; size = 4
_ptPos$ = -80						; size = 4
_iSize$103875 = -76					; size = 4
$T104837 = -72						; size = 8
$T104490 = -72						; size = 8
$T104168 = -72						; size = 8
_iData$ = -64						; size = 24
$T103859 = -40						; size = 24
$T103856 = -40						; size = 24
__$EHRec$ = -12						; size = 12
_cData$104583 = 8					; size = 1
$T103861 = 8						; size = 4
_this$ = 8						; size = 4
_oid$ = 12						; size = 4
?read_Object_Identifier@BER_Input@@QAEIPAVObjectIdentifier@@@Z PROC ; BER_Input::read_Object_Identifier, COMDAT

; 198  : {

  00000	6a ff		 push	 -1
  00002	68 00 00 00 00	 push	 __ehhandler$?read_Object_Identifier@BER_Input@@QAEIPAVObjectIdentifier@@@Z
  00007	64 a1 00 00 00
	00		 mov	 eax, DWORD PTR fs:0
  0000d	50		 push	 eax
  0000e	83 ec 4c	 sub	 esp, 76			; 0000004cH
  00011	53		 push	 ebx
  00012	55		 push	 ebp
  00013	56		 push	 esi
  00014	57		 push	 edi
  00015	a1 00 00 00 00	 mov	 eax, DWORD PTR ___security_cookie
  0001a	33 c4		 xor	 eax, esp
  0001c	50		 push	 eax
  0001d	8d 44 24 60	 lea	 eax, DWORD PTR __$EHRec$[esp+108]
  00021	64 a3 00 00 00
	00		 mov	 DWORD PTR fs:0, eax
  00027	8b 74 24 70	 mov	 esi, DWORD PTR _this$[esp+104]

; 199  : 		const		int		iSize	= read_TAG_with_Check(BER_Class_General, false, BER_TAG_OBJECT_IDENTIFIER);

  0002b	8d 44 24 18	 lea	 eax, DWORD PTR _read_tag$103872[esp+108]
  0002f	50		 push	 eax
  00030	8d 4c 24 1b	 lea	 ecx, DWORD PTR _read_fStruct$103874[esp+112]
  00034	51		 push	 ecx
  00035	8d 54 24 1e	 lea	 edx, DWORD PTR _read_class$103873[esp+116]
  00039	52		 push	 edx
  0003a	e8 00 00 00 00	 call	 ?read_TAG@BER_Input@@QAEIPAEPA_NPAI@Z ; BER_Input::read_TAG
  0003f	33 db		 xor	 ebx, ebx
  00041	8b f8		 mov	 edi, eax
  00043	89 7c 24 20	 mov	 DWORD PTR _iSize$103875[esp+108], edi
  00047	38 5c 24 16	 cmp	 BYTE PTR _read_class$103873[esp+108], bl
  0004b	0f 85 7a 02 00
	00		 jne	 $LN7@read_Objec
  00051	83 7c 24 18 06	 cmp	 DWORD PTR _read_tag$103872[esp+108], 6
  00056	0f 85 6f 02 00
	00		 jne	 $LN7@read_Objec
  0005c	38 5c 24 17	 cmp	 BYTE PTR _read_fStruct$103874[esp+108], bl
  00060	0f 85 65 02 00
	00		 jne	 $LN7@read_Objec

; 200  : 		const		int		ptPos	= iSize + tellg();

  00066	8b 06		 mov	 eax, DWORD PTR [esi]
  00068	8b 48 04	 mov	 ecx, DWORD PTR [eax+4]
  0006b	8d 04 31	 lea	 eax, DWORD PTR [ecx+esi]
  0006e	8b 48 08	 mov	 ecx, DWORD PTR [eax+8]
  00071	f6 c1 06	 test	 cl, 6
  00074	75 1e		 jne	 SHORT $LN16@read_Objec
  00076	8b 48 28	 mov	 ecx, DWORD PTR [eax+40]
  00079	8b 11		 mov	 edx, DWORD PTR [ecx]
  0007b	8b 52 24	 mov	 edx, DWORD PTR [edx+36]
  0007e	6a 01		 push	 1
  00080	6a 01		 push	 1
  00082	53		 push	 ebx
  00083	8d 44 24 50	 lea	 eax, DWORD PTR $T103856[esp+120]
  00087	50		 push	 eax
  00088	ff d2		 call	 edx
  0008a	8b 4c 24 4c	 mov	 ecx, DWORD PTR $T103856[esp+116]
  0008e	8b 44 24 44	 mov	 eax, DWORD PTR $T103856[esp+108]
  00092	eb 0b		 jmp	 SHORT $LN15@read_Objec
$LN16@read_Objec:
  00094	a1 00 00 00 00	 mov	 eax, DWORD PTR ?_BADOFF@std@@3JB ; std::_BADOFF
  00099	33 c9		 xor	 ecx, ecx
  0009b	89 5c 24 50	 mov	 DWORD PTR $T103856[esp+120], ebx
$LN15@read_Objec:
  0009f	03 c1		 add	 eax, ecx
  000a1	03 c7		 add	 eax, edi

; 201  : 		const		int		n		= read_variable();

  000a3	56		 push	 esi
  000a4	89 44 24 20	 mov	 DWORD PTR _ptPos$[esp+112], eax
  000a8	e8 00 00 00 00	 call	 ?read_variable@BER_Input@@QAEIXZ ; BER_Input::read_variable
  000ad	8b e8		 mov	 ebp, eax

; 202  : 	vector<unsigned int>	iData;

  000af	8d 44 24 2c	 lea	 eax, DWORD PTR _iData$[esp+108]
  000b3	50		 push	 eax
  000b4	e8 00 00 00 00	 call	 ??0?$vector@IV?$allocator@I@std@@@std@@QAE@XZ ; std::vector<unsigned int,std::allocator<unsigned int> >::vector<unsigned int,std::allocator<unsigned int> >

; 203  : 
; 204  : 	//OID
; 205  : 	iData.push_back(n / 40);

  000b9	b8 67 66 66 66	 mov	 eax, 1717986919		; 66666667H
  000be	f7 ed		 imul	 ebp
  000c0	c1 fa 04	 sar	 edx, 4
  000c3	8b fa		 mov	 edi, edx
  000c5	89 5c 24 68	 mov	 DWORD PTR __$EHRec$[esp+116], ebx
  000c9	8b 44 24 38	 mov	 eax, DWORD PTR _iData$[esp+120]
  000cd	c1 ef 1f	 shr	 edi, 31			; 0000001fH
  000d0	03 fa		 add	 edi, edx
  000d2	89 7c 24 18	 mov	 DWORD PTR $T103857[esp+108], edi
  000d6	3b c3		 cmp	 eax, ebx
  000d8	75 04		 jne	 SHORT $LN39@read_Objec
  000da	33 d2		 xor	 edx, edx
  000dc	eb 09		 jmp	 SHORT $LN40@read_Objec
$LN39@read_Objec:
  000de	8b 54 24 40	 mov	 edx, DWORD PTR _iData$[esp+128]
  000e2	2b d0		 sub	 edx, eax
  000e4	c1 fa 02	 sar	 edx, 2
$LN40@read_Objec:
  000e7	8b 4c 24 3c	 mov	 ecx, DWORD PTR _iData$[esp+124]
  000eb	8b f1		 mov	 esi, ecx
  000ed	2b f0		 sub	 esi, eax
  000ef	c1 fe 02	 sar	 esi, 2
  000f2	3b f2		 cmp	 esi, edx
  000f4	73 0d		 jae	 SHORT $LN32@read_Objec
  000f6	8b c1		 mov	 eax, ecx
  000f8	83 c0 04	 add	 eax, 4
  000fb	89 39		 mov	 DWORD PTR [ecx], edi
  000fd	89 44 24 3c	 mov	 DWORD PTR _iData$[esp+124], eax
  00101	eb 28		 jmp	 SHORT $LN31@read_Objec
$LN32@read_Objec:
  00103	8b f1		 mov	 esi, ecx
  00105	3b c1		 cmp	 eax, ecx
  00107	76 05		 jbe	 SHORT $LN69@read_Objec
  00109	e8 00 00 00 00	 call	 __invalid_parameter_noinfo
$LN69@read_Objec:
  0010e	8b 44 24 2c	 mov	 eax, DWORD PTR _iData$[esp+108]
  00112	56		 push	 esi
  00113	50		 push	 eax
  00114	8d 4c 24 20	 lea	 ecx, DWORD PTR $T103857[esp+116]
  00118	51		 push	 ecx
  00119	8d 54 24 30	 lea	 edx, DWORD PTR $T104168[esp+120]
  0011d	52		 push	 edx
  0011e	8d 44 24 3c	 lea	 eax, DWORD PTR _iData$[esp+124]
  00122	e8 00 00 00 00	 call	 ?insert@?$vector@IV?$allocator@I@std@@@std@@QAE?AV?$_Vector_iterator@IV?$allocator@I@std@@@2@V?$_Vector_const_iterator@IV?$allocator@I@std@@@2@ABI@Z ; std::vector<unsigned int,std::allocator<unsigned int> >::insert
  00127	8b 44 24 3c	 mov	 eax, DWORD PTR _iData$[esp+124]
$LN31@read_Objec:

; 206  : 	iData.push_back(n % 40);

  0012b	8b 54 24 38	 mov	 edx, DWORD PTR _iData$[esp+120]
  0012f	8d 0c bf	 lea	 ecx, DWORD PTR [edi+edi*4]
  00132	03 c9		 add	 ecx, ecx
  00134	03 c9		 add	 ecx, ecx
  00136	03 c9		 add	 ecx, ecx
  00138	2b e9		 sub	 ebp, ecx
  0013a	89 6c 24 18	 mov	 DWORD PTR $T103858[esp+108], ebp
  0013e	85 d2		 test	 edx, edx
  00140	75 04		 jne	 SHORT $LN88@read_Objec
  00142	33 c9		 xor	 ecx, ecx
  00144	eb 09		 jmp	 SHORT $LN89@read_Objec
$LN88@read_Objec:
  00146	8b 4c 24 40	 mov	 ecx, DWORD PTR _iData$[esp+128]
  0014a	2b ca		 sub	 ecx, edx
  0014c	c1 f9 02	 sar	 ecx, 2
$LN89@read_Objec:
  0014f	8b f0		 mov	 esi, eax
  00151	2b f2		 sub	 esi, edx
  00153	c1 fe 02	 sar	 esi, 2
  00156	3b f1		 cmp	 esi, ecx
  00158	73 0b		 jae	 SHORT $LN81@read_Objec
  0015a	89 28		 mov	 DWORD PTR [eax], ebp
  0015c	83 c0 04	 add	 eax, 4
  0015f	89 44 24 3c	 mov	 DWORD PTR _iData$[esp+124], eax
  00163	eb 24		 jmp	 SHORT $LN235@read_Objec
$LN81@read_Objec:
  00165	8b f0		 mov	 esi, eax
  00167	3b d0		 cmp	 edx, eax
  00169	76 05		 jbe	 SHORT $LN118@read_Objec
  0016b	e8 00 00 00 00	 call	 __invalid_parameter_noinfo
$LN118@read_Objec:
  00170	8b 44 24 2c	 mov	 eax, DWORD PTR _iData$[esp+108]
  00174	56		 push	 esi
  00175	50		 push	 eax
  00176	8d 54 24 20	 lea	 edx, DWORD PTR $T103858[esp+116]
  0017a	52		 push	 edx
  0017b	8d 44 24 30	 lea	 eax, DWORD PTR $T104490[esp+120]
  0017f	50		 push	 eax
  00180	8d 44 24 3c	 lea	 eax, DWORD PTR _iData$[esp+124]
  00184	e8 00 00 00 00	 call	 ?insert@?$vector@IV?$allocator@I@std@@@std@@QAE?AV?$_Vector_iterator@IV?$allocator@I@std@@@2@V?$_Vector_const_iterator@IV?$allocator@I@std@@@2@ABI@Z ; std::vector<unsigned int,std::allocator<unsigned int> >::insert
$LN235@read_Objec:
  00189	8b 5c 24 70	 mov	 ebx, DWORD PTR _this$[esp+104]
  0018d	8d 49 00	 npad	 3
$LL2@read_Objec:

; 207  : 	while(ptPos > tellg()){

  00190	8b 0b		 mov	 ecx, DWORD PTR [ebx]
  00192	8b 51 04	 mov	 edx, DWORD PTR [ecx+4]
  00195	8d 04 1a	 lea	 eax, DWORD PTR [edx+ebx]
  00198	33 ff		 xor	 edi, edi
  0019a	f6 40 08 06	 test	 BYTE PTR [eax+8], 6
  0019e	75 1e		 jne	 SHORT $LN130@read_Objec
  001a0	8b 48 28	 mov	 ecx, DWORD PTR [eax+40]
  001a3	8b 01		 mov	 eax, DWORD PTR [ecx]
  001a5	8b 40 24	 mov	 eax, DWORD PTR [eax+36]
  001a8	6a 01		 push	 1
  001aa	6a 01		 push	 1
  001ac	57		 push	 edi
  001ad	8d 54 24 50	 lea	 edx, DWORD PTR $T103859[esp+120]
  001b1	52		 push	 edx
  001b2	ff d0		 call	 eax
  001b4	8b 4c 24 4c	 mov	 ecx, DWORD PTR $T103859[esp+116]
  001b8	8b 44 24 44	 mov	 eax, DWORD PTR $T103859[esp+108]
  001bc	eb 0b		 jmp	 SHORT $LN129@read_Objec
$LN130@read_Objec:
  001be	a1 00 00 00 00	 mov	 eax, DWORD PTR ?_BADOFF@std@@3JB ; std::_BADOFF
  001c3	33 c9		 xor	 ecx, ecx
  001c5	89 7c 24 50	 mov	 DWORD PTR $T103859[esp+120], edi
$LN129@read_Objec:
  001c9	03 c8		 add	 ecx, eax
  001cb	39 4c 24 1c	 cmp	 DWORD PTR _ptPos$[esp+108], ecx
  001cf	0f 8e 8f 00 00
	00		 jle	 $LN1@read_Objec

; 208  : 		iData.push_back(read_variable());

  001d5	bd 09 00 00 00	 mov	 ebp, 9
  001da	8d 9b 00 00 00
	00		 npad	 6
$LL148@read_Objec:
  001e0	6a 01		 push	 1
  001e2	8d 4c 24 74	 lea	 ecx, DWORD PTR _cData$104583[esp+108]
  001e6	51		 push	 ecx
  001e7	53		 push	 ebx
  001e8	e8 00 00 00 00	 call	 ?_Read_s@?$basic_istream@DU?$char_traits@D@std@@@std@@QAEAAV12@PADIH@Z ; std::basic_istream<char,std::char_traits<char> >::_Read_s
  001ed	8a 44 24 70	 mov	 al, BYTE PTR _cData$104583[esp+104]
  001f1	0f b6 d0	 movzx	 edx, al
  001f4	83 e2 7f	 and	 edx, 127		; 0000007fH
  001f7	c1 e7 07	 shl	 edi, 7
  001fa	0b fa		 or	 edi, edx
  001fc	83 ed 01	 sub	 ebp, 1
  001ff	74 04		 je	 SHORT $LN145@read_Objec
  00201	84 c0		 test	 al, al
  00203	78 db		 js	 SHORT $LL148@read_Objec
$LN145@read_Objec:
  00205	8b 54 24 38	 mov	 edx, DWORD PTR _iData$[esp+120]
  00209	89 7c 24 18	 mov	 DWORD PTR $T103860[esp+108], edi
  0020d	85 d2		 test	 edx, edx
  0020f	75 04		 jne	 SHORT $LN163@read_Objec
  00211	33 c9		 xor	 ecx, ecx
  00213	eb 09		 jmp	 SHORT $LN164@read_Objec
$LN163@read_Objec:
  00215	8b 4c 24 40	 mov	 ecx, DWORD PTR _iData$[esp+128]
  00219	2b ca		 sub	 ecx, edx
  0021b	c1 f9 02	 sar	 ecx, 2
$LN164@read_Objec:
  0021e	8b 44 24 3c	 mov	 eax, DWORD PTR _iData$[esp+124]
  00222	8b f0		 mov	 esi, eax
  00224	2b f2		 sub	 esi, edx
  00226	c1 fe 02	 sar	 esi, 2
  00229	3b f1		 cmp	 esi, ecx
  0022b	73 0e		 jae	 SHORT $LN156@read_Objec
  0022d	89 38		 mov	 DWORD PTR [eax], edi
  0022f	83 c0 04	 add	 eax, 4
  00232	89 44 24 3c	 mov	 DWORD PTR _iData$[esp+124], eax
  00236	e9 55 ff ff ff	 jmp	 $LL2@read_Objec
$LN156@read_Objec:
  0023b	8b f0		 mov	 esi, eax
  0023d	3b d0		 cmp	 edx, eax
  0023f	76 05		 jbe	 SHORT $LN193@read_Objec
  00241	e8 00 00 00 00	 call	 __invalid_parameter_noinfo
$LN193@read_Objec:
  00246	8b 44 24 2c	 mov	 eax, DWORD PTR _iData$[esp+108]
  0024a	56		 push	 esi
  0024b	50		 push	 eax
  0024c	8d 44 24 20	 lea	 eax, DWORD PTR $T103860[esp+116]
  00250	50		 push	 eax
  00251	8d 4c 24 30	 lea	 ecx, DWORD PTR $T104837[esp+120]
  00255	51		 push	 ecx
  00256	8d 44 24 3c	 lea	 eax, DWORD PTR _iData$[esp+124]
  0025a	e8 00 00 00 00	 call	 ?insert@?$vector@IV?$allocator@I@std@@@std@@QAE?AV?$_Vector_iterator@IV?$allocator@I@std@@@2@V?$_Vector_const_iterator@IV?$allocator@I@std@@@2@ABI@Z ; std::vector<unsigned int,std::allocator<unsigned int> >::insert

; 209  : 	}

  0025f	e9 2c ff ff ff	 jmp	 $LL2@read_Objec
$LN1@read_Objec:

; 210  : 	oid->SetVector(iData);

  00264	83 ec 18	 sub	 esp, 24			; 00000018H
  00267	8b d4		 mov	 edx, esp
  00269	89 a4 24 88 00
	00 00		 mov	 DWORD PTR $T103861[esp+128], esp
  00270	8d 44 24 44	 lea	 eax, DWORD PTR _iData$[esp+132]
  00274	50		 push	 eax
  00275	52		 push	 edx
  00276	e8 00 00 00 00	 call	 ??0?$vector@IV?$allocator@I@std@@@std@@QAE@ABV01@@Z ; std::vector<unsigned int,std::allocator<unsigned int> >::vector<unsigned int,std::allocator<unsigned int> >
  0027b	8b 94 24 8c 00
	00 00		 mov	 edx, DWORD PTR _oid$[esp+128]
  00282	e8 00 00 00 00	 call	 ?SetVector@ObjectIdentifier@@QAEXV?$vector@IV?$allocator@I@std@@@std@@@Z ; ObjectIdentifier::SetVector

; 211  : 
; 212  : 	return(iSize);

  00287	8b 44 24 38	 mov	 eax, DWORD PTR _iData$[esp+120]
  0028b	3b c7		 cmp	 eax, edi
  0028d	74 09		 je	 SHORT $LN209@read_Objec
  0028f	50		 push	 eax
  00290	e8 00 00 00 00	 call	 ??3@YAXPAX@Z		; operator delete
  00295	83 c4 04	 add	 esp, 4
$LN209@read_Objec:
  00298	8b 4c 24 2c	 mov	 ecx, DWORD PTR _iData$[esp+108]
  0029c	51		 push	 ecx
  0029d	89 7c 24 3c	 mov	 DWORD PTR _iData$[esp+124], edi
  002a1	89 7c 24 40	 mov	 DWORD PTR _iData$[esp+128], edi
  002a5	89 7c 24 44	 mov	 DWORD PTR _iData$[esp+132], edi
  002a9	e8 00 00 00 00	 call	 ??3@YAXPAX@Z		; operator delete
  002ae	8b 44 24 24	 mov	 eax, DWORD PTR _iSize$103875[esp+112]
  002b2	83 c4 04	 add	 esp, 4

; 213  : }

  002b5	8b 4c 24 60	 mov	 ecx, DWORD PTR __$EHRec$[esp+108]
  002b9	64 89 0d 00 00
	00 00		 mov	 DWORD PTR fs:0, ecx
  002c0	59		 pop	 ecx
  002c1	5f		 pop	 edi
  002c2	5e		 pop	 esi
  002c3	5d		 pop	 ebp
  002c4	5b		 pop	 ebx
  002c5	83 c4 58	 add	 esp, 88			; 00000058H
  002c8	c2 08 00	 ret	 8

; 199  : 		const		int		iSize	= read_TAG_with_Check(BER_Class_General, false, BER_TAG_OBJECT_IDENTIFIER);

$LN7@read_Objec:
  002cb	a1 00 00 00 00	 mov	 eax, DWORD PTR ?msg_err@?1??DecodeError@BER_Input@@QAEXI@Z@4QBQBDB
  002d0	b9 00 00 00 00	 mov	 ecx, OFFSET ??_C@_0BJ@HKJKLLAJ@ASN?41?5BER?5Decode?5Error?5?3?$AA@
  002d5	e8 00 00 00 00	 call	 ?errPrint@@YAXPBD0@Z	; errPrint
$LN239@read_Objec:
$LN238@read_Objec:
  002da	cc		 int	 3
_TEXT	ENDS
;	COMDAT text$x
text$x	SEGMENT
__unwindfunclet$?read_Object_Identifier@BER_Input@@QAEIPAVObjectIdentifier@@@Z$0:
  00000	8d 75 c0	 lea	 esi, DWORD PTR _iData$[ebp]
  00003	e9 00 00 00 00	 jmp	 ??1?$vector@IV?$allocator@I@std@@@std@@QAE@XZ ; std::vector<unsigned int,std::allocator<unsigned int> >::~vector<unsigned int,std::allocator<unsigned int> >
__ehhandler$?read_Object_Identifier@BER_Input@@QAEIPAVObjectIdentifier@@@Z:
  00008	8b 54 24 08	 mov	 edx, DWORD PTR [esp+8]
  0000c	8d 42 a4	 lea	 eax, DWORD PTR [edx-92]
  0000f	8b 4a a0	 mov	 ecx, DWORD PTR [edx-96]
  00012	33 c8		 xor	 ecx, eax
  00014	e8 00 00 00 00	 call	 @__security_check_cookie@4
  00019	b8 00 00 00 00	 mov	 eax, OFFSET __ehfuncinfo$?read_Object_Identifier@BER_Input@@QAEIPAVObjectIdentifier@@@Z
  0001e	e9 00 00 00 00	 jmp	 ___CxxFrameHandler3
text$x	ENDS
?read_Object_Identifier@BER_Input@@QAEIPAVObjectIdentifier@@@Z ENDP ; BER_Input::read_Object_Identifier
PUBLIC	?read_Integer@BER_Input@@QAEIPAVInteger@@@Z	; BER_Input::read_Integer
; Function compile flags: /Ogtpy
;	COMDAT ?read_Integer@BER_Input@@QAEIPAVInteger@@@Z
_TEXT	SEGMENT
_read_class$104982 = -6					; size = 1
_read_fStruct$104983 = -5				; size = 1
_read_tag$104981 = -4					; size = 4
_i$ = 8							; size = 4
?read_Integer@BER_Input@@QAEIPAVInteger@@@Z PROC	; BER_Input::read_Integer, COMDAT
; _this$ = eax

; 182  : {

  00000	83 ec 0c	 sub	 esp, 12			; 0000000cH
  00003	53		 push	 ebx
  00004	56		 push	 esi
  00005	57		 push	 edi
  00006	8b f0		 mov	 esi, eax

; 183  : 	const	int		iSize	= read_TAG_with_Check(BER_Class_General, false, BER_TAG_INTEGER);

  00008	8d 44 24 14	 lea	 eax, DWORD PTR _read_tag$104981[esp+24]
  0000c	50		 push	 eax
  0000d	8d 4c 24 17	 lea	 ecx, DWORD PTR _read_fStruct$104983[esp+28]
  00011	51		 push	 ecx
  00012	8d 54 24 1a	 lea	 edx, DWORD PTR _read_class$104982[esp+32]
  00016	52		 push	 edx
  00017	e8 00 00 00 00	 call	 ?read_TAG@BER_Input@@QAEIPAEPA_NPAI@Z ; BER_Input::read_TAG
  0001c	80 7c 24 12 00	 cmp	 BYTE PTR _read_class$104982[esp+24], 0
  00021	8b d8		 mov	 ebx, eax
  00023	75 27		 jne	 SHORT $LN3@read_Integ
  00025	83 7c 24 14 02	 cmp	 DWORD PTR _read_tag$104981[esp+24], 2
  0002a	75 20		 jne	 SHORT $LN3@read_Integ
  0002c	80 7c 24 13 00	 cmp	 BYTE PTR _read_fStruct$104983[esp+24], 0
  00031	75 19		 jne	 SHORT $LN3@read_Integ

; 184  : 
; 185  : 	i->Set(read_int(iSize));

  00033	8b fe		 mov	 edi, esi
  00035	e8 00 00 00 00	 call	 ?read_int@BER_Input@@QAEHH@Z ; BER_Input::read_int
  0003a	8b 4c 24 1c	 mov	 ecx, DWORD PTR _i$[esp+20]

; 186  : 
; 187  : 	return(iSize);
; 188  : }

  0003e	5f		 pop	 edi
  0003f	89 41 44	 mov	 DWORD PTR [ecx+68], eax
  00042	5e		 pop	 esi
  00043	8b c3		 mov	 eax, ebx
  00045	5b		 pop	 ebx
  00046	83 c4 0c	 add	 esp, 12			; 0000000cH
  00049	c2 04 00	 ret	 4

; 183  : 	const	int		iSize	= read_TAG_with_Check(BER_Class_General, false, BER_TAG_INTEGER);

$LN3@read_Integ:
  0004c	a1 00 00 00 00	 mov	 eax, DWORD PTR ?msg_err@?1??DecodeError@BER_Input@@QAEXI@Z@4QBQBDB
  00051	b9 00 00 00 00	 mov	 ecx, OFFSET ??_C@_0BJ@HKJKLLAJ@ASN?41?5BER?5Decode?5Error?5?3?$AA@
  00056	e8 00 00 00 00	 call	 ?errPrint@@YAXPBD0@Z	; errPrint
$LN14@read_Integ:
$LN13@read_Integ:
  0005b	cc		 int	 3
?read_Integer@BER_Input@@QAEIPAVInteger@@@Z ENDP	; BER_Input::read_Integer
PUBLIC	?read_Object_Identifier_with_Check@BER_Input@@QAEIPAVObjectIdentifier@@QAII@Z ; BER_Input::read_Object_Identifier_with_Check
; Function compile flags: /Ogtpy
;	COMDAT ?read_Object_Identifier_with_Check@BER_Input@@QAEIPAVObjectIdentifier@@QAII@Z
_TEXT	SEGMENT
_iData$ = 8						; size = 4
?read_Object_Identifier_with_Check@BER_Input@@QAEIPAVObjectIdentifier@@QAII@Z PROC ; BER_Input::read_Object_Identifier_with_Check, COMDAT
; _this$ = eax
; _oid$ = edi

; 230  : {

  00000	51		 push	 ecx
  00001	53		 push	 ebx
  00002	8b 5c 24 0c	 mov	 ebx, DWORD PTR _iData$[esp+4]
  00006	55		 push	 ebp
  00007	56		 push	 esi

; 231  : 		const	int	iSize	= read_Object_Identifier(oid);

  00008	57		 push	 edi
  00009	50		 push	 eax
  0000a	e8 00 00 00 00	 call	 ?read_Object_Identifier@BER_Input@@QAEIPAVObjectIdentifier@@@Z ; BER_Input::read_Object_Identifier

; 232  : 	unsigned	int	i		= 0;
; 233  : 
; 234  : 	if(oid->iValue.size() != szData){

  0000f	8b 4f 54	 mov	 ecx, DWORD PTR [edi+84]
  00012	2b 4f 50	 sub	 ecx, DWORD PTR [edi+80]
  00015	33 f6		 xor	 esi, esi
  00017	83 e1 fc	 and	 ecx, -4			; fffffffcH
  0001a	8b e8		 mov	 ebp, eax
  0001c	83 f9 1c	 cmp	 ecx, 28			; 0000001cH
  0001f	74 0f		 je	 SHORT $LL3@read_Objec@2
$LN20@read_Objec@2:

; 235  : 		DecodeError(0);

  00021	a1 00 00 00 00	 mov	 eax, DWORD PTR ?msg_err@?1??DecodeError@BER_Input@@QAEXI@Z@4QBQBDB
  00026	b9 00 00 00 00	 mov	 ecx, OFFSET ??_C@_0BJ@HKJKLLAJ@ASN?41?5BER?5Decode?5Error?5?3?$AA@
  0002b	e8 00 00 00 00	 call	 ?errPrint@@YAXPBD0@Z	; errPrint
$LN25@read_Objec@2:
$LL3@read_Objec@2:

; 236  : 	}
; 237  : 
; 238  : 	while(i < szData){
; 239  : 		if(oid->iValue[i] != iData[i]){

  00030	8b 57 54	 mov	 edx, DWORD PTR [edi+84]
  00033	2b 57 50	 sub	 edx, DWORD PTR [edi+80]
  00036	c1 fa 02	 sar	 edx, 2
  00039	3b f2		 cmp	 esi, edx
  0003b	72 05		 jb	 SHORT $LN12@read_Objec@2
  0003d	e8 00 00 00 00	 call	 __invalid_parameter_noinfo
$LN12@read_Objec@2:
  00042	8b 47 50	 mov	 eax, DWORD PTR [edi+80]
  00045	8b 0c b0	 mov	 ecx, DWORD PTR [eax+esi*4]
  00048	3b 0c b3	 cmp	 ecx, DWORD PTR [ebx+esi*4]
  0004b	75 d4		 jne	 SHORT $LN20@read_Objec@2

; 240  : 			DecodeError(0);
; 241  : 		}
; 242  : 		i++;

  0004d	46		 inc	 esi
  0004e	83 fe 07	 cmp	 esi, 7
  00051	72 dd		 jb	 SHORT $LL3@read_Objec@2

; 243  : 	}
; 244  : 
; 245  : 	return(iSize);
; 246  : }

  00053	5e		 pop	 esi
  00054	8b c5		 mov	 eax, ebp
  00056	5d		 pop	 ebp
  00057	5b		 pop	 ebx
  00058	59		 pop	 ecx
  00059	c2 04 00	 ret	 4
$LN24@read_Objec@2:
?read_Object_Identifier_with_Check@BER_Input@@QAEIPAVObjectIdentifier@@QAII@Z ENDP ; BER_Input::read_Object_Identifier_with_Check
END
