; Listing generated by Microsoft (R) Optimizing Compiler Version 15.00.30729.01 

	TITLE	i:\?n????j\My Project\CMS\CMS\ASN1\Context.cpp
	.686P
	.XMM
	include listing.inc
	.model	flat

INCLUDELIB OLDNAMES

PUBLIC	?encodeBER@Context@@UAEXXZ			; Context::encodeBER
PUBLIC	??_R4Context@@6B@				; Context::`RTTI Complete Object Locator'
PUBLIC	??_R3Context@@8					; Context::`RTTI Class Hierarchy Descriptor'
PUBLIC	??_R2Context@@8					; Context::`RTTI Base Class Array'
PUBLIC	??_R1A@?0A@EA@Context@@8			; Context::`RTTI Base Class Descriptor at (0,-1,0,64)'
PUBLIC	??_R0?AVContext@@@8				; Context `RTTI Type Descriptor'
PUBLIC	??0?$allocator@V?$basic_string@DU?$char_traits@D@std@@V?$allocator@D@2@@std@@@std@@QAE@XZ ; std::allocator<std::basic_string<char,std::char_traits<char>,std::allocator<char> > >::allocator<std::basic_string<char,std::char_traits<char>,std::allocator<char> > >
PUBLIC	??$?0V?$basic_string@DU?$char_traits@D@std@@V?$allocator@D@2@@std@@@?$allocator@V_Aux_cont@std@@@std@@QAE@ABV?$allocator@V?$basic_string@DU?$char_traits@D@std@@V?$allocator@D@2@@std@@@1@@Z ; std::allocator<std::_Aux_cont>::allocator<std::_Aux_cont><std::basic_string<char,std::char_traits<char>,std::allocator<char> > >
PUBLIC	??0?$_Container_base_aux_alloc_real@V?$allocator@V?$basic_string@DU?$char_traits@D@std@@V?$allocator@D@2@@std@@@std@@@std@@IAE@V?$allocator@V?$basic_string@DU?$char_traits@D@std@@V?$allocator@D@2@@std@@@1@@Z ; std::_Container_base_aux_alloc_real<std::allocator<std::basic_string<char,std::char_traits<char>,std::allocator<char> > > >::_Container_base_aux_alloc_real<std::allocator<std::basic_string<char,std::char_traits<char>,std::allocator<char> > > >
PUBLIC	??0?$allocator@V?$basic_string@DU?$char_traits@D@std@@V?$allocator@D@2@@std@@@std@@QAE@ABV01@@Z ; std::allocator<std::basic_string<char,std::char_traits<char>,std::allocator<char> > >::allocator<std::basic_string<char,std::char_traits<char>,std::allocator<char> > >
PUBLIC	??0?$_Vector_val@V?$basic_string@DU?$char_traits@D@std@@V?$allocator@D@2@@std@@V?$allocator@V?$basic_string@DU?$char_traits@D@std@@V?$allocator@D@2@@std@@@2@@std@@IAE@V?$allocator@V?$basic_string@DU?$char_traits@D@std@@V?$allocator@D@2@@std@@@1@@Z ; std::_Vector_val<std::basic_string<char,std::char_traits<char>,std::allocator<char> >,std::allocator<std::basic_string<char,std::char_traits<char>,std::allocator<char> > > >::_Vector_val<std::basic_string<char,std::char_traits<char>,std::allocator<char> >,std::allocator<std::basic_string<char,std::char_traits<char>,std::allocator<char> > > >
PUBLIC	?_Buy@?$vector@V?$basic_string@DU?$char_traits@D@std@@V?$allocator@D@2@@std@@V?$allocator@V?$basic_string@DU?$char_traits@D@std@@V?$allocator@D@2@@std@@@2@@std@@IAE_NI@Z ; std::vector<std::basic_string<char,std::char_traits<char>,std::allocator<char> >,std::allocator<std::basic_string<char,std::char_traits<char>,std::allocator<char> > > >::_Buy
PUBLIC	??0?$vector@V?$basic_string@DU?$char_traits@D@std@@V?$allocator@D@2@@std@@V?$allocator@V?$basic_string@DU?$char_traits@D@std@@V?$allocator@D@2@@std@@@2@@std@@QAE@XZ ; std::vector<std::basic_string<char,std::char_traits<char>,std::allocator<char> >,std::allocator<std::basic_string<char,std::char_traits<char>,std::allocator<char> > > >::vector<std::basic_string<char,std::char_traits<char>,std::allocator<char> >,std::allocator<std::basic_string<char,std::char_traits<char>,std::allocator<char> > > >
PUBLIC	??1?$_Container_base_aux_alloc_real@V?$allocator@V?$basic_string@DU?$char_traits@D@std@@V?$allocator@D@2@@std@@@std@@@std@@IAE@XZ ; std::_Container_base_aux_alloc_real<std::allocator<std::basic_string<char,std::char_traits<char>,std::allocator<char> > > >::~_Container_base_aux_alloc_real<std::allocator<std::basic_string<char,std::char_traits<char>,std::allocator<char> > > >
PUBLIC	??1?$_Vector_val@V?$basic_string@DU?$char_traits@D@std@@V?$allocator@D@2@@std@@V?$allocator@V?$basic_string@DU?$char_traits@D@std@@V?$allocator@D@2@@std@@@2@@std@@QAE@XZ ; std::_Vector_val<std::basic_string<char,std::char_traits<char>,std::allocator<char> >,std::allocator<std::basic_string<char,std::char_traits<char>,std::allocator<char> > > >::~_Vector_val<std::basic_string<char,std::char_traits<char>,std::allocator<char> >,std::allocator<std::basic_string<char,std::char_traits<char>,std::allocator<char> > > >
PUBLIC	?_Tidy@?$vector@V?$basic_string@DU?$char_traits@D@std@@V?$allocator@D@2@@std@@V?$allocator@V?$basic_string@DU?$char_traits@D@std@@V?$allocator@D@2@@std@@@2@@std@@IAEXXZ ; std::vector<std::basic_string<char,std::char_traits<char>,std::allocator<char> >,std::allocator<std::basic_string<char,std::char_traits<char>,std::allocator<char> > > >::_Tidy
PUBLIC	??1?$vector@V?$basic_string@DU?$char_traits@D@std@@V?$allocator@D@2@@std@@V?$allocator@V?$basic_string@DU?$char_traits@D@std@@V?$allocator@D@2@@std@@@2@@std@@QAE@XZ ; std::vector<std::basic_string<char,std::char_traits<char>,std::allocator<char> >,std::allocator<std::basic_string<char,std::char_traits<char>,std::allocator<char> > > >::~vector<std::basic_string<char,std::char_traits<char>,std::allocator<char> >,std::allocator<std::basic_string<char,std::char_traits<char>,std::allocator<char> > > >
PUBLIC	??A?$vector@V?$basic_string@DU?$char_traits@D@std@@V?$allocator@D@2@@std@@V?$allocator@V?$basic_string@DU?$char_traits@D@std@@V?$allocator@D@2@@std@@@2@@std@@QAEAAV?$basic_string@DU?$char_traits@D@std@@V?$allocator@D@2@@1@I@Z ; std::vector<std::basic_string<char,std::char_traits<char>,std::allocator<char> >,std::allocator<std::basic_string<char,std::char_traits<char>,std::allocator<char> > > >::operator[]
PUBLIC	?end@?$vector@V?$basic_string@DU?$char_traits@D@std@@V?$allocator@D@2@@std@@V?$allocator@V?$basic_string@DU?$char_traits@D@std@@V?$allocator@D@2@@std@@@2@@std@@QAE?AV?$_Vector_iterator@V?$basic_string@DU?$char_traits@D@std@@V?$allocator@D@2@@std@@V?$allocator@V?$basic_string@DU?$char_traits@D@std@@V?$allocator@D@2@@std@@@2@@2@XZ ; std::vector<std::basic_string<char,std::char_traits<char>,std::allocator<char> >,std::allocator<std::basic_string<char,std::char_traits<char>,std::allocator<char> > > >::end
PUBLIC	??0?$_Iterator_with_base@Urandom_access_iterator_tag@std@@V?$basic_string@DU?$char_traits@D@std@@V?$allocator@D@2@@2@HPBV32@ABV32@V_Iterator_base_aux@2@@std@@QAE@XZ ; std::_Iterator_with_base<std::random_access_iterator_tag,std::basic_string<char,std::char_traits<char>,std::allocator<char> >,int,std::basic_string<char,std::char_traits<char>,std::allocator<char> > const *,std::basic_string<char,std::char_traits<char>,std::allocator<char> > const &,std::_Iterator_base_aux>::_Iterator_with_base<std::random_access_iterator_tag,std::basic_string<char,std::char_traits<char>,std::allocator<char> >,int,std::basic_string<char,std::char_traits<char>,std::allocator<char> > const *,std::basic_string<char,std::char_traits<char>,std::allocator<char> > const &,std::_Iterator_base_aux>
PUBLIC	??0?$_Ranit@V?$basic_string@DU?$char_traits@D@std@@V?$allocator@D@2@@std@@HPBV12@ABV12@@std@@QAE@XZ ; std::_Ranit<std::basic_string<char,std::char_traits<char>,std::allocator<char> >,int,std::basic_string<char,std::char_traits<char>,std::allocator<char> > const *,std::basic_string<char,std::char_traits<char>,std::allocator<char> > const &>::_Ranit<std::basic_string<char,std::char_traits<char>,std::allocator<char> >,int,std::basic_string<char,std::char_traits<char>,std::allocator<char> > const *,std::basic_string<char,std::char_traits<char>,std::allocator<char> > const &>
PUBLIC	??0?$_Vector_const_iterator@V?$basic_string@DU?$char_traits@D@std@@V?$allocator@D@2@@std@@V?$allocator@V?$basic_string@DU?$char_traits@D@std@@V?$allocator@D@2@@std@@@2@@std@@QAE@PAV?$basic_string@DU?$char_traits@D@std@@V?$allocator@D@2@@1@PBV_Container_base_aux@1@@Z ; std::_Vector_const_iterator<std::basic_string<char,std::char_traits<char>,std::allocator<char> >,std::allocator<std::basic_string<char,std::char_traits<char>,std::allocator<char> > > >::_Vector_const_iterator<std::basic_string<char,std::char_traits<char>,std::allocator<char> >,std::allocator<std::basic_string<char,std::char_traits<char>,std::allocator<char> > > >
PUBLIC	??0?$_Vector_iterator@V?$basic_string@DU?$char_traits@D@std@@V?$allocator@D@2@@std@@V?$allocator@V?$basic_string@DU?$char_traits@D@std@@V?$allocator@D@2@@std@@@2@@std@@QAE@PAV?$basic_string@DU?$char_traits@D@std@@V?$allocator@D@2@@1@PBV_Container_base_aux@1@@Z ; std::_Vector_iterator<std::basic_string<char,std::char_traits<char>,std::allocator<char> >,std::allocator<std::basic_string<char,std::char_traits<char>,std::allocator<char> > > >::_Vector_iterator<std::basic_string<char,std::char_traits<char>,std::allocator<char> >,std::allocator<std::basic_string<char,std::char_traits<char>,std::allocator<char> > > >
PUBLIC	?begin@?$vector@V?$basic_string@DU?$char_traits@D@std@@V?$allocator@D@2@@std@@V?$allocator@V?$basic_string@DU?$char_traits@D@std@@V?$allocator@D@2@@std@@@2@@std@@QAE?AV?$_Vector_iterator@V?$basic_string@DU?$char_traits@D@std@@V?$allocator@D@2@@std@@V?$allocator@V?$basic_string@DU?$char_traits@D@std@@V?$allocator@D@2@@std@@@2@@2@XZ ; std::vector<std::basic_string<char,std::char_traits<char>,std::allocator<char> >,std::allocator<std::basic_string<char,std::char_traits<char>,std::allocator<char> > > >::begin
PUBLIC	?deallocate@?$allocator@V?$basic_string@DU?$char_traits@D@std@@V?$allocator@D@2@@std@@@std@@QAEXPAV?$basic_string@DU?$char_traits@D@std@@V?$allocator@D@2@@2@I@Z ; std::allocator<std::basic_string<char,std::char_traits<char>,std::allocator<char> > >::deallocate
PUBLIC	??$_Allocate@V?$basic_string@DU?$char_traits@D@std@@V?$allocator@D@2@@std@@@std@@YAPAV?$basic_string@DU?$char_traits@D@std@@V?$allocator@D@2@@0@IPAV10@@Z ; std::_Allocate<std::basic_string<char,std::char_traits<char>,std::allocator<char> > >
PUBLIC	?allocate@?$allocator@V?$basic_string@DU?$char_traits@D@std@@V?$allocator@D@2@@std@@@std@@QAEPAV?$basic_string@DU?$char_traits@D@std@@V?$allocator@D@2@@2@I@Z ; std::allocator<std::basic_string<char,std::char_traits<char>,std::allocator<char> > >::allocate
PUBLIC	?capacity@?$vector@V?$basic_string@DU?$char_traits@D@std@@V?$allocator@D@2@@std@@V?$allocator@V?$basic_string@DU?$char_traits@D@std@@V?$allocator@D@2@@std@@@2@@std@@QBEIXZ ; std::vector<std::basic_string<char,std::char_traits<char>,std::allocator<char> >,std::allocator<std::basic_string<char,std::char_traits<char>,std::allocator<char> > > >::capacity
PUBLIC	?size@?$vector@V?$basic_string@DU?$char_traits@D@std@@V?$allocator@D@2@@std@@V?$allocator@V?$basic_string@DU?$char_traits@D@std@@V?$allocator@D@2@@std@@@2@@std@@QBEIXZ ; std::vector<std::basic_string<char,std::char_traits<char>,std::allocator<char> >,std::allocator<std::basic_string<char,std::char_traits<char>,std::allocator<char> > > >::size
PUBLIC	?max_size@?$allocator@V?$basic_string@DU?$char_traits@D@std@@V?$allocator@D@2@@std@@@std@@QBEIXZ ; std::allocator<std::basic_string<char,std::char_traits<char>,std::allocator<char> > >::max_size
PUBLIC	?max_size@?$vector@V?$basic_string@DU?$char_traits@D@std@@V?$allocator@D@2@@std@@V?$allocator@V?$basic_string@DU?$char_traits@D@std@@V?$allocator@D@2@@std@@@2@@std@@QBEIXZ ; std::vector<std::basic_string<char,std::char_traits<char>,std::allocator<char> >,std::allocator<std::basic_string<char,std::char_traits<char>,std::allocator<char> > > >::max_size
PUBLIC	??$_Destroy_range@V?$allocator@V?$basic_string@DU?$char_traits@D@std@@V?$allocator@D@2@@std@@@std@@@std@@YAXPAV?$basic_string@DU?$char_traits@D@std@@V?$allocator@D@2@@0@0AAV?$allocator@V?$basic_string@DU?$char_traits@D@std@@V?$allocator@D@2@@std@@@0@U_Nonscalar_ptr_iterator_tag@0@@Z ; std::_Destroy_range<std::allocator<std::basic_string<char,std::char_traits<char>,std::allocator<char> > > >
PUBLIC	??$_Destroy_range@V?$allocator@V?$basic_string@DU?$char_traits@D@std@@V?$allocator@D@2@@std@@@std@@@std@@YAXPAV?$basic_string@DU?$char_traits@D@std@@V?$allocator@D@2@@0@0AAV?$allocator@V?$basic_string@DU?$char_traits@D@std@@V?$allocator@D@2@@std@@@0@@Z ; std::_Destroy_range<std::allocator<std::basic_string<char,std::char_traits<char>,std::allocator<char> > > >
PUBLIC	?_Destroy@?$vector@V?$basic_string@DU?$char_traits@D@std@@V?$allocator@D@2@@std@@V?$allocator@V?$basic_string@DU?$char_traits@D@std@@V?$allocator@D@2@@std@@@2@@std@@IAEXPAV?$basic_string@DU?$char_traits@D@std@@V?$allocator@D@2@@2@0@Z ; std::vector<std::basic_string<char,std::char_traits<char>,std::allocator<char> >,std::allocator<std::basic_string<char,std::char_traits<char>,std::allocator<char> > > >::_Destroy
PUBLIC	?_Xlen@?$vector@V?$basic_string@DU?$char_traits@D@std@@V?$allocator@D@2@@std@@V?$allocator@V?$basic_string@DU?$char_traits@D@std@@V?$allocator@D@2@@std@@@2@@std@@KAXXZ ; std::vector<std::basic_string<char,std::char_traits<char>,std::allocator<char> >,std::allocator<std::basic_string<char,std::char_traits<char>,std::allocator<char> > > >::_Xlen
PUBLIC	??$_Uninit_move@PAV?$basic_string@DU?$char_traits@D@std@@V?$allocator@D@2@@std@@PAV12@V?$allocator@V?$basic_string@DU?$char_traits@D@std@@V?$allocator@D@2@@std@@@2@@std@@YAPAV?$basic_string@DU?$char_traits@D@std@@V?$allocator@D@2@@0@PAV10@00AAV?$allocator@V?$basic_string@DU?$char_traits@D@std@@V?$allocator@D@2@@std@@@0@U_Swap_move_tag@0@U_Range_checked_iterator_tag@0@@Z ; std::_Uninit_move<std::basic_string<char,std::char_traits<char>,std::allocator<char> > *,std::basic_string<char,std::char_traits<char>,std::allocator<char> > *,std::allocator<std::basic_string<char,std::char_traits<char>,std::allocator<char> > > >
PUBLIC	??$_Unchecked_uninitialized_move@PAV?$basic_string@DU?$char_traits@D@std@@V?$allocator@D@2@@std@@PAV12@V?$allocator@V?$basic_string@DU?$char_traits@D@std@@V?$allocator@D@2@@std@@@2@@stdext@@YAPAV?$basic_string@DU?$char_traits@D@std@@V?$allocator@D@2@@std@@PAV12@00AAV?$allocator@V?$basic_string@DU?$char_traits@D@std@@V?$allocator@D@2@@std@@@2@@Z ; stdext::_Unchecked_uninitialized_move<std::basic_string<char,std::char_traits<char>,std::allocator<char> > *,std::basic_string<char,std::char_traits<char>,std::allocator<char> > *,std::allocator<std::basic_string<char,std::char_traits<char>,std::allocator<char> > > >
PUBLIC	??$_Umove@PAV?$basic_string@DU?$char_traits@D@std@@V?$allocator@D@2@@std@@@?$vector@V?$basic_string@DU?$char_traits@D@std@@V?$allocator@D@2@@std@@V?$allocator@V?$basic_string@DU?$char_traits@D@std@@V?$allocator@D@2@@std@@@2@@std@@IAEPAV?$basic_string@DU?$char_traits@D@std@@V?$allocator@D@2@@1@PAV21@00@Z ; std::vector<std::basic_string<char,std::char_traits<char>,std::allocator<char> >,std::allocator<std::basic_string<char,std::char_traits<char>,std::allocator<char> > > >::_Umove<std::basic_string<char,std::char_traits<char>,std::allocator<char> > *>
PUBLIC	??$_Fill@PAV?$basic_string@DU?$char_traits@D@std@@V?$allocator@D@2@@std@@V12@@std@@YAXPAV?$basic_string@DU?$char_traits@D@std@@V?$allocator@D@2@@0@0ABV10@@Z ; std::_Fill<std::basic_string<char,std::char_traits<char>,std::allocator<char> > *,std::basic_string<char,std::char_traits<char>,std::allocator<char> > >
PUBLIC	??$fill@PAV?$basic_string@DU?$char_traits@D@std@@V?$allocator@D@2@@std@@V12@@std@@YAXPAV?$basic_string@DU?$char_traits@D@std@@V?$allocator@D@2@@0@0ABV10@@Z ; std::fill<std::basic_string<char,std::char_traits<char>,std::allocator<char> > *,std::basic_string<char,std::char_traits<char>,std::allocator<char> > >
PUBLIC	??$_Iter_random@PAV?$basic_string@DU?$char_traits@D@std@@V?$allocator@D@2@@std@@PAV12@@std@@YA?AUrandom_access_iterator_tag@0@ABQAV?$basic_string@DU?$char_traits@D@std@@V?$allocator@D@2@@0@0@Z ; std::_Iter_random<std::basic_string<char,std::char_traits<char>,std::allocator<char> > *,std::basic_string<char,std::char_traits<char>,std::allocator<char> > *>
PUBLIC	??$_Move_cat@PAV?$basic_string@DU?$char_traits@D@std@@V?$allocator@D@2@@std@@@std@@YA?AU_Swap_move_tag@0@ABQAV?$basic_string@DU?$char_traits@D@std@@V?$allocator@D@2@@0@@Z ; std::_Move_cat<std::basic_string<char,std::char_traits<char>,std::allocator<char> > *>
PUBLIC	??$_Checked_base@PAV?$basic_string@DU?$char_traits@D@std@@V?$allocator@D@2@@std@@@std@@YAPAV?$basic_string@DU?$char_traits@D@std@@V?$allocator@D@2@@0@AAPAV10@U_Unchanged_checked_iterator_base_type_tag@0@@Z ; std::_Checked_base<std::basic_string<char,std::char_traits<char>,std::allocator<char> > *>
PUBLIC	??$_Checked_base@PAV?$basic_string@DU?$char_traits@D@std@@V?$allocator@D@2@@std@@@std@@YAPAV?$basic_string@DU?$char_traits@D@std@@V?$allocator@D@2@@0@AAPAV10@@Z ; std::_Checked_base<std::basic_string<char,std::char_traits<char>,std::allocator<char> > *>
PUBLIC	??$?8DD@std@@YA_NABV?$allocator@D@0@0@Z		; std::operator==<char,char>
PUBLIC	?swap@?$basic_string@DU?$char_traits@D@std@@V?$allocator@D@2@@std@@QAEXAAV12@@Z ; std::basic_string<char,std::char_traits<char>,std::allocator<char> >::swap
PUBLIC	??$swap@DU?$char_traits@D@std@@V?$allocator@D@2@@std@@YAXAAV?$basic_string@DU?$char_traits@D@std@@V?$allocator@D@2@@0@0@Z ; std::swap<char,std::char_traits<char>,std::allocator<char> >
PUBLIC	??$_Move_backward_opt@PAV?$basic_string@DU?$char_traits@D@std@@V?$allocator@D@2@@std@@PAV12@Uforward_iterator_tag@2@@std@@YAPAV?$basic_string@DU?$char_traits@D@std@@V?$allocator@D@2@@0@PAV10@00Uforward_iterator_tag@0@U_Swap_move_tag@0@U_Range_checked_iterator_tag@0@@Z ; std::_Move_backward_opt<std::basic_string<char,std::char_traits<char>,std::allocator<char> > *,std::basic_string<char,std::char_traits<char>,std::allocator<char> > *,std::forward_iterator_tag>
PUBLIC	??$_Move_backward_opt@PAV?$basic_string@DU?$char_traits@D@std@@V?$allocator@D@2@@std@@PAV12@@std@@YAPAV?$basic_string@DU?$char_traits@D@std@@V?$allocator@D@2@@0@PAV10@00Urandom_access_iterator_tag@0@U_Swap_move_tag@0@U_Range_checked_iterator_tag@0@@Z ; std::_Move_backward_opt<std::basic_string<char,std::char_traits<char>,std::allocator<char> > *,std::basic_string<char,std::char_traits<char>,std::allocator<char> > *>
PUBLIC	??$_Unchecked_move_backward@PAV?$basic_string@DU?$char_traits@D@std@@V?$allocator@D@2@@std@@PAV12@@stdext@@YAPAV?$basic_string@DU?$char_traits@D@std@@V?$allocator@D@2@@std@@PAV12@00@Z ; stdext::_Unchecked_move_backward<std::basic_string<char,std::char_traits<char>,std::allocator<char> > *,std::basic_string<char,std::char_traits<char>,std::allocator<char> > *>
PUBLIC	?_Insert_n@?$vector@V?$basic_string@DU?$char_traits@D@std@@V?$allocator@D@2@@std@@V?$allocator@V?$basic_string@DU?$char_traits@D@std@@V?$allocator@D@2@@std@@@2@@std@@IAEXV?$_Vector_const_iterator@V?$basic_string@DU?$char_traits@D@std@@V?$allocator@D@2@@std@@V?$allocator@V?$basic_string@DU?$char_traits@D@std@@V?$allocator@D@2@@std@@@2@@2@IABV?$basic_string@DU?$char_traits@D@std@@V?$allocator@D@2@@2@@Z ; std::vector<std::basic_string<char,std::char_traits<char>,std::allocator<char> >,std::allocator<std::basic_string<char,std::char_traits<char>,std::allocator<char> > > >::_Insert_n
PUBLIC	??G?$_Vector_const_iterator@V?$basic_string@DU?$char_traits@D@std@@V?$allocator@D@2@@std@@V?$allocator@V?$basic_string@DU?$char_traits@D@std@@V?$allocator@D@2@@std@@@2@@std@@QBEHABV01@@Z ; std::_Vector_const_iterator<std::basic_string<char,std::char_traits<char>,std::allocator<char> >,std::allocator<std::basic_string<char,std::char_traits<char>,std::allocator<char> > > >::operator-
PUBLIC	??Y?$_Vector_const_iterator@V?$basic_string@DU?$char_traits@D@std@@V?$allocator@D@2@@std@@V?$allocator@V?$basic_string@DU?$char_traits@D@std@@V?$allocator@D@2@@std@@@2@@std@@QAEAAV01@H@Z ; std::_Vector_const_iterator<std::basic_string<char,std::char_traits<char>,std::allocator<char> >,std::allocator<std::basic_string<char,std::char_traits<char>,std::allocator<char> > > >::operator+=
PUBLIC	??Y?$_Vector_iterator@V?$basic_string@DU?$char_traits@D@std@@V?$allocator@D@2@@std@@V?$allocator@V?$basic_string@DU?$char_traits@D@std@@V?$allocator@D@2@@std@@@2@@std@@QAEAAV01@H@Z ; std::_Vector_iterator<std::basic_string<char,std::char_traits<char>,std::allocator<char> >,std::allocator<std::basic_string<char,std::char_traits<char>,std::allocator<char> > > >::operator+=
PUBLIC	??H?$_Vector_iterator@V?$basic_string@DU?$char_traits@D@std@@V?$allocator@D@2@@std@@V?$allocator@V?$basic_string@DU?$char_traits@D@std@@V?$allocator@D@2@@std@@@2@@std@@QBE?AV01@H@Z ; std::_Vector_iterator<std::basic_string<char,std::char_traits<char>,std::allocator<char> >,std::allocator<std::basic_string<char,std::char_traits<char>,std::allocator<char> > > >::operator+
PUBLIC	?insert@?$vector@V?$basic_string@DU?$char_traits@D@std@@V?$allocator@D@2@@std@@V?$allocator@V?$basic_string@DU?$char_traits@D@std@@V?$allocator@D@2@@std@@@2@@std@@QAE?AV?$_Vector_iterator@V?$basic_string@DU?$char_traits@D@std@@V?$allocator@D@2@@std@@V?$allocator@V?$basic_string@DU?$char_traits@D@std@@V?$allocator@D@2@@std@@@2@@2@V?$_Vector_const_iterator@V?$basic_string@DU?$char_traits@D@std@@V?$allocator@D@2@@std@@V?$allocator@V?$basic_string@DU?$char_traits@D@std@@V?$allocator@D@2@@std@@@2@@2@ABV?$basic_string@DU?$char_traits@D@std@@V?$allocator@D@2@@2@@Z ; std::vector<std::basic_string<char,std::char_traits<char>,std::allocator<char> >,std::allocator<std::basic_string<char,std::char_traits<char>,std::allocator<char> > > >::insert
PUBLIC	??$_Ptr_cat@PAV?$basic_string@DU?$char_traits@D@std@@V?$allocator@D@2@@std@@PAV12@@std@@YA?AU_Nonscalar_ptr_iterator_tag@0@AAPAV?$basic_string@DU?$char_traits@D@std@@V?$allocator@D@2@@0@0@Z ; std::_Ptr_cat<std::basic_string<char,std::char_traits<char>,std::allocator<char> > *,std::basic_string<char,std::char_traits<char>,std::allocator<char> > *>
PUBLIC	??$_Construct@V?$basic_string@DU?$char_traits@D@std@@V?$allocator@D@2@@std@@V12@@std@@YAXPAV?$basic_string@DU?$char_traits@D@std@@V?$allocator@D@2@@0@ABV10@@Z ; std::_Construct<std::basic_string<char,std::char_traits<char>,std::allocator<char> >,std::basic_string<char,std::char_traits<char>,std::allocator<char> > >
PUBLIC	?construct@?$allocator@V?$basic_string@DU?$char_traits@D@std@@V?$allocator@D@2@@std@@@std@@QAEXPAV?$basic_string@DU?$char_traits@D@std@@V?$allocator@D@2@@2@ABV32@@Z ; std::allocator<std::basic_string<char,std::char_traits<char>,std::allocator<char> > >::construct
PUBLIC	??_G?$basic_string@DU?$char_traits@D@std@@V?$allocator@D@2@@std@@QAEPAXI@Z ; std::basic_string<char,std::char_traits<char>,std::allocator<char> >::`scalar deleting destructor'
PUBLIC	??$_Destroy@V?$basic_string@DU?$char_traits@D@std@@V?$allocator@D@2@@std@@@std@@YAXPAV?$basic_string@DU?$char_traits@D@std@@V?$allocator@D@2@@0@@Z ; std::_Destroy<std::basic_string<char,std::char_traits<char>,std::allocator<char> > >
PUBLIC	?destroy@?$allocator@V?$basic_string@DU?$char_traits@D@std@@V?$allocator@D@2@@std@@@std@@QAEXPAV?$basic_string@DU?$char_traits@D@std@@V?$allocator@D@2@@2@@Z ; std::allocator<std::basic_string<char,std::char_traits<char>,std::allocator<char> > >::destroy
PUBLIC	??$_Uninit_fill_n@PAV?$basic_string@DU?$char_traits@D@std@@V?$allocator@D@2@@std@@IV12@V?$allocator@V?$basic_string@DU?$char_traits@D@std@@V?$allocator@D@2@@std@@@2@@std@@YAXPAV?$basic_string@DU?$char_traits@D@std@@V?$allocator@D@2@@0@IABV10@AAV?$allocator@V?$basic_string@DU?$char_traits@D@std@@V?$allocator@D@2@@std@@@0@U_Nonscalar_ptr_iterator_tag@0@U_Range_checked_iterator_tag@0@@Z ; std::_Uninit_fill_n<std::basic_string<char,std::char_traits<char>,std::allocator<char> > *,unsigned int,std::basic_string<char,std::char_traits<char>,std::allocator<char> >,std::allocator<std::basic_string<char,std::char_traits<char>,std::allocator<char> > > >
PUBLIC	??$unchecked_uninitialized_fill_n@PAV?$basic_string@DU?$char_traits@D@std@@V?$allocator@D@2@@std@@IV12@V?$allocator@V?$basic_string@DU?$char_traits@D@std@@V?$allocator@D@2@@std@@@2@@stdext@@YAXPAV?$basic_string@DU?$char_traits@D@std@@V?$allocator@D@2@@std@@IABV12@AAV?$allocator@V?$basic_string@DU?$char_traits@D@std@@V?$allocator@D@2@@std@@@2@@Z ; stdext::unchecked_uninitialized_fill_n<std::basic_string<char,std::char_traits<char>,std::allocator<char> > *,unsigned int,std::basic_string<char,std::char_traits<char>,std::allocator<char> >,std::allocator<std::basic_string<char,std::char_traits<char>,std::allocator<char> > > >
PUBLIC	?_Ufill@?$vector@V?$basic_string@DU?$char_traits@D@std@@V?$allocator@D@2@@std@@V?$allocator@V?$basic_string@DU?$char_traits@D@std@@V?$allocator@D@2@@std@@@2@@std@@IAEPAV?$basic_string@DU?$char_traits@D@std@@V?$allocator@D@2@@2@PAV32@IABV32@@Z ; std::vector<std::basic_string<char,std::char_traits<char>,std::allocator<char> >,std::allocator<std::basic_string<char,std::char_traits<char>,std::allocator<char> > > >::_Ufill
PUBLIC	?push_back@?$vector@V?$basic_string@DU?$char_traits@D@std@@V?$allocator@D@2@@std@@V?$allocator@V?$basic_string@DU?$char_traits@D@std@@V?$allocator@D@2@@std@@@2@@std@@QAEXABV?$basic_string@DU?$char_traits@D@std@@V?$allocator@D@2@@2@@Z ; std::vector<std::basic_string<char,std::char_traits<char>,std::allocator<char> >,std::allocator<std::basic_string<char,std::char_traits<char>,std::allocator<char> > > >::push_back
PUBLIC	??_7Context@@6B@				; Context::`vftable'
;	COMDAT ??_7Context@@6B@
CONST	SEGMENT
??_7Context@@6B@ DD FLAT:??_R4Context@@6B@		; Context::`vftable'
	DD	FLAT:?encodeBER@Context@@UAEXXZ
	DD	FLAT:?Get_BERcode@ASN1@@UAEPBDXZ
	DD	FLAT:?Get_BERsize@ASN1@@UAEIXZ
CONST	ENDS
;	COMDAT ??_R4Context@@6B@
rdata$r	SEGMENT
??_R4Context@@6B@ DD 00H				; Context::`RTTI Complete Object Locator'
	DD	00H
	DD	00H
	DD	FLAT:??_R0?AVContext@@@8
	DD	FLAT:??_R3Context@@8
rdata$r	ENDS
;	COMDAT ??_R3Context@@8
rdata$r	SEGMENT
??_R3Context@@8 DD 00H					; Context::`RTTI Class Hierarchy Descriptor'
	DD	00H
	DD	02H
	DD	FLAT:??_R2Context@@8
rdata$r	ENDS
;	COMDAT ??_R2Context@@8
rdata$r	SEGMENT
??_R2Context@@8 DD FLAT:??_R1A@?0A@EA@Context@@8	; Context::`RTTI Base Class Array'
	DD	FLAT:??_R1A@?0A@EA@ASN1@@8
rdata$r	ENDS
;	COMDAT ??_R1A@?0A@EA@Context@@8
rdata$r	SEGMENT
??_R1A@?0A@EA@Context@@8 DD FLAT:??_R0?AVContext@@@8	; Context::`RTTI Base Class Descriptor at (0,-1,0,64)'
	DD	01H
	DD	00H
	DD	0ffffffffH
	DD	00H
	DD	040H
	DD	FLAT:??_R3Context@@8
rdata$r	ENDS
;	COMDAT ??_R0?AVContext@@@8
_DATA	SEGMENT
??_R0?AVContext@@@8 DD FLAT:??_7type_info@@6B@		; Context `RTTI Type Descriptor'
	DD	00H
	DB	'.?AVContext@@', 00H
; Function compile flags: /Ogtpy
; File c:\program files\microsoft visual studio 9.0\vc\include\xutility
;	COMDAT ??$_Ptr_cat@PAV?$basic_string@DU?$char_traits@D@std@@V?$allocator@D@2@@std@@PAV12@@std@@YA?AU_Nonscalar_ptr_iterator_tag@0@AAPAV?$basic_string@DU?$char_traits@D@std@@V?$allocator@D@2@@0@0@Z
_TEXT	SEGMENT
__Cat$ = -1						; size = 1
??$_Ptr_cat@PAV?$basic_string@DU?$char_traits@D@std@@V?$allocator@D@2@@std@@PAV12@@std@@YA?AU_Nonscalar_ptr_iterator_tag@0@AAPAV?$basic_string@DU?$char_traits@D@std@@V?$allocator@D@2@@0@0@Z PROC ; std::_Ptr_cat<std::basic_string<char,std::char_traits<char>,std::allocator<char> > *,std::basic_string<char,std::char_traits<char>,std::allocator<char> > *>, COMDAT

; 1483 : 	{

  00000	51		 push	 ecx

; 1484 : 	typename _Ptr_cat_helper<_T1, _T2>::_Ptr_cat _Cat;
; 1485 : 	return (_Cat);

  00001	8a 44 24 03	 mov	 al, BYTE PTR __Cat$[esp+4]

; 1486 : 	}

  00005	59		 pop	 ecx
  00006	c3		 ret	 0
??$_Ptr_cat@PAV?$basic_string@DU?$char_traits@D@std@@V?$allocator@D@2@@std@@PAV12@@std@@YA?AU_Nonscalar_ptr_iterator_tag@0@AAPAV?$basic_string@DU?$char_traits@D@std@@V?$allocator@D@2@@0@0@Z ENDP ; std::_Ptr_cat<std::basic_string<char,std::char_traits<char>,std::allocator<char> > *,std::basic_string<char,std::char_traits<char>,std::allocator<char> > *>
; Function compile flags: /Ogtpy
; File c:\program files\microsoft visual studio 9.0\vc\include\xmemory
_TEXT	ENDS
;	COMDAT ??$?0V?$basic_string@DU?$char_traits@D@std@@V?$allocator@D@2@@std@@@?$allocator@V_Aux_cont@std@@@std@@QAE@ABV?$allocator@V?$basic_string@DU?$char_traits@D@std@@V?$allocator@D@2@@std@@@1@@Z
_TEXT	SEGMENT
??$?0V?$basic_string@DU?$char_traits@D@std@@V?$allocator@D@2@@std@@@?$allocator@V_Aux_cont@std@@@std@@QAE@ABV?$allocator@V?$basic_string@DU?$char_traits@D@std@@V?$allocator@D@2@@std@@@1@@Z PROC ; std::allocator<std::_Aux_cont>::allocator<std::_Aux_cont><std::basic_string<char,std::char_traits<char>,std::allocator<char> > >, COMDAT
; _this$ = eax

; 129  : 		{	// construct from a related allocator (do nothing)
; 130  : 		}

  00000	c3		 ret	 0
??$?0V?$basic_string@DU?$char_traits@D@std@@V?$allocator@D@2@@std@@@?$allocator@V_Aux_cont@std@@@std@@QAE@ABV?$allocator@V?$basic_string@DU?$char_traits@D@std@@V?$allocator@D@2@@std@@@1@@Z ENDP ; std::allocator<std::_Aux_cont>::allocator<std::_Aux_cont><std::basic_string<char,std::char_traits<char>,std::allocator<char> > >
; Function compile flags: /Ogtpy
_TEXT	ENDS
;	COMDAT ?max_size@?$allocator@V?$basic_string@DU?$char_traits@D@std@@V?$allocator@D@2@@std@@@std@@QBEIXZ
_TEXT	SEGMENT
?max_size@?$allocator@V?$basic_string@DU?$char_traits@D@std@@V?$allocator@D@2@@std@@@std@@QBEIXZ PROC ; std::allocator<std::basic_string<char,std::char_traits<char>,std::allocator<char> > >::max_size, COMDAT

; 165  : 		_SIZT _Count = (_SIZT)(-1) / sizeof (_Ty);
; 166  : 		return (0 < _Count ? _Count : 1);

  00000	b8 49 92 24 09	 mov	 eax, 153391689		; 09249249H

; 167  : 		}

  00005	c3		 ret	 0
?max_size@?$allocator@V?$basic_string@DU?$char_traits@D@std@@V?$allocator@D@2@@std@@@std@@QBEIXZ ENDP ; std::allocator<std::basic_string<char,std::char_traits<char>,std::allocator<char> > >::max_size
; Function compile flags: /Ogtpy
_TEXT	ENDS
;	COMDAT ?deallocate@?$allocator@V?$basic_string@DU?$char_traits@D@std@@V?$allocator@D@2@@std@@@std@@QAEXPAV?$basic_string@DU?$char_traits@D@std@@V?$allocator@D@2@@2@I@Z
_TEXT	SEGMENT
?deallocate@?$allocator@V?$basic_string@DU?$char_traits@D@std@@V?$allocator@D@2@@std@@@std@@QAEXPAV?$basic_string@DU?$char_traits@D@std@@V?$allocator@D@2@@2@I@Z PROC ; std::allocator<std::basic_string<char,std::char_traits<char>,std::allocator<char> > >::deallocate, COMDAT
; __Ptr$ = eax

; 140  : 		::operator delete(_Ptr);

  00000	50		 push	 eax
  00001	e8 00 00 00 00	 call	 ??3@YAXPAX@Z		; operator delete
  00006	59		 pop	 ecx

; 141  : 		}

  00007	c3		 ret	 0
?deallocate@?$allocator@V?$basic_string@DU?$char_traits@D@std@@V?$allocator@D@2@@std@@@std@@QAEXPAV?$basic_string@DU?$char_traits@D@std@@V?$allocator@D@2@@2@I@Z ENDP ; std::allocator<std::basic_string<char,std::char_traits<char>,std::allocator<char> > >::deallocate
; Function compile flags: /Ogtpy
_TEXT	ENDS
;	COMDAT ??0?$allocator@V?$basic_string@DU?$char_traits@D@std@@V?$allocator@D@2@@std@@@std@@QAE@ABV01@@Z
_TEXT	SEGMENT
??0?$allocator@V?$basic_string@DU?$char_traits@D@std@@V?$allocator@D@2@@std@@@std@@QAE@ABV01@@Z PROC ; std::allocator<std::basic_string<char,std::char_traits<char>,std::allocator<char> > >::allocator<std::basic_string<char,std::char_traits<char>,std::allocator<char> > >, COMDAT
; _this$ = eax

; 124  : 		{	// construct by copying (do nothing)
; 125  : 		}

  00000	c3		 ret	 0
??0?$allocator@V?$basic_string@DU?$char_traits@D@std@@V?$allocator@D@2@@std@@@std@@QAE@ABV01@@Z ENDP ; std::allocator<std::basic_string<char,std::char_traits<char>,std::allocator<char> > >::allocator<std::basic_string<char,std::char_traits<char>,std::allocator<char> > >
; Function compile flags: /Ogtpy
; File c:\program files\microsoft visual studio 9.0\vc\include\vector
_TEXT	ENDS
;	COMDAT ?max_size@?$vector@V?$basic_string@DU?$char_traits@D@std@@V?$allocator@D@2@@std@@V?$allocator@V?$basic_string@DU?$char_traits@D@std@@V?$allocator@D@2@@std@@@2@@std@@QBEIXZ
_TEXT	SEGMENT
?max_size@?$vector@V?$basic_string@DU?$char_traits@D@std@@V?$allocator@D@2@@std@@V?$allocator@V?$basic_string@DU?$char_traits@D@std@@V?$allocator@D@2@@std@@@2@@std@@QBEIXZ PROC ; std::vector<std::basic_string<char,std::char_traits<char>,std::allocator<char> >,std::allocator<std::basic_string<char,std::char_traits<char>,std::allocator<char> > > >::max_size, COMDAT

; 731  : 		return (this->_Alval.max_size());

  00000	b8 49 92 24 09	 mov	 eax, 153391689		; 09249249H

; 732  : 		}

  00005	c3		 ret	 0
?max_size@?$vector@V?$basic_string@DU?$char_traits@D@std@@V?$allocator@D@2@@std@@V?$allocator@V?$basic_string@DU?$char_traits@D@std@@V?$allocator@D@2@@std@@@2@@std@@QBEIXZ ENDP ; std::vector<std::basic_string<char,std::char_traits<char>,std::allocator<char> >,std::allocator<std::basic_string<char,std::char_traits<char>,std::allocator<char> > > >::max_size
; Function compile flags: /Ogtpy
; File c:\program files\microsoft visual studio 9.0\vc\include\xmemory
_TEXT	ENDS
;	COMDAT ??0?$allocator@V?$basic_string@DU?$char_traits@D@std@@V?$allocator@D@2@@std@@@std@@QAE@XZ
_TEXT	SEGMENT
??0?$allocator@V?$basic_string@DU?$char_traits@D@std@@V?$allocator@D@2@@std@@@std@@QAE@XZ PROC ; std::allocator<std::basic_string<char,std::char_traits<char>,std::allocator<char> > >::allocator<std::basic_string<char,std::char_traits<char>,std::allocator<char> > >, COMDAT
; _this$ = eax

; 120  : 		{	// construct default allocator (do nothing)
; 121  : 		}

  00000	c3		 ret	 0
??0?$allocator@V?$basic_string@DU?$char_traits@D@std@@V?$allocator@D@2@@std@@@std@@QAE@XZ ENDP ; std::allocator<std::basic_string<char,std::char_traits<char>,std::allocator<char> > >::allocator<std::basic_string<char,std::char_traits<char>,std::allocator<char> > >
; Function compile flags: /Ogtpy
; File c:\program files\microsoft visual studio 9.0\vc\include\vector
_TEXT	ENDS
;	COMDAT ?size@?$vector@V?$basic_string@DU?$char_traits@D@std@@V?$allocator@D@2@@std@@V?$allocator@V?$basic_string@DU?$char_traits@D@std@@V?$allocator@D@2@@std@@@2@@std@@QBEIXZ
_TEXT	SEGMENT
?size@?$vector@V?$basic_string@DU?$char_traits@D@std@@V?$allocator@D@2@@std@@V?$allocator@V?$basic_string@DU?$char_traits@D@std@@V?$allocator@D@2@@std@@@2@@std@@QBEIXZ PROC ; std::vector<std::basic_string<char,std::char_traits<char>,std::allocator<char> >,std::allocator<std::basic_string<char,std::char_traits<char>,std::allocator<char> > > >::size, COMDAT
; _this$ = eax

; 726  : 		return (_Mylast - _Myfirst);

  00000	8b 48 10	 mov	 ecx, DWORD PTR [eax+16]
  00003	2b 48 0c	 sub	 ecx, DWORD PTR [eax+12]
  00006	b8 93 24 49 92	 mov	 eax, -1840700269	; 92492493H
  0000b	f7 e9		 imul	 ecx
  0000d	03 d1		 add	 edx, ecx
  0000f	c1 fa 04	 sar	 edx, 4
  00012	8b c2		 mov	 eax, edx
  00014	c1 e8 1f	 shr	 eax, 31			; 0000001fH
  00017	03 c2		 add	 eax, edx

; 727  : 		}

  00019	c3		 ret	 0
?size@?$vector@V?$basic_string@DU?$char_traits@D@std@@V?$allocator@D@2@@std@@V?$allocator@V?$basic_string@DU?$char_traits@D@std@@V?$allocator@D@2@@std@@@2@@std@@QBEIXZ ENDP ; std::vector<std::basic_string<char,std::char_traits<char>,std::allocator<char> >,std::allocator<std::basic_string<char,std::char_traits<char>,std::allocator<char> > > >::size
; Function compile flags: /Ogtpy
; File c:\program files\microsoft visual studio 9.0\vc\include\xmemory
;	COMDAT ??$_Allocate@V?$basic_string@DU?$char_traits@D@std@@V?$allocator@D@2@@std@@@std@@YAPAV?$basic_string@DU?$char_traits@D@std@@V?$allocator@D@2@@0@IPAV10@@Z
_TEXT	SEGMENT
$T53483 = -16						; size = 4
$T53475 = -12						; size = 12
??$_Allocate@V?$basic_string@DU?$char_traits@D@std@@V?$allocator@D@2@@std@@@std@@YAPAV?$basic_string@DU?$char_traits@D@std@@V?$allocator@D@2@@0@IPAV10@@Z PROC ; std::_Allocate<std::basic_string<char,std::char_traits<char>,std::allocator<char> > >, COMDAT
; __Count$ = ecx

; 37   : 	if (_Count <= 0)
; 38   : 		_Count = 0;
; 39   : 	else if (((_SIZT)(-1) / _Count) < sizeof (_Ty))

  00000	83 c8 ff	 or	 eax, -1
  00003	33 d2		 xor	 edx, edx
  00005	f7 f1		 div	 ecx
  00007	83 ec 10	 sub	 esp, 16			; 00000010H
  0000a	83 f8 1c	 cmp	 eax, 28			; 0000001cH
  0000d	73 2c		 jae	 SHORT $LN1@Allocate@3

; 40   : 		_THROW_NCEE(std::bad_alloc, NULL);

  0000f	8d 04 24	 lea	 eax, DWORD PTR $T53483[esp+16]
  00012	50		 push	 eax
  00013	8d 4c 24 08	 lea	 ecx, DWORD PTR $T53475[esp+20]
  00017	c7 44 24 04 00
	00 00 00	 mov	 DWORD PTR $T53483[esp+20], 0
  0001f	e8 00 00 00 00	 call	 ??0exception@std@@QAE@ABQBD@Z ; std::exception::exception
  00024	68 00 00 00 00	 push	 OFFSET __TI2?AVbad_alloc@std@@
  00029	8d 4c 24 08	 lea	 ecx, DWORD PTR $T53475[esp+20]
  0002d	51		 push	 ecx
  0002e	c7 44 24 0c 00
	00 00 00	 mov	 DWORD PTR $T53475[esp+24], OFFSET ??_7bad_alloc@std@@6B@
  00036	e8 00 00 00 00	 call	 __CxxThrowException@8
$LN13@Allocate@3:
$LN1@Allocate@3:

; 41   : 
; 42   : 		// allocate storage for _Count elements of type _Ty
; 43   : 	return ((_Ty _FARQ *)::operator new(_Count * sizeof (_Ty)));

  0003b	8d 14 cd 00 00
	00 00		 lea	 edx, DWORD PTR [ecx*8]
  00042	2b d1		 sub	 edx, ecx
  00044	03 d2		 add	 edx, edx
  00046	03 d2		 add	 edx, edx
  00048	52		 push	 edx
  00049	e8 00 00 00 00	 call	 ??2@YAPAXI@Z		; operator new
  0004e	83 c4 04	 add	 esp, 4

; 44   : 	}

  00051	83 c4 10	 add	 esp, 16			; 00000010H
  00054	c3		 ret	 0
$LN12@Allocate@3:
??$_Allocate@V?$basic_string@DU?$char_traits@D@std@@V?$allocator@D@2@@std@@@std@@YAPAV?$basic_string@DU?$char_traits@D@std@@V?$allocator@D@2@@0@IPAV10@@Z ENDP ; std::_Allocate<std::basic_string<char,std::char_traits<char>,std::allocator<char> > >
; Function compile flags: /Ogtpy
_TEXT	ENDS
;	COMDAT ?allocate@?$allocator@V?$basic_string@DU?$char_traits@D@std@@V?$allocator@D@2@@std@@@std@@QAEPAV?$basic_string@DU?$char_traits@D@std@@V?$allocator@D@2@@2@I@Z
_TEXT	SEGMENT
?allocate@?$allocator@V?$basic_string@DU?$char_traits@D@std@@V?$allocator@D@2@@std@@@std@@QAEPAV?$basic_string@DU?$char_traits@D@std@@V?$allocator@D@2@@2@I@Z PROC ; std::allocator<std::basic_string<char,std::char_traits<char>,std::allocator<char> > >::allocate, COMDAT

; 145  : 		return (_Allocate(_Count, (pointer)0));

  00000	6a 00		 push	 0
  00002	e8 00 00 00 00	 call	 ??2@YAPAXI@Z		; operator new
  00007	83 c4 04	 add	 esp, 4

; 146  : 		}

  0000a	c3		 ret	 0
?allocate@?$allocator@V?$basic_string@DU?$char_traits@D@std@@V?$allocator@D@2@@std@@@std@@QAEPAV?$basic_string@DU?$char_traits@D@std@@V?$allocator@D@2@@2@I@Z ENDP ; std::allocator<std::basic_string<char,std::char_traits<char>,std::allocator<char> > >::allocate
; Function compile flags: /Ogtpy
; File c:\program files\microsoft visual studio 9.0\vc\include\xutility
_TEXT	ENDS
;	COMDAT ??1?$_Container_base_aux_alloc_real@V?$allocator@V?$basic_string@DU?$char_traits@D@std@@V?$allocator@D@2@@std@@@std@@@std@@IAE@XZ
_TEXT	SEGMENT
??1?$_Container_base_aux_alloc_real@V?$allocator@V?$basic_string@DU?$char_traits@D@std@@V?$allocator@D@2@@std@@@std@@@std@@IAE@XZ PROC ; std::_Container_base_aux_alloc_real<std::allocator<std::basic_string<char,std::char_traits<char>,std::allocator<char> > > >::~_Container_base_aux_alloc_real<std::allocator<std::basic_string<char,std::char_traits<char>,std::allocator<char> > > >, COMDAT
; _this$ = eax

; 437  : 		_Myownedaux->~_Aux_cont();
; 438  : 
; 439  : 		_Alaux.deallocate(_Myownedaux, 1);

  00000	8b 08		 mov	 ecx, DWORD PTR [eax]
  00002	51		 push	 ecx
  00003	e8 00 00 00 00	 call	 ??3@YAXPAX@Z		; operator delete
  00008	59		 pop	 ecx

; 440  : 		}

  00009	c3		 ret	 0
??1?$_Container_base_aux_alloc_real@V?$allocator@V?$basic_string@DU?$char_traits@D@std@@V?$allocator@D@2@@std@@@std@@@std@@IAE@XZ ENDP ; std::_Container_base_aux_alloc_real<std::allocator<std::basic_string<char,std::char_traits<char>,std::allocator<char> > > >::~_Container_base_aux_alloc_real<std::allocator<std::basic_string<char,std::char_traits<char>,std::allocator<char> > > >
; Function compile flags: /Ogtpy
_TEXT	ENDS
;	COMDAT ??1?$_Vector_val@V?$basic_string@DU?$char_traits@D@std@@V?$allocator@D@2@@std@@V?$allocator@V?$basic_string@DU?$char_traits@D@std@@V?$allocator@D@2@@std@@@2@@std@@QAE@XZ
_TEXT	SEGMENT
??1?$_Vector_val@V?$basic_string@DU?$char_traits@D@std@@V?$allocator@D@2@@std@@V?$allocator@V?$basic_string@DU?$char_traits@D@std@@V?$allocator@D@2@@std@@@2@@std@@QAE@XZ PROC ; std::_Vector_val<std::basic_string<char,std::char_traits<char>,std::allocator<char> >,std::allocator<std::basic_string<char,std::char_traits<char>,std::allocator<char> > > >::~_Vector_val<std::basic_string<char,std::char_traits<char>,std::allocator<char> >,std::allocator<std::basic_string<char,std::char_traits<char>,std::allocator<char> > > >, COMDAT
; _this$ = eax
  00000	8b 08		 mov	 ecx, DWORD PTR [eax]
  00002	51		 push	 ecx
  00003	e8 00 00 00 00	 call	 ??3@YAXPAX@Z		; operator delete
  00008	59		 pop	 ecx
  00009	c3		 ret	 0
??1?$_Vector_val@V?$basic_string@DU?$char_traits@D@std@@V?$allocator@D@2@@std@@V?$allocator@V?$basic_string@DU?$char_traits@D@std@@V?$allocator@D@2@@std@@@2@@std@@QAE@XZ ENDP ; std::_Vector_val<std::basic_string<char,std::char_traits<char>,std::allocator<char> >,std::allocator<std::basic_string<char,std::char_traits<char>,std::allocator<char> > > >::~_Vector_val<std::basic_string<char,std::char_traits<char>,std::allocator<char> >,std::allocator<std::basic_string<char,std::char_traits<char>,std::allocator<char> > > >
; Function compile flags: /Ogtpy
; File c:\program files\microsoft visual studio 9.0\vc\include\vector
_TEXT	ENDS
;	COMDAT ??A?$vector@V?$basic_string@DU?$char_traits@D@std@@V?$allocator@D@2@@std@@V?$allocator@V?$basic_string@DU?$char_traits@D@std@@V?$allocator@D@2@@std@@@2@@std@@QAEAAV?$basic_string@DU?$char_traits@D@std@@V?$allocator@D@2@@1@I@Z
_TEXT	SEGMENT
??A?$vector@V?$basic_string@DU?$char_traits@D@std@@V?$allocator@D@2@@std@@V?$allocator@V?$basic_string@DU?$char_traits@D@std@@V?$allocator@D@2@@std@@@2@@std@@QAEAAV?$basic_string@DU?$char_traits@D@std@@V?$allocator@D@2@@1@I@Z PROC ; std::vector<std::basic_string<char,std::char_traits<char>,std::allocator<char> >,std::allocator<std::basic_string<char,std::char_traits<char>,std::allocator<char> > > >::operator[], COMDAT
; _this$ = esi
; __Pos$ = edi

; 775  : 
; 776  :  #if _HAS_ITERATOR_DEBUGGING
; 777  : 		if (size() <= _Pos)
; 778  : 			{
; 779  : 			_DEBUG_ERROR("vector subscript out of range");
; 780  : 			_SCL_SECURE_OUT_OF_RANGE;
; 781  : 			}
; 782  :  #endif /* _HAS_ITERATOR_DEBUGGING */
; 783  : 		_SCL_SECURE_VALIDATE_RANGE(_Pos < size());

  00000	8b 4e 10	 mov	 ecx, DWORD PTR [esi+16]
  00003	2b 4e 0c	 sub	 ecx, DWORD PTR [esi+12]
  00006	b8 93 24 49 92	 mov	 eax, -1840700269	; 92492493H
  0000b	f7 e9		 imul	 ecx
  0000d	03 d1		 add	 edx, ecx
  0000f	c1 fa 04	 sar	 edx, 4
  00012	8b c2		 mov	 eax, edx
  00014	c1 e8 1f	 shr	 eax, 31			; 0000001fH
  00017	03 c2		 add	 eax, edx
  00019	3b f8		 cmp	 edi, eax
  0001b	72 05		 jb	 SHORT $LN1@operator@9
  0001d	e8 00 00 00 00	 call	 __invalid_parameter_noinfo
$LN1@operator@9:

; 784  : 
; 785  : 		return (*(_Myfirst + _Pos));

  00022	8b 56 0c	 mov	 edx, DWORD PTR [esi+12]
  00025	8d 0c fd 00 00
	00 00		 lea	 ecx, DWORD PTR [edi*8]
  0002c	2b cf		 sub	 ecx, edi
  0002e	8d 04 8a	 lea	 eax, DWORD PTR [edx+ecx*4]

; 786  : 		}

  00031	c3		 ret	 0
??A?$vector@V?$basic_string@DU?$char_traits@D@std@@V?$allocator@D@2@@std@@V?$allocator@V?$basic_string@DU?$char_traits@D@std@@V?$allocator@D@2@@std@@@2@@std@@QAEAAV?$basic_string@DU?$char_traits@D@std@@V?$allocator@D@2@@1@I@Z ENDP ; std::vector<std::basic_string<char,std::char_traits<char>,std::allocator<char> >,std::allocator<std::basic_string<char,std::char_traits<char>,std::allocator<char> > > >::operator[]
; Function compile flags: /Ogtpy
; File c:\program files\microsoft visual studio 9.0\vc\include\xutility
;	COMDAT ??0?$_Container_base_aux_alloc_real@V?$allocator@V?$basic_string@DU?$char_traits@D@std@@V?$allocator@D@2@@std@@@std@@@std@@IAE@V?$allocator@V?$basic_string@DU?$char_traits@D@std@@V?$allocator@D@2@@std@@@1@@Z
_TEXT	SEGMENT
__Al$ = 8						; size = 1
??0?$_Container_base_aux_alloc_real@V?$allocator@V?$basic_string@DU?$char_traits@D@std@@V?$allocator@D@2@@std@@@std@@@std@@IAE@V?$allocator@V?$basic_string@DU?$char_traits@D@std@@V?$allocator@D@2@@std@@@1@@Z PROC ; std::_Container_base_aux_alloc_real<std::allocator<std::basic_string<char,std::char_traits<char>,std::allocator<char> > > >::_Container_base_aux_alloc_real<std::allocator<std::basic_string<char,std::char_traits<char>,std::allocator<char> > > >, COMDAT
; _this$ = esi

; 420  : 		_Myownedaux = new (_Alaux.allocate(1)) _Aux_cont(this);

  00000	6a 04		 push	 4
  00002	e8 00 00 00 00	 call	 ??2@YAPAXI@Z		; operator new
  00007	83 c4 04	 add	 esp, 4
  0000a	85 c0		 test	 eax, eax
  0000c	74 09		 je	 SHORT $LN3@Container_@4
  0000e	89 30		 mov	 DWORD PTR [eax], esi
  00010	89 06		 mov	 DWORD PTR [esi], eax

; 421  : 		}

  00012	8b c6		 mov	 eax, esi
  00014	c2 04 00	 ret	 4
$LN3@Container_@4:

; 420  : 		_Myownedaux = new (_Alaux.allocate(1)) _Aux_cont(this);

  00017	33 c0		 xor	 eax, eax
  00019	89 06		 mov	 DWORD PTR [esi], eax

; 421  : 		}

  0001b	8b c6		 mov	 eax, esi
  0001d	c2 04 00	 ret	 4
??0?$_Container_base_aux_alloc_real@V?$allocator@V?$basic_string@DU?$char_traits@D@std@@V?$allocator@D@2@@std@@@std@@@std@@IAE@V?$allocator@V?$basic_string@DU?$char_traits@D@std@@V?$allocator@D@2@@std@@@1@@Z ENDP ; std::_Container_base_aux_alloc_real<std::allocator<std::basic_string<char,std::char_traits<char>,std::allocator<char> > > >::_Container_base_aux_alloc_real<std::allocator<std::basic_string<char,std::char_traits<char>,std::allocator<char> > > >
; Function compile flags: /Ogtpy
; File c:\program files\microsoft visual studio 9.0\vc\include\vector
_TEXT	ENDS
;	COMDAT ??0?$_Vector_val@V?$basic_string@DU?$char_traits@D@std@@V?$allocator@D@2@@std@@V?$allocator@V?$basic_string@DU?$char_traits@D@std@@V?$allocator@D@2@@std@@@2@@std@@IAE@V?$allocator@V?$basic_string@DU?$char_traits@D@std@@V?$allocator@D@2@@std@@@1@@Z
_TEXT	SEGMENT
__Al$ = 8						; size = 1
??0?$_Vector_val@V?$basic_string@DU?$char_traits@D@std@@V?$allocator@D@2@@std@@V?$allocator@V?$basic_string@DU?$char_traits@D@std@@V?$allocator@D@2@@std@@@2@@std@@IAE@V?$allocator@V?$basic_string@DU?$char_traits@D@std@@V?$allocator@D@2@@std@@@1@@Z PROC ; std::_Vector_val<std::basic_string<char,std::char_traits<char>,std::allocator<char> >,std::allocator<std::basic_string<char,std::char_traits<char>,std::allocator<char> > > >::_Vector_val<std::basic_string<char,std::char_traits<char>,std::allocator<char> >,std::allocator<std::basic_string<char,std::char_traits<char>,std::allocator<char> > > >, COMDAT
; _this$ = esi

; 425  : 		{	// construct allocator from _Al

  00000	6a 04		 push	 4
  00002	e8 00 00 00 00	 call	 ??2@YAPAXI@Z		; operator new
  00007	83 c4 04	 add	 esp, 4
  0000a	85 c0		 test	 eax, eax
  0000c	74 09		 je	 SHORT $LN8@Vector_val@4
  0000e	89 30		 mov	 DWORD PTR [eax], esi
  00010	89 06		 mov	 DWORD PTR [esi], eax

; 426  : 		}

  00012	8b c6		 mov	 eax, esi
  00014	c2 04 00	 ret	 4

; 425  : 		{	// construct allocator from _Al

$LN8@Vector_val@4:
  00017	33 c0		 xor	 eax, eax
  00019	89 06		 mov	 DWORD PTR [esi], eax

; 426  : 		}

  0001b	8b c6		 mov	 eax, esi
  0001d	c2 04 00	 ret	 4
??0?$_Vector_val@V?$basic_string@DU?$char_traits@D@std@@V?$allocator@D@2@@std@@V?$allocator@V?$basic_string@DU?$char_traits@D@std@@V?$allocator@D@2@@std@@@2@@std@@IAE@V?$allocator@V?$basic_string@DU?$char_traits@D@std@@V?$allocator@D@2@@std@@@1@@Z ENDP ; std::_Vector_val<std::basic_string<char,std::char_traits<char>,std::allocator<char> >,std::allocator<std::basic_string<char,std::char_traits<char>,std::allocator<char> > > >::_Vector_val<std::basic_string<char,std::char_traits<char>,std::allocator<char> >,std::allocator<std::basic_string<char,std::char_traits<char>,std::allocator<char> > > >
; Function compile flags: /Ogtpy
;	COMDAT ??_G?$basic_string@DU?$char_traits@D@std@@V?$allocator@D@2@@std@@QAEPAXI@Z
_TEXT	SEGMENT
??_G?$basic_string@DU?$char_traits@D@std@@V?$allocator@D@2@@std@@QAEPAXI@Z PROC ; std::basic_string<char,std::char_traits<char>,std::allocator<char> >::`scalar deleting destructor', COMDAT
; _this$ = esi
  00000	83 7e 18 10	 cmp	 DWORD PTR [esi+24], 16	; 00000010H
  00004	72 0c		 jb	 SHORT $LN20@scalar@15
  00006	8b 46 04	 mov	 eax, DWORD PTR [esi+4]
  00009	50		 push	 eax
  0000a	e8 00 00 00 00	 call	 ??3@YAXPAX@Z		; operator delete
  0000f	83 c4 04	 add	 esp, 4
$LN20@scalar@15:
  00012	33 c0		 xor	 eax, eax
  00014	89 46 14	 mov	 DWORD PTR [esi+20], eax
  00017	c7 46 18 0f 00
	00 00		 mov	 DWORD PTR [esi+24], 15	; 0000000fH
  0001e	88 46 04	 mov	 BYTE PTR [esi+4], al
  00021	8b c6		 mov	 eax, esi
  00023	c3		 ret	 0
??_G?$basic_string@DU?$char_traits@D@std@@V?$allocator@D@2@@std@@QAEPAXI@Z ENDP ; std::basic_string<char,std::char_traits<char>,std::allocator<char> >::`scalar deleting destructor'
; Function compile flags: /Ogtpy
; File c:\program files\microsoft visual studio 9.0\vc\include\xmemory
_TEXT	ENDS
;	COMDAT ??$_Destroy@V?$basic_string@DU?$char_traits@D@std@@V?$allocator@D@2@@std@@@std@@YAXPAV?$basic_string@DU?$char_traits@D@std@@V?$allocator@D@2@@0@@Z
_TEXT	SEGMENT
??$_Destroy@V?$basic_string@DU?$char_traits@D@std@@V?$allocator@D@2@@std@@@std@@YAXPAV?$basic_string@DU?$char_traits@D@std@@V?$allocator@D@2@@0@@Z PROC ; std::_Destroy<std::basic_string<char,std::char_traits<char>,std::allocator<char> > >, COMDAT
; __Ptr$ = esi

; 59   : 	_DESTRUCTOR(_Ty, _Ptr);

  00000	83 7e 18 10	 cmp	 DWORD PTR [esi+24], 16	; 00000010H
  00004	72 0c		 jb	 SHORT $LN22@Destroy
  00006	8b 46 04	 mov	 eax, DWORD PTR [esi+4]
  00009	50		 push	 eax
  0000a	e8 00 00 00 00	 call	 ??3@YAXPAX@Z		; operator delete
  0000f	83 c4 04	 add	 esp, 4
$LN22@Destroy:
  00012	33 c0		 xor	 eax, eax
  00014	c7 46 18 0f 00
	00 00		 mov	 DWORD PTR [esi+24], 15	; 0000000fH
  0001b	89 46 14	 mov	 DWORD PTR [esi+20], eax
  0001e	88 46 04	 mov	 BYTE PTR [esi+4], al

; 60   : 	}

  00021	c3		 ret	 0
??$_Destroy@V?$basic_string@DU?$char_traits@D@std@@V?$allocator@D@2@@std@@@std@@YAXPAV?$basic_string@DU?$char_traits@D@std@@V?$allocator@D@2@@0@@Z ENDP ; std::_Destroy<std::basic_string<char,std::char_traits<char>,std::allocator<char> > >
; Function compile flags: /Ogtpy
_TEXT	ENDS
;	COMDAT ?destroy@?$allocator@V?$basic_string@DU?$char_traits@D@std@@V?$allocator@D@2@@std@@@std@@QAEXPAV?$basic_string@DU?$char_traits@D@std@@V?$allocator@D@2@@2@@Z
_TEXT	SEGMENT
?destroy@?$allocator@V?$basic_string@DU?$char_traits@D@std@@V?$allocator@D@2@@std@@@std@@QAEXPAV?$basic_string@DU?$char_traits@D@std@@V?$allocator@D@2@@2@@Z PROC ; std::allocator<std::basic_string<char,std::char_traits<char>,std::allocator<char> > >::destroy, COMDAT
; __Ptr$ = esi

; 160  : 		_Destroy(_Ptr);

  00000	83 7e 18 10	 cmp	 DWORD PTR [esi+24], 16	; 00000010H
  00004	72 0c		 jb	 SHORT $LN24@destroy
  00006	8b 46 04	 mov	 eax, DWORD PTR [esi+4]
  00009	50		 push	 eax
  0000a	e8 00 00 00 00	 call	 ??3@YAXPAX@Z		; operator delete
  0000f	83 c4 04	 add	 esp, 4
$LN24@destroy:
  00012	33 c0		 xor	 eax, eax
  00014	c7 46 18 0f 00
	00 00		 mov	 DWORD PTR [esi+24], 15	; 0000000fH
  0001b	89 46 14	 mov	 DWORD PTR [esi+20], eax
  0001e	88 46 04	 mov	 BYTE PTR [esi+4], al

; 161  : 		}

  00021	c3		 ret	 0
?destroy@?$allocator@V?$basic_string@DU?$char_traits@D@std@@V?$allocator@D@2@@std@@@std@@QAEXPAV?$basic_string@DU?$char_traits@D@std@@V?$allocator@D@2@@2@@Z ENDP ; std::allocator<std::basic_string<char,std::char_traits<char>,std::allocator<char> > >::destroy
; Function compile flags: /Ogtpy
_TEXT	ENDS
;	COMDAT ??$_Destroy_range@V?$allocator@V?$basic_string@DU?$char_traits@D@std@@V?$allocator@D@2@@std@@@std@@@std@@YAXPAV?$basic_string@DU?$char_traits@D@std@@V?$allocator@D@2@@0@0AAV?$allocator@V?$basic_string@DU?$char_traits@D@std@@V?$allocator@D@2@@std@@@0@U_Nonscalar_ptr_iterator_tag@0@@Z
_TEXT	SEGMENT
___formal$ = 8						; size = 1
??$_Destroy_range@V?$allocator@V?$basic_string@DU?$char_traits@D@std@@V?$allocator@D@2@@std@@@std@@@std@@YAXPAV?$basic_string@DU?$char_traits@D@std@@V?$allocator@D@2@@0@0AAV?$allocator@V?$basic_string@DU?$char_traits@D@std@@V?$allocator@D@2@@std@@@0@U_Nonscalar_ptr_iterator_tag@0@@Z PROC ; std::_Destroy_range<std::allocator<std::basic_string<char,std::char_traits<char>,std::allocator<char> > > >, COMDAT
; __First$ = eax
; __Last$ = edi

; 232  : 	{	// destroy [_First, _Last), arbitrary type

  00000	56		 push	 esi
  00001	8b f0		 mov	 esi, eax

; 233  : 	for (; _First != _Last; ++_First)

  00003	3b f7		 cmp	 esi, edi
  00005	74 30		 je	 SHORT $LN1@Destroy_ra
  00007	53		 push	 ebx
  00008	33 db		 xor	 ebx, ebx
  0000a	8d 9b 00 00 00
	00		 npad	 6
$LL3@Destroy_ra:

; 234  : 		_Al.destroy(_First);

  00010	83 7e 18 10	 cmp	 DWORD PTR [esi+24], 16	; 00000010H
  00014	72 0c		 jb	 SHORT $LN29@Destroy_ra
  00016	8b 46 04	 mov	 eax, DWORD PTR [esi+4]
  00019	50		 push	 eax
  0001a	e8 00 00 00 00	 call	 ??3@YAXPAX@Z		; operator delete
  0001f	83 c4 04	 add	 esp, 4
$LN29@Destroy_ra:
  00022	c7 46 18 0f 00
	00 00		 mov	 DWORD PTR [esi+24], 15	; 0000000fH
  00029	89 5e 14	 mov	 DWORD PTR [esi+20], ebx
  0002c	88 5e 04	 mov	 BYTE PTR [esi+4], bl
  0002f	83 c6 1c	 add	 esi, 28			; 0000001cH
  00032	3b f7		 cmp	 esi, edi
  00034	75 da		 jne	 SHORT $LL3@Destroy_ra
  00036	5b		 pop	 ebx
$LN1@Destroy_ra:
  00037	5e		 pop	 esi

; 235  : 	}

  00038	c3		 ret	 0
??$_Destroy_range@V?$allocator@V?$basic_string@DU?$char_traits@D@std@@V?$allocator@D@2@@std@@@std@@@std@@YAXPAV?$basic_string@DU?$char_traits@D@std@@V?$allocator@D@2@@0@0AAV?$allocator@V?$basic_string@DU?$char_traits@D@std@@V?$allocator@D@2@@std@@@0@U_Nonscalar_ptr_iterator_tag@0@@Z ENDP ; std::_Destroy_range<std::allocator<std::basic_string<char,std::char_traits<char>,std::allocator<char> > > >
; Function compile flags: /Ogtpy
_TEXT	ENDS
;	COMDAT ??$_Destroy_range@V?$allocator@V?$basic_string@DU?$char_traits@D@std@@V?$allocator@D@2@@std@@@std@@@std@@YAXPAV?$basic_string@DU?$char_traits@D@std@@V?$allocator@D@2@@0@0AAV?$allocator@V?$basic_string@DU?$char_traits@D@std@@V?$allocator@D@2@@std@@@0@@Z
_TEXT	SEGMENT
__Cat$63418 = -4					; size = 1
__First$ = 8						; size = 4
??$_Destroy_range@V?$allocator@V?$basic_string@DU?$char_traits@D@std@@V?$allocator@D@2@@std@@@std@@@std@@YAXPAV?$basic_string@DU?$char_traits@D@std@@V?$allocator@D@2@@0@0AAV?$allocator@V?$basic_string@DU?$char_traits@D@std@@V?$allocator@D@2@@std@@@0@@Z PROC ; std::_Destroy_range<std::allocator<std::basic_string<char,std::char_traits<char>,std::allocator<char> > > >, COMDAT
; __Last$ = edi

; 224  : 	{	// destroy [_First, _Last)

  00000	51		 push	 ecx

; 225  : 	_Destroy_range(_First, _Last, _Al, _Ptr_cat(_First, _Last));

  00001	8b 04 24	 mov	 eax, DWORD PTR __Cat$63418[esp+4]
  00004	50		 push	 eax
  00005	8b 44 24 0c	 mov	 eax, DWORD PTR __First$[esp+4]
  00009	e8 00 00 00 00	 call	 ??$_Destroy_range@V?$allocator@V?$basic_string@DU?$char_traits@D@std@@V?$allocator@D@2@@std@@@std@@@std@@YAXPAV?$basic_string@DU?$char_traits@D@std@@V?$allocator@D@2@@0@0AAV?$allocator@V?$basic_string@DU?$char_traits@D@std@@V?$allocator@D@2@@std@@@0@U_Nonscalar_ptr_iterator_tag@0@@Z ; std::_Destroy_range<std::allocator<std::basic_string<char,std::char_traits<char>,std::allocator<char> > > >

; 226  : 	}

  0000e	83 c4 08	 add	 esp, 8
  00011	c3		 ret	 0
??$_Destroy_range@V?$allocator@V?$basic_string@DU?$char_traits@D@std@@V?$allocator@D@2@@std@@@std@@@std@@YAXPAV?$basic_string@DU?$char_traits@D@std@@V?$allocator@D@2@@0@0AAV?$allocator@V?$basic_string@DU?$char_traits@D@std@@V?$allocator@D@2@@std@@@0@@Z ENDP ; std::_Destroy_range<std::allocator<std::basic_string<char,std::char_traits<char>,std::allocator<char> > > >
; Function compile flags: /Ogtpy
; File c:\program files\microsoft visual studio 9.0\vc\include\vector
_TEXT	ENDS
;	COMDAT ?_Destroy@?$vector@V?$basic_string@DU?$char_traits@D@std@@V?$allocator@D@2@@std@@V?$allocator@V?$basic_string@DU?$char_traits@D@std@@V?$allocator@D@2@@std@@@2@@std@@IAEXPAV?$basic_string@DU?$char_traits@D@std@@V?$allocator@D@2@@2@0@Z
_TEXT	SEGMENT
__Cat$63433 = 8						; size = 1
__First$ = 8						; size = 4
?_Destroy@?$vector@V?$basic_string@DU?$char_traits@D@std@@V?$allocator@D@2@@std@@V?$allocator@V?$basic_string@DU?$char_traits@D@std@@V?$allocator@D@2@@std@@@2@@std@@IAEXPAV?$basic_string@DU?$char_traits@D@std@@V?$allocator@D@2@@2@0@Z PROC ; std::vector<std::basic_string<char,std::char_traits<char>,std::allocator<char> >,std::allocator<std::basic_string<char,std::char_traits<char>,std::allocator<char> > > >::_Destroy, COMDAT
; __Last$ = edi

; 1124 : 		_Destroy_range(_First, _Last, this->_Alval);

  00000	8b 44 24 04	 mov	 eax, DWORD PTR __Cat$63433[esp-4]
  00004	50		 push	 eax
  00005	8b 44 24 08	 mov	 eax, DWORD PTR __First$[esp]
  00009	e8 00 00 00 00	 call	 ??$_Destroy_range@V?$allocator@V?$basic_string@DU?$char_traits@D@std@@V?$allocator@D@2@@std@@@std@@@std@@YAXPAV?$basic_string@DU?$char_traits@D@std@@V?$allocator@D@2@@0@0AAV?$allocator@V?$basic_string@DU?$char_traits@D@std@@V?$allocator@D@2@@std@@@0@U_Nonscalar_ptr_iterator_tag@0@@Z ; std::_Destroy_range<std::allocator<std::basic_string<char,std::char_traits<char>,std::allocator<char> > > >
  0000e	59		 pop	 ecx

; 1125 : 		}

  0000f	c2 04 00	 ret	 4
?_Destroy@?$vector@V?$basic_string@DU?$char_traits@D@std@@V?$allocator@D@2@@std@@V?$allocator@V?$basic_string@DU?$char_traits@D@std@@V?$allocator@D@2@@std@@@2@@std@@IAEXPAV?$basic_string@DU?$char_traits@D@std@@V?$allocator@D@2@@2@0@Z ENDP ; std::vector<std::basic_string<char,std::char_traits<char>,std::allocator<char> >,std::allocator<std::basic_string<char,std::char_traits<char>,std::allocator<char> > > >::_Destroy
; Function compile flags: /Ogtpy
_TEXT	ENDS
;	COMDAT ?_Tidy@?$vector@V?$basic_string@DU?$char_traits@D@std@@V?$allocator@D@2@@std@@V?$allocator@V?$basic_string@DU?$char_traits@D@std@@V?$allocator@D@2@@std@@@2@@std@@IAEXXZ
_TEXT	SEGMENT
__Cat$63461 = -4					; size = 1
?_Tidy@?$vector@V?$basic_string@DU?$char_traits@D@std@@V?$allocator@D@2@@std@@V?$allocator@V?$basic_string@DU?$char_traits@D@std@@V?$allocator@D@2@@std@@@2@@std@@IAEXXZ PROC ; std::vector<std::basic_string<char,std::char_traits<char>,std::allocator<char> >,std::allocator<std::basic_string<char,std::char_traits<char>,std::allocator<char> > > >::_Tidy, COMDAT
; _this$ = esi

; 1128 : 		{	// free all storage

  00000	51		 push	 ecx

; 1129 : 		if (_Myfirst != 0)

  00001	8b 46 0c	 mov	 eax, DWORD PTR [esi+12]
  00004	85 c0		 test	 eax, eax
  00006	74 1a		 je	 SHORT $LN10@Tidy@7

; 1130 : 			{	// something to free, destroy and deallocate it
; 1131 : 
; 1132 :  #if _HAS_ITERATOR_DEBUGGING
; 1133 : 			this->_Orphan_all();
; 1134 :  #endif /* _HAS_ITERATOR_DEBUGGING */
; 1135 : 
; 1136 : 			_Destroy(_Myfirst, _Mylast);

  00008	8b 0c 24	 mov	 ecx, DWORD PTR __Cat$63461[esp+4]
  0000b	57		 push	 edi
  0000c	8b 7e 10	 mov	 edi, DWORD PTR [esi+16]
  0000f	51		 push	 ecx
  00010	e8 00 00 00 00	 call	 ??$_Destroy_range@V?$allocator@V?$basic_string@DU?$char_traits@D@std@@V?$allocator@D@2@@std@@@std@@@std@@YAXPAV?$basic_string@DU?$char_traits@D@std@@V?$allocator@D@2@@0@0AAV?$allocator@V?$basic_string@DU?$char_traits@D@std@@V?$allocator@D@2@@std@@@0@U_Nonscalar_ptr_iterator_tag@0@@Z ; std::_Destroy_range<std::allocator<std::basic_string<char,std::char_traits<char>,std::allocator<char> > > >

; 1137 : 			this->_Alval.deallocate(_Myfirst, _Myend - _Myfirst);

  00015	8b 56 0c	 mov	 edx, DWORD PTR [esi+12]
  00018	52		 push	 edx
  00019	e8 00 00 00 00	 call	 ??3@YAXPAX@Z		; operator delete
  0001e	83 c4 08	 add	 esp, 8
  00021	5f		 pop	 edi
$LN10@Tidy@7:

; 1138 : 			}
; 1139 : 		_Myfirst = 0, _Mylast = 0, _Myend = 0;

  00022	c7 46 0c 00 00
	00 00		 mov	 DWORD PTR [esi+12], 0
  00029	c7 46 10 00 00
	00 00		 mov	 DWORD PTR [esi+16], 0
  00030	c7 46 14 00 00
	00 00		 mov	 DWORD PTR [esi+20], 0

; 1140 : 		}

  00037	59		 pop	 ecx
  00038	c3		 ret	 0
?_Tidy@?$vector@V?$basic_string@DU?$char_traits@D@std@@V?$allocator@D@2@@std@@V?$allocator@V?$basic_string@DU?$char_traits@D@std@@V?$allocator@D@2@@std@@@2@@std@@IAEXXZ ENDP ; std::vector<std::basic_string<char,std::char_traits<char>,std::allocator<char> >,std::allocator<std::basic_string<char,std::char_traits<char>,std::allocator<char> > > >::_Tidy
; Function compile flags: /Ogtpy
_TEXT	ENDS
;	COMDAT ??1?$vector@V?$basic_string@DU?$char_traits@D@std@@V?$allocator@D@2@@std@@V?$allocator@V?$basic_string@DU?$char_traits@D@std@@V?$allocator@D@2@@std@@@2@@std@@QAE@XZ
_TEXT	SEGMENT
__Cat$63510 = -4					; size = 1
??1?$vector@V?$basic_string@DU?$char_traits@D@std@@V?$allocator@D@2@@std@@V?$allocator@V?$basic_string@DU?$char_traits@D@std@@V?$allocator@D@2@@std@@@2@@std@@QAE@XZ PROC ; std::vector<std::basic_string<char,std::char_traits<char>,std::allocator<char> >,std::allocator<std::basic_string<char,std::char_traits<char>,std::allocator<char> > > >::~vector<std::basic_string<char,std::char_traits<char>,std::allocator<char> >,std::allocator<std::basic_string<char,std::char_traits<char>,std::allocator<char> > > >, COMDAT
; _this$ = esi

; 558  : 		{	// destroy the object

  00000	51		 push	 ecx

; 559  : 		_Tidy();

  00001	8b 46 0c	 mov	 eax, DWORD PTR [esi+12]
  00004	85 c0		 test	 eax, eax
  00006	74 1a		 je	 SHORT $LN12@vector@5
  00008	8b 0c 24	 mov	 ecx, DWORD PTR __Cat$63510[esp+4]
  0000b	57		 push	 edi
  0000c	8b 7e 10	 mov	 edi, DWORD PTR [esi+16]
  0000f	51		 push	 ecx
  00010	e8 00 00 00 00	 call	 ??$_Destroy_range@V?$allocator@V?$basic_string@DU?$char_traits@D@std@@V?$allocator@D@2@@std@@@std@@@std@@YAXPAV?$basic_string@DU?$char_traits@D@std@@V?$allocator@D@2@@0@0AAV?$allocator@V?$basic_string@DU?$char_traits@D@std@@V?$allocator@D@2@@std@@@0@U_Nonscalar_ptr_iterator_tag@0@@Z ; std::_Destroy_range<std::allocator<std::basic_string<char,std::char_traits<char>,std::allocator<char> > > >
  00015	8b 56 0c	 mov	 edx, DWORD PTR [esi+12]
  00018	52		 push	 edx
  00019	e8 00 00 00 00	 call	 ??3@YAXPAX@Z		; operator delete
  0001e	83 c4 08	 add	 esp, 8
  00021	5f		 pop	 edi
$LN12@vector@5:

; 560  : 		}

  00022	8b 06		 mov	 eax, DWORD PTR [esi]
  00024	50		 push	 eax
  00025	c7 46 0c 00 00
	00 00		 mov	 DWORD PTR [esi+12], 0
  0002c	c7 46 10 00 00
	00 00		 mov	 DWORD PTR [esi+16], 0
  00033	c7 46 14 00 00
	00 00		 mov	 DWORD PTR [esi+20], 0
  0003a	e8 00 00 00 00	 call	 ??3@YAXPAX@Z		; operator delete
  0003f	83 c4 08	 add	 esp, 8
  00042	c3		 ret	 0
??1?$vector@V?$basic_string@DU?$char_traits@D@std@@V?$allocator@D@2@@std@@V?$allocator@V?$basic_string@DU?$char_traits@D@std@@V?$allocator@D@2@@std@@@2@@std@@QAE@XZ ENDP ; std::vector<std::basic_string<char,std::char_traits<char>,std::allocator<char> >,std::allocator<std::basic_string<char,std::char_traits<char>,std::allocator<char> > > >::~vector<std::basic_string<char,std::char_traits<char>,std::allocator<char> >,std::allocator<std::basic_string<char,std::char_traits<char>,std::allocator<char> > > >
PUBLIC	??1Context@@QAE@XZ				; Context::~Context
; Function compile flags: /Ogtpy
; File i:\nj\my project\cms\cms\asn1\context.cpp
;	COMDAT ??1Context@@QAE@XZ
_TEXT	SEGMENT
__Cat$67071 = -4					; size = 1
??1Context@@QAE@XZ PROC					; Context::~Context, COMDAT
; _this$ = esi

; 26   : {

  00000	c7 06 00 00 00
	00		 mov	 DWORD PTR [esi], OFFSET ??_7Context@@6B@

; 27   : }

  00006	8b 46 54	 mov	 eax, DWORD PTR [esi+84]
  00009	83 ec 08	 sub	 esp, 8
  0000c	57		 push	 edi
  0000d	85 c0		 test	 eax, eax
  0000f	74 1c		 je	 SHORT $LN14@Context
  00011	8b 4c 24 08	 mov	 ecx, DWORD PTR __Cat$67071[esp+12]
  00015	8b 7e 58	 mov	 edi, DWORD PTR [esi+88]
  00018	51		 push	 ecx
  00019	e8 00 00 00 00	 call	 ??$_Destroy_range@V?$allocator@V?$basic_string@DU?$char_traits@D@std@@V?$allocator@D@2@@std@@@std@@@std@@YAXPAV?$basic_string@DU?$char_traits@D@std@@V?$allocator@D@2@@0@0AAV?$allocator@V?$basic_string@DU?$char_traits@D@std@@V?$allocator@D@2@@std@@@0@U_Nonscalar_ptr_iterator_tag@0@@Z ; std::_Destroy_range<std::allocator<std::basic_string<char,std::char_traits<char>,std::allocator<char> > > >
  0001e	8b 56 54	 mov	 edx, DWORD PTR [esi+84]
  00021	83 c4 04	 add	 esp, 4
  00024	52		 push	 edx
  00025	e8 00 00 00 00	 call	 ??3@YAXPAX@Z		; operator delete
  0002a	83 c4 04	 add	 esp, 4
$LN14@Context:
  0002d	8b 46 48	 mov	 eax, DWORD PTR [esi+72]
  00030	50		 push	 eax
  00031	c7 46 54 00 00
	00 00		 mov	 DWORD PTR [esi+84], 0
  00038	c7 46 58 00 00
	00 00		 mov	 DWORD PTR [esi+88], 0
  0003f	c7 46 5c 00 00
	00 00		 mov	 DWORD PTR [esi+92], 0
  00046	e8 00 00 00 00	 call	 ??3@YAXPAX@Z		; operator delete
  0004b	83 c4 04	 add	 esp, 4
  0004e	8b fe		 mov	 edi, esi
  00050	e8 00 00 00 00	 call	 ??1ASN1@@QAE@XZ		; ASN1::~ASN1
  00055	5f		 pop	 edi
  00056	83 c4 08	 add	 esp, 8
  00059	c3		 ret	 0
??1Context@@QAE@XZ ENDP					; Context::~Context
;	COMDAT xdata$x
; File c:\program files\microsoft visual studio 9.0\vc\include\stdexcept
xdata$x	SEGMENT
__unwindtable$?_Xlen@?$vector@V?$basic_string@DU?$char_traits@D@std@@V?$allocator@D@2@@std@@V?$allocator@V?$basic_string@DU?$char_traits@D@std@@V?$allocator@D@2@@std@@@2@@std@@KAXXZ DD 0ffffffffH
	DD	FLAT:__unwindfunclet$?_Xlen@?$vector@V?$basic_string@DU?$char_traits@D@std@@V?$allocator@D@2@@std@@V?$allocator@V?$basic_string@DU?$char_traits@D@std@@V?$allocator@D@2@@std@@@2@@std@@KAXXZ$0
__ehfuncinfo$?_Xlen@?$vector@V?$basic_string@DU?$char_traits@D@std@@V?$allocator@D@2@@std@@V?$allocator@V?$basic_string@DU?$char_traits@D@std@@V?$allocator@D@2@@std@@@2@@std@@KAXXZ DD 019930522H
	DD	01H
	DD	FLAT:__unwindtable$?_Xlen@?$vector@V?$basic_string@DU?$char_traits@D@std@@V?$allocator@D@2@@std@@V?$allocator@V?$basic_string@DU?$char_traits@D@std@@V?$allocator@D@2@@std@@@2@@std@@KAXXZ
	DD	2 DUP(00H)
	DD	2 DUP(00H)
	DD	00H
	DD	01H
; Function compile flags: /Ogtpy
; File c:\program files\microsoft visual studio 9.0\vc\include\vector
xdata$x	ENDS
;	COMDAT ?_Xlen@?$vector@V?$basic_string@DU?$char_traits@D@std@@V?$allocator@D@2@@std@@V?$allocator@V?$basic_string@DU?$char_traits@D@std@@V?$allocator@D@2@@std@@@2@@std@@KAXXZ
_TEXT	SEGMENT
$T86899 = -80						; size = 28
$T86898 = -52						; size = 40
__$EHRec$ = -12						; size = 12
?_Xlen@?$vector@V?$basic_string@DU?$char_traits@D@std@@V?$allocator@D@2@@std@@V?$allocator@V?$basic_string@DU?$char_traits@D@std@@V?$allocator@D@2@@std@@@2@@std@@KAXXZ PROC ; std::vector<std::basic_string<char,std::char_traits<char>,std::allocator<char> >,std::allocator<std::basic_string<char,std::char_traits<char>,std::allocator<char> > > >::_Xlen, COMDAT

; 1257 : 		{	// report a length_error

  00000	6a ff		 push	 -1
  00002	68 00 00 00 00	 push	 __ehhandler$?_Xlen@?$vector@V?$basic_string@DU?$char_traits@D@std@@V?$allocator@D@2@@std@@V?$allocator@V?$basic_string@DU?$char_traits@D@std@@V?$allocator@D@2@@std@@@2@@std@@KAXXZ
  00007	64 a1 00 00 00
	00		 mov	 eax, DWORD PTR fs:0
  0000d	50		 push	 eax
  0000e	83 ec 44	 sub	 esp, 68			; 00000044H
  00011	a1 00 00 00 00	 mov	 eax, DWORD PTR ___security_cookie
  00016	33 c4		 xor	 eax, esp
  00018	50		 push	 eax
  00019	8d 44 24 48	 lea	 eax, DWORD PTR __$EHRec$[esp+84]
  0001d	64 a3 00 00 00
	00		 mov	 DWORD PTR fs:0, eax

; 1258 : 		_THROW(length_error, "vector<T> too long");

  00023	6a 12		 push	 18			; 00000012H
  00025	68 00 00 00 00	 push	 OFFSET ??_C@_0BD@OLBABOEK@vector?$DMT?$DO?5too?5long?$AA@
  0002a	8d 4c 24 0c	 lea	 ecx, DWORD PTR $T86899[esp+92]
  0002e	c7 44 24 24 0f
	00 00 00	 mov	 DWORD PTR $T86899[esp+116], 15 ; 0000000fH
  00036	c7 44 24 20 00
	00 00 00	 mov	 DWORD PTR $T86899[esp+112], 0
  0003e	c6 44 24 10 00	 mov	 BYTE PTR $T86899[esp+96], 0
  00043	e8 00 00 00 00	 call	 ?assign@?$basic_string@DU?$char_traits@D@std@@V?$allocator@D@2@@std@@QAEAAV12@PBDI@Z ; std::basic_string<char,std::char_traits<char>,std::allocator<char> >::assign
  00048	8d 44 24 04	 lea	 eax, DWORD PTR $T86899[esp+84]
  0004c	50		 push	 eax
  0004d	8d 4c 24 24	 lea	 ecx, DWORD PTR $T86898[esp+88]
  00051	c7 44 24 54 00
	00 00 00	 mov	 DWORD PTR __$EHRec$[esp+96], 0
  00059	e8 00 00 00 00	 call	 ??0logic_error@std@@QAE@ABV?$basic_string@DU?$char_traits@D@std@@V?$allocator@D@2@@1@@Z ; std::logic_error::logic_error
  0005e	68 00 00 00 00	 push	 OFFSET __TI3?AVlength_error@std@@
  00063	8d 4c 24 24	 lea	 ecx, DWORD PTR $T86898[esp+88]
  00067	51		 push	 ecx
  00068	c7 44 24 28 00
	00 00 00	 mov	 DWORD PTR $T86898[esp+92], OFFSET ??_7length_error@std@@6B@
  00070	e8 00 00 00 00	 call	 __CxxThrowException@8
$LN45@Xlen@4:
$LN44@Xlen@4:
  00075	cc		 int	 3
_TEXT	ENDS
;	COMDAT text$x
text$x	SEGMENT
__unwindfunclet$?_Xlen@?$vector@V?$basic_string@DU?$char_traits@D@std@@V?$allocator@D@2@@std@@V?$allocator@V?$basic_string@DU?$char_traits@D@std@@V?$allocator@D@2@@std@@@2@@std@@KAXXZ$0:
  00000	8d 4d b0	 lea	 ecx, DWORD PTR $T86899[ebp]
  00003	e9 00 00 00 00	 jmp	 ??1?$basic_string@DU?$char_traits@D@std@@V?$allocator@D@2@@std@@QAE@XZ ; std::basic_string<char,std::char_traits<char>,std::allocator<char> >::~basic_string<char,std::char_traits<char>,std::allocator<char> >
__ehhandler$?_Xlen@?$vector@V?$basic_string@DU?$char_traits@D@std@@V?$allocator@D@2@@std@@V?$allocator@V?$basic_string@DU?$char_traits@D@std@@V?$allocator@D@2@@std@@@2@@std@@KAXXZ:
  00008	8b 54 24 08	 mov	 edx, DWORD PTR [esp+8]
  0000c	8d 42 bc	 lea	 eax, DWORD PTR [edx-68]
  0000f	8b 4a b8	 mov	 ecx, DWORD PTR [edx-72]
  00012	33 c8		 xor	 ecx, eax
  00014	e8 00 00 00 00	 call	 @__security_check_cookie@4
  00019	b8 00 00 00 00	 mov	 eax, OFFSET __ehfuncinfo$?_Xlen@?$vector@V?$basic_string@DU?$char_traits@D@std@@V?$allocator@D@2@@std@@V?$allocator@V?$basic_string@DU?$char_traits@D@std@@V?$allocator@D@2@@std@@@2@@std@@KAXXZ
  0001e	e9 00 00 00 00	 jmp	 ___CxxFrameHandler3
text$x	ENDS
?_Xlen@?$vector@V?$basic_string@DU?$char_traits@D@std@@V?$allocator@D@2@@std@@V?$allocator@V?$basic_string@DU?$char_traits@D@std@@V?$allocator@D@2@@std@@@2@@std@@KAXXZ ENDP ; std::vector<std::basic_string<char,std::char_traits<char>,std::allocator<char> >,std::allocator<std::basic_string<char,std::char_traits<char>,std::allocator<char> > > >::_Xlen
; Function compile flags: /Ogtpy
;	COMDAT ?_Buy@?$vector@V?$basic_string@DU?$char_traits@D@std@@V?$allocator@D@2@@std@@V?$allocator@V?$basic_string@DU?$char_traits@D@std@@V?$allocator@D@2@@std@@@2@@std@@IAE_NI@Z
_TEXT	SEGMENT
?_Buy@?$vector@V?$basic_string@DU?$char_traits@D@std@@V?$allocator@D@2@@std@@V?$allocator@V?$basic_string@DU?$char_traits@D@std@@V?$allocator@D@2@@std@@@2@@std@@IAE_NI@Z PROC ; std::vector<std::basic_string<char,std::char_traits<char>,std::allocator<char> >,std::allocator<std::basic_string<char,std::char_traits<char>,std::allocator<char> > > >::_Buy, COMDAT
; _this$ = esi
; __Capacity$ = edi

; 1107 : 		{	// allocate array with _Capacity elements

  00000	51		 push	 ecx

; 1108 : 		_Myfirst = 0, _Mylast = 0, _Myend = 0;
; 1109 : 		if (_Capacity == 0)
; 1110 : 			return (false);
; 1111 : 		else if (max_size() < _Capacity)

  00001	81 ff 49 92 24
	09		 cmp	 edi, 153391689		; 09249249H
  00007	76 05		 jbe	 SHORT $LN2@Buy@4

; 1112 : 			_Xlen();	// result too long

  00009	e8 00 00 00 00	 call	 ?_Xlen@?$vector@V?$basic_string@DU?$char_traits@D@std@@V?$allocator@D@2@@std@@V?$allocator@V?$basic_string@DU?$char_traits@D@std@@V?$allocator@D@2@@std@@@2@@std@@KAXXZ ; std::vector<std::basic_string<char,std::char_traits<char>,std::allocator<char> >,std::allocator<std::basic_string<char,std::char_traits<char>,std::allocator<char> > > >::_Xlen
$LN29@Buy@4:
$LN2@Buy@4:

; 1113 : 		else
; 1114 : 			{	// nonempty array, allocate storage
; 1115 : 			_Myfirst = this->_Alval.allocate(_Capacity);

  0000e	6a 00		 push	 0
  00010	e8 00 00 00 00	 call	 ??2@YAPAXI@Z		; operator new

; 1116 : 			_Mylast = _Myfirst;
; 1117 : 			_Myend = _Myfirst + _Capacity;

  00015	8d 0c fd 00 00
	00 00		 lea	 ecx, DWORD PTR [edi*8]
  0001c	83 c4 04	 add	 esp, 4
  0001f	2b cf		 sub	 ecx, edi
  00021	8d 14 88	 lea	 edx, DWORD PTR [eax+ecx*4]
  00024	89 46 0c	 mov	 DWORD PTR [esi+12], eax
  00027	89 46 10	 mov	 DWORD PTR [esi+16], eax
  0002a	89 56 14	 mov	 DWORD PTR [esi+20], edx

; 1118 : 			}
; 1119 : 		return (true);

  0002d	b0 01		 mov	 al, 1
  0002f	59		 pop	 ecx

; 1120 : 		}

  00030	c3		 ret	 0
$LN28@Buy@4:
?_Buy@?$vector@V?$basic_string@DU?$char_traits@D@std@@V?$allocator@D@2@@std@@V?$allocator@V?$basic_string@DU?$char_traits@D@std@@V?$allocator@D@2@@std@@@2@@std@@IAE_NI@Z ENDP ; std::vector<std::basic_string<char,std::char_traits<char>,std::allocator<char> >,std::allocator<std::basic_string<char,std::char_traits<char>,std::allocator<char> > > >::_Buy
_TEXT	ENDS
;	COMDAT xdata$x
; File c:\program files\microsoft visual studio 9.0\vc\include\xmemory
xdata$x	SEGMENT
__unwindtable$??0?$vector@V?$basic_string@DU?$char_traits@D@std@@V?$allocator@D@2@@std@@V?$allocator@V?$basic_string@DU?$char_traits@D@std@@V?$allocator@D@2@@std@@@2@@std@@QAE@XZ DD 0ffffffffH
	DD	FLAT:__unwindfunclet$??0?$vector@V?$basic_string@DU?$char_traits@D@std@@V?$allocator@D@2@@std@@V?$allocator@V?$basic_string@DU?$char_traits@D@std@@V?$allocator@D@2@@std@@@2@@std@@QAE@XZ$0
__ehfuncinfo$??0?$vector@V?$basic_string@DU?$char_traits@D@std@@V?$allocator@D@2@@std@@V?$allocator@V?$basic_string@DU?$char_traits@D@std@@V?$allocator@D@2@@std@@@2@@std@@QAE@XZ DD 019930522H
	DD	01H
	DD	FLAT:__unwindtable$??0?$vector@V?$basic_string@DU?$char_traits@D@std@@V?$allocator@D@2@@std@@V?$allocator@V?$basic_string@DU?$char_traits@D@std@@V?$allocator@D@2@@std@@@2@@std@@QAE@XZ
	DD	2 DUP(00H)
	DD	2 DUP(00H)
	DD	00H
	DD	01H
; Function compile flags: /Ogtpy
; File c:\program files\microsoft visual studio 9.0\vc\include\vector
xdata$x	ENDS
;	COMDAT ??0?$vector@V?$basic_string@DU?$char_traits@D@std@@V?$allocator@D@2@@std@@V?$allocator@V?$basic_string@DU?$char_traits@D@std@@V?$allocator@D@2@@std@@@2@@std@@QAE@XZ
_TEXT	SEGMENT
__$EHRec$ = -12						; size = 12
_this$ = 8						; size = 4
??0?$vector@V?$basic_string@DU?$char_traits@D@std@@V?$allocator@D@2@@std@@V?$allocator@V?$basic_string@DU?$char_traits@D@std@@V?$allocator@D@2@@std@@@2@@std@@QAE@XZ PROC ; std::vector<std::basic_string<char,std::char_traits<char>,std::allocator<char> >,std::allocator<std::basic_string<char,std::char_traits<char>,std::allocator<char> > > >::vector<std::basic_string<char,std::char_traits<char>,std::allocator<char> >,std::allocator<std::basic_string<char,std::char_traits<char>,std::allocator<char> > > >, COMDAT

; 470  : 		{	// construct empty vector

  00000	6a ff		 push	 -1
  00002	68 00 00 00 00	 push	 __ehhandler$??0?$vector@V?$basic_string@DU?$char_traits@D@std@@V?$allocator@D@2@@std@@V?$allocator@V?$basic_string@DU?$char_traits@D@std@@V?$allocator@D@2@@std@@@2@@std@@QAE@XZ
  00007	64 a1 00 00 00
	00		 mov	 eax, DWORD PTR fs:0
  0000d	50		 push	 eax
  0000e	51		 push	 ecx
  0000f	56		 push	 esi
  00010	a1 00 00 00 00	 mov	 eax, DWORD PTR ___security_cookie
  00015	33 c4		 xor	 eax, esp
  00017	50		 push	 eax
  00018	8d 44 24 0c	 lea	 eax, DWORD PTR __$EHRec$[esp+24]
  0001c	64 a3 00 00 00
	00		 mov	 DWORD PTR fs:0, eax
  00022	8b 74 24 1c	 mov	 esi, DWORD PTR _this$[esp+20]
  00026	6a 04		 push	 4
  00028	e8 00 00 00 00	 call	 ??2@YAPAXI@Z		; operator new
  0002d	33 c9		 xor	 ecx, ecx
  0002f	83 c4 04	 add	 esp, 4
  00032	3b c1		 cmp	 eax, ecx
  00034	74 04		 je	 SHORT $LN13@vector@9
  00036	89 30		 mov	 DWORD PTR [eax], esi
  00038	eb 02		 jmp	 SHORT $LN14@vector@9
$LN13@vector@9:
  0003a	33 c0		 xor	 eax, eax
$LN14@vector@9:
  0003c	89 06		 mov	 DWORD PTR [esi], eax

; 471  : 		_Buy(0);

  0003e	89 4e 0c	 mov	 DWORD PTR [esi+12], ecx
  00041	89 4e 10	 mov	 DWORD PTR [esi+16], ecx
  00044	89 4e 14	 mov	 DWORD PTR [esi+20], ecx

; 472  : 		}

  00047	8b c6		 mov	 eax, esi
  00049	8b 4c 24 0c	 mov	 ecx, DWORD PTR __$EHRec$[esp+24]
  0004d	64 89 0d 00 00
	00 00		 mov	 DWORD PTR fs:0, ecx
  00054	59		 pop	 ecx
  00055	5e		 pop	 esi
  00056	83 c4 10	 add	 esp, 16			; 00000010H
  00059	c2 04 00	 ret	 4
_TEXT	ENDS
;	COMDAT text$x
text$x	SEGMENT
__unwindfunclet$??0?$vector@V?$basic_string@DU?$char_traits@D@std@@V?$allocator@D@2@@std@@V?$allocator@V?$basic_string@DU?$char_traits@D@std@@V?$allocator@D@2@@std@@@2@@std@@QAE@XZ$0:
  00000	8b 45 04	 mov	 eax, DWORD PTR _this$[ebp-4]
  00003	e9 00 00 00 00	 jmp	 ??1?$_Vector_val@V?$basic_string@DU?$char_traits@D@std@@V?$allocator@D@2@@std@@V?$allocator@V?$basic_string@DU?$char_traits@D@std@@V?$allocator@D@2@@std@@@2@@std@@QAE@XZ
__ehhandler$??0?$vector@V?$basic_string@DU?$char_traits@D@std@@V?$allocator@D@2@@std@@V?$allocator@V?$basic_string@DU?$char_traits@D@std@@V?$allocator@D@2@@std@@@2@@std@@QAE@XZ:
  00008	8b 54 24 08	 mov	 edx, DWORD PTR [esp+8]
  0000c	8d 42 f8	 lea	 eax, DWORD PTR [edx-8]
  0000f	8b 4a f4	 mov	 ecx, DWORD PTR [edx-12]
  00012	33 c8		 xor	 ecx, eax
  00014	e8 00 00 00 00	 call	 @__security_check_cookie@4
  00019	b8 00 00 00 00	 mov	 eax, OFFSET __ehfuncinfo$??0?$vector@V?$basic_string@DU?$char_traits@D@std@@V?$allocator@D@2@@std@@V?$allocator@V?$basic_string@DU?$char_traits@D@std@@V?$allocator@D@2@@std@@@2@@std@@QAE@XZ
  0001e	e9 00 00 00 00	 jmp	 ___CxxFrameHandler3
text$x	ENDS
??0?$vector@V?$basic_string@DU?$char_traits@D@std@@V?$allocator@D@2@@std@@V?$allocator@V?$basic_string@DU?$char_traits@D@std@@V?$allocator@D@2@@std@@@2@@std@@QAE@XZ ENDP ; std::vector<std::basic_string<char,std::char_traits<char>,std::allocator<char> >,std::allocator<std::basic_string<char,std::char_traits<char>,std::allocator<char> > > >::vector<std::basic_string<char,std::char_traits<char>,std::allocator<char> >,std::allocator<std::basic_string<char,std::char_traits<char>,std::allocator<char> > > >
PUBLIC	??0Context@@QAE@IQBD@Z				; Context::Context
;	COMDAT xdata$x
; File i:\nj\my project\cms\cms\asn1\context.cpp
xdata$x	SEGMENT
__unwindtable$??0Context@@QAE@IQBD@Z DD 0ffffffffH
	DD	FLAT:__unwindfunclet$??0Context@@QAE@IQBD@Z$0
__ehfuncinfo$??0Context@@QAE@IQBD@Z DD 019930522H
	DD	01H
	DD	FLAT:__unwindtable$??0Context@@QAE@IQBD@Z
	DD	2 DUP(00H)
	DD	2 DUP(00H)
	DD	00H
	DD	01H
; Function compile flags: /Ogtpy
xdata$x	ENDS
;	COMDAT ??0Context@@QAE@IQBD@Z
_TEXT	SEGMENT
__$EHRec$ = -12						; size = 12
_this$ = 8						; size = 4
_num$ = 12						; size = 4
??0Context@@QAE@IQBD@Z PROC				; Context::Context, COMDAT

; 15   : {

  00000	6a ff		 push	 -1
  00002	68 00 00 00 00	 push	 __ehhandler$??0Context@@QAE@IQBD@Z
  00007	64 a1 00 00 00
	00		 mov	 eax, DWORD PTR fs:0
  0000d	50		 push	 eax
  0000e	56		 push	 esi
  0000f	a1 00 00 00 00	 mov	 eax, DWORD PTR ___security_cookie
  00014	33 c4		 xor	 eax, esp
  00016	50		 push	 eax
  00017	8d 44 24 08	 lea	 eax, DWORD PTR __$EHRec$[esp+20]
  0001b	64 a3 00 00 00
	00		 mov	 DWORD PTR fs:0, eax
  00021	8b 74 24 18	 mov	 esi, DWORD PTR _this$[esp+16]
  00025	68 00 00 00 00	 push	 OFFSET ??_C@_07GDNEHDJK@Context?$AA@
  0002a	56		 push	 esi
  0002b	e8 00 00 00 00	 call	 ??0ASN1@@QAE@QBD@Z	; ASN1::ASN1
  00030	8b 44 24 1c	 mov	 eax, DWORD PTR _num$[esp+16]
  00034	8d 4e 48	 lea	 ecx, DWORD PTR [esi+72]
  00037	c7 44 24 10 00
	00 00 00	 mov	 DWORD PTR __$EHRec$[esp+28], 0
  0003f	51		 push	 ecx
  00040	c7 06 00 00 00
	00		 mov	 DWORD PTR [esi], OFFSET ??_7Context@@6B@
  00046	89 46 44	 mov	 DWORD PTR [esi+68], eax
  00049	e8 00 00 00 00	 call	 ??0?$vector@V?$basic_string@DU?$char_traits@D@std@@V?$allocator@D@2@@std@@V?$allocator@V?$basic_string@DU?$char_traits@D@std@@V?$allocator@D@2@@std@@@2@@std@@QAE@XZ ; std::vector<std::basic_string<char,std::char_traits<char>,std::allocator<char> >,std::allocator<std::basic_string<char,std::char_traits<char>,std::allocator<char> > > >::vector<std::basic_string<char,std::char_traits<char>,std::allocator<char> >,std::allocator<std::basic_string<char,std::char_traits<char>,std::allocator<char> > > >

; 16   : }

  0004e	8b c6		 mov	 eax, esi
  00050	8b 4c 24 08	 mov	 ecx, DWORD PTR __$EHRec$[esp+20]
  00054	64 89 0d 00 00
	00 00		 mov	 DWORD PTR fs:0, ecx
  0005b	59		 pop	 ecx
  0005c	5e		 pop	 esi
  0005d	83 c4 0c	 add	 esp, 12			; 0000000cH
  00060	c2 08 00	 ret	 8
_TEXT	ENDS
;	COMDAT text$x
text$x	SEGMENT
__unwindfunclet$??0Context@@QAE@IQBD@Z$0:
  00000	8b 7d 04	 mov	 edi, DWORD PTR _this$[ebp-4]
  00003	e9 00 00 00 00	 jmp	 ??1ASN1@@QAE@XZ		; ASN1::~ASN1
__ehhandler$??0Context@@QAE@IQBD@Z:
  00008	8b 54 24 08	 mov	 edx, DWORD PTR [esp+8]
  0000c	8d 42 fc	 lea	 eax, DWORD PTR [edx-4]
  0000f	8b 4a f8	 mov	 ecx, DWORD PTR [edx-8]
  00012	33 c8		 xor	 ecx, eax
  00014	e8 00 00 00 00	 call	 @__security_check_cookie@4
  00019	b8 00 00 00 00	 mov	 eax, OFFSET __ehfuncinfo$??0Context@@QAE@IQBD@Z
  0001e	e9 00 00 00 00	 jmp	 ___CxxFrameHandler3
text$x	ENDS
??0Context@@QAE@IQBD@Z ENDP				; Context::Context
PUBLIC	__$ArrayPad$
;	COMDAT xdata$x
; File c:\program files\microsoft visual studio 9.0\vc\include\iosfwd
xdata$x	SEGMENT
__unwindtable$?encodeBER@Context@@UAEXXZ DD 0ffffffffH
	DD	FLAT:__unwindfunclet$?encodeBER@Context@@UAEXXZ$0
__ehfuncinfo$?encodeBER@Context@@UAEXXZ DD 019930522H
	DD	01H
	DD	FLAT:__unwindtable$?encodeBER@Context@@UAEXXZ
	DD	2 DUP(00H)
	DD	2 DUP(00H)
	DD	00H
	DD	01H
; Function compile flags: /Ogtpy
; File i:\nj\my project\cms\cms\asn1\context.cpp
xdata$x	ENDS
;	COMDAT ?encodeBER@Context@@UAEXXZ
_TEXT	SEGMENT
_strContext$ = -44					; size = 28
__$ArrayPad$ = -16					; size = 4
__$EHRec$ = -12						; size = 12
?encodeBER@Context@@UAEXXZ PROC				; Context::encodeBER, COMDAT
; _this$ = ecx

; 37   : {

  00000	6a ff		 push	 -1
  00002	68 00 00 00 00	 push	 __ehhandler$?encodeBER@Context@@UAEXXZ
  00007	64 a1 00 00 00
	00		 mov	 eax, DWORD PTR fs:0
  0000d	50		 push	 eax
  0000e	83 ec 20	 sub	 esp, 32			; 00000020H
  00011	a1 00 00 00 00	 mov	 eax, DWORD PTR ___security_cookie
  00016	33 c4		 xor	 eax, esp
  00018	89 44 24 1c	 mov	 DWORD PTR __$ArrayPad$[esp+44], eax
  0001c	53		 push	 ebx
  0001d	55		 push	 ebp
  0001e	56		 push	 esi
  0001f	57		 push	 edi
  00020	a1 00 00 00 00	 mov	 eax, DWORD PTR ___security_cookie
  00025	33 c4		 xor	 eax, esp
  00027	50		 push	 eax
  00028	8d 44 24 34	 lea	 eax, DWORD PTR __$EHRec$[esp+64]
  0002c	64 a3 00 00 00
	00		 mov	 DWORD PTR fs:0, eax

; 38   : 	unsigned	int		i		= 0;

  00032	33 db		 xor	 ebx, ebx
  00034	8b f9		 mov	 edi, ecx
  00036	33 ed		 xor	 ebp, ebp

; 39   : 	string				strContext;

  00038	c7 44 24 2c 0f
	00 00 00	 mov	 DWORD PTR _strContext$[esp+88], 15 ; 0000000fH
  00040	89 5c 24 28	 mov	 DWORD PTR _strContext$[esp+84], ebx
  00044	88 5c 24 18	 mov	 BYTE PTR _strContext$[esp+68], bl
  00048	89 5c 24 3c	 mov	 DWORD PTR __$EHRec$[esp+72], ebx

; 40   : 
; 41   : 	//f[^B
; 42   : 	if((Constructed.size()>0 )&& ((strValue.size() > 0)||(szAddValue>0))){

  0004c	8b 47 38	 mov	 eax, DWORD PTR [edi+56]
  0004f	2b 47 34	 sub	 eax, DWORD PTR [edi+52]
  00052	c1 f8 02	 sar	 eax, 2
  00055	85 c0		 test	 eax, eax
  00057	76 2f		 jbe	 SHORT $LN10@encodeBER@5
  00059	8b 4f 58	 mov	 ecx, DWORD PTR [edi+88]
  0005c	2b 4f 54	 sub	 ecx, DWORD PTR [edi+84]
  0005f	b8 93 24 49 92	 mov	 eax, -1840700269	; 92492493H
  00064	f7 e9		 imul	 ecx
  00066	03 d1		 add	 edx, ecx
  00068	c1 fa 04	 sar	 edx, 4
  0006b	8b ca		 mov	 ecx, edx
  0006d	c1 e9 1f	 shr	 ecx, 31			; 0000001fH
  00070	03 ca		 add	 ecx, edx
  00072	75 05		 jne	 SHORT $LN9@encodeBER@5
  00074	39 5f 40	 cmp	 DWORD PTR [edi+64], ebx
  00077	76 0f		 jbe	 SHORT $LN10@encodeBER@5
$LN9@encodeBER@5:

; 43   : 		error(0);

  00079	a1 00 00 00 00	 mov	 eax, DWORD PTR ?msg_err@?1??error@ASN1@@QAEXI@Z@4QBQBDB
  0007e	b9 00 00 00 00	 mov	 ecx, OFFSET ??_C@_0BJ@IMFJFLAM@ASN?41?5BER?5Encode?5Error?5?3?$AA@
  00083	e8 00 00 00 00	 call	 ?errPrint@@YAXPBD0@Z	; errPrint
$LN122@encodeBER@5:
$LN10@encodeBER@5:

; 44   : 
; 45   : 	//RecAASN.1B	"SEQENCE"B
; 46   : 	} else if(Constructed.size() > 0){

  00088	8b 57 38	 mov	 edx, DWORD PTR [edi+56]
  0008b	2b 57 34	 sub	 edx, DWORD PTR [edi+52]
  0008e	c1 fa 02	 sar	 edx, 2
  00091	85 d2		 test	 edx, edx
  00093	76 12		 jbe	 SHORT $LN7@encodeBER@5

; 47   : 		encodeBER_Constructed(BER_Class_Context, number);

  00095	8b 47 44	 mov	 eax, DWORD PTR [edi+68]
  00098	50		 push	 eax
  00099	6a 02		 push	 2
  0009b	8b cf		 mov	 ecx, edi
  0009d	e8 00 00 00 00	 call	 ?encodeBER_Constructed@ASN1@@QAEXEI@Z ; ASN1::encodeBER_Constructed
  000a2	e9 ff 00 00 00	 jmp	 $LN85@encodeBER@5
$LN7@encodeBER@5:

; 48   : 
; 49   : 	//RecAASN.1B
; 50   : 	} else if(strValue.size() > 0) {

  000a7	8b 4f 58	 mov	 ecx, DWORD PTR [edi+88]
  000aa	2b 4f 54	 sub	 ecx, DWORD PTR [edi+84]
  000ad	b8 93 24 49 92	 mov	 eax, -1840700269	; 92492493H
  000b2	f7 e9		 imul	 ecx
  000b4	03 d1		 add	 edx, ecx
  000b6	c1 fa 04	 sar	 edx, 4
  000b9	8b ca		 mov	 ecx, edx
  000bb	c1 e9 1f	 shr	 ecx, 31			; 0000001fH
  000be	03 ca		 add	 ecx, edx
  000c0	0f 84 c4 00 00
	00		 je	 $LN5@encodeBER@5

; 51   : 		while(i < strValue.size()){

  000c6	8b 4f 58	 mov	 ecx, DWORD PTR [edi+88]
  000c9	2b 4f 54	 sub	 ecx, DWORD PTR [edi+84]
  000cc	b8 93 24 49 92	 mov	 eax, -1840700269	; 92492493H
  000d1	f7 e9		 imul	 ecx
  000d3	03 d1		 add	 edx, ecx
  000d5	c1 fa 04	 sar	 edx, 4
  000d8	8b c2		 mov	 eax, edx
  000da	c1 e8 1f	 shr	 eax, 31			; 0000001fH
  000dd	03 c2		 add	 eax, edx
  000df	74 56		 je	 SHORT $LN3@encodeBER@5
$LN4@encodeBER@5:

; 52   : 			strContext += strValue[i];

  000e1	8b 4f 58	 mov	 ecx, DWORD PTR [edi+88]
  000e4	2b 4f 54	 sub	 ecx, DWORD PTR [edi+84]
  000e7	b8 93 24 49 92	 mov	 eax, -1840700269	; 92492493H
  000ec	f7 e9		 imul	 ecx
  000ee	03 d1		 add	 edx, ecx
  000f0	c1 fa 04	 sar	 edx, 4
  000f3	8b ca		 mov	 ecx, edx
  000f5	c1 e9 1f	 shr	 ecx, 31			; 0000001fH
  000f8	03 ca		 add	 ecx, edx
  000fa	3b e9		 cmp	 ebp, ecx
  000fc	72 05		 jb	 SHORT $LN59@encodeBER@5
  000fe	e8 00 00 00 00	 call	 __invalid_parameter_noinfo
$LN59@encodeBER@5:
  00103	8b 57 54	 mov	 edx, DWORD PTR [edi+84]
  00106	6a ff		 push	 -1
  00108	6a 00		 push	 0
  0010a	03 d3		 add	 edx, ebx
  0010c	52		 push	 edx
  0010d	8d 74 24 20	 lea	 esi, DWORD PTR _strContext$[esp+76]
  00111	e8 00 00 00 00	 call	 ?append@?$basic_string@DU?$char_traits@D@std@@V?$allocator@D@2@@std@@QAEAAV12@ABV12@II@Z ; std::basic_string<char,std::char_traits<char>,std::allocator<char> >::append
  00116	8b 4f 58	 mov	 ecx, DWORD PTR [edi+88]
  00119	2b 4f 54	 sub	 ecx, DWORD PTR [edi+84]
  0011c	b8 93 24 49 92	 mov	 eax, -1840700269	; 92492493H
  00121	f7 e9		 imul	 ecx
  00123	03 d1		 add	 edx, ecx
  00125	c1 fa 04	 sar	 edx, 4
  00128	8b c2		 mov	 eax, edx
  0012a	c1 e8 1f	 shr	 eax, 31			; 0000001fH

; 53   : 			i++;

  0012d	45		 inc	 ebp
  0012e	03 c2		 add	 eax, edx
  00130	83 c3 1c	 add	 ebx, 28			; 0000001cH
  00133	3b e8		 cmp	 ebp, eax
  00135	72 aa		 jb	 SHORT $LN4@encodeBER@5
$LN3@encodeBER@5:

; 54   : 		}
; 55   : 		encodeBER_TAG(BER_Class_Context, (strValue.size() == 1)? false : true, number, strContext.size());

  00137	83 7f 24 01	 cmp	 DWORD PTR [edi+36], 1
  0013b	74 3a		 je	 SHORT $LN74@encodeBER@5
  0013d	8b 4f 58	 mov	 ecx, DWORD PTR [edi+88]
  00140	2b 4f 54	 sub	 ecx, DWORD PTR [edi+84]
  00143	b8 93 24 49 92	 mov	 eax, -1840700269	; 92492493H
  00148	f7 e9		 imul	 ecx
  0014a	03 d1		 add	 edx, ecx
  0014c	c1 fa 04	 sar	 edx, 4
  0014f	8b ca		 mov	 ecx, edx
  00151	c1 e9 1f	 shr	 ecx, 31			; 0000001fH
  00154	03 ca		 add	 ecx, edx
  00156	83 f9 01	 cmp	 ecx, 1
  00159	8b 4c 24 28	 mov	 ecx, DWORD PTR _strContext$[esp+84]
  0015d	0f 95 c2	 setne	 dl
  00160	80 e2 01	 and	 dl, 1
  00163	80 ca fc	 or	 dl, 252			; 000000fcH
  00166	c0 e2 05	 shl	 dl, 5
  00169	0f b6 c2	 movzx	 eax, dl
  0016c	8b 57 44	 mov	 edx, DWORD PTR [edi+68]
  0016f	50		 push	 eax
  00170	51		 push	 ecx
  00171	52		 push	 edx
  00172	e8 00 00 00 00	 call	 ?encodeBER_TAG@ASN1@@QAEXE_NII@Z ; ASN1::encodeBER_TAG
$LN74@encodeBER@5:

; 56   : 		strBER += strContext;

  00177	6a ff		 push	 -1
  00179	6a 00		 push	 0
  0017b	8d 44 24 1c	 lea	 eax, DWORD PTR _strContext$[esp+72]
  0017f	50		 push	 eax
  00180	8d 77 08	 lea	 esi, DWORD PTR [edi+8]
  00183	e8 00 00 00 00	 call	 ?append@?$basic_string@DU?$char_traits@D@std@@V?$allocator@D@2@@std@@QAEAAV12@ABV12@II@Z ; std::basic_string<char,std::char_traits<char>,std::allocator<char> >::append
  00188	eb 1c		 jmp	 SHORT $LN85@encodeBER@5
$LN5@encodeBER@5:

; 57   : 
; 58   : 	//RecObjectOf[^Bi^OoBj
; 59   : 	} else if(szAddValue>0){

  0018a	8b 47 40	 mov	 eax, DWORD PTR [edi+64]
  0018d	3b c3		 cmp	 eax, ebx
  0018f	76 29		 jbe	 SHORT $LN106@encodeBER@5

; 60   : 		encodeBER_TAG(BER_Class_Context, false, number, szAddValue);

  00191	83 7f 24 01	 cmp	 DWORD PTR [edi+36], 1
  00195	74 23		 je	 SHORT $LN106@encodeBER@5
  00197	8b 4f 44	 mov	 ecx, DWORD PTR [edi+68]
  0019a	68 80 00 00 00	 push	 128			; 00000080H
  0019f	50		 push	 eax
  001a0	51		 push	 ecx
  001a1	e8 00 00 00 00	 call	 ?encodeBER_TAG@ASN1@@QAEXE_NII@Z ; ASN1::encodeBER_TAG
$LN85@encodeBER@5:

; 61   : 	}
; 62   : }

  001a6	83 7c 24 2c 10	 cmp	 DWORD PTR _strContext$[esp+88], 16 ; 00000010H
  001ab	72 0d		 jb	 SHORT $LN106@encodeBER@5
  001ad	8b 54 24 18	 mov	 edx, DWORD PTR _strContext$[esp+68]
  001b1	52		 push	 edx
  001b2	e8 00 00 00 00	 call	 ??3@YAXPAX@Z		; operator delete
  001b7	83 c4 04	 add	 esp, 4
$LN106@encodeBER@5:
  001ba	8b 4c 24 34	 mov	 ecx, DWORD PTR __$EHRec$[esp+64]
  001be	64 89 0d 00 00
	00 00		 mov	 DWORD PTR fs:0, ecx
  001c5	59		 pop	 ecx
  001c6	5f		 pop	 edi
  001c7	5e		 pop	 esi
  001c8	5d		 pop	 ebp
  001c9	5b		 pop	 ebx
  001ca	8b 4c 24 1c	 mov	 ecx, DWORD PTR __$ArrayPad$[esp+44]
  001ce	33 cc		 xor	 ecx, esp
  001d0	e8 00 00 00 00	 call	 @__security_check_cookie@4
  001d5	83 c4 2c	 add	 esp, 44			; 0000002cH
  001d8	c3		 ret	 0
$LN121@encodeBER@5:
_TEXT	ENDS
;	COMDAT text$x
text$x	SEGMENT
__unwindfunclet$?encodeBER@Context@@UAEXXZ$0:
  00000	8d 4d d4	 lea	 ecx, DWORD PTR _strContext$[ebp]
  00003	e9 00 00 00 00	 jmp	 ??1?$basic_string@DU?$char_traits@D@std@@V?$allocator@D@2@@std@@QAE@XZ ; std::basic_string<char,std::char_traits<char>,std::allocator<char> >::~basic_string<char,std::char_traits<char>,std::allocator<char> >
__ehhandler$?encodeBER@Context@@UAEXXZ:
  00008	8b 54 24 08	 mov	 edx, DWORD PTR [esp+8]
  0000c	8d 42 d0	 lea	 eax, DWORD PTR [edx-48]
  0000f	8b 4a cc	 mov	 ecx, DWORD PTR [edx-52]
  00012	33 c8		 xor	 ecx, eax
  00014	e8 00 00 00 00	 call	 @__security_check_cookie@4
  00019	83 c0 10	 add	 eax, 16			; 00000010H
  0001c	8b 4a fc	 mov	 ecx, DWORD PTR [edx-4]
  0001f	33 c8		 xor	 ecx, eax
  00021	e8 00 00 00 00	 call	 @__security_check_cookie@4
  00026	b8 00 00 00 00	 mov	 eax, OFFSET __ehfuncinfo$?encodeBER@Context@@UAEXXZ
  0002b	e9 00 00 00 00	 jmp	 ___CxxFrameHandler3
text$x	ENDS
?encodeBER@Context@@UAEXXZ ENDP				; Context::encodeBER
END
