; Listing generated by Microsoft (R) Optimizing Compiler Version 15.00.30729.01 

	TITLE	i:\?n????j\My Project\CMS\CMS\ASN1\PKCS7\ContentInfo.cpp
	.686P
	.XMM
	include listing.inc
	.model	flat

INCLUDELIB OLDNAMES

PUBLIC	??_R4ContentInfo@@6B@				; ContentInfo::`RTTI Complete Object Locator'
PUBLIC	??_R3ContentInfo@@8				; ContentInfo::`RTTI Class Hierarchy Descriptor'
PUBLIC	??_R2ContentInfo@@8				; ContentInfo::`RTTI Base Class Array'
PUBLIC	??_R1A@?0A@EA@ContentInfo@@8			; ContentInfo::`RTTI Base Class Descriptor at (0,-1,0,64)'
PUBLIC	??_R0?AVContentInfo@@@8				; ContentInfo `RTTI Type Descriptor'
PUBLIC	??_C@_07GDNEHDJK@Context?$AA@			; `string'
PUBLIC	??_7ContentInfo@@6B@				; ContentInfo::`vftable'
;	COMDAT ??_7ContentInfo@@6B@
CONST	SEGMENT
??_7ContentInfo@@6B@ DD FLAT:??_R4ContentInfo@@6B@	; ContentInfo::`vftable'
	DD	FLAT:?encodeBER@Sequence@@UAEXXZ
	DD	FLAT:?Get_BERcode@ASN1@@UAEPBDXZ
	DD	FLAT:?Get_BERsize@ASN1@@UAEIXZ
CONST	ENDS
;	COMDAT ??_R4ContentInfo@@6B@
rdata$r	SEGMENT
??_R4ContentInfo@@6B@ DD 00H				; ContentInfo::`RTTI Complete Object Locator'
	DD	00H
	DD	00H
	DD	FLAT:??_R0?AVContentInfo@@@8
	DD	FLAT:??_R3ContentInfo@@8
rdata$r	ENDS
;	COMDAT ??_R3ContentInfo@@8
rdata$r	SEGMENT
??_R3ContentInfo@@8 DD 00H				; ContentInfo::`RTTI Class Hierarchy Descriptor'
	DD	00H
	DD	03H
	DD	FLAT:??_R2ContentInfo@@8
rdata$r	ENDS
;	COMDAT ??_R2ContentInfo@@8
rdata$r	SEGMENT
??_R2ContentInfo@@8 DD FLAT:??_R1A@?0A@EA@ContentInfo@@8 ; ContentInfo::`RTTI Base Class Array'
	DD	FLAT:??_R1A@?0A@EA@Sequence@@8
	DD	FLAT:??_R1A@?0A@EA@ASN1@@8
rdata$r	ENDS
;	COMDAT ??_R1A@?0A@EA@ContentInfo@@8
rdata$r	SEGMENT
??_R1A@?0A@EA@ContentInfo@@8 DD FLAT:??_R0?AVContentInfo@@@8 ; ContentInfo::`RTTI Base Class Descriptor at (0,-1,0,64)'
	DD	02H
	DD	00H
	DD	0ffffffffH
	DD	00H
	DD	040H
	DD	FLAT:??_R3ContentInfo@@8
rdata$r	ENDS
;	COMDAT ??_R0?AVContentInfo@@@8
_DATA	SEGMENT
??_R0?AVContentInfo@@@8 DD FLAT:??_7type_info@@6B@	; ContentInfo `RTTI Type Descriptor'
	DD	00H
	DB	'.?AVContentInfo@@', 00H
_DATA	ENDS
;	COMDAT ??_C@_07GDNEHDJK@Context?$AA@
CONST	SEGMENT
??_C@_07GDNEHDJK@Context?$AA@ DB 'Context', 00H		; `string'
PUBLIC	??1ContentInfo@@QAE@XZ				; ContentInfo::~ContentInfo
; Function compile flags: /Ogtpy
; File i:\“n•”“ÄŽj\my project\cms\cms\asn1\pkcs7\contentinfo.cpp
;	COMDAT ??1ContentInfo@@QAE@XZ
_TEXT	SEGMENT
_this$ = 8						; size = 4
??1ContentInfo@@QAE@XZ PROC				; ContentInfo::~ContentInfo, COMDAT

; 26   : {

  00000	51		 push	 ecx
  00001	53		 push	 ebx
  00002	8b 5c 24 0c	 mov	 ebx, DWORD PTR _this$[esp+4]
  00006	56		 push	 esi
  00007	57		 push	 edi

; 27   : }

  00008	8d b3 a0 00 00
	00		 lea	 esi, DWORD PTR [ebx+160]
  0000e	c7 03 00 00 00
	00		 mov	 DWORD PTR [ebx], OFFSET ??_7ContentInfo@@6B@
  00014	e8 00 00 00 00	 call	 ??1Context@@QAE@XZ	; Context::~Context
  00019	8d 7b 44	 lea	 edi, DWORD PTR [ebx+68]
  0001c	c7 07 00 00 00
	00		 mov	 DWORD PTR [edi], OFFSET ??_7ObjectIdentifier@@6B@
  00022	8b 47 50	 mov	 eax, DWORD PTR [edi+80]
  00025	33 f6		 xor	 esi, esi
  00027	3b c6		 cmp	 eax, esi
  00029	74 09		 je	 SHORT $LN10@ContentInf
  0002b	50		 push	 eax
  0002c	e8 00 00 00 00	 call	 ??3@YAXPAX@Z		; operator delete
  00031	83 c4 04	 add	 esp, 4
$LN10@ContentInf:
  00034	8b 47 44	 mov	 eax, DWORD PTR [edi+68]
  00037	50		 push	 eax
  00038	89 77 50	 mov	 DWORD PTR [edi+80], esi
  0003b	89 77 54	 mov	 DWORD PTR [edi+84], esi
  0003e	89 77 58	 mov	 DWORD PTR [edi+88], esi
  00041	e8 00 00 00 00	 call	 ??3@YAXPAX@Z		; operator delete
  00046	83 c4 04	 add	 esp, 4
  00049	e8 00 00 00 00	 call	 ??1ASN1@@QAE@XZ		; ASN1::~ASN1
  0004e	8b fb		 mov	 edi, ebx
  00050	c7 03 00 00 00
	00		 mov	 DWORD PTR [ebx], OFFSET ??_7Sequence@@6B@
  00056	e8 00 00 00 00	 call	 ??1ASN1@@QAE@XZ		; ASN1::~ASN1
  0005b	5f		 pop	 edi
  0005c	5e		 pop	 esi
  0005d	5b		 pop	 ebx
  0005e	59		 pop	 ecx
  0005f	c2 04 00	 ret	 4
??1ContentInfo@@QAE@XZ ENDP				; ContentInfo::~ContentInfo
PUBLIC	?Set@ContentInfo@@QAEXQAII@Z			; ContentInfo::Set
; Function compile flags: /Ogtpy
;	COMDAT ?Set@ContentInfo@@QAEXQAII@Z
_TEXT	SEGMENT
$T93132 = -4						; size = 4
$T93128 = -4						; size = 4
?Set@ContentInfo@@QAEXQAII@Z PROC			; ContentInfo::Set, COMDAT
; _this$ = ecx
; _i$ = eax

; 38   : {

  00000	51		 push	 ecx
  00001	56		 push	 esi
  00002	57		 push	 edi
  00003	8b f1		 mov	 esi, ecx

; 39   : 	//------
; 40   : 	//contentType ContentType
; 41   : 	contentType.Set(i,n);

  00005	6a 07		 push	 7
  00007	8d 7e 44	 lea	 edi, DWORD PTR [esi+68]
  0000a	50		 push	 eax
  0000b	8b c7		 mov	 eax, edi
  0000d	e8 00 00 00 00	 call	 ?Set@ObjectIdentifier@@QAEXQAII@Z ; ObjectIdentifier::Set

; 42   : 	Set_Construct(&contentType);

  00012	8d 4c 24 08	 lea	 ecx, DWORD PTR $T93128[esp+12]
  00016	89 7c 24 08	 mov	 DWORD PTR $T93128[esp+12], edi
  0001a	8d 7e 28	 lea	 edi, DWORD PTR [esi+40]
  0001d	51		 push	 ecx
  0001e	e8 00 00 00 00	 call	 ?push_back@?$vector@PAVASN1@@V?$allocator@PAVASN1@@@std@@@std@@QAEXABQAVASN1@@@Z ; std::vector<ASN1 *,std::allocator<ASN1 *> >::push_back

; 43   : 
; 44   : 	//------
; 45   : 	//content [0] EXPLICIT ANY DEFINED BY contentType
; 46   : 	Set_Construct(&context);

  00023	8d 54 24 08	 lea	 edx, DWORD PTR $T93132[esp+12]
  00027	81 c6 a0 00 00
	00		 add	 esi, 160		; 000000a0H
  0002d	52		 push	 edx
  0002e	89 74 24 0c	 mov	 DWORD PTR $T93132[esp+16], esi
  00032	e8 00 00 00 00	 call	 ?push_back@?$vector@PAVASN1@@V?$allocator@PAVASN1@@@std@@@std@@QAEXABQAVASN1@@@Z ; std::vector<ASN1 *,std::allocator<ASN1 *> >::push_back

; 47   : }

  00037	5f		 pop	 edi
  00038	5e		 pop	 esi
  00039	59		 pop	 ecx
  0003a	c3		 ret	 0
?Set@ContentInfo@@QAEXQAII@Z ENDP			; ContentInfo::Set
_TEXT	ENDS
PUBLIC	??0ContentInfo@@QAE@QBD@Z			; ContentInfo::ContentInfo
;	COMDAT xdata$x
; File i:\“n•”“ÄŽj\my project\cms\cms\asn1\sequence.cpp
xdata$x	SEGMENT
__unwindtable$??0ContentInfo@@QAE@QBD@Z DD 0ffffffffH
	DD	FLAT:__unwindfunclet$??0ContentInfo@@QAE@QBD@Z$0
	DD	00H
	DD	FLAT:__unwindfunclet$??0ContentInfo@@QAE@QBD@Z$1
__ehfuncinfo$??0ContentInfo@@QAE@QBD@Z DD 019930522H
	DD	02H
	DD	FLAT:__unwindtable$??0ContentInfo@@QAE@QBD@Z
	DD	2 DUP(00H)
	DD	2 DUP(00H)
	DD	00H
	DD	01H
; Function compile flags: /Ogtpy
; File i:\“n•”“ÄŽj\my project\cms\cms\asn1\pkcs7\contentinfo.cpp
xdata$x	ENDS
;	COMDAT ??0ContentInfo@@QAE@QBD@Z
_TEXT	SEGMENT
__$EHRec$ = -12						; size = 12
_this$ = 8						; size = 4
??0ContentInfo@@QAE@QBD@Z PROC				; ContentInfo::ContentInfo, COMDAT

; 15   : {

  00000	6a ff		 push	 -1
  00002	68 00 00 00 00	 push	 __ehhandler$??0ContentInfo@@QAE@QBD@Z
  00007	64 a1 00 00 00
	00		 mov	 eax, DWORD PTR fs:0
  0000d	50		 push	 eax
  0000e	51		 push	 ecx
  0000f	56		 push	 esi
  00010	a1 00 00 00 00	 mov	 eax, DWORD PTR ___security_cookie
  00015	33 c4		 xor	 eax, esp
  00017	50		 push	 eax
  00018	8d 44 24 0c	 lea	 eax, DWORD PTR __$EHRec$[esp+24]
  0001c	64 a3 00 00 00
	00		 mov	 DWORD PTR fs:0, eax
  00022	8b 74 24 1c	 mov	 esi, DWORD PTR _this$[esp+20]
  00026	68 00 00 00 00	 push	 OFFSET ??_C@_06EIDOOJMB@PKCS?$CD7?$AA@
  0002b	56		 push	 esi
  0002c	e8 00 00 00 00	 call	 ??0ASN1@@QAE@QBD@Z	; ASN1::ASN1
  00031	8d 46 44	 lea	 eax, DWORD PTR [esi+68]
  00034	c7 44 24 14 00
	00 00 00	 mov	 DWORD PTR __$EHRec$[esp+32], 0
  0003c	50		 push	 eax
  0003d	c7 06 00 00 00
	00		 mov	 DWORD PTR [esi], OFFSET ??_7ContentInfo@@6B@
  00043	e8 00 00 00 00	 call	 ??0ObjectIdentifier@@QAE@QBD@Z ; ObjectIdentifier::ObjectIdentifier
  00048	6a 00		 push	 0
  0004a	8d 8e a0 00 00
	00		 lea	 ecx, DWORD PTR [esi+160]
  00050	51		 push	 ecx
  00051	c6 44 24 1c 01	 mov	 BYTE PTR __$EHRec$[esp+40], 1
  00056	e8 00 00 00 00	 call	 ??0Context@@QAE@IQBD@Z	; Context::Context

; 16   : }

  0005b	8b c6		 mov	 eax, esi
  0005d	8b 4c 24 0c	 mov	 ecx, DWORD PTR __$EHRec$[esp+24]
  00061	64 89 0d 00 00
	00 00		 mov	 DWORD PTR fs:0, ecx
  00068	59		 pop	 ecx
  00069	5e		 pop	 esi
  0006a	83 c4 10	 add	 esp, 16			; 00000010H
  0006d	c2 04 00	 ret	 4
_TEXT	ENDS
;	COMDAT text$x
text$x	SEGMENT
__unwindfunclet$??0ContentInfo@@QAE@QBD@Z$0:
  00000	8b 45 04	 mov	 eax, DWORD PTR _this$[ebp-4]
  00003	e9 00 00 00 00	 jmp	 ??1Sequence@@QAE@XZ	; Sequence::~Sequence
__unwindfunclet$??0ContentInfo@@QAE@QBD@Z$1:
  00008	8b 45 04	 mov	 eax, DWORD PTR _this$[ebp-4]
  0000b	83 c0 44	 add	 eax, 68			; 00000044H
  0000e	e9 00 00 00 00	 jmp	 ??1ObjectIdentifier@@QAE@XZ ; ObjectIdentifier::~ObjectIdentifier
__ehhandler$??0ContentInfo@@QAE@QBD@Z:
  00013	8b 54 24 08	 mov	 edx, DWORD PTR [esp+8]
  00017	8d 42 f8	 lea	 eax, DWORD PTR [edx-8]
  0001a	8b 4a f4	 mov	 ecx, DWORD PTR [edx-12]
  0001d	33 c8		 xor	 ecx, eax
  0001f	e8 00 00 00 00	 call	 @__security_check_cookie@4
  00024	b8 00 00 00 00	 mov	 eax, OFFSET __ehfuncinfo$??0ContentInfo@@QAE@QBD@Z
  00029	e9 00 00 00 00	 jmp	 ___CxxFrameHandler3
text$x	ENDS
??0ContentInfo@@QAE@QBD@Z ENDP				; ContentInfo::ContentInfo
END
