; Listing generated by Microsoft (R) Optimizing Compiler Version 15.00.30729.01 

	TITLE	i:\?n????j\My Project\CMS\CMS\ASN1\PKCS7\EncryptedData.cpp
	.686P
	.XMM
	include listing.inc
	.model	flat

INCLUDELIB OLDNAMES

PUBLIC	??_R4EncryptedData@@6B@				; EncryptedData::`RTTI Complete Object Locator'
PUBLIC	??_R3EncryptedData@@8				; EncryptedData::`RTTI Class Hierarchy Descriptor'
PUBLIC	??_R2EncryptedData@@8				; EncryptedData::`RTTI Base Class Array'
PUBLIC	??_R1A@?0A@EA@EncryptedData@@8			; EncryptedData::`RTTI Base Class Descriptor at (0,-1,0,64)'
PUBLIC	??_R0?AVEncryptedData@@@8			; EncryptedData `RTTI Type Descriptor'
PUBLIC	??_C@_0BF@HAHHLCNG@EncryptedContentInfo?$AA@	; `string'
PUBLIC	??_C@_08DOCONEG@Sequence?$AA@			; `string'
PUBLIC	??_7EncryptedData@@6B@				; EncryptedData::`vftable'
;	COMDAT ??_7EncryptedData@@6B@
CONST	SEGMENT
??_7EncryptedData@@6B@ DD FLAT:??_R4EncryptedData@@6B@	; EncryptedData::`vftable'
	DD	FLAT:?encodeBER@Sequence@@UAEXXZ
	DD	FLAT:?Get_BERcode@ASN1@@UAEPBDXZ
	DD	FLAT:?Get_BERsize@ASN1@@UAEIXZ
CONST	ENDS
;	COMDAT ??_R4EncryptedData@@6B@
rdata$r	SEGMENT
??_R4EncryptedData@@6B@ DD 00H				; EncryptedData::`RTTI Complete Object Locator'
	DD	00H
	DD	00H
	DD	FLAT:??_R0?AVEncryptedData@@@8
	DD	FLAT:??_R3EncryptedData@@8
rdata$r	ENDS
;	COMDAT ??_R3EncryptedData@@8
rdata$r	SEGMENT
??_R3EncryptedData@@8 DD 00H				; EncryptedData::`RTTI Class Hierarchy Descriptor'
	DD	00H
	DD	03H
	DD	FLAT:??_R2EncryptedData@@8
rdata$r	ENDS
;	COMDAT ??_R2EncryptedData@@8
rdata$r	SEGMENT
??_R2EncryptedData@@8 DD FLAT:??_R1A@?0A@EA@EncryptedData@@8 ; EncryptedData::`RTTI Base Class Array'
	DD	FLAT:??_R1A@?0A@EA@Sequence@@8
	DD	FLAT:??_R1A@?0A@EA@ASN1@@8
rdata$r	ENDS
;	COMDAT ??_R1A@?0A@EA@EncryptedData@@8
rdata$r	SEGMENT
??_R1A@?0A@EA@EncryptedData@@8 DD FLAT:??_R0?AVEncryptedData@@@8 ; EncryptedData::`RTTI Base Class Descriptor at (0,-1,0,64)'
	DD	02H
	DD	00H
	DD	0ffffffffH
	DD	00H
	DD	040H
	DD	FLAT:??_R3EncryptedData@@8
rdata$r	ENDS
;	COMDAT ??_R0?AVEncryptedData@@@8
_DATA	SEGMENT
??_R0?AVEncryptedData@@@8 DD FLAT:??_7type_info@@6B@	; EncryptedData `RTTI Type Descriptor'
	DD	00H
	DB	'.?AVEncryptedData@@', 00H
_DATA	ENDS
;	COMDAT ??_C@_08DOCONEG@Sequence?$AA@
CONST	SEGMENT
??_C@_08DOCONEG@Sequence?$AA@ DB 'Sequence', 00H	; `string'
CONST	ENDS
;	COMDAT ??_C@_0BF@HAHHLCNG@EncryptedContentInfo?$AA@
CONST	SEGMENT
??_C@_0BF@HAHHLCNG@EncryptedContentInfo?$AA@ DB 'EncryptedContentInfo', 00H ; `string'
PUBLIC	??1EncryptedData@@QAE@XZ			; EncryptedData::~EncryptedData
; Function compile flags: /Ogtpy
; File i:\ìnïîìƒéj\my project\cms\cms\asn1\pkcs7\encrypteddata.cpp
;	COMDAT ??1EncryptedData@@QAE@XZ
_TEXT	SEGMENT
_this$ = 8						; size = 4
??1EncryptedData@@QAE@XZ PROC				; EncryptedData::~EncryptedData, COMDAT

; 25   : {

  00000	51		 push	 ecx
  00001	53		 push	 ebx
  00002	8b 5c 24 0c	 mov	 ebx, DWORD PTR _this$[esp+4]
  00006	56		 push	 esi
  00007	57		 push	 edi

; 26   : }

  00008	8d bb 3c 01 00
	00		 lea	 edi, DWORD PTR [ebx+316]
  0000e	c7 03 00 00 00
	00		 mov	 DWORD PTR [ebx], OFFSET ??_7EncryptedData@@6B@
  00014	c7 07 00 00 00
	00		 mov	 DWORD PTR [edi], OFFSET ??_7Sequence@@6B@
  0001a	e8 00 00 00 00	 call	 ??1ASN1@@QAE@XZ		; ASN1::~ASN1
  0001f	8d bb 8c 00 00
	00		 lea	 edi, DWORD PTR [ebx+140]
  00025	8d 77 4c	 lea	 esi, DWORD PTR [edi+76]
  00028	c7 07 00 00 00
	00		 mov	 DWORD PTR [edi], OFFSET ??_7EncryptedContentInfo@@6B@
  0002e	e8 00 00 00 00	 call	 ??1Context@@QAE@XZ	; Context::~Context
  00033	c7 07 00 00 00
	00		 mov	 DWORD PTR [edi], OFFSET ??_7Sequence@@6B@
  00039	e8 00 00 00 00	 call	 ??1ASN1@@QAE@XZ		; ASN1::~ASN1
  0003e	8d 7b 44	 lea	 edi, DWORD PTR [ebx+68]
  00041	c7 07 00 00 00
	00		 mov	 DWORD PTR [edi], OFFSET ??_7Integer@@6B@
  00047	e8 00 00 00 00	 call	 ??1ASN1@@QAE@XZ		; ASN1::~ASN1
  0004c	8b fb		 mov	 edi, ebx
  0004e	c7 03 00 00 00
	00		 mov	 DWORD PTR [ebx], OFFSET ??_7Sequence@@6B@
  00054	e8 00 00 00 00	 call	 ??1ASN1@@QAE@XZ		; ASN1::~ASN1
  00059	5f		 pop	 edi
  0005a	5e		 pop	 esi
  0005b	5b		 pop	 ebx
  0005c	59		 pop	 ecx
  0005d	c2 04 00	 ret	 4
??1EncryptedData@@QAE@XZ ENDP				; EncryptedData::~EncryptedData
PUBLIC	?Set@EncryptedData@@QAEXPAVObjectIdentifier@@PAVEncryption@@I@Z ; EncryptedData::Set
; Function compile flags: /Ogtpy
;	COMDAT ?Set@EncryptedData@@QAEXPAVObjectIdentifier@@PAVEncryption@@I@Z
_TEXT	SEGMENT
$T93106 = 8						; size = 4
$T93102 = 8						; size = 4
$T93098 = 8						; size = 4
_this$ = 8						; size = 4
__algorithm$ = 12					; size = 4
__szContent$ = 16					; size = 4
?Set@EncryptedData@@QAEXPAVObjectIdentifier@@PAVEncryption@@I@Z PROC ; EncryptedData::Set, COMDAT

; 41   : {

  00000	53		 push	 ebx
  00001	8b 5c 24 08	 mov	 ebx, DWORD PTR _this$[esp]

; 42   : 	unsigned	int	iVersion;
; 43   : 
; 44   : 	//------
; 45   : 	//version CMSVersion
; 46   : 	if(unprotectedAttrs.Constructed.size()>0){

  00005	8b 83 74 01 00
	00		 mov	 eax, DWORD PTR [ebx+372]
  0000b	2b 83 70 01 00
	00		 sub	 eax, DWORD PTR [ebx+368]
  00011	55		 push	 ebp
  00012	c1 f8 02	 sar	 eax, 2
  00015	33 c9		 xor	 ecx, ecx
  00017	3b c8		 cmp	 ecx, eax
  00019	56		 push	 esi
  0001a	57		 push	 edi
  0001b	1b ed		 sbb	 ebp, ebp

; 47   : 		iVersion = 2;
; 48   : 	} else {
; 49   : 		iVersion = 0;
; 50   : 	}
; 51   : 	version.Set(iVersion);
; 52   : 	Set_Construct(&version);

  0001d	8d 44 24 14	 lea	 eax, DWORD PTR $T93098[esp+12]
  00021	8d 53 44	 lea	 edx, DWORD PTR [ebx+68]
  00024	83 e5 02	 and	 ebp, 2
  00027	8d 7b 28	 lea	 edi, DWORD PTR [ebx+40]
  0002a	50		 push	 eax
  0002b	89 ab 88 00 00
	00		 mov	 DWORD PTR [ebx+136], ebp
  00031	89 54 24 18	 mov	 DWORD PTR $T93098[esp+16], edx
  00035	e8 00 00 00 00	 call	 ?push_back@?$vector@PAVASN1@@V?$allocator@PAVASN1@@@std@@@std@@QAEXABQAVASN1@@@Z ; std::vector<ASN1 *,std::allocator<ASN1 *> >::push_back

; 53   : 
; 54   : 	//------
; 55   : 	//encryptedContentInfo EncryptedContentInfo
; 56   : 	encryptedContentInfo.Set(_type, _algorithm, _szContent);

  0003a	8b 4c 24 1c	 mov	 ecx, DWORD PTR __szContent$[esp+12]
  0003e	8b 54 24 18	 mov	 edx, DWORD PTR __algorithm$[esp+12]
  00042	51		 push	 ecx
  00043	8d b3 8c 00 00
	00		 lea	 esi, DWORD PTR [ebx+140]
  00049	52		 push	 edx
  0004a	b8 00 00 00 00	 mov	 eax, OFFSET ?contentType@?1??encrypt@@YAXXZ@4VObjectIdentifier@@A
  0004f	e8 00 00 00 00	 call	 ?Set@EncryptedContentInfo@@QAEXPAVObjectIdentifier@@PAVEncryption@@I@Z ; EncryptedContentInfo::Set

; 57   : 	Set_Construct(&encryptedContentInfo);

  00054	8d 44 24 14	 lea	 eax, DWORD PTR $T93102[esp+12]
  00058	50		 push	 eax
  00059	89 74 24 18	 mov	 DWORD PTR $T93102[esp+16], esi
  0005d	e8 00 00 00 00	 call	 ?push_back@?$vector@PAVASN1@@V?$allocator@PAVASN1@@@std@@@std@@QAEXABQAVASN1@@@Z ; std::vector<ASN1 *,std::allocator<ASN1 *> >::push_back

; 58   : 
; 59   : 	//------
; 60   : 	//unprotectedAttrs [1] IMPLICIT UnprotectedAttributes OPTIONAL
; 61   : 	if(iVersion == 2){

  00062	83 fd 02	 cmp	 ebp, 2
  00065	75 14		 jne	 SHORT $LN14@Set@3

; 62   : 		//	to do	ëÆê´èÓïÒÇì¸ÇÍÇÈèÍçáÇÃèàóùÅB
; 63   : 		Set_Construct(&unprotectedAttrs);

  00067	8d 4c 24 14	 lea	 ecx, DWORD PTR $T93106[esp+12]
  0006b	81 c3 3c 01 00
	00		 add	 ebx, 316		; 0000013cH
  00071	51		 push	 ecx
  00072	89 5c 24 18	 mov	 DWORD PTR $T93106[esp+16], ebx
  00076	e8 00 00 00 00	 call	 ?push_back@?$vector@PAVASN1@@V?$allocator@PAVASN1@@@std@@@std@@QAEXABQAVASN1@@@Z ; std::vector<ASN1 *,std::allocator<ASN1 *> >::push_back
$LN14@Set@3:

; 64   : 	}
; 65   : }

  0007b	5f		 pop	 edi
  0007c	5e		 pop	 esi
  0007d	5d		 pop	 ebp
  0007e	5b		 pop	 ebx
  0007f	c2 0c 00	 ret	 12			; 0000000cH
?Set@EncryptedData@@QAEXPAVObjectIdentifier@@PAVEncryption@@I@Z ENDP ; EncryptedData::Set
PUBLIC	??0EncryptedData@@QAE@QBD@Z			; EncryptedData::EncryptedData
;	COMDAT xdata$x
; File i:\ìnïîìƒéj\my project\cms\cms\asn1\sequence.cpp
xdata$x	SEGMENT
__unwindtable$??0EncryptedData@@QAE@QBD@Z DD 0ffffffffH
	DD	FLAT:__unwindfunclet$??0EncryptedData@@QAE@QBD@Z$0
	DD	00H
	DD	FLAT:__unwindfunclet$??0EncryptedData@@QAE@QBD@Z$1
	DD	01H
	DD	FLAT:__unwindfunclet$??0EncryptedData@@QAE@QBD@Z$2
__ehfuncinfo$??0EncryptedData@@QAE@QBD@Z DD 019930522H
	DD	03H
	DD	FLAT:__unwindtable$??0EncryptedData@@QAE@QBD@Z
	DD	2 DUP(00H)
	DD	2 DUP(00H)
	DD	00H
	DD	01H
; Function compile flags: /Ogtpy
; File i:\ìnïîìƒéj\my project\cms\cms\asn1\pkcs7\encrypteddata.cpp
xdata$x	ENDS
;	COMDAT ??0EncryptedData@@QAE@QBD@Z
_TEXT	SEGMENT
__$EHRec$ = -12						; size = 12
_this$ = 8						; size = 4
??0EncryptedData@@QAE@QBD@Z PROC			; EncryptedData::EncryptedData, COMDAT

; 14   : {

  00000	6a ff		 push	 -1
  00002	68 00 00 00 00	 push	 __ehhandler$??0EncryptedData@@QAE@QBD@Z
  00007	64 a1 00 00 00
	00		 mov	 eax, DWORD PTR fs:0
  0000d	50		 push	 eax
  0000e	56		 push	 esi
  0000f	57		 push	 edi
  00010	a1 00 00 00 00	 mov	 eax, DWORD PTR ___security_cookie
  00015	33 c4		 xor	 eax, esp
  00017	50		 push	 eax
  00018	8d 44 24 0c	 lea	 eax, DWORD PTR __$EHRec$[esp+24]
  0001c	64 a3 00 00 00
	00		 mov	 DWORD PTR fs:0, eax
  00022	8b 74 24 1c	 mov	 esi, DWORD PTR _this$[esp+20]
  00026	68 00 00 00 00	 push	 OFFSET ??_C@_0O@HPDALEOG@EncryptedData?$AA@
  0002b	56		 push	 esi
  0002c	e8 00 00 00 00	 call	 ??0ASN1@@QAE@QBD@Z	; ASN1::ASN1
  00031	68 00 00 00 00	 push	 OFFSET ??_C@_07EDADKEAH@Integer?$AA@
  00036	8d 7e 44	 lea	 edi, DWORD PTR [esi+68]
  00039	c7 44 24 18 00
	00 00 00	 mov	 DWORD PTR __$EHRec$[esp+36], 0
  00041	57		 push	 edi
  00042	c7 06 00 00 00
	00		 mov	 DWORD PTR [esi], OFFSET ??_7EncryptedData@@6B@
  00048	e8 00 00 00 00	 call	 ??0ASN1@@QAE@QBD@Z	; ASN1::ASN1
  0004d	c7 07 00 00 00
	00		 mov	 DWORD PTR [edi], OFFSET ??_7Integer@@6B@
  00053	8d 86 8c 00 00
	00		 lea	 eax, DWORD PTR [esi+140]
  00059	50		 push	 eax
  0005a	c6 44 24 18 01	 mov	 BYTE PTR __$EHRec$[esp+36], 1
  0005f	e8 00 00 00 00	 call	 ??0EncryptedContentInfo@@QAE@QBD@Z ; EncryptedContentInfo::EncryptedContentInfo
  00064	68 00 00 00 00	 push	 OFFSET ??_C@_08DOCONEG@Sequence?$AA@
  00069	8d be 3c 01 00
	00		 lea	 edi, DWORD PTR [esi+316]
  0006f	57		 push	 edi
  00070	c6 44 24 1c 02	 mov	 BYTE PTR __$EHRec$[esp+40], 2
  00075	e8 00 00 00 00	 call	 ??0ASN1@@QAE@QBD@Z	; ASN1::ASN1
  0007a	c7 07 00 00 00
	00		 mov	 DWORD PTR [edi], OFFSET ??_7Sequence@@6B@

; 15   : }

  00080	8b c6		 mov	 eax, esi
  00082	8b 4c 24 0c	 mov	 ecx, DWORD PTR __$EHRec$[esp+24]
  00086	64 89 0d 00 00
	00 00		 mov	 DWORD PTR fs:0, ecx
  0008d	59		 pop	 ecx
  0008e	5f		 pop	 edi
  0008f	5e		 pop	 esi
  00090	83 c4 0c	 add	 esp, 12			; 0000000cH
  00093	c2 04 00	 ret	 4
_TEXT	ENDS
;	COMDAT text$x
text$x	SEGMENT
__unwindfunclet$??0EncryptedData@@QAE@QBD@Z$0:
  00000	8b 45 04	 mov	 eax, DWORD PTR _this$[ebp-4]
  00003	e9 00 00 00 00	 jmp	 ??1Sequence@@QAE@XZ	; Sequence::~Sequence
__unwindfunclet$??0EncryptedData@@QAE@QBD@Z$1:
  00008	8b 45 04	 mov	 eax, DWORD PTR _this$[ebp-4]
  0000b	83 c0 44	 add	 eax, 68			; 00000044H
  0000e	e9 00 00 00 00	 jmp	 ??1Integer@@QAE@XZ	; Integer::~Integer
__unwindfunclet$??0EncryptedData@@QAE@QBD@Z$2:
  00013	8b 45 04	 mov	 eax, DWORD PTR _this$[ebp-4]
  00016	05 8c 00 00 00	 add	 eax, 140		; 0000008cH
  0001b	e9 00 00 00 00	 jmp	 ??1EncryptedContentInfo@@QAE@XZ ; EncryptedContentInfo::~EncryptedContentInfo
__ehhandler$??0EncryptedData@@QAE@QBD@Z:
  00020	8b 54 24 08	 mov	 edx, DWORD PTR [esp+8]
  00024	8d 42 f8	 lea	 eax, DWORD PTR [edx-8]
  00027	8b 4a f4	 mov	 ecx, DWORD PTR [edx-12]
  0002a	33 c8		 xor	 ecx, eax
  0002c	e8 00 00 00 00	 call	 @__security_check_cookie@4
  00031	b8 00 00 00 00	 mov	 eax, OFFSET __ehfuncinfo$??0EncryptedData@@QAE@QBD@Z
  00036	e9 00 00 00 00	 jmp	 ___CxxFrameHandler3
text$x	ENDS
??0EncryptedData@@QAE@QBD@Z ENDP			; EncryptedData::EncryptedData
END
