; Listing generated by Microsoft (R) Optimizing Compiler Version 15.00.30729.01 

	TITLE	i:\?n????j\My Project\CMS\CMS\FileOutput.cpp
	.686P
	.XMM
	include listing.inc
	.model	flat

INCLUDELIB OLDNAMES

PUBLIC	??_R4?$basic_ofstream@DU?$char_traits@D@std@@@std@@6B@ ; std::basic_ofstream<char,std::char_traits<char> >::`RTTI Complete Object Locator'
PUBLIC	??_R4?$basic_ostream@DU?$char_traits@D@std@@@std@@6B@ ; std::basic_ostream<char,std::char_traits<char> >::`RTTI Complete Object Locator'
PUBLIC	??_R4FileOutput@@6B@				; FileOutput::`RTTI Complete Object Locator'
PUBLIC	??_R3FileOutput@@8				; FileOutput::`RTTI Class Hierarchy Descriptor'
PUBLIC	??_R2FileOutput@@8				; FileOutput::`RTTI Base Class Array'
PUBLIC	??_R1A@?0A@EA@?$basic_ofstream@DU?$char_traits@D@std@@@std@@8 ; std::basic_ofstream<char,std::char_traits<char> >::`RTTI Base Class Descriptor at (0,-1,0,64)'
PUBLIC	??_R3?$basic_ofstream@DU?$char_traits@D@std@@@std@@8 ; std::basic_ofstream<char,std::char_traits<char> >::`RTTI Class Hierarchy Descriptor'
PUBLIC	??_R2?$basic_ofstream@DU?$char_traits@D@std@@@std@@8 ; std::basic_ofstream<char,std::char_traits<char> >::`RTTI Base Class Array'
PUBLIC	??_R1A@?0A@EA@?$basic_ostream@DU?$char_traits@D@std@@@std@@8 ; std::basic_ostream<char,std::char_traits<char> >::`RTTI Base Class Descriptor at (0,-1,0,64)'
PUBLIC	??_R3?$basic_ostream@DU?$char_traits@D@std@@@std@@8 ; std::basic_ostream<char,std::char_traits<char> >::`RTTI Class Hierarchy Descriptor'
PUBLIC	??_R2?$basic_ostream@DU?$char_traits@D@std@@@std@@8 ; std::basic_ostream<char,std::char_traits<char> >::`RTTI Base Class Array'
PUBLIC	??_R0?AV?$basic_ostream@DU?$char_traits@D@std@@@std@@@8 ; std::basic_ostream<char,std::char_traits<char> > `RTTI Type Descriptor'
PUBLIC	??_R0?AV?$basic_ofstream@DU?$char_traits@D@std@@@std@@@8 ; std::basic_ofstream<char,std::char_traits<char> > `RTTI Type Descriptor'
PUBLIC	??_R1A@?0A@EA@FileOutput@@8			; FileOutput::`RTTI Base Class Descriptor at (0,-1,0,64)'
PUBLIC	??_R0?AVFileOutput@@@8				; FileOutput `RTTI Type Descriptor'
PUBLIC	??0?$basic_ostream@DU?$char_traits@D@std@@@std@@QAE@PAV?$basic_streambuf@DU?$char_traits@D@std@@@1@_N@Z ; std::basic_ostream<char,std::char_traits<char> >::basic_ostream<char,std::char_traits<char> >
PUBLIC	??0?$basic_ofstream@DU?$char_traits@D@std@@@std@@QAE@XZ ; std::basic_ofstream<char,std::char_traits<char> >::basic_ofstream<char,std::char_traits<char> >
PUBLIC	??_D?$basic_ostream@DU?$char_traits@D@std@@@std@@QAEXXZ ; std::basic_ostream<char,std::char_traits<char> >::`vbase destructor'
PUBLIC	??_G?$basic_ostream@DU?$char_traits@D@std@@@std@@UAEPAXI@Z ; std::basic_ostream<char,std::char_traits<char> >::`scalar deleting destructor'
PUBLIC	??1?$basic_ostream@DU?$char_traits@D@std@@@std@@UAE@XZ ; std::basic_ostream<char,std::char_traits<char> >::~basic_ostream<char,std::char_traits<char> >
PUBLIC	??_D?$basic_ofstream@DU?$char_traits@D@std@@@std@@QAEXXZ ; std::basic_ofstream<char,std::char_traits<char> >::`vbase destructor'
PUBLIC	??_G?$basic_ofstream@DU?$char_traits@D@std@@@std@@UAEPAXI@Z ; std::basic_ofstream<char,std::char_traits<char> >::`scalar deleting destructor'
PUBLIC	??1?$basic_ofstream@DU?$char_traits@D@std@@@std@@UAE@XZ ; std::basic_ofstream<char,std::char_traits<char> >::~basic_ofstream<char,std::char_traits<char> >
PUBLIC	?close@?$basic_ofstream@DU?$char_traits@D@std@@@std@@QAEXXZ ; std::basic_ofstream<char,std::char_traits<char> >::close
PUBLIC	??_GFileOutput@@UAEPAXI@Z			; FileOutput::`scalar deleting destructor'
PUBLIC	?open@?$basic_ofstream@DU?$char_traits@D@std@@@std@@QAEXPBDHH@Z ; std::basic_ofstream<char,std::char_traits<char> >::open
PUBLIC	?seekp@?$basic_ostream@DU?$char_traits@D@std@@@std@@QAEAAV12@JH@Z ; std::basic_ostream<char,std::char_traits<char> >::seekp
PUBLIC	??_7FileOutput@@6B@				; FileOutput::`vftable'
PUBLIC	??_8FileOutput@@7B@				; FileOutput::`vbtable'
PUBLIC	??_7?$basic_ostream@DU?$char_traits@D@std@@@std@@6B@ ; std::basic_ostream<char,std::char_traits<char> >::`vftable'
PUBLIC	??_8?$basic_ostream@DU?$char_traits@D@std@@@std@@7B@ ; std::basic_ostream<char,std::char_traits<char> >::`vbtable'
PUBLIC	??_7?$basic_ofstream@DU?$char_traits@D@std@@@std@@6B@ ; std::basic_ofstream<char,std::char_traits<char> >::`vftable'
PUBLIC	??_8?$basic_ofstream@DU?$char_traits@D@std@@@std@@7B@ ; std::basic_ofstream<char,std::char_traits<char> >::`vbtable'
EXTRN	??_E?$basic_ostream@DU?$char_traits@D@std@@@std@@UAEPAXI@Z:PROC ; std::basic_ostream<char,std::char_traits<char> >::`vector deleting destructor'
EXTRN	??_E?$basic_ofstream@DU?$char_traits@D@std@@@std@@UAEPAXI@Z:PROC ; std::basic_ofstream<char,std::char_traits<char> >::`vector deleting destructor'
EXTRN	??_EFileOutput@@UAEPAXI@Z:PROC			; FileOutput::`vector deleting destructor'
;	COMDAT ??_8?$basic_ofstream@DU?$char_traits@D@std@@@std@@7B@
CONST	SEGMENT
??_8?$basic_ofstream@DU?$char_traits@D@std@@@std@@7B@ DD 00H ; std::basic_ofstream<char,std::char_traits<char> >::`vbtable'
	DD	054H
CONST	ENDS
;	COMDAT ??_7?$basic_ofstream@DU?$char_traits@D@std@@@std@@6B@
CONST	SEGMENT
??_7?$basic_ofstream@DU?$char_traits@D@std@@@std@@6B@ DD FLAT:??_R4?$basic_ofstream@DU?$char_traits@D@std@@@std@@6B@ ; std::basic_ofstream<char,std::char_traits<char> >::`vftable'
	DD	FLAT:??_E?$basic_ofstream@DU?$char_traits@D@std@@@std@@UAEPAXI@Z
CONST	ENDS
;	COMDAT ??_R4?$basic_ofstream@DU?$char_traits@D@std@@@std@@6B@
rdata$r	SEGMENT
??_R4?$basic_ofstream@DU?$char_traits@D@std@@@std@@6B@ DD 00H ; std::basic_ofstream<char,std::char_traits<char> >::`RTTI Complete Object Locator'
	DD	054H
	DD	00H
	DD	FLAT:??_R0?AV?$basic_ofstream@DU?$char_traits@D@std@@@std@@@8
	DD	FLAT:??_R3?$basic_ofstream@DU?$char_traits@D@std@@@std@@8
rdata$r	ENDS
;	COMDAT ??_8?$basic_ostream@DU?$char_traits@D@std@@@std@@7B@
CONST	SEGMENT
??_8?$basic_ostream@DU?$char_traits@D@std@@@std@@7B@ DD 00H ; std::basic_ostream<char,std::char_traits<char> >::`vbtable'
	DD	04H
CONST	ENDS
;	COMDAT ??_7?$basic_ostream@DU?$char_traits@D@std@@@std@@6B@
CONST	SEGMENT
??_7?$basic_ostream@DU?$char_traits@D@std@@@std@@6B@ DD FLAT:??_R4?$basic_ostream@DU?$char_traits@D@std@@@std@@6B@ ; std::basic_ostream<char,std::char_traits<char> >::`vftable'
	DD	FLAT:??_E?$basic_ostream@DU?$char_traits@D@std@@@std@@UAEPAXI@Z
CONST	ENDS
;	COMDAT ??_R4?$basic_ostream@DU?$char_traits@D@std@@@std@@6B@
rdata$r	SEGMENT
??_R4?$basic_ostream@DU?$char_traits@D@std@@@std@@6B@ DD 00H ; std::basic_ostream<char,std::char_traits<char> >::`RTTI Complete Object Locator'
	DD	04H
	DD	00H
	DD	FLAT:??_R0?AV?$basic_ostream@DU?$char_traits@D@std@@@std@@@8
	DD	FLAT:??_R3?$basic_ostream@DU?$char_traits@D@std@@@std@@8
rdata$r	ENDS
;	COMDAT ??_8FileOutput@@7B@
CONST	SEGMENT
??_8FileOutput@@7B@ DD 00H				; FileOutput::`vbtable'
	DD	054H
CONST	ENDS
;	COMDAT ??_7FileOutput@@6B@
CONST	SEGMENT
??_7FileOutput@@6B@ DD FLAT:??_R4FileOutput@@6B@	; FileOutput::`vftable'
	DD	FLAT:??_EFileOutput@@UAEPAXI@Z
CONST	ENDS
;	COMDAT ??_R4FileOutput@@6B@
rdata$r	SEGMENT
??_R4FileOutput@@6B@ DD 00H				; FileOutput::`RTTI Complete Object Locator'
	DD	054H
	DD	00H
	DD	FLAT:??_R0?AVFileOutput@@@8
	DD	FLAT:??_R3FileOutput@@8
rdata$r	ENDS
;	COMDAT ??_R3FileOutput@@8
rdata$r	SEGMENT
??_R3FileOutput@@8 DD 00H				; FileOutput::`RTTI Class Hierarchy Descriptor'
	DD	00H
	DD	06H
	DD	FLAT:??_R2FileOutput@@8
rdata$r	ENDS
;	COMDAT ??_R2FileOutput@@8
rdata$r	SEGMENT
??_R2FileOutput@@8 DD FLAT:??_R1A@?0A@EA@FileOutput@@8	; FileOutput::`RTTI Base Class Array'
	DD	FLAT:??_R1A@?0A@EA@?$basic_ofstream@DU?$char_traits@D@std@@@std@@8
	DD	FLAT:??_R1A@?0A@EA@?$basic_ostream@DU?$char_traits@D@std@@@std@@8
	DD	FLAT:??_R1A@A@3FA@?$basic_ios@DU?$char_traits@D@std@@@std@@8
	DD	FLAT:??_R1A@A@3EA@ios_base@std@@8
	DD	FLAT:??_R13A@3EA@?$_Iosb@H@std@@8
rdata$r	ENDS
;	COMDAT ??_R1A@?0A@EA@?$basic_ofstream@DU?$char_traits@D@std@@@std@@8
rdata$r	SEGMENT
??_R1A@?0A@EA@?$basic_ofstream@DU?$char_traits@D@std@@@std@@8 DD FLAT:??_R0?AV?$basic_ofstream@DU?$char_traits@D@std@@@std@@@8 ; std::basic_ofstream<char,std::char_traits<char> >::`RTTI Base Class Descriptor at (0,-1,0,64)'
	DD	04H
	DD	00H
	DD	0ffffffffH
	DD	00H
	DD	040H
	DD	FLAT:??_R3?$basic_ofstream@DU?$char_traits@D@std@@@std@@8
rdata$r	ENDS
;	COMDAT ??_R3?$basic_ofstream@DU?$char_traits@D@std@@@std@@8
rdata$r	SEGMENT
??_R3?$basic_ofstream@DU?$char_traits@D@std@@@std@@8 DD 00H ; std::basic_ofstream<char,std::char_traits<char> >::`RTTI Class Hierarchy Descriptor'
	DD	00H
	DD	05H
	DD	FLAT:??_R2?$basic_ofstream@DU?$char_traits@D@std@@@std@@8
rdata$r	ENDS
;	COMDAT ??_R2?$basic_ofstream@DU?$char_traits@D@std@@@std@@8
rdata$r	SEGMENT
??_R2?$basic_ofstream@DU?$char_traits@D@std@@@std@@8 DD FLAT:??_R1A@?0A@EA@?$basic_ofstream@DU?$char_traits@D@std@@@std@@8 ; std::basic_ofstream<char,std::char_traits<char> >::`RTTI Base Class Array'
	DD	FLAT:??_R1A@?0A@EA@?$basic_ostream@DU?$char_traits@D@std@@@std@@8
	DD	FLAT:??_R1A@A@3FA@?$basic_ios@DU?$char_traits@D@std@@@std@@8
	DD	FLAT:??_R1A@A@3EA@ios_base@std@@8
	DD	FLAT:??_R13A@3EA@?$_Iosb@H@std@@8
rdata$r	ENDS
;	COMDAT ??_R1A@?0A@EA@?$basic_ostream@DU?$char_traits@D@std@@@std@@8
rdata$r	SEGMENT
??_R1A@?0A@EA@?$basic_ostream@DU?$char_traits@D@std@@@std@@8 DD FLAT:??_R0?AV?$basic_ostream@DU?$char_traits@D@std@@@std@@@8 ; std::basic_ostream<char,std::char_traits<char> >::`RTTI Base Class Descriptor at (0,-1,0,64)'
	DD	03H
	DD	00H
	DD	0ffffffffH
	DD	00H
	DD	040H
	DD	FLAT:??_R3?$basic_ostream@DU?$char_traits@D@std@@@std@@8
rdata$r	ENDS
;	COMDAT ??_R3?$basic_ostream@DU?$char_traits@D@std@@@std@@8
rdata$r	SEGMENT
??_R3?$basic_ostream@DU?$char_traits@D@std@@@std@@8 DD 00H ; std::basic_ostream<char,std::char_traits<char> >::`RTTI Class Hierarchy Descriptor'
	DD	00H
	DD	04H
	DD	FLAT:??_R2?$basic_ostream@DU?$char_traits@D@std@@@std@@8
rdata$r	ENDS
;	COMDAT ??_R2?$basic_ostream@DU?$char_traits@D@std@@@std@@8
rdata$r	SEGMENT
??_R2?$basic_ostream@DU?$char_traits@D@std@@@std@@8 DD FLAT:??_R1A@?0A@EA@?$basic_ostream@DU?$char_traits@D@std@@@std@@8 ; std::basic_ostream<char,std::char_traits<char> >::`RTTI Base Class Array'
	DD	FLAT:??_R1A@A@3FA@?$basic_ios@DU?$char_traits@D@std@@@std@@8
	DD	FLAT:??_R1A@A@3EA@ios_base@std@@8
	DD	FLAT:??_R13A@3EA@?$_Iosb@H@std@@8
rdata$r	ENDS
;	COMDAT ??_R0?AV?$basic_ostream@DU?$char_traits@D@std@@@std@@@8
_DATA	SEGMENT
??_R0?AV?$basic_ostream@DU?$char_traits@D@std@@@std@@@8 DD FLAT:??_7type_info@@6B@ ; std::basic_ostream<char,std::char_traits<char> > `RTTI Type Descriptor'
	DD	00H
	DB	'.?AV?$basic_ostream@DU?$char_traits@D@std@@@std@@', 00H
_DATA	ENDS
;	COMDAT ??_R0?AV?$basic_ofstream@DU?$char_traits@D@std@@@std@@@8
_DATA	SEGMENT
??_R0?AV?$basic_ofstream@DU?$char_traits@D@std@@@std@@@8 DD FLAT:??_7type_info@@6B@ ; std::basic_ofstream<char,std::char_traits<char> > `RTTI Type Descriptor'
	DD	00H
	DB	'.?AV?$basic_ofstream@DU?$char_traits@D@std@@@std@@', 00H
_DATA	ENDS
;	COMDAT ??_R1A@?0A@EA@FileOutput@@8
rdata$r	SEGMENT
??_R1A@?0A@EA@FileOutput@@8 DD FLAT:??_R0?AVFileOutput@@@8 ; FileOutput::`RTTI Base Class Descriptor at (0,-1,0,64)'
	DD	05H
	DD	00H
	DD	0ffffffffH
	DD	00H
	DD	040H
	DD	FLAT:??_R3FileOutput@@8
rdata$r	ENDS
;	COMDAT ??_R0?AVFileOutput@@@8
_DATA	SEGMENT
??_R0?AVFileOutput@@@8 DD FLAT:??_7type_info@@6B@	; FileOutput `RTTI Type Descriptor'
	DD	00H
	DB	'.?AVFileOutput@@', 00H
; Function compile flags: /Ogtpy
; File c:\program files\microsoft visual studio 9.0\vc\include\ostream
;	COMDAT ??1?$basic_ostream@DU?$char_traits@D@std@@@std@@UAE@XZ
_TEXT	SEGMENT
??1?$basic_ostream@DU?$char_traits@D@std@@@std@@UAE@XZ PROC ; std::basic_ostream<char,std::char_traits<char> >::~basic_ostream<char,std::char_traits<char> >, COMDAT
; _this$ = ecx

; 63   : 		{	// destroy the object

  00000	8b 41 fc	 mov	 eax, DWORD PTR [ecx-4]
  00003	8b 50 04	 mov	 edx, DWORD PTR [eax+4]
  00006	c7 44 0a fc 00
	00 00 00	 mov	 DWORD PTR [edx+ecx-4], OFFSET ??_7?$basic_ostream@DU?$char_traits@D@std@@@std@@6B@

; 64   : 		}

  0000e	c3		 ret	 0
??1?$basic_ostream@DU?$char_traits@D@std@@@std@@UAE@XZ ENDP ; std::basic_ostream<char,std::char_traits<char> >::~basic_ostream<char,std::char_traits<char> >
; Function compile flags: /Ogtpy
;	COMDAT ??_D?$basic_ostream@DU?$char_traits@D@std@@@std@@QAEXXZ
_TEXT	SEGMENT
??_D?$basic_ostream@DU?$char_traits@D@std@@@std@@QAEXXZ PROC ; std::basic_ostream<char,std::char_traits<char> >::`vbase destructor', COMDAT
; _this$ = ecx
  00000	8d 41 04	 lea	 eax, DWORD PTR [ecx+4]
  00003	8b 48 fc	 mov	 ecx, DWORD PTR [eax-4]
  00006	8b 51 04	 mov	 edx, DWORD PTR [ecx+4]
  00009	c7 44 02 fc 00
	00 00 00	 mov	 DWORD PTR [edx+eax-4], OFFSET ??_7?$basic_ostream@DU?$char_traits@D@std@@@std@@6B@
  00011	50		 push	 eax
  00012	c7 00 00 00 00
	00		 mov	 DWORD PTR [eax], OFFSET ??_7ios_base@std@@6B@
  00018	e8 00 00 00 00	 call	 ?_Ios_base_dtor@ios_base@std@@CAXPAV12@@Z ; std::ios_base::_Ios_base_dtor
  0001d	59		 pop	 ecx
  0001e	c3		 ret	 0
??_D?$basic_ostream@DU?$char_traits@D@std@@@std@@QAEXXZ ENDP ; std::basic_ostream<char,std::char_traits<char> >::`vbase destructor'
; Function compile flags: /Ogtpy
_TEXT	ENDS
;	COMDAT ??_G?$basic_ostream@DU?$char_traits@D@std@@@std@@UAEPAXI@Z
_TEXT	SEGMENT
___flags$ = 8						; size = 4
??_G?$basic_ostream@DU?$char_traits@D@std@@@std@@UAEPAXI@Z PROC ; std::basic_ostream<char,std::char_traits<char> >::`scalar deleting destructor', COMDAT
; _this$ = ecx
  00000	56		 push	 esi
  00001	8d 71 fc	 lea	 esi, DWORD PTR [ecx-4]
  00004	8b 0e		 mov	 ecx, DWORD PTR [esi]
  00006	8b 51 04	 mov	 edx, DWORD PTR [ecx+4]
  00009	8d 46 04	 lea	 eax, DWORD PTR [esi+4]
  0000c	c7 44 02 fc 00
	00 00 00	 mov	 DWORD PTR [edx+eax-4], OFFSET ??_7?$basic_ostream@DU?$char_traits@D@std@@@std@@6B@
  00014	50		 push	 eax
  00015	c7 00 00 00 00
	00		 mov	 DWORD PTR [eax], OFFSET ??_7ios_base@std@@6B@
  0001b	e8 00 00 00 00	 call	 ?_Ios_base_dtor@ios_base@std@@CAXPAV12@@Z ; std::ios_base::_Ios_base_dtor
  00020	83 c4 04	 add	 esp, 4
  00023	f6 44 24 08 01	 test	 BYTE PTR ___flags$[esp], 1
  00028	74 09		 je	 SHORT $LN13@scalar@9
  0002a	56		 push	 esi
  0002b	e8 00 00 00 00	 call	 ??3@YAXPAX@Z		; operator delete
  00030	83 c4 04	 add	 esp, 4
$LN13@scalar@9:
  00033	8b c6		 mov	 eax, esi
  00035	5e		 pop	 esi
  00036	c2 04 00	 ret	 4
??_G?$basic_ostream@DU?$char_traits@D@std@@@std@@UAEPAXI@Z ENDP ; std::basic_ostream<char,std::char_traits<char> >::`scalar deleting destructor'
;	COMDAT xdata$x
xdata$x	SEGMENT
__unwindtable$??1?$basic_ofstream@DU?$char_traits@D@std@@@std@@UAE@XZ DD 0ffffffffH
	DD	FLAT:__unwindfunclet$??1?$basic_ofstream@DU?$char_traits@D@std@@@std@@UAE@XZ$0
__ehfuncinfo$??1?$basic_ofstream@DU?$char_traits@D@std@@@std@@UAE@XZ DD 019930522H
	DD	01H
	DD	FLAT:__unwindtable$??1?$basic_ofstream@DU?$char_traits@D@std@@@std@@UAE@XZ
	DD	2 DUP(00H)
	DD	2 DUP(00H)
	DD	00H
	DD	01H
; Function compile flags: /Ogtpy
; File c:\program files\microsoft visual studio 9.0\vc\include\fstream
xdata$x	ENDS
;	COMDAT ??1?$basic_ofstream@DU?$char_traits@D@std@@@std@@UAE@XZ
_TEXT	SEGMENT
_this$ = -16						; size = 4
__$EHRec$ = -12						; size = 12
??1?$basic_ofstream@DU?$char_traits@D@std@@@std@@UAE@XZ PROC ; std::basic_ofstream<char,std::char_traits<char> >::~basic_ofstream<char,std::char_traits<char> >, COMDAT
; _this$ = ecx

; 741  : 		{	// destroy the object

  00000	6a ff		 push	 -1
  00002	68 00 00 00 00	 push	 __ehhandler$??1?$basic_ofstream@DU?$char_traits@D@std@@@std@@UAE@XZ
  00007	64 a1 00 00 00
	00		 mov	 eax, DWORD PTR fs:0
  0000d	50		 push	 eax
  0000e	83 ec 08	 sub	 esp, 8
  00011	56		 push	 esi
  00012	a1 00 00 00 00	 mov	 eax, DWORD PTR ___security_cookie
  00017	33 c4		 xor	 eax, esp
  00019	50		 push	 eax
  0001a	8d 44 24 10	 lea	 eax, DWORD PTR __$EHRec$[esp+28]
  0001e	64 a3 00 00 00
	00		 mov	 DWORD PTR fs:0, eax
  00024	89 4c 24 0c	 mov	 DWORD PTR _this$[esp+28], ecx
  00028	8b 41 ac	 mov	 eax, DWORD PTR [ecx-84]
  0002b	8b 50 04	 mov	 edx, DWORD PTR [eax+4]
  0002e	c7 44 0a ac 00
	00 00 00	 mov	 DWORD PTR [edx+ecx-84], OFFSET ??_7?$basic_ofstream@DU?$char_traits@D@std@@@std@@6B@

; 742  : 		}

  00036	8d 71 b0	 lea	 esi, DWORD PTR [ecx-80]
  00039	8b ce		 mov	 ecx, esi
  0003b	c7 44 24 18 00
	00 00 00	 mov	 DWORD PTR __$EHRec$[esp+36], 0
  00043	e8 00 00 00 00	 call	 ??1?$basic_filebuf@DU?$char_traits@D@std@@@std@@UAE@XZ ; std::basic_filebuf<char,std::char_traits<char> >::~basic_filebuf<char,std::char_traits<char> >
  00048	8b 46 fc	 mov	 eax, DWORD PTR [esi-4]
  0004b	8b 48 04	 mov	 ecx, DWORD PTR [eax+4]
  0004e	c7 44 31 fc 00
	00 00 00	 mov	 DWORD PTR [ecx+esi-4], OFFSET ??_7?$basic_ostream@DU?$char_traits@D@std@@@std@@6B@
  00056	8b 4c 24 10	 mov	 ecx, DWORD PTR __$EHRec$[esp+28]
  0005a	64 89 0d 00 00
	00 00		 mov	 DWORD PTR fs:0, ecx
  00061	59		 pop	 ecx
  00062	5e		 pop	 esi
  00063	83 c4 14	 add	 esp, 20			; 00000014H
  00066	c3		 ret	 0
_TEXT	ENDS
;	COMDAT text$x
text$x	SEGMENT
__unwindfunclet$??1?$basic_ofstream@DU?$char_traits@D@std@@@std@@UAE@XZ$0:
  00000	8b 4d f0	 mov	 ecx, DWORD PTR _this$[ebp]
  00003	83 e9 50	 sub	 ecx, 80			; 00000050H
  00006	e9 00 00 00 00	 jmp	 ??1?$basic_ostream@DU?$char_traits@D@std@@@std@@UAE@XZ ; std::basic_ostream<char,std::char_traits<char> >::~basic_ostream<char,std::char_traits<char> >
__ehhandler$??1?$basic_ofstream@DU?$char_traits@D@std@@@std@@UAE@XZ:
  0000b	8b 54 24 08	 mov	 edx, DWORD PTR [esp+8]
  0000f	8d 42 f4	 lea	 eax, DWORD PTR [edx-12]
  00012	8b 4a f0	 mov	 ecx, DWORD PTR [edx-16]
  00015	33 c8		 xor	 ecx, eax
  00017	e8 00 00 00 00	 call	 @__security_check_cookie@4
  0001c	b8 00 00 00 00	 mov	 eax, OFFSET __ehfuncinfo$??1?$basic_ofstream@DU?$char_traits@D@std@@@std@@UAE@XZ
  00021	e9 00 00 00 00	 jmp	 ___CxxFrameHandler3
text$x	ENDS
??1?$basic_ofstream@DU?$char_traits@D@std@@@std@@UAE@XZ ENDP ; std::basic_ofstream<char,std::char_traits<char> >::~basic_ofstream<char,std::char_traits<char> >
; Function compile flags: /Ogtpy
;	COMDAT ??_D?$basic_ofstream@DU?$char_traits@D@std@@@std@@QAEXXZ
_TEXT	SEGMENT
??_D?$basic_ofstream@DU?$char_traits@D@std@@@std@@QAEXXZ PROC ; std::basic_ofstream<char,std::char_traits<char> >::`vbase destructor', COMDAT
; _this$ = eax
  00000	56		 push	 esi
  00001	8b f0		 mov	 esi, eax
  00003	83 c6 54	 add	 esi, 84			; 00000054H
  00006	8b ce		 mov	 ecx, esi
  00008	e8 00 00 00 00	 call	 ??1?$basic_ofstream@DU?$char_traits@D@std@@@std@@UAE@XZ ; std::basic_ofstream<char,std::char_traits<char> >::~basic_ofstream<char,std::char_traits<char> >
  0000d	56		 push	 esi
  0000e	c7 06 00 00 00
	00		 mov	 DWORD PTR [esi], OFFSET ??_7ios_base@std@@6B@
  00014	e8 00 00 00 00	 call	 ?_Ios_base_dtor@ios_base@std@@CAXPAV12@@Z ; std::ios_base::_Ios_base_dtor
  00019	83 c4 04	 add	 esp, 4
  0001c	5e		 pop	 esi
  0001d	c3		 ret	 0
??_D?$basic_ofstream@DU?$char_traits@D@std@@@std@@QAEXXZ ENDP ; std::basic_ofstream<char,std::char_traits<char> >::`vbase destructor'
; Function compile flags: /Ogtpy
_TEXT	ENDS
;	COMDAT ??_G?$basic_ofstream@DU?$char_traits@D@std@@@std@@UAEPAXI@Z
_TEXT	SEGMENT
___flags$ = 8						; size = 4
??_G?$basic_ofstream@DU?$char_traits@D@std@@@std@@UAEPAXI@Z PROC ; std::basic_ofstream<char,std::char_traits<char> >::`scalar deleting destructor', COMDAT
; _this$ = ecx
  00000	56		 push	 esi
  00001	57		 push	 edi
  00002	8d 79 ac	 lea	 edi, DWORD PTR [ecx-84]
  00005	8d 77 54	 lea	 esi, DWORD PTR [edi+84]
  00008	8b ce		 mov	 ecx, esi
  0000a	e8 00 00 00 00	 call	 ??1?$basic_ofstream@DU?$char_traits@D@std@@@std@@UAE@XZ ; std::basic_ofstream<char,std::char_traits<char> >::~basic_ofstream<char,std::char_traits<char> >
  0000f	56		 push	 esi
  00010	c7 06 00 00 00
	00		 mov	 DWORD PTR [esi], OFFSET ??_7ios_base@std@@6B@
  00016	e8 00 00 00 00	 call	 ?_Ios_base_dtor@ios_base@std@@CAXPAV12@@Z ; std::ios_base::_Ios_base_dtor
  0001b	83 c4 04	 add	 esp, 4
  0001e	f6 44 24 0c 01	 test	 BYTE PTR ___flags$[esp+4], 1
  00023	74 09		 je	 SHORT $LN11@scalar@23
  00025	57		 push	 edi
  00026	e8 00 00 00 00	 call	 ??3@YAXPAX@Z		; operator delete
  0002b	83 c4 04	 add	 esp, 4
$LN11@scalar@23:
  0002e	8b c7		 mov	 eax, edi
  00030	5f		 pop	 edi
  00031	5e		 pop	 esi
  00032	c2 04 00	 ret	 4
??_G?$basic_ofstream@DU?$char_traits@D@std@@@std@@UAEPAXI@Z ENDP ; std::basic_ofstream<char,std::char_traits<char> >::`scalar deleting destructor'
; Function compile flags: /Ogtpy
;	COMDAT ?close@?$basic_ofstream@DU?$char_traits@D@std@@@std@@QAEXXZ
_TEXT	SEGMENT
?close@?$basic_ofstream@DU?$char_traits@D@std@@@std@@QAEXXZ PROC ; std::basic_ofstream<char,std::char_traits<char> >::close, COMDAT
; _this$ = esi

; 796  : 		{	// close the C stream

  00000	51		 push	 ecx

; 797  : 		if (_Filebuffer.close() == 0)

  00001	8d 4e 04	 lea	 ecx, DWORD PTR [esi+4]
  00004	e8 00 00 00 00	 call	 ?close@?$basic_filebuf@DU?$char_traits@D@std@@@std@@QAEPAV12@XZ ; std::basic_filebuf<char,std::char_traits<char> >::close
  00009	85 c0		 test	 eax, eax
  0000b	75 1f		 jne	 SHORT $LN9@close@2

; 798  : 			_Myios::setstate(ios_base::failbit);

  0000d	8b 06		 mov	 eax, DWORD PTR [esi]
  0000f	8b 48 04	 mov	 ecx, DWORD PTR [eax+4]
  00012	8b 44 31 08	 mov	 eax, DWORD PTR [ecx+esi+8]
  00016	03 ce		 add	 ecx, esi
  00018	83 c8 02	 or	 eax, 2
  0001b	83 79 28 00	 cmp	 DWORD PTR [ecx+40], 0
  0001f	75 03		 jne	 SHORT $LN11@close@2
  00021	83 c8 04	 or	 eax, 4
$LN11@close@2:
  00024	6a 00		 push	 0
  00026	50		 push	 eax
  00027	e8 00 00 00 00	 call	 ?clear@ios_base@std@@QAEXH_N@Z ; std::ios_base::clear
$LN9@close@2:
  0002c	59		 pop	 ecx

; 799  : 		}

  0002d	c3		 ret	 0
?close@?$basic_ofstream@DU?$char_traits@D@std@@@std@@QAEXXZ ENDP ; std::basic_ofstream<char,std::char_traits<char> >::close
; Function compile flags: /Ogtpy
_TEXT	ENDS
;	COMDAT ?open@?$basic_ofstream@DU?$char_traits@D@std@@@std@@QAEXPBDHH@Z
_TEXT	SEGMENT
?open@?$basic_ofstream@DU?$char_traits@D@std@@@std@@QAEXPBDHH@Z PROC ; std::basic_ofstream<char,std::char_traits<char> >::open, COMDAT
; _this$ = edi
; __Filename$ = ecx

; 785  : 		{	// open a C stream with specified mode

  00000	56		 push	 esi

; 786  : 		if (_Filebuffer.open(_Filename, _Mode | ios_base::out, _Prot) == 0)

  00001	6a 22		 push	 34			; 00000022H
  00003	8d 77 04	 lea	 esi, DWORD PTR [edi+4]
  00006	e8 00 00 00 00	 call	 ?open@?$basic_filebuf@DU?$char_traits@D@std@@@std@@QAEPAV12@PBDHH@Z ; std::basic_filebuf<char,std::char_traits<char> >::open
  0000b	85 c0		 test	 eax, eax
  0000d	75 1f		 jne	 SHORT $LN9@open@2

; 787  : 			_Myios::setstate(ios_base::failbit);

  0000f	8b 07		 mov	 eax, DWORD PTR [edi]
  00011	8b 48 04	 mov	 ecx, DWORD PTR [eax+4]
  00014	8b 44 39 08	 mov	 eax, DWORD PTR [ecx+edi+8]
  00018	03 cf		 add	 ecx, edi
  0001a	83 c8 02	 or	 eax, 2
  0001d	83 79 28 00	 cmp	 DWORD PTR [ecx+40], 0
  00021	75 03		 jne	 SHORT $LN11@open@2
  00023	83 c8 04	 or	 eax, 4
$LN11@open@2:
  00026	6a 00		 push	 0
  00028	50		 push	 eax
  00029	e8 00 00 00 00	 call	 ?clear@ios_base@std@@QAEXH_N@Z ; std::ios_base::clear
$LN9@open@2:

; 788  : 		}

  0002e	5e		 pop	 esi
  0002f	c3		 ret	 0
?open@?$basic_ofstream@DU?$char_traits@D@std@@@std@@QAEXPBDHH@Z ENDP ; std::basic_ofstream<char,std::char_traits<char> >::open
_TEXT	ENDS
PUBLIC	?fileopen@FileOutput@@QAEXPBD@Z			; FileOutput::fileopen
; Function compile flags: /Ogtpy
; File i:\“n•”“ÄŽj\my project\cms\cms\fileoutput.cpp
;	COMDAT ?fileopen@FileOutput@@QAEXPBD@Z
_TEXT	SEGMENT
_strFileName$ = 8					; size = 4
?fileopen@FileOutput@@QAEXPBD@Z PROC			; FileOutput::fileopen, COMDAT
; _this$ = edi

; 33   : void	FileOutput::fileopen(const char*	strFileName){

  00000	53		 push	 ebx
  00001	8b 5c 24 08	 mov	 ebx, DWORD PTR _strFileName$[esp]
  00005	56		 push	 esi

; 34   : 
; 35   : 	//File open
; 36   : 	open(strFileName,ios_base::out | ios_base::binary);

  00006	6a 22		 push	 34			; 00000022H
  00008	8d 77 04	 lea	 esi, DWORD PTR [edi+4]
  0000b	8b cb		 mov	 ecx, ebx
  0000d	e8 00 00 00 00	 call	 ?open@?$basic_filebuf@DU?$char_traits@D@std@@@std@@QAEPAV12@PBDHH@Z ; std::basic_filebuf<char,std::char_traits<char> >::open
  00012	85 c0		 test	 eax, eax
  00014	75 1f		 jne	 SHORT $LN12@fileopen
  00016	8b 07		 mov	 eax, DWORD PTR [edi]
  00018	8b 48 04	 mov	 ecx, DWORD PTR [eax+4]
  0001b	8b 44 39 08	 mov	 eax, DWORD PTR [ecx+edi+8]
  0001f	03 cf		 add	 ecx, edi
  00021	83 c8 02	 or	 eax, 2
  00024	83 79 28 00	 cmp	 DWORD PTR [ecx+40], 0
  00028	75 03		 jne	 SHORT $LN14@fileopen
  0002a	83 c8 04	 or	 eax, 4
$LN14@fileopen:
  0002d	6a 00		 push	 0
  0002f	50		 push	 eax
  00030	e8 00 00 00 00	 call	 ?clear@ios_base@std@@QAEXH_N@Z ; std::ios_base::clear
$LN12@fileopen:

; 37   : 	if(good()==false){

  00035	8b 0f		 mov	 ecx, DWORD PTR [edi]
  00037	8b 51 04	 mov	 edx, DWORD PTR [ecx+4]
  0003a	83 7c 3a 08 00	 cmp	 DWORD PTR [edx+edi+8], 0
  0003f	74 10		 je	 SHORT $LN1@fileopen

; 38   : 		perror(strFileName);

  00041	53		 push	 ebx
  00042	e8 00 00 00 00	 call	 _perror
  00047	83 c4 04	 add	 esp, 4

; 39   : 		exit(EXIT_FAILURE);

  0004a	6a 01		 push	 1
  0004c	e8 00 00 00 00	 call	 _exit
$LN21@fileopen:
$LN1@fileopen:

; 40   : 	};
; 41   : };

  00051	5e		 pop	 esi
  00052	5b		 pop	 ebx
  00053	c2 04 00	 ret	 4
$LN20@fileopen:
?fileopen@FileOutput@@QAEXPBD@Z ENDP			; FileOutput::fileopen
_TEXT	ENDS
PUBLIC	??1FileOutput@@UAE@XZ				; FileOutput::~FileOutput
;	COMDAT xdata$x
; File c:\program files\microsoft visual studio 9.0\vc\include\ios
xdata$x	SEGMENT
__unwindtable$??1FileOutput@@UAE@XZ DD 0ffffffffH
	DD	FLAT:__unwindfunclet$??1FileOutput@@UAE@XZ$0
__ehfuncinfo$??1FileOutput@@UAE@XZ DD 019930522H
	DD	01H
	DD	FLAT:__unwindtable$??1FileOutput@@UAE@XZ
	DD	2 DUP(00H)
	DD	2 DUP(00H)
	DD	00H
	DD	01H
; Function compile flags: /Ogtpy
; File i:\“n•”“ÄŽj\my project\cms\cms\fileoutput.cpp
xdata$x	ENDS
;	COMDAT ??1FileOutput@@UAE@XZ
_TEXT	SEGMENT
__$EHRec$ = -12						; size = 12
_this$ = 8						; size = 4
??1FileOutput@@UAE@XZ PROC				; FileOutput::~FileOutput, COMDAT

; 26   : {

  00000	6a ff		 push	 -1
  00002	68 00 00 00 00	 push	 __ehhandler$??1FileOutput@@UAE@XZ
  00007	64 a1 00 00 00
	00		 mov	 eax, DWORD PTR fs:0
  0000d	50		 push	 eax
  0000e	56		 push	 esi
  0000f	57		 push	 edi
  00010	a1 00 00 00 00	 mov	 eax, DWORD PTR ___security_cookie
  00015	33 c4		 xor	 eax, esp
  00017	50		 push	 eax
  00018	8d 44 24 0c	 lea	 eax, DWORD PTR __$EHRec$[esp+24]
  0001c	64 a3 00 00 00
	00		 mov	 DWORD PTR fs:0, eax
  00022	8b 7c 24 1c	 mov	 edi, DWORD PTR _this$[esp+20]
  00026	8b 47 ac	 mov	 eax, DWORD PTR [edi-84]
  00029	8b 48 04	 mov	 ecx, DWORD PTR [eax+4]
  0002c	8d 77 ac	 lea	 esi, DWORD PTR [edi-84]
  0002f	c7 44 39 ac 00
	00 00 00	 mov	 DWORD PTR [ecx+edi-84], OFFSET ??_7FileOutput@@6B@

; 27   : 	close();

  00037	8d 4e 04	 lea	 ecx, DWORD PTR [esi+4]
  0003a	c7 44 24 14 00
	00 00 00	 mov	 DWORD PTR __$EHRec$[esp+32], 0
  00042	e8 00 00 00 00	 call	 ?close@?$basic_filebuf@DU?$char_traits@D@std@@@std@@QAEPAV12@XZ ; std::basic_filebuf<char,std::char_traits<char> >::close
  00047	85 c0		 test	 eax, eax
  00049	75 1f		 jne	 SHORT $LN12@FileOutput
  0004b	8b 16		 mov	 edx, DWORD PTR [esi]
  0004d	8b 4a 04	 mov	 ecx, DWORD PTR [edx+4]
  00050	8b 44 31 08	 mov	 eax, DWORD PTR [ecx+esi+8]
  00054	03 ce		 add	 ecx, esi
  00056	83 c8 02	 or	 eax, 2
  00059	83 79 28 00	 cmp	 DWORD PTR [ecx+40], 0
  0005d	75 03		 jne	 SHORT $LN14@FileOutput
  0005f	83 c8 04	 or	 eax, 4
$LN14@FileOutput:
  00062	6a 00		 push	 0
  00064	50		 push	 eax
  00065	e8 00 00 00 00	 call	 ?clear@ios_base@std@@QAEXH_N@Z ; std::ios_base::clear
$LN12@FileOutput:

; 28   : }

  0006a	8b cf		 mov	 ecx, edi
  0006c	c7 44 24 14 ff
	ff ff ff	 mov	 DWORD PTR __$EHRec$[esp+32], -1
  00074	e8 00 00 00 00	 call	 ??1?$basic_ofstream@DU?$char_traits@D@std@@@std@@UAE@XZ ; std::basic_ofstream<char,std::char_traits<char> >::~basic_ofstream<char,std::char_traits<char> >
  00079	8b 4c 24 0c	 mov	 ecx, DWORD PTR __$EHRec$[esp+24]
  0007d	64 89 0d 00 00
	00 00		 mov	 DWORD PTR fs:0, ecx
  00084	59		 pop	 ecx
  00085	5f		 pop	 edi
  00086	5e		 pop	 esi
  00087	83 c4 0c	 add	 esp, 12			; 0000000cH
  0008a	c2 04 00	 ret	 4
_TEXT	ENDS
;	COMDAT text$x
text$x	SEGMENT
__unwindfunclet$??1FileOutput@@UAE@XZ$0:
  00000	8b 4d 04	 mov	 ecx, DWORD PTR _this$[ebp-4]
  00003	e9 00 00 00 00	 jmp	 ??1?$basic_ofstream@DU?$char_traits@D@std@@@std@@UAE@XZ ; std::basic_ofstream<char,std::char_traits<char> >::~basic_ofstream<char,std::char_traits<char> >
__ehhandler$??1FileOutput@@UAE@XZ:
  00008	8b 54 24 08	 mov	 edx, DWORD PTR [esp+8]
  0000c	8d 42 f8	 lea	 eax, DWORD PTR [edx-8]
  0000f	8b 4a f4	 mov	 ecx, DWORD PTR [edx-12]
  00012	33 c8		 xor	 ecx, eax
  00014	e8 00 00 00 00	 call	 @__security_check_cookie@4
  00019	b8 00 00 00 00	 mov	 eax, OFFSET __ehfuncinfo$??1FileOutput@@UAE@XZ
  0001e	e9 00 00 00 00	 jmp	 ___CxxFrameHandler3
text$x	ENDS
??1FileOutput@@UAE@XZ ENDP				; FileOutput::~FileOutput
;	COMDAT xdata$x
; File c:\program files\microsoft visual studio 9.0\vc\include\ios
xdata$x	SEGMENT
__unwindtable$??0?$basic_ostream@DU?$char_traits@D@std@@@std@@QAE@PAV?$basic_streambuf@DU?$char_traits@D@std@@@1@_N@Z DD 0ffffffffH
	DD	FLAT:__unwindfunclet$??0?$basic_ostream@DU?$char_traits@D@std@@@std@@QAE@PAV?$basic_streambuf@DU?$char_traits@D@std@@@1@_N@Z$0
__ehfuncinfo$??0?$basic_ostream@DU?$char_traits@D@std@@@std@@QAE@PAV?$basic_streambuf@DU?$char_traits@D@std@@@1@_N@Z DD 019930522H
	DD	01H
	DD	FLAT:__unwindtable$??0?$basic_ostream@DU?$char_traits@D@std@@@std@@QAE@PAV?$basic_streambuf@DU?$char_traits@D@std@@@1@_N@Z
	DD	2 DUP(00H)
	DD	2 DUP(00H)
	DD	00H
	DD	01H
; Function compile flags: /Ogtpy
; File c:\program files\microsoft visual studio 9.0\vc\include\ostream
xdata$x	ENDS
;	COMDAT ??0?$basic_ostream@DU?$char_traits@D@std@@@std@@QAE@PAV?$basic_streambuf@DU?$char_traits@D@std@@@1@_N@Z
_TEXT	SEGMENT
$T97014 = -20						; size = 4
_this$ = -16						; size = 4
__$EHRec$ = -12						; size = 12
__Strbuf$ = 8						; size = 4
__Isstd$ = 12						; size = 1
_$initVBases$ = 16					; size = 4
??0?$basic_ostream@DU?$char_traits@D@std@@@std@@QAE@PAV?$basic_streambuf@DU?$char_traits@D@std@@@1@_N@Z PROC ; std::basic_ostream<char,std::char_traits<char> >::basic_ostream<char,std::char_traits<char> >, COMDAT
; _this$ = ecx

; 50   : 	explicit __CLR_OR_THIS_CALL basic_ostream(basic_streambuf<_Elem, _Traits> *_Strbuf,

  00000	6a ff		 push	 -1
  00002	68 00 00 00 00	 push	 __ehhandler$??0?$basic_ostream@DU?$char_traits@D@std@@@std@@QAE@PAV?$basic_streambuf@DU?$char_traits@D@std@@@1@_N@Z
  00007	64 a1 00 00 00
	00		 mov	 eax, DWORD PTR fs:0
  0000d	50		 push	 eax
  0000e	83 ec 0c	 sub	 esp, 12			; 0000000cH
  00011	53		 push	 ebx
  00012	56		 push	 esi
  00013	57		 push	 edi
  00014	a1 00 00 00 00	 mov	 eax, DWORD PTR ___security_cookie
  00019	33 c4		 xor	 eax, esp
  0001b	50		 push	 eax
  0001c	8d 44 24 1c	 lea	 eax, DWORD PTR __$EHRec$[esp+40]
  00020	64 a3 00 00 00
	00		 mov	 DWORD PTR fs:0, eax
  00026	8b f9		 mov	 edi, ecx
  00028	89 7c 24 18	 mov	 DWORD PTR _this$[esp+40], edi
  0002c	33 db		 xor	 ebx, ebx
  0002e	89 5c 24 14	 mov	 DWORD PTR $T97014[esp+40], ebx
  00032	39 5c 24 34	 cmp	 DWORD PTR _$initVBases$[esp+36], ebx
  00036	74 19		 je	 SHORT $LN1@basic_ostr
  00038	c7 07 00 00 00
	00		 mov	 DWORD PTR [edi], OFFSET ??_8?$basic_ostream@DU?$char_traits@D@std@@@std@@7B@
  0003e	c7 47 04 00 00
	00 00		 mov	 DWORD PTR [edi+4], OFFSET ??_7?$basic_ios@DU?$char_traits@D@std@@@std@@6B@
  00045	89 5c 24 24	 mov	 DWORD PTR __$EHRec$[esp+48], ebx
  00049	c7 44 24 14 01
	00 00 00	 mov	 DWORD PTR $T97014[esp+40], 1
$LN1@basic_ostr:
  00051	8b 07		 mov	 eax, DWORD PTR [edi]
  00053	8b 48 04	 mov	 ecx, DWORD PTR [eax+4]
  00056	c7 04 0f 00 00
	00 00		 mov	 DWORD PTR [edi+ecx], OFFSET ??_7?$basic_ostream@DU?$char_traits@D@std@@@std@@6B@

; 51   : 		bool _Isstd = false)
; 52   : 		{	// construct from a stream buffer pointer
; 53   : 		_Myios::init(_Strbuf, _Isstd);

  0005d	8b 17		 mov	 edx, DWORD PTR [edi]
  0005f	8b 72 04	 mov	 esi, DWORD PTR [edx+4]
  00062	03 f7		 add	 esi, edi
  00064	8b ce		 mov	 ecx, esi
  00066	e8 00 00 00 00	 call	 ?_Init@ios_base@std@@IAEXXZ ; std::ios_base::_Init
  0006b	8b 44 24 2c	 mov	 eax, DWORD PTR __Strbuf$[esp+36]
  0006f	6a 20		 push	 32			; 00000020H
  00071	8b ce		 mov	 ecx, esi
  00073	89 46 28	 mov	 DWORD PTR [esi+40], eax
  00076	89 5e 2c	 mov	 DWORD PTR [esi+44], ebx
  00079	e8 00 00 00 00	 call	 ?widen@?$basic_ios@DU?$char_traits@D@std@@@std@@QBEDD@Z ; std::basic_ios<char,std::char_traits<char> >::widen
  0007e	88 46 30	 mov	 BYTE PTR [esi+48], al
  00081	39 5e 28	 cmp	 DWORD PTR [esi+40], ebx
  00084	75 0f		 jne	 SHORT $LN20@basic_ostr
  00086	8b 46 08	 mov	 eax, DWORD PTR [esi+8]
  00089	83 c8 04	 or	 eax, 4
  0008c	53		 push	 ebx
  0008d	50		 push	 eax
  0008e	8b ce		 mov	 ecx, esi
  00090	e8 00 00 00 00	 call	 ?clear@ios_base@std@@QAEXH_N@Z ; std::ios_base::clear
$LN20@basic_ostr:
  00095	38 5c 24 30	 cmp	 BYTE PTR __Isstd$[esp+36], bl
  00099	74 0b		 je	 SHORT $LN11@basic_ostr
  0009b	56		 push	 esi
  0009c	e8 00 00 00 00	 call	 ?_Addstd@ios_base@std@@SAXPAV12@@Z ; std::ios_base::_Addstd
  000a1	83 c4 04	 add	 esp, 4
  000a4	eb 03		 jmp	 SHORT $LN25@basic_ostr
$LN11@basic_ostr:
  000a6	89 5e 04	 mov	 DWORD PTR [esi+4], ebx
$LN25@basic_ostr:

; 54   : 		}

  000a9	8b c7		 mov	 eax, edi
  000ab	8b 4c 24 1c	 mov	 ecx, DWORD PTR __$EHRec$[esp+40]
  000af	64 89 0d 00 00
	00 00		 mov	 DWORD PTR fs:0, ecx
  000b6	59		 pop	 ecx
  000b7	5f		 pop	 edi
  000b8	5e		 pop	 esi
  000b9	5b		 pop	 ebx
  000ba	83 c4 18	 add	 esp, 24			; 00000018H
  000bd	c2 0c 00	 ret	 12			; 0000000cH
_TEXT	ENDS
;	COMDAT text$x
text$x	SEGMENT
__unwindfunclet$??0?$basic_ostream@DU?$char_traits@D@std@@@std@@QAE@PAV?$basic_streambuf@DU?$char_traits@D@std@@@1@_N@Z$0:
  00000	8b 45 ec	 mov	 eax, DWORD PTR $T97014[ebp]
  00003	83 e0 01	 and	 eax, 1
  00006	0f 84 0f 00 00
	00		 je	 $LN5@basic_ostr
  0000c	83 65 ec fe	 and	 DWORD PTR $T97014[ebp], -2 ; fffffffeH
  00010	8b 4d f0	 mov	 ecx, DWORD PTR _this$[ebp]
  00013	83 c1 04	 add	 ecx, 4
  00016	e9 00 00 00 00	 jmp	 ??1?$basic_ios@DU?$char_traits@D@std@@@std@@UAE@XZ ; std::basic_ios<char,std::char_traits<char> >::~basic_ios<char,std::char_traits<char> >
$LN5@basic_ostr:
  0001b	c3		 ret	 0
__ehhandler$??0?$basic_ostream@DU?$char_traits@D@std@@@std@@QAE@PAV?$basic_streambuf@DU?$char_traits@D@std@@@1@_N@Z:
  0001c	8b 54 24 08	 mov	 edx, DWORD PTR [esp+8]
  00020	8d 42 e8	 lea	 eax, DWORD PTR [edx-24]
  00023	8b 4a e4	 mov	 ecx, DWORD PTR [edx-28]
  00026	33 c8		 xor	 ecx, eax
  00028	e8 00 00 00 00	 call	 @__security_check_cookie@4
  0002d	b8 00 00 00 00	 mov	 eax, OFFSET __ehfuncinfo$??0?$basic_ostream@DU?$char_traits@D@std@@@std@@QAE@PAV?$basic_streambuf@DU?$char_traits@D@std@@@1@_N@Z
  00032	e9 00 00 00 00	 jmp	 ___CxxFrameHandler3
text$x	ENDS
??0?$basic_ostream@DU?$char_traits@D@std@@@std@@QAE@PAV?$basic_streambuf@DU?$char_traits@D@std@@@1@_N@Z ENDP ; std::basic_ostream<char,std::char_traits<char> >::basic_ostream<char,std::char_traits<char> >
;	COMDAT xdata$x
; File c:\program files\microsoft visual studio 9.0\vc\include\streambuf
xdata$x	SEGMENT
__unwindtable$??0?$basic_ofstream@DU?$char_traits@D@std@@@std@@QAE@XZ DD 0ffffffffH
	DD	00H
	DD	00H
	DD	00H
	DD	00H
	DD	FLAT:__unwindfunclet$??0?$basic_ofstream@DU?$char_traits@D@std@@@std@@QAE@XZ$1
__ehfuncinfo$??0?$basic_ofstream@DU?$char_traits@D@std@@@std@@QAE@XZ DD 019930522H
	DD	03H
	DD	FLAT:__unwindtable$??0?$basic_ofstream@DU?$char_traits@D@std@@@std@@QAE@XZ
	DD	2 DUP(00H)
	DD	2 DUP(00H)
	DD	00H
	DD	01H
; Function compile flags: /Ogtpy
; File c:\program files\microsoft visual studio 9.0\vc\include\fstream
xdata$x	ENDS
;	COMDAT ??0?$basic_ofstream@DU?$char_traits@D@std@@@std@@QAE@XZ
_TEXT	SEGMENT
$T97074 = -16						; size = 4
__$EHRec$ = -12						; size = 12
_this$ = 8						; size = 4
??0?$basic_ofstream@DU?$char_traits@D@std@@@std@@QAE@XZ PROC ; std::basic_ofstream<char,std::char_traits<char> >::basic_ofstream<char,std::char_traits<char> >, COMDAT

; 702  : 		{	// construct unopened

  00000	6a ff		 push	 -1
  00002	68 00 00 00 00	 push	 __ehhandler$??0?$basic_ofstream@DU?$char_traits@D@std@@@std@@QAE@XZ
  00007	64 a1 00 00 00
	00		 mov	 eax, DWORD PTR fs:0
  0000d	50		 push	 eax
  0000e	83 ec 08	 sub	 esp, 8
  00011	53		 push	 ebx
  00012	55		 push	 ebp
  00013	56		 push	 esi
  00014	57		 push	 edi
  00015	a1 00 00 00 00	 mov	 eax, DWORD PTR ___security_cookie
  0001a	33 c4		 xor	 eax, esp
  0001c	50		 push	 eax
  0001d	8d 44 24 1c	 lea	 eax, DWORD PTR __$EHRec$[esp+40]
  00021	64 a3 00 00 00
	00		 mov	 DWORD PTR fs:0, eax
  00027	8b 6c 24 2c	 mov	 ebp, DWORD PTR _this$[esp+36]
  0002b	33 db		 xor	 ebx, ebx
  0002d	89 5c 24 18	 mov	 DWORD PTR $T97074[esp+40], ebx
  00031	8b 45 00	 mov	 eax, DWORD PTR [ebp]
  00034	8b 48 04	 mov	 ecx, DWORD PTR [eax+4]
  00037	c7 04 29 00 00
	00 00		 mov	 DWORD PTR [ecx+ebp], OFFSET ??_7?$basic_ostream@DU?$char_traits@D@std@@@std@@6B@
  0003e	8b 55 00	 mov	 edx, DWORD PTR [ebp]
  00041	8b 7a 04	 mov	 edi, DWORD PTR [edx+4]
  00044	03 fd		 add	 edi, ebp
  00046	8b cf		 mov	 ecx, edi
  00048	e8 00 00 00 00	 call	 ?_Init@ios_base@std@@IAEXXZ ; std::ios_base::_Init
  0004d	8d 75 04	 lea	 esi, DWORD PTR [ebp+4]
  00050	6a 20		 push	 32			; 00000020H
  00052	8b cf		 mov	 ecx, edi
  00054	89 77 28	 mov	 DWORD PTR [edi+40], esi
  00057	89 5f 2c	 mov	 DWORD PTR [edi+44], ebx
  0005a	e8 00 00 00 00	 call	 ?widen@?$basic_ios@DU?$char_traits@D@std@@@std@@QBEDD@Z ; std::basic_ios<char,std::char_traits<char> >::widen
  0005f	88 47 30	 mov	 BYTE PTR [edi+48], al
  00062	39 5f 28	 cmp	 DWORD PTR [edi+40], ebx
  00065	75 12		 jne	 SHORT $LN31@basic_ofst
  00067	8b 47 08	 mov	 eax, DWORD PTR [edi+8]
  0006a	83 c8 04	 or	 eax, 4
  0006d	83 c8 04	 or	 eax, 4
  00070	53		 push	 ebx
  00071	50		 push	 eax
  00072	8b cf		 mov	 ecx, edi
  00074	e8 00 00 00 00	 call	 ?clear@ios_base@std@@QAEXH_N@Z ; std::ios_base::clear
$LN31@basic_ofst:
  00079	89 5f 04	 mov	 DWORD PTR [edi+4], ebx
  0007c	c7 44 24 24 02
	00 00 00	 mov	 DWORD PTR __$EHRec$[esp+48], 2
  00084	8b 45 00	 mov	 eax, DWORD PTR [ebp]
  00087	8b 48 04	 mov	 ecx, DWORD PTR [eax+4]
  0008a	c7 04 29 00 00
	00 00		 mov	 DWORD PTR [ecx+ebp], OFFSET ??_7?$basic_ofstream@DU?$char_traits@D@std@@@std@@6B@
  00091	8b ce		 mov	 ecx, esi
  00093	e8 00 00 00 00	 call	 ??0?$basic_streambuf@DU?$char_traits@D@std@@@std@@IAE@XZ ; std::basic_streambuf<char,std::char_traits<char> >::basic_streambuf<char,std::char_traits<char> >
  00098	8d 56 08	 lea	 edx, DWORD PTR [esi+8]
  0009b	89 56 10	 mov	 DWORD PTR [esi+16], edx
  0009e	c7 06 00 00 00
	00		 mov	 DWORD PTR [esi], OFFSET ??_7?$basic_filebuf@DU?$char_traits@D@std@@@std@@6B@
  000a4	88 5e 48	 mov	 BYTE PTR [esi+72], bl
  000a7	88 5e 41	 mov	 BYTE PTR [esi+65], bl
  000aa	8d 4e 18	 lea	 ecx, DWORD PTR [esi+24]
  000ad	89 4e 20	 mov	 DWORD PTR [esi+32], ecx
  000b0	8d 56 1c	 lea	 edx, DWORD PTR [esi+28]
  000b3	89 56 24	 mov	 DWORD PTR [esi+36], edx
  000b6	8d 46 0c	 lea	 eax, DWORD PTR [esi+12]
  000b9	89 46 14	 mov	 DWORD PTR [esi+20], eax
  000bc	8d 4e 28	 lea	 ecx, DWORD PTR [esi+40]
  000bf	89 4e 30	 mov	 DWORD PTR [esi+48], ecx
  000c2	8d 56 2c	 lea	 edx, DWORD PTR [esi+44]
  000c5	89 56 34	 mov	 DWORD PTR [esi+52], edx
  000c8	89 18		 mov	 DWORD PTR [eax], ebx
  000ca	8b 46 24	 mov	 eax, DWORD PTR [esi+36]
  000cd	89 18		 mov	 DWORD PTR [eax], ebx
  000cf	8b 4e 34	 mov	 ecx, DWORD PTR [esi+52]
  000d2	89 19		 mov	 DWORD PTR [ecx], ebx
  000d4	8b 56 10	 mov	 edx, DWORD PTR [esi+16]
  000d7	89 1a		 mov	 DWORD PTR [edx], ebx
  000d9	8b 46 20	 mov	 eax, DWORD PTR [esi+32]
  000dc	89 18		 mov	 DWORD PTR [eax], ebx
  000de	8b 4e 30	 mov	 ecx, DWORD PTR [esi+48]
  000e1	89 19		 mov	 DWORD PTR [ecx], ebx
  000e3	89 5e 4c	 mov	 DWORD PTR [esi+76], ebx
  000e6	8b 15 00 00 00
	00		 mov	 edx, DWORD PTR ?_Stinit@?1??_Init@?$basic_filebuf@DU?$char_traits@D@std@@@std@@IAEXPAU_iobuf@@W4_Initfl@23@@Z@4HA
  000ec	89 56 44	 mov	 DWORD PTR [esi+68], edx
  000ef	89 5e 3c	 mov	 DWORD PTR [esi+60], ebx

; 703  : 		}

  000f2	8b c5		 mov	 eax, ebp
  000f4	8b 4c 24 1c	 mov	 ecx, DWORD PTR __$EHRec$[esp+40]
  000f8	64 89 0d 00 00
	00 00		 mov	 DWORD PTR fs:0, ecx
  000ff	59		 pop	 ecx
  00100	5f		 pop	 edi
  00101	5e		 pop	 esi
  00102	5d		 pop	 ebp
  00103	5b		 pop	 ebx
  00104	83 c4 14	 add	 esp, 20			; 00000014H
  00107	c2 04 00	 ret	 4
_TEXT	ENDS
;	COMDAT text$x
text$x	SEGMENT
__unwindfunclet$??0?$basic_ofstream@DU?$char_traits@D@std@@@std@@QAE@XZ$1:
  00000	8b 4d 04	 mov	 ecx, DWORD PTR _this$[ebp-4]
  00003	83 c1 04	 add	 ecx, 4
  00006	e9 00 00 00 00	 jmp	 ??1?$basic_ostream@DU?$char_traits@D@std@@@std@@UAE@XZ ; std::basic_ostream<char,std::char_traits<char> >::~basic_ostream<char,std::char_traits<char> >
__ehhandler$??0?$basic_ofstream@DU?$char_traits@D@std@@@std@@QAE@XZ:
  0000b	8b 54 24 08	 mov	 edx, DWORD PTR [esp+8]
  0000f	8d 42 e8	 lea	 eax, DWORD PTR [edx-24]
  00012	8b 4a e4	 mov	 ecx, DWORD PTR [edx-28]
  00015	33 c8		 xor	 ecx, eax
  00017	e8 00 00 00 00	 call	 @__security_check_cookie@4
  0001c	b8 00 00 00 00	 mov	 eax, OFFSET __ehfuncinfo$??0?$basic_ofstream@DU?$char_traits@D@std@@@std@@QAE@XZ
  00021	e9 00 00 00 00	 jmp	 ___CxxFrameHandler3
text$x	ENDS
??0?$basic_ofstream@DU?$char_traits@D@std@@@std@@QAE@XZ ENDP ; std::basic_ofstream<char,std::char_traits<char> >::basic_ofstream<char,std::char_traits<char> >
; Function compile flags: /Ogtpy
;	COMDAT ??_GFileOutput@@UAEPAXI@Z
_TEXT	SEGMENT
___flags$ = 8						; size = 4
??_GFileOutput@@UAEPAXI@Z PROC				; FileOutput::`scalar deleting destructor', COMDAT
; _this$ = ecx
  00000	56		 push	 esi
  00001	57		 push	 edi
  00002	8d 79 ac	 lea	 edi, DWORD PTR [ecx-84]
  00005	8d 77 54	 lea	 esi, DWORD PTR [edi+84]
  00008	56		 push	 esi
  00009	e8 00 00 00 00	 call	 ??1FileOutput@@UAE@XZ	; FileOutput::~FileOutput
  0000e	56		 push	 esi
  0000f	c7 06 00 00 00
	00		 mov	 DWORD PTR [esi], OFFSET ??_7ios_base@std@@6B@
  00015	e8 00 00 00 00	 call	 ?_Ios_base_dtor@ios_base@std@@CAXPAV12@@Z ; std::ios_base::_Ios_base_dtor
  0001a	83 c4 04	 add	 esp, 4
  0001d	f6 44 24 0c 01	 test	 BYTE PTR ___flags$[esp+4], 1
  00022	74 09		 je	 SHORT $LN11@scalar@27
  00024	57		 push	 edi
  00025	e8 00 00 00 00	 call	 ??3@YAXPAX@Z		; operator delete
  0002a	83 c4 04	 add	 esp, 4
$LN11@scalar@27:
  0002d	8b c7		 mov	 eax, edi
  0002f	5f		 pop	 edi
  00030	5e		 pop	 esi
  00031	c2 04 00	 ret	 4
??_GFileOutput@@UAEPAXI@Z ENDP				; FileOutput::`scalar deleting destructor'
_TEXT	ENDS
PUBLIC	??0FileOutput@@QAE@PBD@Z			; FileOutput::FileOutput
;	COMDAT xdata$x
; File c:\program files\microsoft visual studio 9.0\vc\include\xiosbase
xdata$x	SEGMENT
__unwindtable$??0FileOutput@@QAE@PBD@Z DD 0ffffffffH
	DD	FLAT:__unwindfunclet$??0FileOutput@@QAE@PBD@Z$0
	DD	00H
	DD	FLAT:__unwindfunclet$??0FileOutput@@QAE@PBD@Z$1
__ehfuncinfo$??0FileOutput@@QAE@PBD@Z DD 019930522H
	DD	02H
	DD	FLAT:__unwindtable$??0FileOutput@@QAE@PBD@Z
	DD	2 DUP(00H)
	DD	2 DUP(00H)
	DD	00H
	DD	01H
; Function compile flags: /Ogtpy
; File i:\“n•”“ÄŽj\my project\cms\cms\fileoutput.cpp
xdata$x	ENDS
;	COMDAT ??0FileOutput@@QAE@PBD@Z
_TEXT	SEGMENT
__$EHRec$ = -12						; size = 12
_this$ = 8						; size = 4
$T97244 = 12						; size = 4
_strFileName$ = 12					; size = 4
_$initVBases$ = 16					; size = 4
??0FileOutput@@QAE@PBD@Z PROC				; FileOutput::FileOutput, COMDAT

; 13   : {

  00000	6a ff		 push	 -1
  00002	68 00 00 00 00	 push	 __ehhandler$??0FileOutput@@QAE@PBD@Z
  00007	64 a1 00 00 00
	00		 mov	 eax, DWORD PTR fs:0
  0000d	50		 push	 eax
  0000e	51		 push	 ecx
  0000f	55		 push	 ebp
  00010	56		 push	 esi
  00011	57		 push	 edi
  00012	a1 00 00 00 00	 mov	 eax, DWORD PTR ___security_cookie
  00017	33 c4		 xor	 eax, esp
  00019	50		 push	 eax
  0001a	8d 44 24 14	 lea	 eax, DWORD PTR __$EHRec$[esp+32]
  0001e	64 a3 00 00 00
	00		 mov	 DWORD PTR fs:0, eax
  00024	8b 6c 24 28	 mov	 ebp, DWORD PTR _strFileName$[esp+28]
  00028	8b 7c 24 24	 mov	 edi, DWORD PTR _this$[esp+28]
  0002c	83 7c 24 2c 00	 cmp	 DWORD PTR _$initVBases$[esp+28], 0
  00031	c7 44 24 28 00
	00 00 00	 mov	 DWORD PTR $T97244[esp+28], 0
  00039	74 1d		 je	 SHORT $LN1@FileOutput@2
  0003b	c7 07 00 00 00
	00		 mov	 DWORD PTR [edi], OFFSET ??_8FileOutput@@7B@
  00041	c7 47 54 00 00
	00 00		 mov	 DWORD PTR [edi+84], OFFSET ??_7?$basic_ios@DU?$char_traits@D@std@@@std@@6B@
  00048	c7 44 24 1c 00
	00 00 00	 mov	 DWORD PTR __$EHRec$[esp+40], 0
  00050	c7 44 24 28 01
	00 00 00	 mov	 DWORD PTR $T97244[esp+28], 1
$LN1@FileOutput@2:
  00058	57		 push	 edi
  00059	e8 00 00 00 00	 call	 ??0?$basic_ofstream@DU?$char_traits@D@std@@@std@@QAE@XZ ; std::basic_ofstream<char,std::char_traits<char> >::basic_ofstream<char,std::char_traits<char> >
  0005e	c7 44 24 1c 01
	00 00 00	 mov	 DWORD PTR __$EHRec$[esp+40], 1
  00066	8b 07		 mov	 eax, DWORD PTR [edi]
  00068	8b 48 04	 mov	 ecx, DWORD PTR [eax+4]
  0006b	c7 04 0f 00 00
	00 00		 mov	 DWORD PTR [edi+ecx], OFFSET ??_7FileOutput@@6B@

; 14   : 	fileopen(strFileName);

  00072	6a 22		 push	 34			; 00000022H
  00074	8d 77 04	 lea	 esi, DWORD PTR [edi+4]
  00077	8b cd		 mov	 ecx, ebp
  00079	e8 00 00 00 00	 call	 ?open@?$basic_filebuf@DU?$char_traits@D@std@@@std@@QAEPAV12@PBDHH@Z ; std::basic_filebuf<char,std::char_traits<char> >::open
  0007e	85 c0		 test	 eax, eax
  00080	75 1f		 jne	 SHORT $LN22@FileOutput@2
  00082	8b 17		 mov	 edx, DWORD PTR [edi]
  00084	8b 4a 04	 mov	 ecx, DWORD PTR [edx+4]
  00087	8b 44 39 08	 mov	 eax, DWORD PTR [ecx+edi+8]
  0008b	03 cf		 add	 ecx, edi
  0008d	83 c8 02	 or	 eax, 2
  00090	83 79 28 00	 cmp	 DWORD PTR [ecx+40], 0
  00094	75 03		 jne	 SHORT $LN24@FileOutput@2
  00096	83 c8 04	 or	 eax, 4
$LN24@FileOutput@2:
  00099	6a 00		 push	 0
  0009b	50		 push	 eax
  0009c	e8 00 00 00 00	 call	 ?clear@ios_base@std@@QAEXH_N@Z ; std::ios_base::clear
$LN22@FileOutput@2:
  000a1	8b 07		 mov	 eax, DWORD PTR [edi]
  000a3	8b 48 04	 mov	 ecx, DWORD PTR [eax+4]
  000a6	83 7c 39 08 00	 cmp	 DWORD PTR [ecx+edi+8], 0
  000ab	74 10		 je	 SHORT $LN11@FileOutput@2
  000ad	55		 push	 ebp
  000ae	e8 00 00 00 00	 call	 _perror
  000b3	83 c4 04	 add	 esp, 4
  000b6	6a 01		 push	 1
  000b8	e8 00 00 00 00	 call	 _exit
$LN34@FileOutput@2:
$LN11@FileOutput@2:

; 15   : }

  000bd	8b c7		 mov	 eax, edi
  000bf	8b 4c 24 14	 mov	 ecx, DWORD PTR __$EHRec$[esp+32]
  000c3	64 89 0d 00 00
	00 00		 mov	 DWORD PTR fs:0, ecx
  000ca	59		 pop	 ecx
  000cb	5f		 pop	 edi
  000cc	5e		 pop	 esi
  000cd	5d		 pop	 ebp
  000ce	83 c4 10	 add	 esp, 16			; 00000010H
  000d1	c2 0c 00	 ret	 12			; 0000000cH
$LN33@FileOutput@2:
_TEXT	ENDS
;	COMDAT text$x
text$x	SEGMENT
__unwindfunclet$??0FileOutput@@QAE@PBD@Z$0:
  00000	8b 45 08	 mov	 eax, DWORD PTR $T97244[ebp-4]
  00003	83 e0 01	 and	 eax, 1
  00006	0f 84 0f 00 00
	00		 je	 $LN5@FileOutput@2
  0000c	83 65 08 fe	 and	 DWORD PTR $T97244[ebp-4], -2 ; fffffffeH
  00010	8b 4d 04	 mov	 ecx, DWORD PTR _this$[ebp-4]
  00013	83 c1 54	 add	 ecx, 84			; 00000054H
  00016	e9 00 00 00 00	 jmp	 ??1?$basic_ios@DU?$char_traits@D@std@@@std@@UAE@XZ ; std::basic_ios<char,std::char_traits<char> >::~basic_ios<char,std::char_traits<char> >
$LN5@FileOutput@2:
  0001b	c3		 ret	 0
__unwindfunclet$??0FileOutput@@QAE@PBD@Z$1:
  0001c	8b 4d 04	 mov	 ecx, DWORD PTR _this$[ebp-4]
  0001f	83 c1 54	 add	 ecx, 84			; 00000054H
  00022	e9 00 00 00 00	 jmp	 ??1?$basic_ofstream@DU?$char_traits@D@std@@@std@@UAE@XZ ; std::basic_ofstream<char,std::char_traits<char> >::~basic_ofstream<char,std::char_traits<char> >
__ehhandler$??0FileOutput@@QAE@PBD@Z:
  00027	8b 54 24 08	 mov	 edx, DWORD PTR [esp+8]
  0002b	8d 42 f0	 lea	 eax, DWORD PTR [edx-16]
  0002e	8b 4a ec	 mov	 ecx, DWORD PTR [edx-20]
  00031	33 c8		 xor	 ecx, eax
  00033	e8 00 00 00 00	 call	 @__security_check_cookie@4
  00038	b8 00 00 00 00	 mov	 eax, OFFSET __ehfuncinfo$??0FileOutput@@QAE@PBD@Z
  0003d	e9 00 00 00 00	 jmp	 ___CxxFrameHandler3
text$x	ENDS
??0FileOutput@@QAE@PBD@Z ENDP				; FileOutput::FileOutput
END
