; Listing generated by Microsoft (R) Optimizing Compiler Version 15.00.30729.01 

	TITLE	i:\?n????j\My Project\CMS\CMS\ASN1\Algorithm\KeyDerivation.cpp
	.686P
	.XMM
	include listing.inc
	.model	flat

INCLUDELIB OLDNAMES

PUBLIC	??_R4KeyDerivation@@6B@				; KeyDerivation::`RTTI Complete Object Locator'
PUBLIC	??_R3KeyDerivation@@8				; KeyDerivation::`RTTI Class Hierarchy Descriptor'
PUBLIC	??_R2KeyDerivation@@8				; KeyDerivation::`RTTI Base Class Array'
PUBLIC	??_R1A@?0A@EA@KeyDerivation@@8			; KeyDerivation::`RTTI Base Class Descriptor at (0,-1,0,64)'
PUBLIC	??_R0?AVKeyDerivation@@@8			; KeyDerivation `RTTI Type Descriptor'
PUBLIC	?calc@KeyDerivation@@UAEXPAX0I@Z		; KeyDerivation::calc
PUBLIC	??_7KeyDerivation@@6B@				; KeyDerivation::`vftable'
;	COMDAT ??_7KeyDerivation@@6B@
CONST	SEGMENT
??_7KeyDerivation@@6B@ DD FLAT:??_R4KeyDerivation@@6B@	; KeyDerivation::`vftable'
	DD	FLAT:?encodeBER@Sequence@@UAEXXZ
	DD	FLAT:?Get_BERcode@ASN1@@UAEPBDXZ
	DD	FLAT:?Get_BERsize@ASN1@@UAEIXZ
	DD	FLAT:?calc@KeyDerivation@@UAEXPAX0I@Z
CONST	ENDS
;	COMDAT ??_R4KeyDerivation@@6B@
rdata$r	SEGMENT
??_R4KeyDerivation@@6B@ DD 00H				; KeyDerivation::`RTTI Complete Object Locator'
	DD	00H
	DD	00H
	DD	FLAT:??_R0?AVKeyDerivation@@@8
	DD	FLAT:??_R3KeyDerivation@@8
rdata$r	ENDS
;	COMDAT ??_R3KeyDerivation@@8
rdata$r	SEGMENT
??_R3KeyDerivation@@8 DD 00H				; KeyDerivation::`RTTI Class Hierarchy Descriptor'
	DD	00H
	DD	04H
	DD	FLAT:??_R2KeyDerivation@@8
rdata$r	ENDS
;	COMDAT ??_R2KeyDerivation@@8
rdata$r	SEGMENT
??_R2KeyDerivation@@8 DD FLAT:??_R1A@?0A@EA@KeyDerivation@@8 ; KeyDerivation::`RTTI Base Class Array'
	DD	FLAT:??_R1A@?0A@EA@AlgorithmIdentifier@@8
	DD	FLAT:??_R1A@?0A@EA@Sequence@@8
	DD	FLAT:??_R1A@?0A@EA@ASN1@@8
rdata$r	ENDS
;	COMDAT ??_R1A@?0A@EA@KeyDerivation@@8
rdata$r	SEGMENT
??_R1A@?0A@EA@KeyDerivation@@8 DD FLAT:??_R0?AVKeyDerivation@@@8 ; KeyDerivation::`RTTI Base Class Descriptor at (0,-1,0,64)'
	DD	03H
	DD	00H
	DD	0ffffffffH
	DD	00H
	DD	040H
	DD	FLAT:??_R3KeyDerivation@@8
rdata$r	ENDS
;	COMDAT ??_R0?AVKeyDerivation@@@8
_DATA	SEGMENT
??_R0?AVKeyDerivation@@@8 DD FLAT:??_7type_info@@6B@	; KeyDerivation `RTTI Type Descriptor'
	DD	00H
	DB	'.?AVKeyDerivation@@', 00H
; Function compile flags: /Ogtpy
; File i:\“n•”“ÄŽj\my project\cms\cms\asn1\algorithm\keyderivation.h
;	COMDAT ?calc@KeyDerivation@@UAEXPAX0I@Z
_TEXT	SEGMENT
_DK$ = 8						; size = 4
_P$ = 12						; size = 4
_szP$ = 16						; size = 4
?calc@KeyDerivation@@UAEXPAX0I@Z PROC			; KeyDerivation::calc, COMDAT
; _this$ = ecx

; 36   : 	virtual	void	calc(void* DK, void* P, unsigned int szP){};

  00000	c2 0c 00	 ret	 12			; 0000000cH
?calc@KeyDerivation@@UAEXPAX0I@Z ENDP			; KeyDerivation::calc
PUBLIC	??1KeyDerivation@@QAE@XZ			; KeyDerivation::~KeyDerivation
; Function compile flags: /Ogtpy
; File i:\“n•”“ÄŽj\my project\cms\cms\asn1\algorithm\keyderivation.cpp
;	COMDAT ??1KeyDerivation@@QAE@XZ
_TEXT	SEGMENT
??1KeyDerivation@@QAE@XZ PROC				; KeyDerivation::~KeyDerivation, COMDAT
; _this$ = esi

; 25   : {

  00000	57		 push	 edi

; 26   : }

  00001	8d 7e 44	 lea	 edi, DWORD PTR [esi+68]
  00004	c7 06 00 00 00
	00		 mov	 DWORD PTR [esi], OFFSET ??_7AlgorithmIdentifier@@6B@
  0000a	c7 07 00 00 00
	00		 mov	 DWORD PTR [edi], OFFSET ??_7ObjectIdentifier@@6B@
  00010	8b 47 50	 mov	 eax, DWORD PTR [edi+80]
  00013	85 c0		 test	 eax, eax
  00015	74 09		 je	 SHORT $LN12@KeyDerivat
  00017	50		 push	 eax
  00018	e8 00 00 00 00	 call	 ??3@YAXPAX@Z		; operator delete
  0001d	83 c4 04	 add	 esp, 4
$LN12@KeyDerivat:
  00020	8b 47 44	 mov	 eax, DWORD PTR [edi+68]
  00023	50		 push	 eax
  00024	c7 47 50 00 00
	00 00		 mov	 DWORD PTR [edi+80], 0
  0002b	c7 47 54 00 00
	00 00		 mov	 DWORD PTR [edi+84], 0
  00032	c7 47 58 00 00
	00 00		 mov	 DWORD PTR [edi+88], 0
  00039	e8 00 00 00 00	 call	 ??3@YAXPAX@Z		; operator delete
  0003e	83 c4 04	 add	 esp, 4
  00041	e8 00 00 00 00	 call	 ??1ASN1@@QAE@XZ		; ASN1::~ASN1
  00046	8b fe		 mov	 edi, esi
  00048	c7 06 00 00 00
	00		 mov	 DWORD PTR [esi], OFFSET ??_7Sequence@@6B@
  0004e	e8 00 00 00 00	 call	 ??1ASN1@@QAE@XZ		; ASN1::~ASN1
  00053	5f		 pop	 edi
  00054	c3		 ret	 0
??1KeyDerivation@@QAE@XZ ENDP				; KeyDerivation::~KeyDerivation
PUBLIC	??0KeyDerivation@@QAE@QBD@Z			; KeyDerivation::KeyDerivation
; Function compile flags: /Ogtpy
;	COMDAT ??0KeyDerivation@@QAE@QBD@Z
_TEXT	SEGMENT
??0KeyDerivation@@QAE@QBD@Z PROC			; KeyDerivation::KeyDerivation, COMDAT
; _this$ = esi

; 14   : {

  00000	51		 push	 ecx
  00001	68 00 00 00 00	 push	 OFFSET ??_C@_06KBOEGBGA@PBKDF2?$AA@
  00006	56		 push	 esi
  00007	e8 00 00 00 00	 call	 ??0AlgorithmIdentifier@@QAE@QBD@Z ; AlgorithmIdentifier::AlgorithmIdentifier
  0000c	c7 06 00 00 00
	00		 mov	 DWORD PTR [esi], OFFSET ??_7KeyDerivation@@6B@

; 15   : }

  00012	8b c6		 mov	 eax, esi
  00014	59		 pop	 ecx
  00015	c3		 ret	 0
??0KeyDerivation@@QAE@QBD@Z ENDP			; KeyDerivation::KeyDerivation
END
