; Listing generated by Microsoft (R) Optimizing Compiler Version 15.00.30729.01 

	TITLE	i:\?n????j\My Project\CMS\CMS\main.cpp
	.686P
	.XMM
	include listing.inc
	.model	flat

INCLUDELIB OLDNAMES

PUBLIC	??_R4failure@ios_base@std@@6B@			; std::ios_base::failure::`RTTI Complete Object Locator'
PUBLIC	??_R3failure@ios_base@std@@8			; std::ios_base::failure::`RTTI Class Hierarchy Descriptor'
PUBLIC	??_R2failure@ios_base@std@@8			; std::ios_base::failure::`RTTI Base Class Array'
PUBLIC	??_R1A@?0A@EA@failure@ios_base@std@@8		; std::ios_base::failure::`RTTI Base Class Descriptor at (0,-1,0,64)'
PUBLIC	??_R4facet@locale@std@@6B@			; std::locale::facet::`RTTI Complete Object Locator'
PUBLIC	??_R4runtime_error@std@@6B@			; std::runtime_error::`RTTI Complete Object Locator'
PUBLIC	??_R3runtime_error@std@@8			; std::runtime_error::`RTTI Class Hierarchy Descriptor'
PUBLIC	??_R2runtime_error@std@@8			; std::runtime_error::`RTTI Base Class Array'
PUBLIC	??_R1A@?0A@EA@runtime_error@std@@8		; std::runtime_error::`RTTI Base Class Descriptor at (0,-1,0,64)'
PUBLIC	??_R4?$basic_ios@DU?$char_traits@D@std@@@std@@6B@ ; std::basic_ios<char,std::char_traits<char> >::`RTTI Complete Object Locator'
PUBLIC	??_R3?$basic_ios@DU?$char_traits@D@std@@@std@@8	; std::basic_ios<char,std::char_traits<char> >::`RTTI Class Hierarchy Descriptor'
PUBLIC	??_R2?$basic_ios@DU?$char_traits@D@std@@@std@@8	; std::basic_ios<char,std::char_traits<char> >::`RTTI Base Class Array'
PUBLIC	??_R1A@?0A@EA@?$basic_ios@DU?$char_traits@D@std@@@std@@8 ; std::basic_ios<char,std::char_traits<char> >::`RTTI Base Class Descriptor at (0,-1,0,64)'
PUBLIC	??_R0?AV?$basic_ios@DU?$char_traits@D@std@@@std@@@8 ; std::basic_ios<char,std::char_traits<char> > `RTTI Type Descriptor'
PUBLIC	??_R4ios_base@std@@6B@				; std::ios_base::`RTTI Complete Object Locator'
PUBLIC	??_R3ios_base@std@@8				; std::ios_base::`RTTI Class Hierarchy Descriptor'
PUBLIC	??_R2ios_base@std@@8				; std::ios_base::`RTTI Base Class Array'
PUBLIC	??_R13?0A@EA@?$_Iosb@H@std@@8			; std::_Iosb<int>::`RTTI Base Class Descriptor at (4,-1,0,64)'
PUBLIC	??_R3?$_Iosb@H@std@@8				; std::_Iosb<int>::`RTTI Class Hierarchy Descriptor'
PUBLIC	??_R2?$_Iosb@H@std@@8				; std::_Iosb<int>::`RTTI Base Class Array'
PUBLIC	??_R1A@?0A@EA@?$_Iosb@H@std@@8			; std::_Iosb<int>::`RTTI Base Class Descriptor at (0,-1,0,64)'
PUBLIC	??_R0?AV?$_Iosb@H@std@@@8			; std::_Iosb<int> `RTTI Type Descriptor'
PUBLIC	??_R1A@?0A@EA@ios_base@std@@8			; std::ios_base::`RTTI Base Class Descriptor at (0,-1,0,64)'
PUBLIC	??_R0?AVios_base@std@@@8			; std::ios_base `RTTI Type Descriptor'
PUBLIC	??_R4bad_alloc@std@@6B@				; std::bad_alloc::`RTTI Complete Object Locator'
PUBLIC	??_R3bad_alloc@std@@8				; std::bad_alloc::`RTTI Class Hierarchy Descriptor'
PUBLIC	??_R2bad_alloc@std@@8				; std::bad_alloc::`RTTI Base Class Array'
PUBLIC	??_R1A@?0A@EA@exception@std@@8			; std::exception::`RTTI Base Class Descriptor at (0,-1,0,64)'
PUBLIC	??_R3exception@std@@8				; std::exception::`RTTI Class Hierarchy Descriptor'
PUBLIC	??_R2exception@std@@8				; std::exception::`RTTI Base Class Array'
PUBLIC	??_R1A@?0A@EA@bad_alloc@std@@8			; std::bad_alloc::`RTTI Base Class Descriptor at (0,-1,0,64)'
PUBLIC	??_R4?$num_put@DV?$ostreambuf_iterator@DU?$char_traits@D@std@@@std@@@std@@6B@ ; std::num_put<char,std::ostreambuf_iterator<char,std::char_traits<char> > >::`RTTI Complete Object Locator'
PUBLIC	??_R3?$num_put@DV?$ostreambuf_iterator@DU?$char_traits@D@std@@@std@@@std@@8 ; std::num_put<char,std::ostreambuf_iterator<char,std::char_traits<char> > >::`RTTI Class Hierarchy Descriptor'
PUBLIC	??_R2?$num_put@DV?$ostreambuf_iterator@DU?$char_traits@D@std@@@std@@@std@@8 ; std::num_put<char,std::ostreambuf_iterator<char,std::char_traits<char> > >::`RTTI Base Class Array'
PUBLIC	??_R1A@?0A@EA@?$num_put@DV?$ostreambuf_iterator@DU?$char_traits@D@std@@@std@@@std@@8 ; std::num_put<char,std::ostreambuf_iterator<char,std::char_traits<char> > >::`RTTI Base Class Descriptor at (0,-1,0,64)'
PUBLIC	??_R0?AV?$num_put@DV?$ostreambuf_iterator@DU?$char_traits@D@std@@@std@@@std@@@8 ; std::num_put<char,std::ostreambuf_iterator<char,std::char_traits<char> > > `RTTI Type Descriptor'
PUBLIC	??_R4?$numpunct@D@std@@6B@			; std::numpunct<char>::`RTTI Complete Object Locator'
PUBLIC	??_R3?$numpunct@D@std@@8			; std::numpunct<char>::`RTTI Class Hierarchy Descriptor'
PUBLIC	??_R2?$numpunct@D@std@@8			; std::numpunct<char>::`RTTI Base Class Array'
PUBLIC	??_R1A@?0A@EA@facet@locale@std@@8		; std::locale::facet::`RTTI Base Class Descriptor at (0,-1,0,64)'
PUBLIC	??_R3facet@locale@std@@8			; std::locale::facet::`RTTI Class Hierarchy Descriptor'
PUBLIC	??_R2facet@locale@std@@8			; std::locale::facet::`RTTI Base Class Array'
PUBLIC	??_R0?AVfacet@locale@std@@@8			; std::locale::facet `RTTI Type Descriptor'
PUBLIC	??_R1A@?0A@EA@?$numpunct@D@std@@8		; std::numpunct<char>::`RTTI Base Class Descriptor at (0,-1,0,64)'
PUBLIC	??_R0?AV?$numpunct@D@std@@@8			; std::numpunct<char> `RTTI Type Descriptor'
PUBLIC	?put@?$num_put@DV?$ostreambuf_iterator@DU?$char_traits@D@std@@@std@@@std@@QBE?AV?$ostreambuf_iterator@DU?$char_traits@D@std@@@2@V32@AAVios_base@2@DJ@Z ; std::num_put<char,std::ostreambuf_iterator<char,std::char_traits<char> > >::put
PUBLIC	??6?$basic_ostream@DU?$char_traits@D@std@@@std@@QAEAAV01@H@Z ; std::basic_ostream<char,std::char_traits<char> >::operator<<
PUBLIC	?dec@std@@YAAAVios_base@1@AAV21@@Z		; std::dec
PUBLIC	?setf@ios_base@std@@QAEHHH@Z			; std::ios_base::setf
PUBLIC	?hex@std@@YAAAVios_base@1@AAV21@@Z		; std::hex
PUBLIC	??6?$basic_ostream@DU?$char_traits@D@std@@@std@@QAEAAV01@P6AAAVios_base@1@AAV21@@Z@Z ; std::basic_ostream<char,std::char_traits<char> >::operator<<
PUBLIC	?put@?$num_put@DV?$ostreambuf_iterator@DU?$char_traits@D@std@@@std@@@std@@QBE?AV?$ostreambuf_iterator@DU?$char_traits@D@std@@@2@V32@AAVios_base@2@DK@Z ; std::num_put<char,std::ostreambuf_iterator<char,std::char_traits<char> > >::put
PUBLIC	??6?$basic_ostream@DU?$char_traits@D@std@@@std@@QAEAAV01@I@Z ; std::basic_ostream<char,std::char_traits<char> >::operator<<
PUBLIC	??0?$_Fillobj@D@std@@QAE@D@Z			; std::_Fillobj<char>::_Fillobj<char>
PUBLIC	??$setfill@D@std@@YA?AU?$_Fillobj@D@0@D@Z	; std::setfill<char>
PUBLIC	?fill@?$basic_ios@DU?$char_traits@D@std@@@std@@QAEDD@Z ; std::basic_ios<char,std::char_traits<char> >::fill
PUBLIC	??$?6DU?$char_traits@D@std@@@std@@YAAAV?$basic_ostream@DU?$char_traits@D@std@@@0@AAV10@ABU?$_Fillobj@D@0@@Z ; std::operator<<<char,std::char_traits<char> >
PUBLIC	??$?6DU?$char_traits@D@std@@H@std@@YAAAV?$basic_ostream@DU?$char_traits@D@std@@@0@AAV10@ABU?$_Smanip@H@0@@Z ; std::operator<<<char,std::char_traits<char>,int>
PUBLIC	??_DFileInput@@QAEXXZ				; FileInput::`vbase destructor'
PUBLIC	?empty@?$basic_string@DU?$char_traits@D@std@@V?$allocator@D@2@@std@@QBE_NXZ ; std::basic_string<char,std::char_traits<char>,std::allocator<char> >::empty
PUBLIC	??Bios_base@std@@QBEPAXXZ			; std::ios_base::operator void *
PUBLIC	??_Gios_base@std@@UAEPAXI@Z			; std::ios_base::`scalar deleting destructor'
PUBLIC	??1ios_base@std@@UAE@XZ				; std::ios_base::~ios_base
PUBLIC	??_G?$basic_ios@DU?$char_traits@D@std@@@std@@UAEPAXI@Z ; std::basic_ios<char,std::char_traits<char> >::`scalar deleting destructor'
PUBLIC	??1?$basic_ios@DU?$char_traits@D@std@@@std@@UAE@XZ ; std::basic_ios<char,std::char_traits<char> >::~basic_ios<char,std::char_traits<char> >
PUBLIC	??_DFileOutput@@QAEXXZ				; FileOutput::`vbase destructor'
PUBLIC	?put@?$basic_ostream@DU?$char_traits@D@std@@@std@@QAEAAV12@D@Z ; std::basic_ostream<char,std::char_traits<char> >::put
PUBLIC	?endl@std@@YAAAV?$basic_ostream@DU?$char_traits@D@std@@@1@AAV21@@Z ; std::endl
PUBLIC	??6?$basic_ostream@DU?$char_traits@D@std@@@std@@QAEAAV01@P6AAAV01@AAV01@@Z@Z ; std::basic_ostream<char,std::char_traits<char> >::operator<<
PUBLIC	?_Init@?$num_put@DV?$ostreambuf_iterator@DU?$char_traits@D@std@@@std@@@std@@IAEXABV_Locinfo@2@@Z ; std::num_put<char,std::ostreambuf_iterator<char,std::char_traits<char> > >::_Init
PUBLIC	?assign@?$basic_string@DU?$char_traits@D@std@@V?$allocator@D@2@@std@@QAEAAV12@ABV12@@Z ; std::basic_string<char,std::char_traits<char>,std::allocator<char> >::assign
PUBLIC	?_Put@?$num_put@DV?$ostreambuf_iterator@DU?$char_traits@D@std@@@std@@@std@@ABA?AV?$ostreambuf_iterator@DU?$char_traits@D@std@@@2@V32@PBDI@Z ; std::num_put<char,std::ostreambuf_iterator<char,std::char_traits<char> > >::_Put
PUBLIC	?falsename@?$numpunct@D@std@@QBE?AV?$basic_string@DU?$char_traits@D@std@@V?$allocator@D@2@@2@XZ ; std::numpunct<char>::falsename
PUBLIC	?truename@?$numpunct@D@std@@QBE?AV?$basic_string@DU?$char_traits@D@std@@V?$allocator@D@2@@2@XZ ; std::numpunct<char>::truename
PUBLIC	?do_put@?$num_put@DV?$ostreambuf_iterator@DU?$char_traits@D@std@@@std@@@std@@MBE?AV?$ostreambuf_iterator@DU?$char_traits@D@std@@@2@V32@AAVios_base@2@D_N@Z ; std::num_put<char,std::ostreambuf_iterator<char,std::char_traits<char> > >::do_put
PUBLIC	?do_put@?$num_put@DV?$ostreambuf_iterator@DU?$char_traits@D@std@@@std@@@std@@MBE?AV?$ostreambuf_iterator@DU?$char_traits@D@std@@@2@V32@AAVios_base@2@DJ@Z ; std::num_put<char,std::ostreambuf_iterator<char,std::char_traits<char> > >::do_put
PUBLIC	?do_put@?$num_put@DV?$ostreambuf_iterator@DU?$char_traits@D@std@@@std@@@std@@MBE?AV?$ostreambuf_iterator@DU?$char_traits@D@std@@@2@V32@AAVios_base@2@DK@Z ; std::num_put<char,std::ostreambuf_iterator<char,std::char_traits<char> > >::do_put
PUBLIC	?do_put@?$num_put@DV?$ostreambuf_iterator@DU?$char_traits@D@std@@@std@@@std@@MBE?AV?$ostreambuf_iterator@DU?$char_traits@D@std@@@2@V32@AAVios_base@2@D_J@Z ; std::num_put<char,std::ostreambuf_iterator<char,std::char_traits<char> > >::do_put
PUBLIC	?_Ifmt@?$num_put@DV?$ostreambuf_iterator@DU?$char_traits@D@std@@@std@@@std@@ABAPADPADPBDH@Z ; std::num_put<char,std::ostreambuf_iterator<char,std::char_traits<char> > >::_Ifmt
PUBLIC	?do_put@?$num_put@DV?$ostreambuf_iterator@DU?$char_traits@D@std@@@std@@@std@@MBE?AV?$ostreambuf_iterator@DU?$char_traits@D@std@@@2@V32@AAVios_base@2@D_K@Z ; std::num_put<char,std::ostreambuf_iterator<char,std::char_traits<char> > >::do_put
PUBLIC	?do_put@?$num_put@DV?$ostreambuf_iterator@DU?$char_traits@D@std@@@std@@@std@@MBE?AV?$ostreambuf_iterator@DU?$char_traits@D@std@@@2@V32@AAVios_base@2@DN@Z ; std::num_put<char,std::ostreambuf_iterator<char,std::char_traits<char> > >::do_put
PUBLIC	?precision@ios_base@std@@QBEHXZ			; std::ios_base::precision
PUBLIC	?_Ffmt@?$num_put@DV?$ostreambuf_iterator@DU?$char_traits@D@std@@@std@@@std@@ABAPADPADDH@Z ; std::num_put<char,std::ostreambuf_iterator<char,std::char_traits<char> > >::_Ffmt
PUBLIC	?append@?$basic_string@DU?$char_traits@D@std@@V?$allocator@D@2@@std@@QAEAAV12@ABV12@II@Z ; std::basic_string<char,std::char_traits<char>,std::allocator<char> >::append
PUBLIC	?append@?$basic_string@DU?$char_traits@D@std@@V?$allocator@D@2@@std@@QAEAAV12@PBDI@Z ; std::basic_string<char,std::char_traits<char>,std::allocator<char> >::append
PUBLIC	?append@?$basic_string@DU?$char_traits@D@std@@V?$allocator@D@2@@std@@QAEAAV12@ID@Z ; std::basic_string<char,std::char_traits<char>,std::allocator<char> >::append
PUBLIC	?assign@?$char_traits@D@std@@SAPADPADID@Z	; std::char_traits<char>::assign
PUBLIC	?_Chassign@?$basic_string@DU?$char_traits@D@std@@V?$allocator@D@2@@std@@IAEXIID@Z ; std::basic_string<char,std::char_traits<char>,std::allocator<char> >::_Chassign
PUBLIC	?insert@?$basic_string@DU?$char_traits@D@std@@V?$allocator@D@2@@std@@QAEAAV12@IID@Z ; std::basic_string<char,std::char_traits<char>,std::allocator<char> >::insert
PUBLIC	??A?$basic_string@DU?$char_traits@D@std@@V?$allocator@D@2@@std@@QAEAADI@Z ; std::basic_string<char,std::char_traits<char>,std::allocator<char> >::operator[]
PUBLIC	?decimal_point@?$numpunct@D@std@@QBEDXZ		; std::numpunct<char>::decimal_point
PUBLIC	?_Fput@?$num_put@DV?$ostreambuf_iterator@DU?$char_traits@D@std@@@std@@@std@@ABA?AV?$ostreambuf_iterator@DU?$char_traits@D@std@@@2@V32@AAVios_base@2@DPBDIIII@Z ; std::num_put<char,std::ostreambuf_iterator<char,std::char_traits<char> > >::_Fput
PUBLIC	?do_put@?$num_put@DV?$ostreambuf_iterator@DU?$char_traits@D@std@@@std@@@std@@MBE?AV?$ostreambuf_iterator@DU?$char_traits@D@std@@@2@V32@AAVios_base@2@DO@Z ; std::num_put<char,std::ostreambuf_iterator<char,std::char_traits<char> > >::do_put
PUBLIC	??0locale@std@@QAE@ABV01@@Z			; std::locale::locale
PUBLIC	?_Decref@facet@locale@std@@QAEPAV123@XZ		; std::locale::facet::_Decref
PUBLIC	??1locale@std@@QAE@XZ				; std::locale::~locale
PUBLIC	?getloc@ios_base@std@@QBE?AVlocale@2@XZ		; std::ios_base::getloc
PUBLIC	?_Putc@?$num_put@DV?$ostreambuf_iterator@DU?$char_traits@D@std@@@std@@@std@@ABA?AV?$ostreambuf_iterator@DU?$char_traits@D@std@@@2@V32@PBDI@Z ; std::num_put<char,std::ostreambuf_iterator<char,std::char_traits<char> > >::_Putc
PUBLIC	?_Putgrouped@?$num_put@DV?$ostreambuf_iterator@DU?$char_traits@D@std@@@std@@@std@@ABA?AV?$ostreambuf_iterator@DU?$char_traits@D@std@@@2@V32@PBDID@Z ; std::num_put<char,std::ostreambuf_iterator<char,std::char_traits<char> > >::_Putgrouped
PUBLIC	??4?$ostreambuf_iterator@DU?$char_traits@D@std@@@std@@QAEAAV01@D@Z ; std::ostreambuf_iterator<char,std::char_traits<char> >::operator=
PUBLIC	??D?$ostreambuf_iterator@DU?$char_traits@D@std@@@std@@QAEAAV01@XZ ; std::ostreambuf_iterator<char,std::char_traits<char> >::operator*
PUBLIC	??E?$ostreambuf_iterator@DU?$char_traits@D@std@@@std@@QAEAAV01@XZ ; std::ostreambuf_iterator<char,std::char_traits<char> >::operator++
PUBLIC	?_Rep@?$num_put@DV?$ostreambuf_iterator@DU?$char_traits@D@std@@@std@@@std@@ABA?AV?$ostreambuf_iterator@DU?$char_traits@D@std@@@2@V32@DI@Z ; std::num_put<char,std::ostreambuf_iterator<char,std::char_traits<char> > >::_Rep
PUBLIC	??Bid@locale@std@@QAEIXZ			; std::locale::id::operator unsigned int
PUBLIC	?_Incref@facet@locale@std@@QAEXXZ		; std::locale::facet::_Incref
PUBLIC	?_Register@facet@locale@std@@QAEXXZ		; std::locale::facet::_Register
PUBLIC	?_Getfacet@locale@std@@QBEPBVfacet@12@I@Z	; std::locale::_Getfacet
PUBLIC	??0?$basic_string@DU?$char_traits@D@std@@V?$allocator@D@2@@std@@QAE@XZ ; std::basic_string<char,std::char_traits<char>,std::allocator<char> >::basic_string<char,std::char_traits<char>,std::allocator<char> >
PUBLIC	??0_Locinfo@std@@QAE@ABV?$basic_string@DU?$char_traits@D@std@@V?$allocator@D@2@@1@@Z ; std::_Locinfo::_Locinfo
PUBLIC	??1_Locinfo@std@@QAE@XZ				; std::_Locinfo::~_Locinfo
PUBLIC	?name@locale@std@@QBE?AV?$basic_string@DU?$char_traits@D@std@@V?$allocator@D@2@@2@XZ ; std::locale::name
PUBLIC	??0facet@locale@std@@IAE@I@Z			; std::locale::facet::facet
PUBLIC	?_Getcvt@_Locinfo@std@@QBE?AU_Cvtvec@@XZ	; std::_Locinfo::_Getcvt
PUBLIC	?_Getlconv@_Locinfo@std@@QBEPBUlconv@@XZ	; std::_Locinfo::_Getlconv
PUBLIC	?_Getfalse@_Locinfo@std@@QBEPBDXZ		; std::_Locinfo::_Getfalse
PUBLIC	?_Gettrue@_Locinfo@std@@QBEPBDXZ		; std::_Locinfo::_Gettrue
PUBLIC	??$_Maklocchr@D@std@@YADDPADABU_Cvtvec@@@Z	; std::_Maklocchr<char>
PUBLIC	??$_Maklocstr@D@std@@YAPADPBDPADABU_Cvtvec@@@Z	; std::_Maklocstr<char>
PUBLIC	?_Init@?$numpunct@D@std@@IAEXABV_Locinfo@2@_N@Z	; std::numpunct<char>::_Init
PUBLIC	?do_decimal_point@?$numpunct@D@std@@MBEDXZ	; std::numpunct<char>::do_decimal_point
PUBLIC	?do_thousands_sep@?$numpunct@D@std@@MBEDXZ	; std::numpunct<char>::do_thousands_sep
PUBLIC	?do_grouping@?$numpunct@D@std@@MBE?AV?$basic_string@DU?$char_traits@D@std@@V?$allocator@D@2@@2@XZ ; std::numpunct<char>::do_grouping
PUBLIC	?do_falsename@?$numpunct@D@std@@MBE?AV?$basic_string@DU?$char_traits@D@std@@V?$allocator@D@2@@2@XZ ; std::numpunct<char>::do_falsename
PUBLIC	?do_truename@?$numpunct@D@std@@MBE?AV?$basic_string@DU?$char_traits@D@std@@V?$allocator@D@2@@2@XZ ; std::numpunct<char>::do_truename
PUBLIC	?_Tidy@?$numpunct@D@std@@AAEXXZ			; std::numpunct<char>::_Tidy
PUBLIC	??1?$numpunct@D@std@@MAE@XZ			; std::numpunct<char>::~numpunct<char>
PUBLIC	??_G?$numpunct@D@std@@MAEPAXI@Z			; std::numpunct<char>::`scalar deleting destructor'
PUBLIC	??0?$numpunct@D@std@@QAE@ABV_Locinfo@1@I_N@Z	; std::numpunct<char>::numpunct<char>
PUBLIC	?_Getcat@?$numpunct@D@std@@SAIPAPBVfacet@locale@2@PBV42@@Z ; std::numpunct<char>::_Getcat
PUBLIC	??$use_facet@V?$numpunct@D@std@@@std@@YAABV?$numpunct@D@0@ABVlocale@0@@Z ; std::use_facet<std::numpunct<char> >
PUBLIC	?thousands_sep@?$numpunct@D@std@@QBEDXZ		; std::numpunct<char>::thousands_sep
PUBLIC	?grouping@?$numpunct@D@std@@QBE?AV?$basic_string@DU?$char_traits@D@std@@V?$allocator@D@2@@2@XZ ; std::numpunct<char>::grouping
PUBLIC	?_Iput@?$num_put@DV?$ostreambuf_iterator@DU?$char_traits@D@std@@@std@@@std@@ABA?AV?$ostreambuf_iterator@DU?$char_traits@D@std@@@2@V32@AAVios_base@2@DPADI@Z ; std::num_put<char,std::ostreambuf_iterator<char,std::char_traits<char> > >::_Iput
PUBLIC	?do_put@?$num_put@DV?$ostreambuf_iterator@DU?$char_traits@D@std@@@std@@@std@@MBE?AV?$ostreambuf_iterator@DU?$char_traits@D@std@@@2@V32@AAVios_base@2@DPBX@Z ; std::num_put<char,std::ostreambuf_iterator<char,std::char_traits<char> > >::do_put
PUBLIC	??_Gfacet@locale@std@@UAEPAXI@Z			; std::locale::facet::`scalar deleting destructor'
PUBLIC	??1facet@locale@std@@UAE@XZ			; std::locale::facet::~facet
PUBLIC	??1?$num_put@DV?$ostreambuf_iterator@DU?$char_traits@D@std@@@std@@@std@@MAE@XZ ; std::num_put<char,std::ostreambuf_iterator<char,std::char_traits<char> > >::~num_put<char,std::ostreambuf_iterator<char,std::char_traits<char> > >
PUBLIC	??_G?$num_put@DV?$ostreambuf_iterator@DU?$char_traits@D@std@@@std@@@std@@MAEPAXI@Z ; std::num_put<char,std::ostreambuf_iterator<char,std::char_traits<char> > >::`scalar deleting destructor'
PUBLIC	??0?$num_put@DV?$ostreambuf_iterator@DU?$char_traits@D@std@@@std@@@std@@QAE@ABV_Locinfo@1@I@Z ; std::num_put<char,std::ostreambuf_iterator<char,std::char_traits<char> > >::num_put<char,std::ostreambuf_iterator<char,std::char_traits<char> > >
PUBLIC	?_Getcat@?$num_put@DV?$ostreambuf_iterator@DU?$char_traits@D@std@@@std@@@std@@SAIPAPBVfacet@locale@2@PBV42@@Z ; std::num_put<char,std::ostreambuf_iterator<char,std::char_traits<char> > >::_Getcat
PUBLIC	??$use_facet@V?$num_put@DV?$ostreambuf_iterator@DU?$char_traits@D@std@@@std@@@std@@@std@@YAABV?$num_put@DV?$ostreambuf_iterator@DU?$char_traits@D@std@@@std@@@0@ABVlocale@0@@Z ; std::use_facet<std::num_put<char,std::ostreambuf_iterator<char,std::char_traits<char> > > >
PUBLIC	?put@?$num_put@DV?$ostreambuf_iterator@DU?$char_traits@D@std@@@std@@@std@@QBE?AV?$ostreambuf_iterator@DU?$char_traits@D@std@@@2@V32@AAVios_base@2@D_K@Z ; std::num_put<char,std::ostreambuf_iterator<char,std::char_traits<char> > >::put
PUBLIC	??0?$ostreambuf_iterator@DU?$char_traits@D@std@@@std@@QAE@PAV?$basic_streambuf@DU?$char_traits@D@std@@@1@@Z ; std::ostreambuf_iterator<char,std::char_traits<char> >::ostreambuf_iterator<char,std::char_traits<char> >
PUBLIC	?failed@?$ostreambuf_iterator@DU?$char_traits@D@std@@@std@@QBE_NXZ ; std::ostreambuf_iterator<char,std::char_traits<char> >::failed
PUBLIC	??6?$basic_ostream@DU?$char_traits@D@std@@@std@@QAEAAV01@_K@Z ; std::basic_ostream<char,std::char_traits<char> >::operator<<
PUBLIC	??_GOPSW@@QAEPAXI@Z				; OPSW::`scalar deleting destructor'
PUBLIC	??_GMT_SHA@@QAEPAXI@Z				; MT_SHA::`scalar deleting destructor'
PUBLIC	?eq_int_type@?$char_traits@D@std@@SA_NABH0@Z	; std::char_traits<char>::eq_int_type
PUBLIC	?eof@?$char_traits@D@std@@SAHXZ			; std::char_traits<char>::eof
PUBLIC	?width@ios_base@std@@QBEHXZ			; std::ios_base::width
PUBLIC	?width@ios_base@std@@QAEHH@Z			; std::ios_base::width
PUBLIC	?fill@?$basic_ios@DU?$char_traits@D@std@@@std@@QBEDXZ ; std::basic_ios<char,std::char_traits<char> >::fill
PUBLIC	?to_int_type@?$char_traits@D@std@@SAHABD@Z	; std::char_traits<char>::to_int_type
PUBLIC	?_Pninc@?$basic_streambuf@DU?$char_traits@D@std@@@std@@IAEPADXZ ; std::basic_streambuf<char,std::char_traits<char> >::_Pninc
PUBLIC	?_Pnavail@?$basic_streambuf@DU?$char_traits@D@std@@@std@@IBEHXZ ; std::basic_streambuf<char,std::char_traits<char> >::_Pnavail
PUBLIC	?sputc@?$basic_streambuf@DU?$char_traits@D@std@@@std@@QAEHD@Z ; std::basic_streambuf<char,std::char_traits<char> >::sputc
PUBLIC	?sputn@?$basic_streambuf@DU?$char_traits@D@std@@@std@@QAEHPBDH@Z ; std::basic_streambuf<char,std::char_traits<char> >::sputn
PUBLIC	?good@ios_base@std@@QBE_NXZ			; std::ios_base::good
PUBLIC	?tie@?$basic_ios@DU?$char_traits@D@std@@@std@@QBEPAV?$basic_ostream@DU?$char_traits@D@std@@@2@XZ ; std::basic_ios<char,std::char_traits<char> >::tie
PUBLIC	?_Lock@?$basic_streambuf@DU?$char_traits@D@std@@@std@@QAEXXZ ; std::basic_streambuf<char,std::char_traits<char> >::_Lock
PUBLIC	??0_Sentry_base@?$basic_ostream@DU?$char_traits@D@std@@@std@@QAE@AAV12@@Z ; std::basic_ostream<char,std::char_traits<char> >::_Sentry_base::_Sentry_base
PUBLIC	??0sentry@?$basic_ostream@DU?$char_traits@D@std@@@std@@QAE@AAV12@@Z ; std::basic_ostream<char,std::char_traits<char> >::sentry::sentry
PUBLIC	?flags@ios_base@std@@QBEHXZ			; std::ios_base::flags
PUBLIC	?fail@ios_base@std@@QBE_NXZ			; std::ios_base::fail
PUBLIC	?rdstate@ios_base@std@@QBEHXZ			; std::ios_base::rdstate
PUBLIC	??0?$allocator@D@std@@QAE@XZ			; std::allocator<char>::allocator<char>
PUBLIC	??0?$_String_val@DV?$allocator@D@std@@@std@@IAE@V?$allocator@D@1@@Z ; std::_String_val<char,std::allocator<char> >::_String_val<char,std::allocator<char> >
PUBLIC	?length@?$char_traits@D@std@@SAIPBD@Z		; std::char_traits<char>::length
PUBLIC	?_Inside@?$basic_string@DU?$char_traits@D@std@@V?$allocator@D@2@@std@@IAE_NPBD@Z ; std::basic_string<char,std::char_traits<char>,std::allocator<char> >::_Inside
PUBLIC	?assign@?$basic_string@DU?$char_traits@D@std@@V?$allocator@D@2@@std@@QAEAAV12@PBDI@Z ; std::basic_string<char,std::char_traits<char>,std::allocator<char> >::assign
PUBLIC	?assign@?$basic_string@DU?$char_traits@D@std@@V?$allocator@D@2@@std@@QAEAAV12@PBD@Z ; std::basic_string<char,std::char_traits<char>,std::allocator<char> >::assign
PUBLIC	??0?$basic_string@DU?$char_traits@D@std@@V?$allocator@D@2@@std@@QAE@PBD@Z ; std::basic_string<char,std::char_traits<char>,std::allocator<char> >::basic_string<char,std::char_traits<char>,std::allocator<char> >
PUBLIC	??0runtime_error@std@@QAE@ABV?$basic_string@DU?$char_traits@D@std@@V?$allocator@D@2@@1@@Z ; std::runtime_error::runtime_error
PUBLIC	??0failure@ios_base@std@@QAE@ABV?$basic_string@DU?$char_traits@D@std@@V?$allocator@D@2@@2@@Z ; std::ios_base::failure::failure
PUBLIC	??0?$allocator@D@std@@QAE@ABV01@@Z		; std::allocator<char>::allocator<char>
PUBLIC	??0?$_String_val@DV?$allocator@D@std@@@std@@QAE@ABV01@@Z ; std::_String_val<char,std::allocator<char> >::_String_val<char,std::allocator<char> >
PUBLIC	?_Move_s@?$char_traits@D@std@@SAPADPADIPBDI@Z	; std::char_traits<char>::_Move_s
PUBLIC	??$move_s@U?$char_traits@D@std@@@_Traits_helper@std@@YAPADPADIPBDIU_Secure_char_traits_tag@1@@Z ; std::_Traits_helper::move_s<std::char_traits<char> >
PUBLIC	??$move_s@U?$char_traits@D@std@@@_Traits_helper@std@@YAPADPADIPBDI@Z ; std::_Traits_helper::move_s<std::char_traits<char> >
PUBLIC	?erase@?$basic_string@DU?$char_traits@D@std@@V?$allocator@D@2@@std@@QAEAAV12@II@Z ; std::basic_string<char,std::char_traits<char>,std::allocator<char> >::erase
PUBLIC	?size@?$basic_string@DU?$char_traits@D@std@@V?$allocator@D@2@@std@@QBEIXZ ; std::basic_string<char,std::char_traits<char>,std::allocator<char> >::size
PUBLIC	??0bad_alloc@std@@QAE@PBD@Z			; std::bad_alloc::bad_alloc
PUBLIC	??1bad_alloc@std@@UAE@XZ			; std::bad_alloc::~bad_alloc
PUBLIC	??_Gbad_alloc@std@@UAEPAXI@Z			; std::bad_alloc::`scalar deleting destructor'
PUBLIC	??0bad_alloc@std@@QAE@ABV01@@Z			; std::bad_alloc::bad_alloc
PUBLIC	??$_Allocate@D@std@@YAPADIPAD@Z			; std::_Allocate<char>
PUBLIC	?allocate@?$allocator@D@std@@QAEPADI@Z		; std::allocator<char>::allocate
PUBLIC	?max_size@?$allocator@D@std@@QBEIXZ		; std::allocator<char>::max_size
PUBLIC	?max_size@?$basic_string@DU?$char_traits@D@std@@V?$allocator@D@2@@std@@QBEIXZ ; std::basic_string<char,std::char_traits<char>,std::allocator<char> >::max_size
PUBLIC	?_Copy@?$basic_string@DU?$char_traits@D@std@@V?$allocator@D@2@@std@@IAEXII@Z ; std::basic_string<char,std::char_traits<char>,std::allocator<char> >::_Copy
PUBLIC	?_Grow@?$basic_string@DU?$char_traits@D@std@@V?$allocator@D@2@@std@@IAE_NI_N@Z ; std::basic_string<char,std::char_traits<char>,std::allocator<char> >::_Grow
PUBLIC	?assign@?$basic_string@DU?$char_traits@D@std@@V?$allocator@D@2@@std@@QAEAAV12@ABV12@II@Z ; std::basic_string<char,std::char_traits<char>,std::allocator<char> >::assign
PUBLIC	??0?$basic_string@DU?$char_traits@D@std@@V?$allocator@D@2@@std@@QAE@ABV01@@Z ; std::basic_string<char,std::char_traits<char>,std::allocator<char> >::basic_string<char,std::char_traits<char>,std::allocator<char> >
PUBLIC	??0runtime_error@std@@QAE@ABV01@@Z		; std::runtime_error::runtime_error
PUBLIC	?deallocate@?$allocator@D@std@@QAEXPADI@Z	; std::allocator<char>::deallocate
PUBLIC	?assign@?$char_traits@D@std@@SAXAADABD@Z	; std::char_traits<char>::assign
PUBLIC	?_Myptr@?$basic_string@DU?$char_traits@D@std@@V?$allocator@D@2@@std@@IAEPADXZ ; std::basic_string<char,std::char_traits<char>,std::allocator<char> >::_Myptr
PUBLIC	?_Eos@?$basic_string@DU?$char_traits@D@std@@V?$allocator@D@2@@std@@IAEXI@Z ; std::basic_string<char,std::char_traits<char>,std::allocator<char> >::_Eos
PUBLIC	??$_Char_traits_cat@U?$char_traits@D@std@@@std@@YA?AU_Secure_char_traits_tag@0@XZ ; std::_Char_traits_cat<std::char_traits<char> >
PUBLIC	?_Copy_s@?$char_traits@D@std@@SAPADPADIPBDI@Z	; std::char_traits<char>::_Copy_s
PUBLIC	??$copy_s@U?$char_traits@D@std@@@_Traits_helper@std@@YAPADPADIPBDIU_Secure_char_traits_tag@1@@Z ; std::_Traits_helper::copy_s<std::char_traits<char> >
PUBLIC	??$copy_s@U?$char_traits@D@std@@@_Traits_helper@std@@YAPADPADIPBDI@Z ; std::_Traits_helper::copy_s<std::char_traits<char> >
PUBLIC	?_Tidy@?$basic_string@DU?$char_traits@D@std@@V?$allocator@D@2@@std@@IAEX_NI@Z ; std::basic_string<char,std::char_traits<char>,std::allocator<char> >::_Tidy
PUBLIC	??1?$basic_string@DU?$char_traits@D@std@@V?$allocator@D@2@@std@@QAE@XZ ; std::basic_string<char,std::char_traits<char>,std::allocator<char> >::~basic_string<char,std::char_traits<char>,std::allocator<char> >
PUBLIC	?_Myptr@?$basic_string@DU?$char_traits@D@std@@V?$allocator@D@2@@std@@IBEPBDXZ ; std::basic_string<char,std::char_traits<char>,std::allocator<char> >::_Myptr
PUBLIC	?c_str@?$basic_string@DU?$char_traits@D@std@@V?$allocator@D@2@@std@@QBEPBDXZ ; std::basic_string<char,std::char_traits<char>,std::allocator<char> >::c_str
PUBLIC	?what@runtime_error@std@@UBEPBDXZ		; std::runtime_error::what
PUBLIC	??_Gruntime_error@std@@UAEPAXI@Z		; std::runtime_error::`scalar deleting destructor'
PUBLIC	??1runtime_error@std@@UAE@XZ			; std::runtime_error::~runtime_error
PUBLIC	??1failure@ios_base@std@@UAE@XZ			; std::ios_base::failure::~failure
PUBLIC	??_Gfailure@ios_base@std@@UAEPAXI@Z		; std::ios_base::failure::`scalar deleting destructor'
PUBLIC	??0failure@ios_base@std@@QAE@ABV012@@Z		; std::ios_base::failure::failure
PUBLIC	?clear@ios_base@std@@QAEXH_N@Z			; std::ios_base::clear
PUBLIC	?clear@?$basic_ios@DU?$char_traits@D@std@@@std@@QAEXH_N@Z ; std::basic_ios<char,std::char_traits<char> >::clear
PUBLIC	?setstate@?$basic_ios@DU?$char_traits@D@std@@@std@@QAEXH_N@Z ; std::basic_ios<char,std::char_traits<char> >::setstate
PUBLIC	?pubsync@?$basic_streambuf@DU?$char_traits@D@std@@@std@@QAEHXZ ; std::basic_streambuf<char,std::char_traits<char> >::pubsync
PUBLIC	?flush@?$basic_ostream@DU?$char_traits@D@std@@@std@@QAEAAV12@XZ ; std::basic_ostream<char,std::char_traits<char> >::flush
PUBLIC	?_Osfx@?$basic_ostream@DU?$char_traits@D@std@@@std@@QAEXXZ ; std::basic_ostream<char,std::char_traits<char> >::_Osfx
PUBLIC	?rdbuf@?$basic_ios@DU?$char_traits@D@std@@@std@@QBEPAV?$basic_streambuf@DU?$char_traits@D@std@@@2@XZ ; std::basic_ios<char,std::char_traits<char> >::rdbuf
PUBLIC	?_Unlock@?$basic_streambuf@DU?$char_traits@D@std@@@std@@QAEXXZ ; std::basic_streambuf<char,std::char_traits<char> >::_Unlock
PUBLIC	??1_Sentry_base@?$basic_ostream@DU?$char_traits@D@std@@@std@@QAE@XZ ; std::basic_ostream<char,std::char_traits<char> >::_Sentry_base::~_Sentry_base
PUBLIC	??1sentry@?$basic_ostream@DU?$char_traits@D@std@@@std@@QAE@XZ ; std::basic_ostream<char,std::char_traits<char> >::sentry::~sentry
PUBLIC	??Bsentry@?$basic_ostream@DU?$char_traits@D@std@@@std@@QBE_NXZ ; std::basic_ostream<char,std::char_traits<char> >::sentry::operator bool
PUBLIC	??$?6U?$char_traits@D@std@@@std@@YAAAV?$basic_ostream@DU?$char_traits@D@std@@@0@AAV10@PBD@Z ; std::operator<<<std::char_traits<char> >
PUBLIC	??0id@locale@std@@QAE@I@Z			; std::locale::id::id
PUBLIC	?cOpsw@@3PAVOPSW@@A				; cOpsw
PUBLIC	?cRandom@@3PAVMT_SHA@@A				; cRandom
PUBLIC	??_C@_01CLKCMJKC@?5?$AA@			; `string'
PUBLIC	??_C@_0BC@MPENPPNL@Object?5Identifier?$AA@	; `string'
PUBLIC	??_C@_0BD@DEHKJKGA@Now?5enciphering?4?4?4?$AA@	; `string'
PUBLIC	??_C@_06MPKGPFAO@PKCS?$CD8?$AA@			; `string'
PUBLIC	??_C@_0BA@HLPOIFPO@undefined?5type?4?$AA@	; `string'
PUBLIC	??_C@_00CNPNBAHC@?$AA@				; `string'
PUBLIC	??_C@_0BD@MCLJHKGF@Now?5deciphering?4?4?4?$AA@	; `string'
PUBLIC	??_C@_0BL@MKNOCKIC@Success?4?6Process?5cycles?5?$DN?5?$AA@ ; `string'
PUBLIC	??_C@_02EAOCLKAK@ld?$AA@			; `string'
PUBLIC	??_C@_02BDDLJJBK@lu?$AA@			; `string'
PUBLIC	??_C@_02HIKPPMOK@Ld?$AA@			; `string'
PUBLIC	??_C@_02CLHGNPPK@Lu?$AA@			; `string'
PUBLIC	??_C@_02BBAHNLBA@?$CFp?$AA@			; `string'
PUBLIC	??_C@_01DDCIFGEA@E?$AA@				; `string'
PUBLIC	??_C@_01KGKMHCOC@e?$AA@				; `string'
PUBLIC	?_Psave@?$_Facetptr@V?$num_put@DV?$ostreambuf_iterator@DU?$char_traits@D@std@@@std@@@std@@@std@@2PBVfacet@locale@2@B ; std::_Facetptr<std::num_put<char,std::ostreambuf_iterator<char,std::char_traits<char> > > >::_Psave
PUBLIC	?_Psave@?$_Facetptr@V?$numpunct@D@std@@@std@@2PBVfacet@locale@2@B ; std::_Facetptr<std::numpunct<char> >::_Psave
PUBLIC	??_7?$numpunct@D@std@@6B@			; std::numpunct<char>::`vftable'
PUBLIC	??_7?$num_put@DV?$ostreambuf_iterator@DU?$char_traits@D@std@@@std@@@std@@6B@ ; std::num_put<char,std::ostreambuf_iterator<char,std::char_traits<char> > >::`vftable'
PUBLIC	??_R0?AVruntime_error@std@@@8			; std::runtime_error `RTTI Type Descriptor'
PUBLIC	??_R0?AVexception@std@@@8			; std::exception `RTTI Type Descriptor'
PUBLIC	__CT??_R0?AVruntime_error@std@@@8??0runtime_error@std@@QAE@ABV01@@Z40
PUBLIC	__CT??_R0?AVexception@std@@@8??0exception@std@@QAE@ABV01@@Z12
PUBLIC	??_C@_05LAPONLG@false?$AA@			; `string'
PUBLIC	??_C@_04LOAJBDKD@true?$AA@			; `string'
PUBLIC	??_C@_0BF@PHHKMMFD@ios_base?3?3badbit?5set?$AA@	; `string'
PUBLIC	??_C@_0BG@FMKFHCIL@ios_base?3?3failbit?5set?$AA@ ; `string'
PUBLIC	??_C@_0BF@OOHOMBOF@ios_base?3?3eofbit?5set?$AA@	; `string'
PUBLIC	??_R0?AVfailure@ios_base@std@@@8		; std::ios_base::failure `RTTI Type Descriptor'
PUBLIC	__CT??_R0?AVfailure@ios_base@std@@@8??0failure@ios_base@std@@QAE@ABV012@@Z40
PUBLIC	__CTA3?AVfailure@ios_base@std@@
PUBLIC	__TI3?AVfailure@ios_base@std@@
PUBLIC	?npos@?$basic_string@DU?$char_traits@D@std@@V?$allocator@D@2@@std@@2IB ; std::basic_string<char,std::char_traits<char>,std::allocator<char> >::npos
PUBLIC	??_C@_08EPJLHIJG@bad?5cast?$AA@			; `string'
PUBLIC	??_R0?AVbad_cast@std@@@8			; std::bad_cast `RTTI Type Descriptor'
PUBLIC	__CT??_R0?AVbad_cast@std@@@8??0bad_cast@std@@QAE@ABV01@@Z12
PUBLIC	__CTA2?AVbad_cast@std@@
PUBLIC	__TI2?AVbad_cast@std@@
PUBLIC	??_R0?AVbad_alloc@std@@@8			; std::bad_alloc `RTTI Type Descriptor'
PUBLIC	__CT??_R0?AVbad_alloc@std@@@8??0bad_alloc@std@@QAE@ABV01@@Z12
PUBLIC	__CTA2?AVbad_alloc@std@@
PUBLIC	__TI2?AVbad_alloc@std@@
PUBLIC	??_7bad_alloc@std@@6B@				; std::bad_alloc::`vftable'
PUBLIC	??_7ios_base@std@@6B@				; std::ios_base::`vftable'
PUBLIC	??_7?$basic_ios@DU?$char_traits@D@std@@@std@@6B@ ; std::basic_ios<char,std::char_traits<char> >::`vftable'
PUBLIC	??_7runtime_error@std@@6B@			; std::runtime_error::`vftable'
PUBLIC	??_7facet@locale@std@@6B@			; std::locale::facet::`vftable'
PUBLIC	??_7failure@ios_base@std@@6B@			; std::ios_base::failure::`vftable'
EXTRN	@__security_check_cookie@4:PROC
EXTRN	_exit:PROC
EXTRN	?setw@std@@YA?AU?$_Smanip@H@1@H@Z:PROC		; std::setw
EXTRN	_atexit:PROC
EXTRN	?_Ios_base_dtor@ios_base@std@@CAXPAV12@@Z:PROC	; std::ios_base::_Ios_base_dtor
EXTRN	??_Eios_base@std@@UAEPAXI@Z:PROC		; std::ios_base::`vector deleting destructor'
EXTRN	??_E?$basic_ios@DU?$char_traits@D@std@@@std@@UAEPAXI@Z:PROC ; std::basic_ios<char,std::char_traits<char> >::`vector deleting destructor'
EXTRN	__time64:PROC
EXTRN	_strcspn:PROC
EXTRN	__invalid_parameter_noinfo:PROC
EXTRN	_sprintf_s:PROC
EXTRN	_memchr:PROC
EXTRN	??0bad_cast@std@@QAE@PBD@Z:PROC			; std::bad_cast::bad_cast
EXTRN	?_Id_cnt@id@locale@std@@0HA:DWORD		; std::locale::id::_Id_cnt
EXTRN	?facet_Register@facet@locale@std@@CAXPAV123@@Z:PROC ; std::locale::facet::facet_Register
EXTRN	?_Getgloballocale@locale@std@@CAPAV_Locimp@12@XZ:PROC ; std::locale::_Getgloballocale
EXTRN	??1bad_cast@std@@UAE@XZ:PROC			; std::bad_cast::~bad_cast
EXTRN	??0bad_cast@std@@QAE@ABV01@@Z:PROC		; std::bad_cast::bad_cast
EXTRN	??0_Lockit@std@@QAE@H@Z:PROC			; std::_Lockit::_Lockit
EXTRN	?_Locinfo_ctor@_Locinfo@std@@SAXPAV12@ABV?$basic_string@DU?$char_traits@D@std@@V?$allocator@D@2@@2@@Z:PROC ; std::_Locinfo::_Locinfo_ctor
EXTRN	??1_Lockit@std@@QAE@XZ:PROC			; std::_Lockit::~_Lockit
EXTRN	?_Locinfo_dtor@_Locinfo@std@@SAXPAV12@@Z:PROC	; std::_Locinfo::_Locinfo_dtor
EXTRN	__Getcvt:PROC
EXTRN	_localeconv:PROC
EXTRN	??_U@YAPAXI@Z:PROC				; operator new[]
EXTRN	??_V@YAXPAX@Z:PROC				; operator delete[]
EXTRN	??_E?$numpunct@D@std@@MAEPAXI@Z:PROC		; std::numpunct<char>::`vector deleting destructor'
EXTRN	??_Efacet@locale@std@@UAEPAXI@Z:PROC		; std::locale::facet::`vector deleting destructor'
EXTRN	??_E?$num_put@DV?$ostreambuf_iterator@DU?$char_traits@D@std@@@std@@@std@@MAEPAXI@Z:PROC ; std::num_put<char,std::ostreambuf_iterator<char,std::char_traits<char> > >::`vector deleting destructor'
EXTRN	?cout@std@@3V?$basic_ostream@DU?$char_traits@D@std@@@1@A:BYTE ; std::cout
EXTRN	?_Lock@_Mutex@std@@QAEXXZ:PROC			; std::_Mutex::_Lock
EXTRN	?uncaught_exception@std@@YA_NXZ:PROC		; std::uncaught_exception
EXTRN	??0exception@std@@QAE@XZ:PROC			; std::exception::exception
EXTRN	?_Xran@_String_base@std@@SAXXZ:PROC		; std::_String_base::_Xran
EXTRN	_memmove_s:PROC
EXTRN	?_Xlen@_String_base@std@@SAXXZ:PROC		; std::_String_base::_Xlen
EXTRN	??2@YAPAXI@Z:PROC				; operator new
EXTRN	??0exception@std@@QAE@ABQBD@Z:PROC		; std::exception::exception
EXTRN	??0exception@std@@QAE@ABV01@@Z:PROC		; std::exception::exception
EXTRN	?what@exception@std@@UBEPBDXZ:PROC		; std::exception::what
EXTRN	??_Ebad_alloc@std@@UAEPAXI@Z:PROC		; std::bad_alloc::`vector deleting destructor'
EXTRN	??1exception@std@@UAE@XZ:PROC			; std::exception::~exception
EXTRN	_memcpy_s:PROC
EXTRN	??3@YAXPAX@Z:PROC				; operator delete
EXTRN	??_Eruntime_error@std@@UAEPAXI@Z:PROC		; std::runtime_error::`vector deleting destructor'
EXTRN	??_Efailure@ios_base@std@@UAEPAXI@Z:PROC	; std::ios_base::failure::`vector deleting destructor'
EXTRN	??_7type_info@@6B@:QWORD			; type_info::`vftable'
EXTRN	?_Unlock@_Mutex@std@@QAEXXZ:PROC		; std::_Mutex::_Unlock
?cOpsw@@3PAVOPSW@@A DD 01H DUP (?)			; cOpsw
?cRandom@@3PAVMT_SHA@@A DD 01H DUP (?)			; cRandom
;	COMDAT ?_Psave@?$_Facetptr@V?$num_put@DV?$ostreambuf_iterator@DU?$char_traits@D@std@@@std@@@std@@@std@@2PBVfacet@locale@2@B
_BSS	SEGMENT
?_Psave@?$_Facetptr@V?$num_put@DV?$ostreambuf_iterator@DU?$char_traits@D@std@@@std@@@std@@@std@@2PBVfacet@locale@2@B DD 01H DUP (?) ; std::_Facetptr<std::num_put<char,std::ostreambuf_iterator<char,std::char_traits<char> > > >::_Psave
_BSS	ENDS
;	COMDAT ?_Psave@?$_Facetptr@V?$numpunct@D@std@@@std@@2PBVfacet@locale@2@B
_BSS	SEGMENT
?_Psave@?$_Facetptr@V?$numpunct@D@std@@@std@@2PBVfacet@locale@2@B DD 01H DUP (?) ; std::_Facetptr<std::numpunct<char> >::_Psave
;	COMDAT ??_7failure@ios_base@std@@6B@
CONST	SEGMENT
??_7failure@ios_base@std@@6B@ DD FLAT:??_R4failure@ios_base@std@@6B@ ; std::ios_base::failure::`vftable'
	DD	FLAT:??_Efailure@ios_base@std@@UAEPAXI@Z
	DD	FLAT:?what@runtime_error@std@@UBEPBDXZ
CONST	ENDS
;	COMDAT ??_R4failure@ios_base@std@@6B@
rdata$r	SEGMENT
??_R4failure@ios_base@std@@6B@ DD 00H			; std::ios_base::failure::`RTTI Complete Object Locator'
	DD	00H
	DD	00H
	DD	FLAT:??_R0?AVfailure@ios_base@std@@@8
	DD	FLAT:??_R3failure@ios_base@std@@8
rdata$r	ENDS
;	COMDAT ??_R3failure@ios_base@std@@8
rdata$r	SEGMENT
??_R3failure@ios_base@std@@8 DD 00H			; std::ios_base::failure::`RTTI Class Hierarchy Descriptor'
	DD	00H
	DD	03H
	DD	FLAT:??_R2failure@ios_base@std@@8
rdata$r	ENDS
;	COMDAT ??_R2failure@ios_base@std@@8
rdata$r	SEGMENT
??_R2failure@ios_base@std@@8 DD FLAT:??_R1A@?0A@EA@failure@ios_base@std@@8 ; std::ios_base::failure::`RTTI Base Class Array'
	DD	FLAT:??_R1A@?0A@EA@runtime_error@std@@8
	DD	FLAT:??_R1A@?0A@EA@exception@std@@8
rdata$r	ENDS
;	COMDAT ??_R1A@?0A@EA@failure@ios_base@std@@8
rdata$r	SEGMENT
??_R1A@?0A@EA@failure@ios_base@std@@8 DD FLAT:??_R0?AVfailure@ios_base@std@@@8 ; std::ios_base::failure::`RTTI Base Class Descriptor at (0,-1,0,64)'
	DD	02H
	DD	00H
	DD	0ffffffffH
	DD	00H
	DD	040H
	DD	FLAT:??_R3failure@ios_base@std@@8
rdata$r	ENDS
;	COMDAT ??_7facet@locale@std@@6B@
CONST	SEGMENT
??_7facet@locale@std@@6B@ DD FLAT:??_R4facet@locale@std@@6B@ ; std::locale::facet::`vftable'
	DD	FLAT:??_Efacet@locale@std@@UAEPAXI@Z
CONST	ENDS
;	COMDAT ??_R4facet@locale@std@@6B@
rdata$r	SEGMENT
??_R4facet@locale@std@@6B@ DD 00H			; std::locale::facet::`RTTI Complete Object Locator'
	DD	00H
	DD	00H
	DD	FLAT:??_R0?AVfacet@locale@std@@@8
	DD	FLAT:??_R3facet@locale@std@@8
rdata$r	ENDS
;	COMDAT ??_7runtime_error@std@@6B@
CONST	SEGMENT
??_7runtime_error@std@@6B@ DD FLAT:??_R4runtime_error@std@@6B@ ; std::runtime_error::`vftable'
	DD	FLAT:??_Eruntime_error@std@@UAEPAXI@Z
	DD	FLAT:?what@runtime_error@std@@UBEPBDXZ
CONST	ENDS
;	COMDAT ??_R4runtime_error@std@@6B@
rdata$r	SEGMENT
??_R4runtime_error@std@@6B@ DD 00H			; std::runtime_error::`RTTI Complete Object Locator'
	DD	00H
	DD	00H
	DD	FLAT:??_R0?AVruntime_error@std@@@8
	DD	FLAT:??_R3runtime_error@std@@8
rdata$r	ENDS
;	COMDAT ??_R3runtime_error@std@@8
rdata$r	SEGMENT
??_R3runtime_error@std@@8 DD 00H			; std::runtime_error::`RTTI Class Hierarchy Descriptor'
	DD	00H
	DD	02H
	DD	FLAT:??_R2runtime_error@std@@8
rdata$r	ENDS
;	COMDAT ??_R2runtime_error@std@@8
rdata$r	SEGMENT
??_R2runtime_error@std@@8 DD FLAT:??_R1A@?0A@EA@runtime_error@std@@8 ; std::runtime_error::`RTTI Base Class Array'
	DD	FLAT:??_R1A@?0A@EA@exception@std@@8
rdata$r	ENDS
;	COMDAT ??_R1A@?0A@EA@runtime_error@std@@8
rdata$r	SEGMENT
??_R1A@?0A@EA@runtime_error@std@@8 DD FLAT:??_R0?AVruntime_error@std@@@8 ; std::runtime_error::`RTTI Base Class Descriptor at (0,-1,0,64)'
	DD	01H
	DD	00H
	DD	0ffffffffH
	DD	00H
	DD	040H
	DD	FLAT:??_R3runtime_error@std@@8
rdata$r	ENDS
;	COMDAT ??_7?$basic_ios@DU?$char_traits@D@std@@@std@@6B@
CONST	SEGMENT
??_7?$basic_ios@DU?$char_traits@D@std@@@std@@6B@ DD FLAT:??_R4?$basic_ios@DU?$char_traits@D@std@@@std@@6B@ ; std::basic_ios<char,std::char_traits<char> >::`vftable'
	DD	FLAT:??_E?$basic_ios@DU?$char_traits@D@std@@@std@@UAEPAXI@Z
CONST	ENDS
;	COMDAT ??_R4?$basic_ios@DU?$char_traits@D@std@@@std@@6B@
rdata$r	SEGMENT
??_R4?$basic_ios@DU?$char_traits@D@std@@@std@@6B@ DD 00H ; std::basic_ios<char,std::char_traits<char> >::`RTTI Complete Object Locator'
	DD	00H
	DD	00H
	DD	FLAT:??_R0?AV?$basic_ios@DU?$char_traits@D@std@@@std@@@8
	DD	FLAT:??_R3?$basic_ios@DU?$char_traits@D@std@@@std@@8
rdata$r	ENDS
;	COMDAT ??_R3?$basic_ios@DU?$char_traits@D@std@@@std@@8
rdata$r	SEGMENT
??_R3?$basic_ios@DU?$char_traits@D@std@@@std@@8 DD 00H	; std::basic_ios<char,std::char_traits<char> >::`RTTI Class Hierarchy Descriptor'
	DD	00H
	DD	03H
	DD	FLAT:??_R2?$basic_ios@DU?$char_traits@D@std@@@std@@8
rdata$r	ENDS
;	COMDAT ??_R2?$basic_ios@DU?$char_traits@D@std@@@std@@8
rdata$r	SEGMENT
??_R2?$basic_ios@DU?$char_traits@D@std@@@std@@8 DD FLAT:??_R1A@?0A@EA@?$basic_ios@DU?$char_traits@D@std@@@std@@8 ; std::basic_ios<char,std::char_traits<char> >::`RTTI Base Class Array'
	DD	FLAT:??_R1A@?0A@EA@ios_base@std@@8
	DD	FLAT:??_R13?0A@EA@?$_Iosb@H@std@@8
rdata$r	ENDS
;	COMDAT ??_R1A@?0A@EA@?$basic_ios@DU?$char_traits@D@std@@@std@@8
rdata$r	SEGMENT
??_R1A@?0A@EA@?$basic_ios@DU?$char_traits@D@std@@@std@@8 DD FLAT:??_R0?AV?$basic_ios@DU?$char_traits@D@std@@@std@@@8 ; std::basic_ios<char,std::char_traits<char> >::`RTTI Base Class Descriptor at (0,-1,0,64)'
	DD	02H
	DD	00H
	DD	0ffffffffH
	DD	00H
	DD	040H
	DD	FLAT:??_R3?$basic_ios@DU?$char_traits@D@std@@@std@@8
rdata$r	ENDS
;	COMDAT ??_R0?AV?$basic_ios@DU?$char_traits@D@std@@@std@@@8
_DATA	SEGMENT
??_R0?AV?$basic_ios@DU?$char_traits@D@std@@@std@@@8 DD FLAT:??_7type_info@@6B@ ; std::basic_ios<char,std::char_traits<char> > `RTTI Type Descriptor'
	DD	00H
	DB	'.?AV?$basic_ios@DU?$char_traits@D@std@@@std@@', 00H
_DATA	ENDS
;	COMDAT ??_7ios_base@std@@6B@
CONST	SEGMENT
??_7ios_base@std@@6B@ DD FLAT:??_R4ios_base@std@@6B@	; std::ios_base::`vftable'
	DD	FLAT:??_Eios_base@std@@UAEPAXI@Z
CONST	ENDS
;	COMDAT ??_R4ios_base@std@@6B@
rdata$r	SEGMENT
??_R4ios_base@std@@6B@ DD 00H				; std::ios_base::`RTTI Complete Object Locator'
	DD	00H
	DD	00H
	DD	FLAT:??_R0?AVios_base@std@@@8
	DD	FLAT:??_R3ios_base@std@@8
rdata$r	ENDS
;	COMDAT ??_R3ios_base@std@@8
rdata$r	SEGMENT
??_R3ios_base@std@@8 DD 00H				; std::ios_base::`RTTI Class Hierarchy Descriptor'
	DD	00H
	DD	02H
	DD	FLAT:??_R2ios_base@std@@8
rdata$r	ENDS
;	COMDAT ??_R2ios_base@std@@8
rdata$r	SEGMENT
??_R2ios_base@std@@8 DD FLAT:??_R1A@?0A@EA@ios_base@std@@8 ; std::ios_base::`RTTI Base Class Array'
	DD	FLAT:??_R13?0A@EA@?$_Iosb@H@std@@8
rdata$r	ENDS
;	COMDAT ??_R13?0A@EA@?$_Iosb@H@std@@8
rdata$r	SEGMENT
??_R13?0A@EA@?$_Iosb@H@std@@8 DD FLAT:??_R0?AV?$_Iosb@H@std@@@8 ; std::_Iosb<int>::`RTTI Base Class Descriptor at (4,-1,0,64)'
	DD	00H
	DD	04H
	DD	0ffffffffH
	DD	00H
	DD	040H
	DD	FLAT:??_R3?$_Iosb@H@std@@8
rdata$r	ENDS
;	COMDAT ??_R3?$_Iosb@H@std@@8
rdata$r	SEGMENT
??_R3?$_Iosb@H@std@@8 DD 00H				; std::_Iosb<int>::`RTTI Class Hierarchy Descriptor'
	DD	00H
	DD	01H
	DD	FLAT:??_R2?$_Iosb@H@std@@8
rdata$r	ENDS
;	COMDAT ??_R2?$_Iosb@H@std@@8
rdata$r	SEGMENT
??_R2?$_Iosb@H@std@@8 DD FLAT:??_R1A@?0A@EA@?$_Iosb@H@std@@8 ; std::_Iosb<int>::`RTTI Base Class Array'
rdata$r	ENDS
;	COMDAT ??_R1A@?0A@EA@?$_Iosb@H@std@@8
rdata$r	SEGMENT
??_R1A@?0A@EA@?$_Iosb@H@std@@8 DD FLAT:??_R0?AV?$_Iosb@H@std@@@8 ; std::_Iosb<int>::`RTTI Base Class Descriptor at (0,-1,0,64)'
	DD	00H
	DD	00H
	DD	0ffffffffH
	DD	00H
	DD	040H
	DD	FLAT:??_R3?$_Iosb@H@std@@8
rdata$r	ENDS
;	COMDAT ??_R0?AV?$_Iosb@H@std@@@8
_DATA	SEGMENT
??_R0?AV?$_Iosb@H@std@@@8 DD FLAT:??_7type_info@@6B@	; std::_Iosb<int> `RTTI Type Descriptor'
	DD	00H
	DB	'.?AV?$_Iosb@H@std@@', 00H
_DATA	ENDS
;	COMDAT ??_R1A@?0A@EA@ios_base@std@@8
rdata$r	SEGMENT
??_R1A@?0A@EA@ios_base@std@@8 DD FLAT:??_R0?AVios_base@std@@@8 ; std::ios_base::`RTTI Base Class Descriptor at (0,-1,0,64)'
	DD	01H
	DD	00H
	DD	0ffffffffH
	DD	00H
	DD	040H
	DD	FLAT:??_R3ios_base@std@@8
rdata$r	ENDS
;	COMDAT ??_R0?AVios_base@std@@@8
_DATA	SEGMENT
??_R0?AVios_base@std@@@8 DD FLAT:??_7type_info@@6B@	; std::ios_base `RTTI Type Descriptor'
	DD	00H
	DB	'.?AVios_base@std@@', 00H
_DATA	ENDS
;	COMDAT ??_7bad_alloc@std@@6B@
CONST	SEGMENT
??_7bad_alloc@std@@6B@ DD FLAT:??_R4bad_alloc@std@@6B@	; std::bad_alloc::`vftable'
	DD	FLAT:??_Ebad_alloc@std@@UAEPAXI@Z
	DD	FLAT:?what@exception@std@@UBEPBDXZ
CONST	ENDS
;	COMDAT ??_R4bad_alloc@std@@6B@
rdata$r	SEGMENT
??_R4bad_alloc@std@@6B@ DD 00H				; std::bad_alloc::`RTTI Complete Object Locator'
	DD	00H
	DD	00H
	DD	FLAT:??_R0?AVbad_alloc@std@@@8
	DD	FLAT:??_R3bad_alloc@std@@8
rdata$r	ENDS
;	COMDAT ??_R3bad_alloc@std@@8
rdata$r	SEGMENT
??_R3bad_alloc@std@@8 DD 00H				; std::bad_alloc::`RTTI Class Hierarchy Descriptor'
	DD	00H
	DD	02H
	DD	FLAT:??_R2bad_alloc@std@@8
rdata$r	ENDS
;	COMDAT ??_R2bad_alloc@std@@8
rdata$r	SEGMENT
??_R2bad_alloc@std@@8 DD FLAT:??_R1A@?0A@EA@bad_alloc@std@@8 ; std::bad_alloc::`RTTI Base Class Array'
	DD	FLAT:??_R1A@?0A@EA@exception@std@@8
rdata$r	ENDS
;	COMDAT ??_R1A@?0A@EA@exception@std@@8
rdata$r	SEGMENT
??_R1A@?0A@EA@exception@std@@8 DD FLAT:??_R0?AVexception@std@@@8 ; std::exception::`RTTI Base Class Descriptor at (0,-1,0,64)'
	DD	00H
	DD	00H
	DD	0ffffffffH
	DD	00H
	DD	040H
	DD	FLAT:??_R3exception@std@@8
rdata$r	ENDS
;	COMDAT ??_R3exception@std@@8
rdata$r	SEGMENT
??_R3exception@std@@8 DD 00H				; std::exception::`RTTI Class Hierarchy Descriptor'
	DD	00H
	DD	01H
	DD	FLAT:??_R2exception@std@@8
rdata$r	ENDS
;	COMDAT ??_R2exception@std@@8
rdata$r	SEGMENT
??_R2exception@std@@8 DD FLAT:??_R1A@?0A@EA@exception@std@@8 ; std::exception::`RTTI Base Class Array'
rdata$r	ENDS
;	COMDAT ??_R1A@?0A@EA@bad_alloc@std@@8
rdata$r	SEGMENT
??_R1A@?0A@EA@bad_alloc@std@@8 DD FLAT:??_R0?AVbad_alloc@std@@@8 ; std::bad_alloc::`RTTI Base Class Descriptor at (0,-1,0,64)'
	DD	01H
	DD	00H
	DD	0ffffffffH
	DD	00H
	DD	040H
	DD	FLAT:??_R3bad_alloc@std@@8
rdata$r	ENDS
;	COMDAT __TI2?AVbad_alloc@std@@
xdata$x	SEGMENT
__TI2?AVbad_alloc@std@@ DD 00H
	DD	FLAT:??1bad_alloc@std@@UAE@XZ
	DD	00H
	DD	FLAT:__CTA2?AVbad_alloc@std@@
xdata$x	ENDS
;	COMDAT __CTA2?AVbad_alloc@std@@
xdata$x	SEGMENT
__CTA2?AVbad_alloc@std@@ DD 02H
	DD	FLAT:__CT??_R0?AVbad_alloc@std@@@8??0bad_alloc@std@@QAE@ABV01@@Z12
	DD	FLAT:__CT??_R0?AVexception@std@@@8??0exception@std@@QAE@ABV01@@Z12
xdata$x	ENDS
;	COMDAT __CT??_R0?AVbad_alloc@std@@@8??0bad_alloc@std@@QAE@ABV01@@Z12
xdata$x	SEGMENT
__CT??_R0?AVbad_alloc@std@@@8??0bad_alloc@std@@QAE@ABV01@@Z12 DD 00H
	DD	FLAT:??_R0?AVbad_alloc@std@@@8
	DD	00H
	DD	0ffffffffH
	ORG $+4
	DD	0cH
	DD	FLAT:??0bad_alloc@std@@QAE@ABV01@@Z
xdata$x	ENDS
;	COMDAT ??_R0?AVbad_alloc@std@@@8
_DATA	SEGMENT
??_R0?AVbad_alloc@std@@@8 DD FLAT:??_7type_info@@6B@	; std::bad_alloc `RTTI Type Descriptor'
	DD	00H
	DB	'.?AVbad_alloc@std@@', 00H
_DATA	ENDS
;	COMDAT __TI2?AVbad_cast@std@@
xdata$x	SEGMENT
__TI2?AVbad_cast@std@@ DD 00H
	DD	FLAT:??1bad_cast@std@@UAE@XZ
	DD	00H
	DD	FLAT:__CTA2?AVbad_cast@std@@
xdata$x	ENDS
;	COMDAT __CTA2?AVbad_cast@std@@
xdata$x	SEGMENT
__CTA2?AVbad_cast@std@@ DD 02H
	DD	FLAT:__CT??_R0?AVbad_cast@std@@@8??0bad_cast@std@@QAE@ABV01@@Z12
	DD	FLAT:__CT??_R0?AVexception@std@@@8??0exception@std@@QAE@ABV01@@Z12
xdata$x	ENDS
;	COMDAT __CT??_R0?AVbad_cast@std@@@8??0bad_cast@std@@QAE@ABV01@@Z12
xdata$x	SEGMENT
__CT??_R0?AVbad_cast@std@@@8??0bad_cast@std@@QAE@ABV01@@Z12 DD 00H
	DD	FLAT:??_R0?AVbad_cast@std@@@8
	DD	00H
	DD	0ffffffffH
	ORG $+4
	DD	0cH
	DD	FLAT:??0bad_cast@std@@QAE@ABV01@@Z
xdata$x	ENDS
;	COMDAT ??_R0?AVbad_cast@std@@@8
_DATA	SEGMENT
??_R0?AVbad_cast@std@@@8 DD FLAT:??_7type_info@@6B@	; std::bad_cast `RTTI Type Descriptor'
	DD	00H
	DB	'.?AVbad_cast@std@@', 00H
_DATA	ENDS
;	COMDAT ??_C@_08EPJLHIJG@bad?5cast?$AA@
CONST	SEGMENT
??_C@_08EPJLHIJG@bad?5cast?$AA@ DB 'bad cast', 00H	; `string'
CONST	ENDS
;	COMDAT ?npos@?$basic_string@DU?$char_traits@D@std@@V?$allocator@D@2@@std@@2IB
CONST	SEGMENT
?npos@?$basic_string@DU?$char_traits@D@std@@V?$allocator@D@2@@std@@2IB DD 0ffffffffH ; std::basic_string<char,std::char_traits<char>,std::allocator<char> >::npos
CONST	ENDS
;	COMDAT __TI3?AVfailure@ios_base@std@@
xdata$x	SEGMENT
__TI3?AVfailure@ios_base@std@@ DD 00H
	DD	FLAT:??1failure@ios_base@std@@UAE@XZ
	DD	00H
	DD	FLAT:__CTA3?AVfailure@ios_base@std@@
xdata$x	ENDS
;	COMDAT __CTA3?AVfailure@ios_base@std@@
xdata$x	SEGMENT
__CTA3?AVfailure@ios_base@std@@ DD 03H
	DD	FLAT:__CT??_R0?AVfailure@ios_base@std@@@8??0failure@ios_base@std@@QAE@ABV012@@Z40
	DD	FLAT:__CT??_R0?AVruntime_error@std@@@8??0runtime_error@std@@QAE@ABV01@@Z40
	DD	FLAT:__CT??_R0?AVexception@std@@@8??0exception@std@@QAE@ABV01@@Z12
xdata$x	ENDS
;	COMDAT __CT??_R0?AVfailure@ios_base@std@@@8??0failure@ios_base@std@@QAE@ABV012@@Z40
xdata$x	SEGMENT
__CT??_R0?AVfailure@ios_base@std@@@8??0failure@ios_base@std@@QAE@ABV012@@Z40 DD 00H
	DD	FLAT:??_R0?AVfailure@ios_base@std@@@8
	DD	00H
	DD	0ffffffffH
	ORG $+4
	DD	028H
	DD	FLAT:??0failure@ios_base@std@@QAE@ABV012@@Z
xdata$x	ENDS
;	COMDAT ??_R0?AVfailure@ios_base@std@@@8
_DATA	SEGMENT
??_R0?AVfailure@ios_base@std@@@8 DD FLAT:??_7type_info@@6B@ ; std::ios_base::failure `RTTI Type Descriptor'
	DD	00H
	DB	'.?AVfailure@ios_base@std@@', 00H
_DATA	ENDS
;	COMDAT ??_C@_0BF@OOHOMBOF@ios_base?3?3eofbit?5set?$AA@
CONST	SEGMENT
??_C@_0BF@OOHOMBOF@ios_base?3?3eofbit?5set?$AA@ DB 'ios_base::eofbit set', 00H ; `string'
CONST	ENDS
;	COMDAT ??_C@_0BG@FMKFHCIL@ios_base?3?3failbit?5set?$AA@
CONST	SEGMENT
??_C@_0BG@FMKFHCIL@ios_base?3?3failbit?5set?$AA@ DB 'ios_base::failbit se'
	DB	't', 00H					; `string'
CONST	ENDS
;	COMDAT ??_C@_0BF@PHHKMMFD@ios_base?3?3badbit?5set?$AA@
CONST	SEGMENT
??_C@_0BF@PHHKMMFD@ios_base?3?3badbit?5set?$AA@ DB 'ios_base::badbit set', 00H ; `string'
CONST	ENDS
;	COMDAT ??_C@_04LOAJBDKD@true?$AA@
CONST	SEGMENT
??_C@_04LOAJBDKD@true?$AA@ DB 'true', 00H		; `string'
CONST	ENDS
;	COMDAT ??_C@_05LAPONLG@false?$AA@
CONST	SEGMENT
??_C@_05LAPONLG@false?$AA@ DB 'false', 00H		; `string'
CONST	ENDS
;	COMDAT __CT??_R0?AVexception@std@@@8??0exception@std@@QAE@ABV01@@Z12
xdata$x	SEGMENT
__CT??_R0?AVexception@std@@@8??0exception@std@@QAE@ABV01@@Z12 DD 00H
	DD	FLAT:??_R0?AVexception@std@@@8
	DD	00H
	DD	0ffffffffH
	ORG $+4
	DD	0cH
	DD	FLAT:??0exception@std@@QAE@ABV01@@Z
xdata$x	ENDS
;	COMDAT __CT??_R0?AVruntime_error@std@@@8??0runtime_error@std@@QAE@ABV01@@Z40
xdata$x	SEGMENT
__CT??_R0?AVruntime_error@std@@@8??0runtime_error@std@@QAE@ABV01@@Z40 DD 00H
	DD	FLAT:??_R0?AVruntime_error@std@@@8
	DD	00H
	DD	0ffffffffH
	ORG $+4
	DD	028H
	DD	FLAT:??0runtime_error@std@@QAE@ABV01@@Z
xdata$x	ENDS
;	COMDAT ??_R0?AVexception@std@@@8
_DATA	SEGMENT
??_R0?AVexception@std@@@8 DD FLAT:??_7type_info@@6B@	; std::exception `RTTI Type Descriptor'
	DD	00H
	DB	'.?AVexception@std@@', 00H
_DATA	ENDS
;	COMDAT ??_R0?AVruntime_error@std@@@8
_DATA	SEGMENT
??_R0?AVruntime_error@std@@@8 DD FLAT:??_7type_info@@6B@ ; std::runtime_error `RTTI Type Descriptor'
	DD	00H
	DB	'.?AVruntime_error@std@@', 00H
_DATA	ENDS
;	COMDAT ??_7?$num_put@DV?$ostreambuf_iterator@DU?$char_traits@D@std@@@std@@@std@@6B@
CONST	SEGMENT
??_7?$num_put@DV?$ostreambuf_iterator@DU?$char_traits@D@std@@@std@@@std@@6B@ DD FLAT:??_R4?$num_put@DV?$ostreambuf_iterator@DU?$char_traits@D@std@@@std@@@std@@6B@ ; std::num_put<char,std::ostreambuf_iterator<char,std::char_traits<char> > >::`vftable'
	DD	FLAT:??_E?$num_put@DV?$ostreambuf_iterator@DU?$char_traits@D@std@@@std@@@std@@MAEPAXI@Z
	DD	FLAT:?do_put@?$num_put@DV?$ostreambuf_iterator@DU?$char_traits@D@std@@@std@@@std@@MBE?AV?$ostreambuf_iterator@DU?$char_traits@D@std@@@2@V32@AAVios_base@2@DPBX@Z
	DD	FLAT:?do_put@?$num_put@DV?$ostreambuf_iterator@DU?$char_traits@D@std@@@std@@@std@@MBE?AV?$ostreambuf_iterator@DU?$char_traits@D@std@@@2@V32@AAVios_base@2@DO@Z
	DD	FLAT:?do_put@?$num_put@DV?$ostreambuf_iterator@DU?$char_traits@D@std@@@std@@@std@@MBE?AV?$ostreambuf_iterator@DU?$char_traits@D@std@@@2@V32@AAVios_base@2@DN@Z
	DD	FLAT:?do_put@?$num_put@DV?$ostreambuf_iterator@DU?$char_traits@D@std@@@std@@@std@@MBE?AV?$ostreambuf_iterator@DU?$char_traits@D@std@@@2@V32@AAVios_base@2@D_K@Z
	DD	FLAT:?do_put@?$num_put@DV?$ostreambuf_iterator@DU?$char_traits@D@std@@@std@@@std@@MBE?AV?$ostreambuf_iterator@DU?$char_traits@D@std@@@2@V32@AAVios_base@2@D_J@Z
	DD	FLAT:?do_put@?$num_put@DV?$ostreambuf_iterator@DU?$char_traits@D@std@@@std@@@std@@MBE?AV?$ostreambuf_iterator@DU?$char_traits@D@std@@@2@V32@AAVios_base@2@DK@Z
	DD	FLAT:?do_put@?$num_put@DV?$ostreambuf_iterator@DU?$char_traits@D@std@@@std@@@std@@MBE?AV?$ostreambuf_iterator@DU?$char_traits@D@std@@@2@V32@AAVios_base@2@DJ@Z
	DD	FLAT:?do_put@?$num_put@DV?$ostreambuf_iterator@DU?$char_traits@D@std@@@std@@@std@@MBE?AV?$ostreambuf_iterator@DU?$char_traits@D@std@@@2@V32@AAVios_base@2@D_N@Z
CONST	ENDS
;	COMDAT ??_R4?$num_put@DV?$ostreambuf_iterator@DU?$char_traits@D@std@@@std@@@std@@6B@
rdata$r	SEGMENT
??_R4?$num_put@DV?$ostreambuf_iterator@DU?$char_traits@D@std@@@std@@@std@@6B@ DD 00H ; std::num_put<char,std::ostreambuf_iterator<char,std::char_traits<char> > >::`RTTI Complete Object Locator'
	DD	00H
	DD	00H
	DD	FLAT:??_R0?AV?$num_put@DV?$ostreambuf_iterator@DU?$char_traits@D@std@@@std@@@std@@@8
	DD	FLAT:??_R3?$num_put@DV?$ostreambuf_iterator@DU?$char_traits@D@std@@@std@@@std@@8
rdata$r	ENDS
;	COMDAT ??_R3?$num_put@DV?$ostreambuf_iterator@DU?$char_traits@D@std@@@std@@@std@@8
rdata$r	SEGMENT
??_R3?$num_put@DV?$ostreambuf_iterator@DU?$char_traits@D@std@@@std@@@std@@8 DD 00H ; std::num_put<char,std::ostreambuf_iterator<char,std::char_traits<char> > >::`RTTI Class Hierarchy Descriptor'
	DD	00H
	DD	02H
	DD	FLAT:??_R2?$num_put@DV?$ostreambuf_iterator@DU?$char_traits@D@std@@@std@@@std@@8
rdata$r	ENDS
;	COMDAT ??_R2?$num_put@DV?$ostreambuf_iterator@DU?$char_traits@D@std@@@std@@@std@@8
rdata$r	SEGMENT
??_R2?$num_put@DV?$ostreambuf_iterator@DU?$char_traits@D@std@@@std@@@std@@8 DD FLAT:??_R1A@?0A@EA@?$num_put@DV?$ostreambuf_iterator@DU?$char_traits@D@std@@@std@@@std@@8 ; std::num_put<char,std::ostreambuf_iterator<char,std::char_traits<char> > >::`RTTI Base Class Array'
	DD	FLAT:??_R1A@?0A@EA@facet@locale@std@@8
rdata$r	ENDS
;	COMDAT ??_R1A@?0A@EA@?$num_put@DV?$ostreambuf_iterator@DU?$char_traits@D@std@@@std@@@std@@8
rdata$r	SEGMENT
??_R1A@?0A@EA@?$num_put@DV?$ostreambuf_iterator@DU?$char_traits@D@std@@@std@@@std@@8 DD FLAT:??_R0?AV?$num_put@DV?$ostreambuf_iterator@DU?$char_traits@D@std@@@std@@@std@@@8 ; std::num_put<char,std::ostreambuf_iterator<char,std::char_traits<char> > >::`RTTI Base Class Descriptor at (0,-1,0,64)'
	DD	01H
	DD	00H
	DD	0ffffffffH
	DD	00H
	DD	040H
	DD	FLAT:??_R3?$num_put@DV?$ostreambuf_iterator@DU?$char_traits@D@std@@@std@@@std@@8
rdata$r	ENDS
;	COMDAT ??_R0?AV?$num_put@DV?$ostreambuf_iterator@DU?$char_traits@D@std@@@std@@@std@@@8
_DATA	SEGMENT
??_R0?AV?$num_put@DV?$ostreambuf_iterator@DU?$char_traits@D@std@@@std@@@std@@@8 DD FLAT:??_7type_info@@6B@ ; std::num_put<char,std::ostreambuf_iterator<char,std::char_traits<char> > > `RTTI Type Descriptor'
	DD	00H
	DB	'.?AV?$num_put@DV?$ostreambuf_iterator@DU?$char_traits@D@'
	DB	'std@@@std@@@std@@', 00H
_DATA	ENDS
;	COMDAT ??_7?$numpunct@D@std@@6B@
CONST	SEGMENT
??_7?$numpunct@D@std@@6B@ DD FLAT:??_R4?$numpunct@D@std@@6B@ ; std::numpunct<char>::`vftable'
	DD	FLAT:??_E?$numpunct@D@std@@MAEPAXI@Z
	DD	FLAT:?do_decimal_point@?$numpunct@D@std@@MBEDXZ
	DD	FLAT:?do_thousands_sep@?$numpunct@D@std@@MBEDXZ
	DD	FLAT:?do_grouping@?$numpunct@D@std@@MBE?AV?$basic_string@DU?$char_traits@D@std@@V?$allocator@D@2@@2@XZ
	DD	FLAT:?do_falsename@?$numpunct@D@std@@MBE?AV?$basic_string@DU?$char_traits@D@std@@V?$allocator@D@2@@2@XZ
	DD	FLAT:?do_truename@?$numpunct@D@std@@MBE?AV?$basic_string@DU?$char_traits@D@std@@V?$allocator@D@2@@2@XZ
CONST	ENDS
;	COMDAT ??_R4?$numpunct@D@std@@6B@
rdata$r	SEGMENT
??_R4?$numpunct@D@std@@6B@ DD 00H			; std::numpunct<char>::`RTTI Complete Object Locator'
	DD	00H
	DD	00H
	DD	FLAT:??_R0?AV?$numpunct@D@std@@@8
	DD	FLAT:??_R3?$numpunct@D@std@@8
rdata$r	ENDS
;	COMDAT ??_R3?$numpunct@D@std@@8
rdata$r	SEGMENT
??_R3?$numpunct@D@std@@8 DD 00H				; std::numpunct<char>::`RTTI Class Hierarchy Descriptor'
	DD	00H
	DD	02H
	DD	FLAT:??_R2?$numpunct@D@std@@8
rdata$r	ENDS
;	COMDAT ??_R2?$numpunct@D@std@@8
rdata$r	SEGMENT
??_R2?$numpunct@D@std@@8 DD FLAT:??_R1A@?0A@EA@?$numpunct@D@std@@8 ; std::numpunct<char>::`RTTI Base Class Array'
	DD	FLAT:??_R1A@?0A@EA@facet@locale@std@@8
rdata$r	ENDS
;	COMDAT ??_R1A@?0A@EA@facet@locale@std@@8
rdata$r	SEGMENT
??_R1A@?0A@EA@facet@locale@std@@8 DD FLAT:??_R0?AVfacet@locale@std@@@8 ; std::locale::facet::`RTTI Base Class Descriptor at (0,-1,0,64)'
	DD	00H
	DD	00H
	DD	0ffffffffH
	DD	00H
	DD	040H
	DD	FLAT:??_R3facet@locale@std@@8
rdata$r	ENDS
;	COMDAT ??_R3facet@locale@std@@8
rdata$r	SEGMENT
??_R3facet@locale@std@@8 DD 00H				; std::locale::facet::`RTTI Class Hierarchy Descriptor'
	DD	00H
	DD	01H
	DD	FLAT:??_R2facet@locale@std@@8
rdata$r	ENDS
;	COMDAT ??_R2facet@locale@std@@8
rdata$r	SEGMENT
??_R2facet@locale@std@@8 DD FLAT:??_R1A@?0A@EA@facet@locale@std@@8 ; std::locale::facet::`RTTI Base Class Array'
rdata$r	ENDS
;	COMDAT ??_R0?AVfacet@locale@std@@@8
_DATA	SEGMENT
??_R0?AVfacet@locale@std@@@8 DD FLAT:??_7type_info@@6B@	; std::locale::facet `RTTI Type Descriptor'
	DD	00H
	DB	'.?AVfacet@locale@std@@', 00H
_DATA	ENDS
;	COMDAT ??_R1A@?0A@EA@?$numpunct@D@std@@8
rdata$r	SEGMENT
??_R1A@?0A@EA@?$numpunct@D@std@@8 DD FLAT:??_R0?AV?$numpunct@D@std@@@8 ; std::numpunct<char>::`RTTI Base Class Descriptor at (0,-1,0,64)'
	DD	01H
	DD	00H
	DD	0ffffffffH
	DD	00H
	DD	040H
	DD	FLAT:??_R3?$numpunct@D@std@@8
rdata$r	ENDS
;	COMDAT ??_R0?AV?$numpunct@D@std@@@8
_DATA	SEGMENT
??_R0?AV?$numpunct@D@std@@@8 DD FLAT:??_7type_info@@6B@	; std::numpunct<char> `RTTI Type Descriptor'
	DD	00H
	DB	'.?AV?$numpunct@D@std@@', 00H
_DATA	ENDS
;	COMDAT ??_C@_01KGKMHCOC@e?$AA@
CONST	SEGMENT
??_C@_01KGKMHCOC@e?$AA@ DB 'e', 00H			; `string'
CONST	ENDS
;	COMDAT ??_C@_01DDCIFGEA@E?$AA@
CONST	SEGMENT
??_C@_01DDCIFGEA@E?$AA@ DB 'E', 00H			; `string'
CONST	ENDS
;	COMDAT ??_C@_02BBAHNLBA@?$CFp?$AA@
CONST	SEGMENT
??_C@_02BBAHNLBA@?$CFp?$AA@ DB '%p', 00H		; `string'
CONST	ENDS
;	COMDAT ??_C@_02CLHGNPPK@Lu?$AA@
CONST	SEGMENT
??_C@_02CLHGNPPK@Lu?$AA@ DB 'Lu', 00H			; `string'
CONST	ENDS
;	COMDAT ??_C@_02HIKPPMOK@Ld?$AA@
CONST	SEGMENT
??_C@_02HIKPPMOK@Ld?$AA@ DB 'Ld', 00H			; `string'
CONST	ENDS
;	COMDAT ??_C@_02BDDLJJBK@lu?$AA@
CONST	SEGMENT
??_C@_02BDDLJJBK@lu?$AA@ DB 'lu', 00H			; `string'
CONST	ENDS
;	COMDAT ??_C@_02EAOCLKAK@ld?$AA@
CONST	SEGMENT
??_C@_02EAOCLKAK@ld?$AA@ DB 'ld', 00H			; `string'
CONST	ENDS
;	COMDAT ??_C@_0BL@MKNOCKIC@Success?4?6Process?5cycles?5?$DN?5?$AA@
CONST	SEGMENT
??_C@_0BL@MKNOCKIC@Success?4?6Process?5cycles?5?$DN?5?$AA@ DB 'Success.', 0aH
	DB	'Process cycles = ', 00H			; `string'
CONST	ENDS
;	COMDAT ??_C@_0BD@MCLJHKGF@Now?5deciphering?4?4?4?$AA@
CONST	SEGMENT
??_C@_0BD@MCLJHKGF@Now?5deciphering?4?4?4?$AA@ DB 'Now deciphering...', 00H ; `string'
CONST	ENDS
;	COMDAT ??_C@_00CNPNBAHC@?$AA@
CONST	SEGMENT
??_C@_00CNPNBAHC@?$AA@ DB 00H				; `string'
CONST	ENDS
;	COMDAT ??_C@_0BA@HLPOIFPO@undefined?5type?4?$AA@
CONST	SEGMENT
??_C@_0BA@HLPOIFPO@undefined?5type?4?$AA@ DB 'undefined type.', 00H ; `string'
CONST	ENDS
;	COMDAT ??_C@_06MPKGPFAO@PKCS?$CD8?$AA@
CONST	SEGMENT
??_C@_06MPKGPFAO@PKCS?$CD8?$AA@ DB 'PKCS#8', 00H	; `string'
CONST	ENDS
;	COMDAT ??_C@_0BD@DEHKJKGA@Now?5enciphering?4?4?4?$AA@
CONST	SEGMENT
??_C@_0BD@DEHKJKGA@Now?5enciphering?4?4?4?$AA@ DB 'Now enciphering...', 00H ; `string'
CONST	ENDS
;	COMDAT ??_C@_0BC@MPENPPNL@Object?5Identifier?$AA@
CONST	SEGMENT
??_C@_0BC@MPENPPNL@Object?5Identifier?$AA@ DB 'Object Identifier', 00H ; `string'
CONST	ENDS
;	COMDAT ?oid_PKCS7_1@?1??encrypt@@YAXXZ@4QBIB
CONST	SEGMENT
?oid_PKCS7_1@?1??encrypt@@YAXXZ@4QBIB DD 01H		; `encrypt'::`2'::oid_PKCS7_1
	DD	02H
	DD	0348H
	DD	01bb8dH
	DD	01H
	DD	07H
	DD	01H
CONST	ENDS
;	COMDAT ??_C@_01CLKCMJKC@?5?$AA@
CONST	SEGMENT
??_C@_01CLKCMJKC@?5?$AA@ DB ' ', 00H			; `string'
; Function compile flags: /Ogtpy
; File c:\program files\microsoft visual studio 9.0\vc\include\xiosbase
;	COMDAT ?rdstate@ios_base@std@@QBEHXZ
_TEXT	SEGMENT
?rdstate@ios_base@std@@QBEHXZ PROC			; std::ios_base::rdstate, COMDAT
; _this$ = ecx

; 311  : 		return (_Mystate);

  00000	8b 41 08	 mov	 eax, DWORD PTR [ecx+8]

; 312  : 		}

  00003	c3		 ret	 0
?rdstate@ios_base@std@@QBEHXZ ENDP			; std::ios_base::rdstate
; Function compile flags: /Ogtpy
; File c:\program files\microsoft visual studio 9.0\vc\include\xstring
_TEXT	ENDS
;	COMDAT ?_Myptr@?$basic_string@DU?$char_traits@D@std@@V?$allocator@D@2@@std@@IAEPADXZ
_TEXT	SEGMENT
?_Myptr@?$basic_string@DU?$char_traits@D@std@@V?$allocator@D@2@@std@@IAEPADXZ PROC ; std::basic_string<char,std::char_traits<char>,std::allocator<char> >::_Myptr, COMDAT
; _this$ = ecx

; 2170 : 		return (_BUF_SIZE <= _Myres ? _Bx._Ptr : _Bx._Buf);

  00000	83 79 18 10	 cmp	 DWORD PTR [ecx+24], 16	; 00000010H
  00004	72 04		 jb	 SHORT $LN3@Myptr
  00006	8b 41 04	 mov	 eax, DWORD PTR [ecx+4]

; 2171 : 		}

  00009	c3		 ret	 0
$LN3@Myptr:

; 2170 : 		return (_BUF_SIZE <= _Myres ? _Bx._Ptr : _Bx._Buf);

  0000a	8d 41 04	 lea	 eax, DWORD PTR [ecx+4]

; 2171 : 		}

  0000d	c3		 ret	 0
?_Myptr@?$basic_string@DU?$char_traits@D@std@@V?$allocator@D@2@@std@@IAEPADXZ ENDP ; std::basic_string<char,std::char_traits<char>,std::allocator<char> >::_Myptr
; Function compile flags: /Ogtpy
; File c:\program files\microsoft visual studio 9.0\vc\include\iosfwd
_TEXT	ENDS
;	COMDAT ?assign@?$char_traits@D@std@@SAXAADABD@Z
_TEXT	SEGMENT
__Left$ = 8						; size = 4
__Right$ = 12						; size = 4
?assign@?$char_traits@D@std@@SAXAADABD@Z PROC		; std::char_traits<char>::assign, COMDAT

; 425  : 		_Left = _Right;

  00000	8b 44 24 08	 mov	 eax, DWORD PTR __Right$[esp-4]
  00004	8a 08		 mov	 cl, BYTE PTR [eax]
  00006	8b 54 24 04	 mov	 edx, DWORD PTR __Left$[esp-4]
  0000a	88 0a		 mov	 BYTE PTR [edx], cl

; 426  : 		}

  0000c	c3		 ret	 0
?assign@?$char_traits@D@std@@SAXAADABD@Z ENDP		; std::char_traits<char>::assign
; Function compile flags: /Ogtpy
; File c:\program files\microsoft visual studio 9.0\vc\include\xmemory
_TEXT	ENDS
;	COMDAT ?deallocate@?$allocator@D@std@@QAEXPADI@Z
_TEXT	SEGMENT
__Ptr$ = 8						; size = 4
___formal$ = 12						; size = 4
?deallocate@?$allocator@D@std@@QAEXPADI@Z PROC		; std::allocator<char>::deallocate, COMDAT
; _this$ = ecx

; 140  : 		::operator delete(_Ptr);

  00000	8b 44 24 04	 mov	 eax, DWORD PTR __Ptr$[esp-4]
  00004	50		 push	 eax
  00005	e8 00 00 00 00	 call	 ??3@YAXPAX@Z		; operator delete
  0000a	59		 pop	 ecx

; 141  : 		}

  0000b	c2 08 00	 ret	 8
?deallocate@?$allocator@D@std@@QAEXPADI@Z ENDP		; std::allocator<char>::deallocate
; Function compile flags: /Ogtpy
; File c:\program files\microsoft visual studio 9.0\vc\include\iosfwd
_TEXT	ENDS
;	COMDAT ??$_Char_traits_cat@U?$char_traits@D@std@@@std@@YA?AU_Secure_char_traits_tag@0@XZ
_TEXT	SEGMENT
__Secure$ = -1						; size = 1
??$_Char_traits_cat@U?$char_traits@D@std@@@std@@YA?AU_Secure_char_traits_tag@0@XZ PROC ; std::_Char_traits_cat<std::char_traits<char> >, COMDAT

; 575  : 	{

  00000	51		 push	 ecx

; 576  : 		typename _Char_traits_category<_Traits>::_Secure_char_traits _Secure;
; 577  : 		return (_Secure);

  00001	8a 44 24 03	 mov	 al, BYTE PTR __Secure$[esp+4]

; 578  : 	}

  00005	59		 pop	 ecx
  00006	c3		 ret	 0
??$_Char_traits_cat@U?$char_traits@D@std@@@std@@YA?AU_Secure_char_traits_tag@0@XZ ENDP ; std::_Char_traits_cat<std::char_traits<char> >
; Function compile flags: /Ogtpy
_TEXT	ENDS
;	COMDAT ?_Copy_s@?$char_traits@D@std@@SAPADPADIPBDI@Z
_TEXT	SEGMENT
__First1$ = 8						; size = 4
__Size_in_bytes$ = 12					; size = 4
__First2$ = 16						; size = 4
__Count$ = 20						; size = 4
?_Copy_s@?$char_traits@D@std@@SAPADPADIPBDI@Z PROC	; std::char_traits<char>::_Copy_s, COMDAT

; 463  : //		_DEBUG_POINTER(_First1);
; 464  : //		_DEBUG_POINTER(_First2);
; 465  : 		_CRT_SECURE_MEMCPY(_First1, _Size_in_bytes, _First2, _Count);

  00000	8b 44 24 10	 mov	 eax, DWORD PTR __Count$[esp-4]
  00004	8b 4c 24 0c	 mov	 ecx, DWORD PTR __First2$[esp-4]
  00008	8b 54 24 08	 mov	 edx, DWORD PTR __Size_in_bytes$[esp-4]
  0000c	56		 push	 esi
  0000d	8b 74 24 08	 mov	 esi, DWORD PTR __First1$[esp]
  00011	50		 push	 eax
  00012	51		 push	 ecx
  00013	52		 push	 edx
  00014	56		 push	 esi
  00015	e8 00 00 00 00	 call	 _memcpy_s
  0001a	83 c4 10	 add	 esp, 16			; 00000010H

; 466  : 		return _First1;

  0001d	8b c6		 mov	 eax, esi
  0001f	5e		 pop	 esi

; 467  : 		}

  00020	c3		 ret	 0
?_Copy_s@?$char_traits@D@std@@SAPADPADIPBDI@Z ENDP	; std::char_traits<char>::_Copy_s
; Function compile flags: /Ogtpy
; File c:\program files\microsoft visual studio 9.0\vc\include\xstring
_TEXT	ENDS
;	COMDAT ?_Myptr@?$basic_string@DU?$char_traits@D@std@@V?$allocator@D@2@@std@@IBEPBDXZ
_TEXT	SEGMENT
?_Myptr@?$basic_string@DU?$char_traits@D@std@@V?$allocator@D@2@@std@@IBEPBDXZ PROC ; std::basic_string<char,std::char_traits<char>,std::allocator<char> >::_Myptr, COMDAT
; _this$ = ecx

; 2175 : 		return (_BUF_SIZE <= _Myres ? _Bx._Ptr : _Bx._Buf);

  00000	83 79 18 10	 cmp	 DWORD PTR [ecx+24], 16	; 00000010H
  00004	72 04		 jb	 SHORT $LN3@Myptr@2
  00006	8b 41 04	 mov	 eax, DWORD PTR [ecx+4]

; 2176 : 		}

  00009	c3		 ret	 0
$LN3@Myptr@2:

; 2175 : 		return (_BUF_SIZE <= _Myres ? _Bx._Ptr : _Bx._Buf);

  0000a	8d 41 04	 lea	 eax, DWORD PTR [ecx+4]

; 2176 : 		}

  0000d	c3		 ret	 0
?_Myptr@?$basic_string@DU?$char_traits@D@std@@V?$allocator@D@2@@std@@IBEPBDXZ ENDP ; std::basic_string<char,std::char_traits<char>,std::allocator<char> >::_Myptr
; Function compile flags: /Ogtpy
_TEXT	ENDS
;	COMDAT ??0bad_alloc@std@@QAE@ABV01@@Z
_TEXT	SEGMENT
___that$ = 8						; size = 4
??0bad_alloc@std@@QAE@ABV01@@Z PROC			; std::bad_alloc::bad_alloc, COMDAT
; _this$ = ecx
  00000	8b 44 24 04	 mov	 eax, DWORD PTR ___that$[esp-4]
  00004	56		 push	 esi
  00005	50		 push	 eax
  00006	8b f1		 mov	 esi, ecx
  00008	e8 00 00 00 00	 call	 ??0exception@std@@QAE@ABV01@@Z ; std::exception::exception
  0000d	c7 06 00 00 00
	00		 mov	 DWORD PTR [esi], OFFSET ??_7bad_alloc@std@@6B@
  00013	8b c6		 mov	 eax, esi
  00015	5e		 pop	 esi
  00016	c2 04 00	 ret	 4
??0bad_alloc@std@@QAE@ABV01@@Z ENDP			; std::bad_alloc::bad_alloc
; Function compile flags: /Ogtpy
; File c:\program files\microsoft visual studio 9.0\vc\include\exception
_TEXT	ENDS
;	COMDAT ??1bad_alloc@std@@UAE@XZ
_TEXT	SEGMENT
??1bad_alloc@std@@UAE@XZ PROC				; std::bad_alloc::~bad_alloc, COMDAT
; _this$ = ecx

; 380  : 		{	// destroy the object

  00000	c7 01 00 00 00
	00		 mov	 DWORD PTR [ecx], OFFSET ??_7bad_alloc@std@@6B@

; 381  : 		}

  00006	e9 00 00 00 00	 jmp	 ??1exception@std@@UAE@XZ ; std::exception::~exception
??1bad_alloc@std@@UAE@XZ ENDP				; std::bad_alloc::~bad_alloc
; Function compile flags: /Ogtpy
_TEXT	ENDS
;	COMDAT ??0bad_alloc@std@@QAE@PBD@Z
_TEXT	SEGMENT
__Message$ = 8						; size = 4
??0bad_alloc@std@@QAE@PBD@Z PROC			; std::bad_alloc::bad_alloc, COMDAT
; _this$ = ecx

; 371  : 		{	// construct from message string

  00000	56		 push	 esi
  00001	8d 44 24 08	 lea	 eax, DWORD PTR __Message$[esp]
  00005	50		 push	 eax
  00006	8b f1		 mov	 esi, ecx
  00008	e8 00 00 00 00	 call	 ??0exception@std@@QAE@ABQBD@Z ; std::exception::exception
  0000d	c7 06 00 00 00
	00		 mov	 DWORD PTR [esi], OFFSET ??_7bad_alloc@std@@6B@

; 372  : 		}

  00013	8b c6		 mov	 eax, esi
  00015	5e		 pop	 esi
  00016	c2 04 00	 ret	 4
??0bad_alloc@std@@QAE@PBD@Z ENDP			; std::bad_alloc::bad_alloc
; Function compile flags: /Ogtpy
; File c:\program files\microsoft visual studio 9.0\vc\include\xmemory
_TEXT	ENDS
;	COMDAT ?max_size@?$allocator@D@std@@QBEIXZ
_TEXT	SEGMENT
?max_size@?$allocator@D@std@@QBEIXZ PROC		; std::allocator<char>::max_size, COMDAT
; _this$ = ecx

; 165  : 		_SIZT _Count = (_SIZT)(-1) / sizeof (_Ty);
; 166  : 		return (0 < _Count ? _Count : 1);

  00000	83 c8 ff	 or	 eax, -1

; 167  : 		}

  00003	c3		 ret	 0
?max_size@?$allocator@D@std@@QBEIXZ ENDP		; std::allocator<char>::max_size
; Function compile flags: /Ogtpy
; File c:\program files\microsoft visual studio 9.0\vc\include\iosfwd
_TEXT	ENDS
;	COMDAT ?_Move_s@?$char_traits@D@std@@SAPADPADIPBDI@Z
_TEXT	SEGMENT
__First1$ = 8						; size = 4
__Size_in_bytes$ = 12					; size = 4
__First2$ = 16						; size = 4
__Count$ = 20						; size = 4
?_Move_s@?$char_traits@D@std@@SAPADPADIPBDI@Z PROC	; std::char_traits<char>::_Move_s, COMDAT

; 487  : //		_DEBUG_POINTER(_First1);
; 488  : //		_DEBUG_POINTER(_First2);
; 489  : 		_CRT_SECURE_MEMMOVE(_First1, _Size_in_bytes, _First2, _Count);

  00000	8b 44 24 10	 mov	 eax, DWORD PTR __Count$[esp-4]
  00004	8b 4c 24 0c	 mov	 ecx, DWORD PTR __First2$[esp-4]
  00008	8b 54 24 08	 mov	 edx, DWORD PTR __Size_in_bytes$[esp-4]
  0000c	56		 push	 esi
  0000d	8b 74 24 08	 mov	 esi, DWORD PTR __First1$[esp]
  00011	50		 push	 eax
  00012	51		 push	 ecx
  00013	52		 push	 edx
  00014	56		 push	 esi
  00015	e8 00 00 00 00	 call	 _memmove_s
  0001a	83 c4 10	 add	 esp, 16			; 00000010H

; 490  : 		return _First1;

  0001d	8b c6		 mov	 eax, esi
  0001f	5e		 pop	 esi

; 491  : 		}

  00020	c3		 ret	 0
?_Move_s@?$char_traits@D@std@@SAPADPADIPBDI@Z ENDP	; std::char_traits<char>::_Move_s
; Function compile flags: /Ogtpy
; File c:\program files\microsoft visual studio 9.0\vc\include\xstring
_TEXT	ENDS
;	COMDAT ?size@?$basic_string@DU?$char_traits@D@std@@V?$allocator@D@2@@std@@QBEIXZ
_TEXT	SEGMENT
?size@?$basic_string@DU?$char_traits@D@std@@V?$allocator@D@2@@std@@QBEIXZ PROC ; std::basic_string<char,std::char_traits<char>,std::allocator<char> >::size, COMDAT
; _this$ = ecx

; 1666 : 		return (_Mysize);

  00000	8b 41 14	 mov	 eax, DWORD PTR [ecx+20]

; 1667 : 		}

  00003	c3		 ret	 0
?size@?$basic_string@DU?$char_traits@D@std@@V?$allocator@D@2@@std@@QBEIXZ ENDP ; std::basic_string<char,std::char_traits<char>,std::allocator<char> >::size
; Function compile flags: /Ogtpy
; File c:\program files\microsoft visual studio 9.0\vc\include\xmemory
_TEXT	ENDS
;	COMDAT ??0?$allocator@D@std@@QAE@ABV01@@Z
_TEXT	SEGMENT
___formal$ = 8						; size = 4
??0?$allocator@D@std@@QAE@ABV01@@Z PROC			; std::allocator<char>::allocator<char>, COMDAT
; _this$ = ecx

; 123  : 	allocator(const allocator<_Ty>&) _THROW0()

  00000	8b c1		 mov	 eax, ecx

; 124  : 		{	// construct by copying (do nothing)
; 125  : 		}

  00002	c2 04 00	 ret	 4
??0?$allocator@D@std@@QAE@ABV01@@Z ENDP			; std::allocator<char>::allocator<char>
; Function compile flags: /Ogtpy
; File c:\program files\microsoft visual studio 9.0\vc\include\xstring
_TEXT	ENDS
;	COMDAT ?c_str@?$basic_string@DU?$char_traits@D@std@@V?$allocator@D@2@@std@@QBEPBDXZ
_TEXT	SEGMENT
?c_str@?$basic_string@DU?$char_traits@D@std@@V?$allocator@D@2@@std@@QBEPBDXZ PROC ; std::basic_string<char,std::char_traits<char>,std::allocator<char> >::c_str, COMDAT
; _this$ = ecx

; 1651 : 		return (_Myptr());

  00000	83 79 18 10	 cmp	 DWORD PTR [ecx+24], 16	; 00000010H
  00004	72 04		 jb	 SHORT $LN5@c_str
  00006	8b 41 04	 mov	 eax, DWORD PTR [ecx+4]

; 1652 : 		}

  00009	c3		 ret	 0

; 1651 : 		return (_Myptr());

$LN5@c_str:
  0000a	8d 41 04	 lea	 eax, DWORD PTR [ecx+4]

; 1652 : 		}

  0000d	c3		 ret	 0
?c_str@?$basic_string@DU?$char_traits@D@std@@V?$allocator@D@2@@std@@QBEPBDXZ ENDP ; std::basic_string<char,std::char_traits<char>,std::allocator<char> >::c_str
; Function compile flags: /Ogtpy
; File c:\program files\microsoft visual studio 9.0\vc\include\iosfwd
_TEXT	ENDS
;	COMDAT ?length@?$char_traits@D@std@@SAIPBD@Z
_TEXT	SEGMENT
__First$ = 8						; size = 4
?length@?$char_traits@D@std@@SAIPBD@Z PROC		; std::char_traits<char>::length, COMDAT

; 448  : //		_DEBUG_POINTER(_First);
; 449  : 		return (::strlen(_First));

  00000	8b 44 24 04	 mov	 eax, DWORD PTR __First$[esp-4]
  00004	8d 50 01	 lea	 edx, DWORD PTR [eax+1]
$LL3@length:
  00007	8a 08		 mov	 cl, BYTE PTR [eax]
  00009	40		 inc	 eax
  0000a	84 c9		 test	 cl, cl
  0000c	75 f9		 jne	 SHORT $LL3@length
  0000e	2b c2		 sub	 eax, edx

; 450  : 		}

  00010	c3		 ret	 0
?length@?$char_traits@D@std@@SAIPBD@Z ENDP		; std::char_traits<char>::length
; Function compile flags: /Ogtpy
; File c:\program files\microsoft visual studio 9.0\vc\include\xstring
_TEXT	ENDS
;	COMDAT ?_Inside@?$basic_string@DU?$char_traits@D@std@@V?$allocator@D@2@@std@@IAE_NPBD@Z
_TEXT	SEGMENT
__Ptr$ = 8						; size = 4
?_Inside@?$basic_string@DU?$char_traits@D@std@@V?$allocator@D@2@@std@@IAE_NPBD@Z PROC ; std::basic_string<char,std::char_traits<char>,std::allocator<char> >::_Inside, COMDAT
; _this$ = ecx

; 2133 : 		{	// test if _Ptr points inside string

  00000	56		 push	 esi
  00001	57		 push	 edi

; 2134 : 		if (_Ptr == 0 || _Ptr < _Myptr() || _Myptr() + _Mysize <= _Ptr)

  00002	8b 7c 24 0c	 mov	 edi, DWORD PTR __Ptr$[esp+4]
  00006	85 ff		 test	 edi, edi
  00008	74 2c		 je	 SHORT $LN2@Inside
  0000a	8b 71 18	 mov	 esi, DWORD PTR [ecx+24]
  0000d	8d 41 04	 lea	 eax, DWORD PTR [ecx+4]
  00010	83 fe 10	 cmp	 esi, 16			; 00000010H
  00013	72 04		 jb	 SHORT $LN8@Inside
  00015	8b 10		 mov	 edx, DWORD PTR [eax]
  00017	eb 02		 jmp	 SHORT $LN9@Inside
$LN8@Inside:
  00019	8b d0		 mov	 edx, eax
$LN9@Inside:
  0001b	3b fa		 cmp	 edi, edx
  0001d	72 17		 jb	 SHORT $LN2@Inside
  0001f	83 fe 10	 cmp	 esi, 16			; 00000010H
  00022	72 02		 jb	 SHORT $LN12@Inside
  00024	8b 00		 mov	 eax, DWORD PTR [eax]
$LN12@Inside:
  00026	8b 49 14	 mov	 ecx, DWORD PTR [ecx+20]
  00029	03 c8		 add	 ecx, eax
  0002b	3b cf		 cmp	 ecx, edi
  0002d	76 07		 jbe	 SHORT $LN2@Inside
  0002f	5f		 pop	 edi

; 2136 : 		else
; 2137 : 			return (true);

  00030	b0 01		 mov	 al, 1
  00032	5e		 pop	 esi

; 2138 : 		}

  00033	c2 04 00	 ret	 4
$LN2@Inside:
  00036	5f		 pop	 edi

; 2135 : 			return (false);	// don't ask

  00037	32 c0		 xor	 al, al
  00039	5e		 pop	 esi

; 2138 : 		}

  0003a	c2 04 00	 ret	 4
?_Inside@?$basic_string@DU?$char_traits@D@std@@V?$allocator@D@2@@std@@IAE_NPBD@Z ENDP ; std::basic_string<char,std::char_traits<char>,std::allocator<char> >::_Inside
; Function compile flags: /Ogtpy
; File c:\program files\microsoft visual studio 9.0\vc\include\xmemory
_TEXT	ENDS
;	COMDAT ??0?$allocator@D@std@@QAE@XZ
_TEXT	SEGMENT
??0?$allocator@D@std@@QAE@XZ PROC			; std::allocator<char>::allocator<char>, COMDAT
; _this$ = ecx

; 119  : 	allocator() _THROW0()

  00000	8b c1		 mov	 eax, ecx

; 120  : 		{	// construct default allocator (do nothing)
; 121  : 		}

  00002	c3		 ret	 0
??0?$allocator@D@std@@QAE@XZ ENDP			; std::allocator<char>::allocator<char>
; Function compile flags: /Ogtpy
; File c:\program files\microsoft visual studio 9.0\vc\include\xstring
_TEXT	ENDS
;	COMDAT ??0?$_String_val@DV?$allocator@D@std@@@std@@IAE@V?$allocator@D@1@@Z
_TEXT	SEGMENT
__Al$ = 8						; size = 1
??0?$_String_val@DV?$allocator@D@std@@@std@@IAE@V?$allocator@D@1@@Z PROC ; std::_String_val<char,std::allocator<char> >::_String_val<char,std::allocator<char> >, COMDAT
; _this$ = ecx

; 472  : 		{	// construct allocator from _Al

  00000	8b c1		 mov	 eax, ecx

; 473  : 		}

  00002	c2 04 00	 ret	 4
??0?$_String_val@DV?$allocator@D@std@@@std@@IAE@V?$allocator@D@1@@Z ENDP ; std::_String_val<char,std::allocator<char> >::_String_val<char,std::allocator<char> >
; Function compile flags: /Ogtpy
; File c:\program files\microsoft visual studio 9.0\vc\include\ios
_TEXT	ENDS
;	COMDAT ?rdbuf@?$basic_ios@DU?$char_traits@D@std@@@std@@QBEPAV?$basic_streambuf@DU?$char_traits@D@std@@@2@XZ
_TEXT	SEGMENT
?rdbuf@?$basic_ios@DU?$char_traits@D@std@@@std@@QBEPAV?$basic_streambuf@DU?$char_traits@D@std@@@2@XZ PROC ; std::basic_ios<char,std::char_traits<char> >::rdbuf, COMDAT
; _this$ = eax

; 85   : 		return (_Mystrbuf);

  00000	8b 40 28	 mov	 eax, DWORD PTR [eax+40]

; 86   : 		}

  00003	c3		 ret	 0
?rdbuf@?$basic_ios@DU?$char_traits@D@std@@@std@@QBEPAV?$basic_streambuf@DU?$char_traits@D@std@@@2@XZ ENDP ; std::basic_ios<char,std::char_traits<char> >::rdbuf
; Function compile flags: /Ogtpy
; File c:\program files\microsoft visual studio 9.0\vc\include\streambuf
_TEXT	ENDS
;	COMDAT ?pubsync@?$basic_streambuf@DU?$char_traits@D@std@@@std@@QAEHXZ
_TEXT	SEGMENT
?pubsync@?$basic_streambuf@DU?$char_traits@D@std@@@std@@QAEHXZ PROC ; std::basic_streambuf<char,std::char_traits<char> >::pubsync, COMDAT
; _this$ = ecx

; 100  : 		return (sync());

  00000	8b 01		 mov	 eax, DWORD PTR [ecx]
  00002	8b 50 30	 mov	 edx, DWORD PTR [eax+48]
  00005	ff e2		 jmp	 edx
?pubsync@?$basic_streambuf@DU?$char_traits@D@std@@@std@@QAEHXZ ENDP ; std::basic_streambuf<char,std::char_traits<char> >::pubsync
; Function compile flags: /Ogtpy
; File c:\program files\microsoft visual studio 9.0\vc\include\xiosbase
_TEXT	ENDS
;	COMDAT ?fail@ios_base@std@@QBE_NXZ
_TEXT	SEGMENT
?fail@ios_base@std@@QBE_NXZ PROC			; std::ios_base::fail, COMDAT
; _this$ = eax

; 344  : 		return (((int)rdstate()
; 345  : 			& ((int)badbit | (int)failbit)) != 0);

  00000	f6 40 08 06	 test	 BYTE PTR [eax+8], 6
  00004	b8 00 00 00 00	 mov	 eax, 0
  00009	0f 95 c0	 setne	 al

; 346  : 		}

  0000c	c3		 ret	 0
?fail@ios_base@std@@QBE_NXZ ENDP			; std::ios_base::fail
; Function compile flags: /Ogtpy
; File c:\program files\microsoft visual studio 9.0\vc\include\iosfwd
_TEXT	ENDS
;	COMDAT ?eof@?$char_traits@D@std@@SAHXZ
_TEXT	SEGMENT
?eof@?$char_traits@D@std@@SAHXZ PROC			; std::char_traits<char>::eof, COMDAT

; 517  : 		return (EOF);

  00000	83 c8 ff	 or	 eax, -1

; 518  : 		}

  00003	c3		 ret	 0
?eof@?$char_traits@D@std@@SAHXZ ENDP			; std::char_traits<char>::eof
; Function compile flags: /Ogtpy
_TEXT	ENDS
;	COMDAT ?to_int_type@?$char_traits@D@std@@SAHABD@Z
_TEXT	SEGMENT
__Ch$ = 8						; size = 4
?to_int_type@?$char_traits@D@std@@SAHABD@Z PROC		; std::char_traits<char>::to_int_type, COMDAT

; 506  : 		return ((unsigned char)_Ch);

  00000	8b 44 24 04	 mov	 eax, DWORD PTR __Ch$[esp-4]
  00004	0f b6 00	 movzx	 eax, BYTE PTR [eax]

; 507  : 		}

  00007	c3		 ret	 0
?to_int_type@?$char_traits@D@std@@SAHABD@Z ENDP		; std::char_traits<char>::to_int_type
; Function compile flags: /Ogtpy
; File c:\program files\microsoft visual studio 9.0\vc\include\streambuf
_TEXT	ENDS
;	COMDAT ?_Pninc@?$basic_streambuf@DU?$char_traits@D@std@@@std@@IAEPADXZ
_TEXT	SEGMENT
?_Pninc@?$basic_streambuf@DU?$char_traits@D@std@@@std@@IAEPADXZ PROC ; std::basic_streambuf<char,std::char_traits<char> >::_Pninc, COMDAT
; _this$ = ecx

; 271  : 		--*_IPcount;

  00000	8b 41 34	 mov	 eax, DWORD PTR [ecx+52]
  00003	ff 08		 dec	 DWORD PTR [eax]

; 272  : 		return ((*_IPnext)++);

  00005	8b 49 24	 mov	 ecx, DWORD PTR [ecx+36]
  00008	8b 01		 mov	 eax, DWORD PTR [ecx]
  0000a	8d 50 01	 lea	 edx, DWORD PTR [eax+1]
  0000d	89 11		 mov	 DWORD PTR [ecx], edx

; 273  : 		}

  0000f	c3		 ret	 0
?_Pninc@?$basic_streambuf@DU?$char_traits@D@std@@@std@@IAEPADXZ ENDP ; std::basic_streambuf<char,std::char_traits<char> >::_Pninc
; Function compile flags: /Ogtpy
_TEXT	ENDS
;	COMDAT ?_Pnavail@?$basic_streambuf@DU?$char_traits@D@std@@@std@@IBEHXZ
_TEXT	SEGMENT
?_Pnavail@?$basic_streambuf@DU?$char_traits@D@std@@@std@@IBEHXZ PROC ; std::basic_streambuf<char,std::char_traits<char> >::_Pnavail, COMDAT
; _this$ = ecx

; 277  : 		return (*_IPnext != 0 ? *_IPcount : 0);

  00000	8b 41 24	 mov	 eax, DWORD PTR [ecx+36]
  00003	83 38 00	 cmp	 DWORD PTR [eax], 0
  00006	74 06		 je	 SHORT $LN3@Pnavail
  00008	8b 49 34	 mov	 ecx, DWORD PTR [ecx+52]
  0000b	8b 01		 mov	 eax, DWORD PTR [ecx]

; 278  : 		}

  0000d	c3		 ret	 0
$LN3@Pnavail:

; 277  : 		return (*_IPnext != 0 ? *_IPcount : 0);

  0000e	33 c0		 xor	 eax, eax

; 278  : 		}

  00010	c3		 ret	 0
?_Pnavail@?$basic_streambuf@DU?$char_traits@D@std@@@std@@IBEHXZ ENDP ; std::basic_streambuf<char,std::char_traits<char> >::_Pnavail
; Function compile flags: /Ogtpy
; File c:\program files\microsoft visual studio 9.0\vc\include\iosfwd
_TEXT	ENDS
;	COMDAT ?eq_int_type@?$char_traits@D@std@@SA_NABH0@Z
_TEXT	SEGMENT
__Left$ = 8						; size = 4
__Right$ = 12						; size = 4
?eq_int_type@?$char_traits@D@std@@SA_NABH0@Z PROC	; std::char_traits<char>::eq_int_type, COMDAT

; 512  : 		return (_Left == _Right);

  00000	8b 44 24 04	 mov	 eax, DWORD PTR __Left$[esp-4]
  00004	8b 08		 mov	 ecx, DWORD PTR [eax]
  00006	8b 54 24 08	 mov	 edx, DWORD PTR __Right$[esp-4]
  0000a	33 c0		 xor	 eax, eax
  0000c	3b 0a		 cmp	 ecx, DWORD PTR [edx]
  0000e	0f 94 c0	 sete	 al

; 513  : 		}

  00011	c3		 ret	 0
?eq_int_type@?$char_traits@D@std@@SA_NABH0@Z ENDP	; std::char_traits<char>::eq_int_type
; Function compile flags: /Ogtpy
; File c:\program files\microsoft visual studio 9.0\vc\include\ostream
_TEXT	ENDS
;	COMDAT ??Bsentry@?$basic_ostream@DU?$char_traits@D@std@@@std@@QBE_NXZ
_TEXT	SEGMENT
??Bsentry@?$basic_ostream@DU?$char_traits@D@std@@@std@@QBE_NXZ PROC ; std::basic_ostream<char,std::char_traits<char> >::sentry::operator bool, COMDAT
; _this$ = eax

; 116  : 			return (_Ok);

  00000	8a 40 04	 mov	 al, BYTE PTR [eax+4]

; 117  : 			}

  00003	c3		 ret	 0
??Bsentry@?$basic_ostream@DU?$char_traits@D@std@@@std@@QBE_NXZ ENDP ; std::basic_ostream<char,std::char_traits<char> >::sentry::operator bool
; Function compile flags: /Ogtpy
; File c:\program files\microsoft visual studio 9.0\vc\include\xiosbase
_TEXT	ENDS
;	COMDAT ?flags@ios_base@std@@QBEHXZ
_TEXT	SEGMENT
?flags@ios_base@std@@QBEHXZ PROC			; std::ios_base::flags, COMDAT
; _this$ = eax

; 374  : 		return (_Fmtfl);

  00000	8b 40 10	 mov	 eax, DWORD PTR [eax+16]

; 375  : 		}

  00003	c3		 ret	 0
?flags@ios_base@std@@QBEHXZ ENDP			; std::ios_base::flags
; Function compile flags: /Ogtpy
; File c:\program files\microsoft visual studio 9.0\vc\include\streambuf
_TEXT	ENDS
;	COMDAT ?_Unlock@?$basic_streambuf@DU?$char_traits@D@std@@@std@@QAEXXZ
_TEXT	SEGMENT
?_Unlock@?$basic_streambuf@DU?$char_traits@D@std@@@std@@QAEXXZ PROC ; std::basic_streambuf<char,std::char_traits<char> >::_Unlock, COMDAT
; _this$ = ecx

; 178  : 		_Mylock._Unlock();

  00000	83 c1 04	 add	 ecx, 4
  00003	e9 00 00 00 00	 jmp	 ?_Unlock@_Mutex@std@@QAEXXZ ; std::_Mutex::_Unlock
?_Unlock@?$basic_streambuf@DU?$char_traits@D@std@@@std@@QAEXXZ ENDP ; std::basic_streambuf<char,std::char_traits<char> >::_Unlock
; Function compile flags: /Ogtpy
; File c:\program files\microsoft visual studio 9.0\vc\include\xiosbase
_TEXT	ENDS
;	COMDAT ?good@ios_base@std@@QBE_NXZ
_TEXT	SEGMENT
?good@ios_base@std@@QBE_NXZ PROC			; std::ios_base::good, COMDAT
; _this$ = ecx

; 334  : 		return (rdstate() == goodbit);

  00000	33 c0		 xor	 eax, eax
  00002	39 41 08	 cmp	 DWORD PTR [ecx+8], eax
  00005	0f 94 c0	 sete	 al

; 335  : 		}

  00008	c3		 ret	 0
?good@ios_base@std@@QBE_NXZ ENDP			; std::ios_base::good
; Function compile flags: /Ogtpy
; File c:\program files\microsoft visual studio 9.0\vc\include\ios
_TEXT	ENDS
;	COMDAT ?tie@?$basic_ios@DU?$char_traits@D@std@@@std@@QBEPAV?$basic_ostream@DU?$char_traits@D@std@@@2@XZ
_TEXT	SEGMENT
?tie@?$basic_ios@DU?$char_traits@D@std@@@std@@QBEPAV?$basic_ostream@DU?$char_traits@D@std@@@2@XZ PROC ; std::basic_ios<char,std::char_traits<char> >::tie, COMDAT
; _this$ = eax

; 73   : 		return (_Tiestr);

  00000	8b 40 2c	 mov	 eax, DWORD PTR [eax+44]

; 74   : 		}

  00003	c3		 ret	 0
?tie@?$basic_ios@DU?$char_traits@D@std@@@std@@QBEPAV?$basic_ostream@DU?$char_traits@D@std@@@2@XZ ENDP ; std::basic_ios<char,std::char_traits<char> >::tie
; Function compile flags: /Ogtpy
; File c:\program files\microsoft visual studio 9.0\vc\include\streambuf
_TEXT	ENDS
;	COMDAT ?_Lock@?$basic_streambuf@DU?$char_traits@D@std@@@std@@QAEXXZ
_TEXT	SEGMENT
?_Lock@?$basic_streambuf@DU?$char_traits@D@std@@@std@@QAEXXZ PROC ; std::basic_streambuf<char,std::char_traits<char> >::_Lock, COMDAT
; _this$ = ecx

; 173  : 		_Mylock._Lock();

  00000	83 c1 04	 add	 ecx, 4
  00003	e9 00 00 00 00	 jmp	 ?_Lock@_Mutex@std@@QAEXXZ ; std::_Mutex::_Lock
?_Lock@?$basic_streambuf@DU?$char_traits@D@std@@@std@@QAEXXZ ENDP ; std::basic_streambuf<char,std::char_traits<char> >::_Lock
; Function compile flags: /Ogtpy
; File c:\program files\microsoft visual studio 9.0\vc\include\xiosbase
_TEXT	ENDS
;	COMDAT ?setf@ios_base@std@@QAEHHH@Z
_TEXT	SEGMENT
__Newfmtflags$ = 8					; size = 4
__Mask$ = 12						; size = 4
?setf@ios_base@std@@QAEHHH@Z PROC			; std::ios_base::setf, COMDAT
; _this$ = ecx

; 394  : 		ios_base::fmtflags _Oldfmtflags = _Fmtfl;
; 395  : 		_Fmtfl = (fmtflags)(((int)_Fmtfl & (int)~_Mask)
; 396  : 			| ((int)_Newfmtflags & (int)_Mask & (int)_Fmtmask));

  00000	8b 54 24 08	 mov	 edx, DWORD PTR __Mask$[esp-4]
  00004	8b 41 10	 mov	 eax, DWORD PTR [ecx+16]
  00007	56		 push	 esi
  00008	57		 push	 edi
  00009	8b 7c 24 0c	 mov	 edi, DWORD PTR __Newfmtflags$[esp+4]
  0000d	8b f2		 mov	 esi, edx
  0000f	f7 d6		 not	 esi
  00011	23 fa		 and	 edi, edx
  00013	23 f0		 and	 esi, eax
  00015	81 e7 ff ff 00
	00		 and	 edi, 65535		; 0000ffffH
  0001b	0b f7		 or	 esi, edi
  0001d	5f		 pop	 edi
  0001e	89 71 10	 mov	 DWORD PTR [ecx+16], esi
  00021	5e		 pop	 esi

; 397  : 		return (_Oldfmtflags);
; 398  : 		}

  00022	c2 08 00	 ret	 8
?setf@ios_base@std@@QAEHHH@Z ENDP			; std::ios_base::setf
; Function compile flags: /Ogtpy
; File c:\program files\microsoft visual studio 9.0\vc\include\ios
_TEXT	ENDS
;	COMDAT ?dec@std@@YAAAVios_base@1@AAV21@@Z
_TEXT	SEGMENT
__Iosbase$ = 8						; size = 4
?dec@std@@YAAAVios_base@1@AAV21@@Z PROC			; std::dec, COMDAT

; 179  : 	_Iosbase.setf(ios_base::dec, ios_base::basefield);

  00000	8b 44 24 04	 mov	 eax, DWORD PTR __Iosbase$[esp-4]
  00004	8b 48 10	 mov	 ecx, DWORD PTR [eax+16]
  00007	81 e1 ff f3 ff
	ff		 and	 ecx, -3073		; fffff3ffH
  0000d	81 c9 00 02 00
	00		 or	 ecx, 512		; 00000200H
  00013	89 48 10	 mov	 DWORD PTR [eax+16], ecx

; 180  : 	return (_Iosbase);
; 181  : 	}

  00016	c3		 ret	 0
?dec@std@@YAAAVios_base@1@AAV21@@Z ENDP			; std::dec
; Function compile flags: /Ogtpy
; File c:\program files\microsoft visual studio 9.0\vc\include\xiosbase
_TEXT	ENDS
;	COMDAT ??Bios_base@std@@QBEPAXXZ
_TEXT	SEGMENT
??Bios_base@std@@QBEPAXXZ PROC				; std::ios_base::operator void *, COMDAT
; _this$ = ecx

; 276  : 		return (fail() ? 0 : (void *)this);

  00000	8b 41 08	 mov	 eax, DWORD PTR [ecx+8]
  00003	24 06		 and	 al, 6
  00005	0f be c0	 movsx	 eax, al
  00008	f7 d8		 neg	 eax
  0000a	1b c0		 sbb	 eax, eax
  0000c	f7 d0		 not	 eax
  0000e	23 c1		 and	 eax, ecx

; 277  : 		}

  00010	c3		 ret	 0
??Bios_base@std@@QBEPAXXZ ENDP				; std::ios_base::operator void *
; Function compile flags: /Ogtpy
_TEXT	ENDS
;	COMDAT ??1ios_base@std@@UAE@XZ
_TEXT	SEGMENT
??1ios_base@std@@UAE@XZ PROC				; std::ios_base::~ios_base, COMDAT
; _this$ = ecx

; 494  :         _Ios_base_dtor(this);

  00000	51		 push	 ecx
  00001	c7 01 00 00 00
	00		 mov	 DWORD PTR [ecx], OFFSET ??_7ios_base@std@@6B@
  00007	e8 00 00 00 00	 call	 ?_Ios_base_dtor@ios_base@std@@CAXPAV12@@Z ; std::ios_base::_Ios_base_dtor
  0000c	59		 pop	 ecx

; 495  :         }

  0000d	c3		 ret	 0
??1ios_base@std@@UAE@XZ ENDP				; std::ios_base::~ios_base
; Function compile flags: /Ogtpy
_TEXT	ENDS
;	COMDAT ??_Gios_base@std@@UAEPAXI@Z
_TEXT	SEGMENT
___flags$ = 8						; size = 4
??_Gios_base@std@@UAEPAXI@Z PROC			; std::ios_base::`scalar deleting destructor', COMDAT
; _this$ = ecx
  00000	56		 push	 esi
  00001	8b f1		 mov	 esi, ecx
  00003	56		 push	 esi
  00004	c7 06 00 00 00
	00		 mov	 DWORD PTR [esi], OFFSET ??_7ios_base@std@@6B@
  0000a	e8 00 00 00 00	 call	 ?_Ios_base_dtor@ios_base@std@@CAXPAV12@@Z ; std::ios_base::_Ios_base_dtor
  0000f	83 c4 04	 add	 esp, 4
  00012	f6 44 24 08 01	 test	 BYTE PTR ___flags$[esp], 1
  00017	74 09		 je	 SHORT $LN6@scalar
  00019	56		 push	 esi
  0001a	e8 00 00 00 00	 call	 ??3@YAXPAX@Z		; operator delete
  0001f	83 c4 04	 add	 esp, 4
$LN6@scalar:
  00022	8b c6		 mov	 eax, esi
  00024	5e		 pop	 esi
  00025	c2 04 00	 ret	 4
??_Gios_base@std@@UAEPAXI@Z ENDP			; std::ios_base::`scalar deleting destructor'
; Function compile flags: /Ogtpy
; File c:\program files\microsoft visual studio 9.0\vc\include\time.inl
_TEXT	ENDS
;	COMDAT _time
_TEXT	SEGMENT
_time	PROC						; COMDAT
; __Time$ = eax

; 135  :     return _time64(_Time);

  00000	50		 push	 eax
  00001	e8 00 00 00 00	 call	 __time64
  00006	83 c4 04	 add	 esp, 4

; 136  : }

  00009	c3		 ret	 0
_time	ENDP
; Function compile flags: /Ogtpy
; File c:\program files\microsoft visual studio 9.0\vc\include\xlocale
_TEXT	ENDS
;	COMDAT ??1facet@locale@std@@UAE@XZ
_TEXT	SEGMENT
??1facet@locale@std@@UAE@XZ PROC			; std::locale::facet::~facet, COMDAT
; _this$ = ecx

; 170  : 			{	// destroy the object

  00000	c7 01 00 00 00
	00		 mov	 DWORD PTR [ecx], OFFSET ??_7facet@locale@std@@6B@

; 171  : 			}

  00006	c3		 ret	 0
??1facet@locale@std@@UAE@XZ ENDP			; std::locale::facet::~facet
; Function compile flags: /Ogtpy
_TEXT	ENDS
;	COMDAT ??_Gfacet@locale@std@@UAEPAXI@Z
_TEXT	SEGMENT
___flags$ = 8						; size = 4
??_Gfacet@locale@std@@UAEPAXI@Z PROC			; std::locale::facet::`scalar deleting destructor', COMDAT
; _this$ = ecx
  00000	f6 44 24 04 01	 test	 BYTE PTR ___flags$[esp-4], 1
  00005	56		 push	 esi
  00006	8b f1		 mov	 esi, ecx
  00008	c7 06 00 00 00
	00		 mov	 DWORD PTR [esi], OFFSET ??_7facet@locale@std@@6B@
  0000e	74 09		 je	 SHORT $LN6@scalar@2
  00010	56		 push	 esi
  00011	e8 00 00 00 00	 call	 ??3@YAXPAX@Z		; operator delete
  00016	83 c4 04	 add	 esp, 4
$LN6@scalar@2:
  00019	8b c6		 mov	 eax, esi
  0001b	5e		 pop	 esi
  0001c	c2 04 00	 ret	 4
??_Gfacet@locale@std@@UAEPAXI@Z ENDP			; std::locale::facet::`scalar deleting destructor'
; Function compile flags: /Ogtpy
_TEXT	ENDS
;	COMDAT ?_Decref@facet@locale@std@@QAEPAV123@XZ
_TEXT	SEGMENT
__Lock$25353 = -4					; size = 4
?_Decref@facet@locale@std@@QAEPAV123@XZ PROC		; std::locale::facet::_Decref, COMDAT
; _this$ = ecx

; 125  : 			{	// safely decrement the reference count, return this when dead

  00000	51		 push	 ecx
  00001	56		 push	 esi
  00002	57		 push	 edi
  00003	8b f9		 mov	 edi, ecx

; 126  : 			_BEGIN_LOCK(_LOCK_LOCALE)

  00005	6a 00		 push	 0
  00007	8d 4c 24 0c	 lea	 ecx, DWORD PTR __Lock$25353[esp+16]
  0000b	e8 00 00 00 00	 call	 ??0_Lockit@std@@QAE@H@Z	; std::_Lockit::_Lockit

; 127  : 				if (0 < _Refs && _Refs < (size_t)(-1))

  00010	8b 47 04	 mov	 eax, DWORD PTR [edi+4]
  00013	85 c0		 test	 eax, eax
  00015	76 09		 jbe	 SHORT $LN1@Decref
  00017	83 f8 ff	 cmp	 eax, -1
  0001a	73 04		 jae	 SHORT $LN1@Decref

; 128  : 					--_Refs;

  0001c	48		 dec	 eax
  0001d	89 47 04	 mov	 DWORD PTR [edi+4], eax
$LN1@Decref:

; 129  : 				return (_Refs == 0 ? this : 0);

  00020	8b 77 04	 mov	 esi, DWORD PTR [edi+4]
  00023	f7 de		 neg	 esi
  00025	1b f6		 sbb	 esi, esi
  00027	f7 d6		 not	 esi
  00029	8d 4c 24 08	 lea	 ecx, DWORD PTR __Lock$25353[esp+12]
  0002d	23 f7		 and	 esi, edi
  0002f	e8 00 00 00 00	 call	 ??1_Lockit@std@@QAE@XZ	; std::_Lockit::~_Lockit
  00034	5f		 pop	 edi
  00035	8b c6		 mov	 eax, esi
  00037	5e		 pop	 esi

; 130  : 			_END_LOCK()
; 131  : 			}

  00038	59		 pop	 ecx
  00039	c3		 ret	 0
?_Decref@facet@locale@std@@QAEPAV123@XZ ENDP		; std::locale::facet::_Decref
; Function compile flags: /Ogtpy
_TEXT	ENDS
;	COMDAT ?_Incref@facet@locale@std@@QAEXXZ
_TEXT	SEGMENT
__Lock$25348 = -4					; size = 4
?_Incref@facet@locale@std@@QAEXXZ PROC			; std::locale::facet::_Incref, COMDAT
; _this$ = ecx

; 117  : 			{	// safely increment the reference count

  00000	51		 push	 ecx
  00001	56		 push	 esi
  00002	8b f1		 mov	 esi, ecx

; 118  : 			_BEGIN_LOCK(_LOCK_LOCALE)

  00004	6a 00		 push	 0
  00006	8d 4c 24 08	 lea	 ecx, DWORD PTR __Lock$25348[esp+12]
  0000a	e8 00 00 00 00	 call	 ??0_Lockit@std@@QAE@H@Z	; std::_Lockit::_Lockit

; 119  : 				if (_Refs < (size_t)(-1))

  0000f	8b 46 04	 mov	 eax, DWORD PTR [esi+4]
  00012	83 f8 ff	 cmp	 eax, -1
  00015	73 04		 jae	 SHORT $LN1@Incref

; 120  : 					++_Refs;

  00017	40		 inc	 eax
  00018	89 46 04	 mov	 DWORD PTR [esi+4], eax
$LN1@Incref:

; 121  : 			_END_LOCK()

  0001b	8d 4c 24 04	 lea	 ecx, DWORD PTR __Lock$25348[esp+8]
  0001f	e8 00 00 00 00	 call	 ??1_Lockit@std@@QAE@XZ	; std::_Lockit::~_Lockit
  00024	5e		 pop	 esi

; 122  : 			}

  00025	59		 pop	 ecx
  00026	c3		 ret	 0
?_Incref@facet@locale@std@@QAEXXZ ENDP			; std::locale::facet::_Incref
; Function compile flags: /Ogtpy
; File c:\program files\microsoft visual studio 9.0\vc\include\xiosbase
_TEXT	ENDS
;	COMDAT ?width@ios_base@std@@QBEHXZ
_TEXT	SEGMENT
?width@ios_base@std@@QBEHXZ PROC			; std::ios_base::width, COMDAT
; _this$ = eax

; 419  : 		return (_Wide);

  00000	8b 40 18	 mov	 eax, DWORD PTR [eax+24]

; 420  : 		}

  00003	c3		 ret	 0
?width@ios_base@std@@QBEHXZ ENDP			; std::ios_base::width
; Function compile flags: /Ogtpy
_TEXT	ENDS
;	COMDAT ?width@ios_base@std@@QAEHH@Z
_TEXT	SEGMENT
__Newwidth$ = 8						; size = 4
?width@ios_base@std@@QAEHH@Z PROC			; std::ios_base::width, COMDAT
; _this$ = ecx

; 424  : 		streamsize _Oldwidth = _Wide;
; 425  : 		_Wide = _Newwidth;

  00000	8b 54 24 04	 mov	 edx, DWORD PTR __Newwidth$[esp-4]
  00004	8b 41 18	 mov	 eax, DWORD PTR [ecx+24]
  00007	89 51 18	 mov	 DWORD PTR [ecx+24], edx

; 426  : 		return (_Oldwidth);
; 427  : 		}

  0000a	c2 04 00	 ret	 4
?width@ios_base@std@@QAEHH@Z ENDP			; std::ios_base::width
; Function compile flags: /Ogtpy
_TEXT	ENDS
;	COMDAT ?precision@ios_base@std@@QBEHXZ
_TEXT	SEGMENT
?precision@ios_base@std@@QBEHXZ PROC			; std::ios_base::precision, COMDAT
; _this$ = eax

; 407  : 		return (_Prec);

  00000	8b 40 14	 mov	 eax, DWORD PTR [eax+20]

; 408  : 		}

  00003	c3		 ret	 0
?precision@ios_base@std@@QBEHXZ ENDP			; std::ios_base::precision
_TEXT	ENDS
EXTRN	_memset:PROC
; Function compile flags: /Ogtpy
; File c:\program files\microsoft visual studio 9.0\vc\include\iosfwd
;	COMDAT ?assign@?$char_traits@D@std@@SAPADPADID@Z
_TEXT	SEGMENT
__First$ = 8						; size = 4
__Count$ = 12						; size = 4
__Ch$ = 16						; size = 1
?assign@?$char_traits@D@std@@SAPADPADID@Z PROC		; std::char_traits<char>::assign, COMDAT

; 495  : //		_DEBUG_POINTER(_First);
; 496  : 		return ((_Elem *)::memset(_First, _Ch, _Count));

  00000	8b 44 24 08	 mov	 eax, DWORD PTR __Count$[esp-4]
  00004	0f be 4c 24 0c	 movsx	 ecx, BYTE PTR __Ch$[esp-4]
  00009	8b 54 24 04	 mov	 edx, DWORD PTR __First$[esp-4]
  0000d	50		 push	 eax
  0000e	51		 push	 ecx
  0000f	52		 push	 edx
  00010	e8 00 00 00 00	 call	 _memset
  00015	83 c4 0c	 add	 esp, 12			; 0000000cH

; 497  : 		}

  00018	c3		 ret	 0
?assign@?$char_traits@D@std@@SAPADPADID@Z ENDP		; std::char_traits<char>::assign
; Function compile flags: /Ogtpy
; File c:\program files\microsoft visual studio 9.0\vc\include\xlocale
_TEXT	ENDS
;	COMDAT ??Bid@locale@std@@QAEIXZ
_TEXT	SEGMENT
__Lock$25342 = -4					; size = 4
??Bid@locale@std@@QAEIXZ PROC				; std::locale::id::operator unsigned int, COMDAT
; _this$ = ecx

; 77   : 			{	// get stamp, with lazy allocation

  00000	51		 push	 ecx
  00001	56		 push	 esi
  00002	8b f1		 mov	 esi, ecx

; 78   : 			if (_Id == 0)

  00004	83 3e 00	 cmp	 DWORD PTR [esi], 0
  00007	75 26		 jne	 SHORT $LN6@operator@4

; 79   : 				{	// still zero, allocate stamp
; 80   : 				_BEGIN_LOCK(_LOCK_LOCALE)

  00009	6a 00		 push	 0
  0000b	8d 4c 24 08	 lea	 ecx, DWORD PTR __Lock$25342[esp+12]
  0000f	e8 00 00 00 00	 call	 ??0_Lockit@std@@QAE@H@Z	; std::_Lockit::_Lockit

; 81   : 					if (_Id == 0)

  00014	83 3e 00	 cmp	 DWORD PTR [esi], 0
  00017	75 0d		 jne	 SHORT $LN1@operator@4

; 82   : 						_Id = ++_Id_cnt;

  00019	a1 00 00 00 00	 mov	 eax, DWORD PTR ?_Id_cnt@id@locale@std@@0HA ; std::locale::id::_Id_cnt
  0001e	40		 inc	 eax
  0001f	a3 00 00 00 00	 mov	 DWORD PTR ?_Id_cnt@id@locale@std@@0HA, eax ; std::locale::id::_Id_cnt
  00024	89 06		 mov	 DWORD PTR [esi], eax
$LN1@operator@4:

; 83   : 				_END_LOCK()

  00026	8d 4c 24 04	 lea	 ecx, DWORD PTR __Lock$25342[esp+8]
  0002a	e8 00 00 00 00	 call	 ??1_Lockit@std@@QAE@XZ	; std::_Lockit::~_Lockit
$LN6@operator@4:

; 84   : 				}
; 85   : 			return (_Id);

  0002f	8b 06		 mov	 eax, DWORD PTR [esi]
  00031	5e		 pop	 esi

; 86   : 			}

  00032	59		 pop	 ecx
  00033	c3		 ret	 0
??Bid@locale@std@@QAEIXZ ENDP				; std::locale::id::operator unsigned int
; Function compile flags: /Ogtpy
_TEXT	ENDS
;	COMDAT ?_Getfacet@locale@std@@QBEPBVfacet@12@I@Z
_TEXT	SEGMENT
__Id$ = 8						; size = 4
?_Getfacet@locale@std@@QBEPBVfacet@12@I@Z PROC		; std::locale::_Getfacet, COMDAT
; _this$ = ecx

; 413  : 		const facet *_Facptr = _Id < _Ptr->_Facetcount
; 414  : 			? _Ptr->_Facetvec[_Id] : 0;	// null if id off end

  00000	8b 09		 mov	 ecx, DWORD PTR [ecx]
  00002	56		 push	 esi
  00003	8b 74 24 08	 mov	 esi, DWORD PTR __Id$[esp]
  00007	3b 71 0c	 cmp	 esi, DWORD PTR [ecx+12]
  0000a	73 24		 jae	 SHORT $LN6@Getfacet
  0000c	8b 41 08	 mov	 eax, DWORD PTR [ecx+8]
  0000f	8b 04 b0	 mov	 eax, DWORD PTR [eax+esi*4]

; 415  : 		if (_Facptr != 0 || !_Ptr->_Xparent)

  00012	85 c0		 test	 eax, eax
  00014	75 20		 jne	 SHORT $LN1@Getfacet
$LN10@Getfacet:
  00016	80 79 14 00	 cmp	 BYTE PTR [ecx+20], 0
  0001a	74 1a		 je	 SHORT $LN1@Getfacet

; 416  : 			return (_Facptr);	// found facet or not transparent, return pointer
; 417  : 		else
; 418  : 			{	// look in current locale
; 419  : 			locale::_Locimp *_Ptr = _Getgloballocale();

  0001c	e8 00 00 00 00	 call	 ?_Getgloballocale@locale@std@@CAPAV_Locimp@12@XZ ; std::locale::_Getgloballocale

; 420  : 			return (_Id < _Ptr->_Facetcount
; 421  : 				? _Ptr->_Facetvec[_Id]	// get from current locale
; 422  : 				: 0);	// no entry in current locale

  00021	3b 70 0c	 cmp	 esi, DWORD PTR [eax+12]
  00024	73 0e		 jae	 SHORT $LN8@Getfacet
  00026	8b 48 08	 mov	 ecx, DWORD PTR [eax+8]
  00029	8b 04 b1	 mov	 eax, DWORD PTR [ecx+esi*4]
  0002c	5e		 pop	 esi

; 423  : 			}
; 424  : 		}

  0002d	c2 04 00	 ret	 4
$LN6@Getfacet:

; 413  : 		const facet *_Facptr = _Id < _Ptr->_Facetcount
; 414  : 			? _Ptr->_Facetvec[_Id] : 0;	// null if id off end

  00030	33 c0		 xor	 eax, eax

; 415  : 		if (_Facptr != 0 || !_Ptr->_Xparent)

  00032	eb e2		 jmp	 SHORT $LN10@Getfacet
$LN8@Getfacet:

; 420  : 			return (_Id < _Ptr->_Facetcount
; 421  : 				? _Ptr->_Facetvec[_Id]	// get from current locale
; 422  : 				: 0);	// no entry in current locale

  00034	33 c0		 xor	 eax, eax
$LN1@Getfacet:
  00036	5e		 pop	 esi

; 423  : 			}
; 424  : 		}

  00037	c2 04 00	 ret	 4
?_Getfacet@locale@std@@QBEPBVfacet@12@I@Z ENDP		; std::locale::_Getfacet
; Function compile flags: /Ogtpy
_TEXT	ENDS
;	COMDAT ?_Register@facet@locale@std@@QAEXXZ
_TEXT	SEGMENT
?_Register@facet@locale@std@@QAEXXZ PROC		; std::locale::facet::_Register, COMDAT
; _this$ = ecx

; 135  : #if defined(_M_CEE)
; 136  : 			facet_Register_m(this);
; 137  : #else
; 138  : 			facet_Register(this);

  00000	51		 push	 ecx
  00001	e8 00 00 00 00	 call	 ?facet_Register@facet@locale@std@@CAXPAV123@@Z ; std::locale::facet::facet_Register
  00006	59		 pop	 ecx

; 139  : #endif
; 140  : 			}

  00007	c3		 ret	 0
?_Register@facet@locale@std@@QAEXXZ ENDP		; std::locale::facet::_Register
; Function compile flags: /Ogtpy
_TEXT	ENDS
;	COMDAT ??0facet@locale@std@@IAE@I@Z
_TEXT	SEGMENT
__Initrefs$ = 8						; size = 4
??0facet@locale@std@@IAE@I@Z PROC			; std::locale::facet::facet, COMDAT
; _this$ = ecx

; 176  : 			{	// construct with initial reference count

  00000	8b c1		 mov	 eax, ecx
  00002	8b 4c 24 04	 mov	 ecx, DWORD PTR __Initrefs$[esp-4]
  00006	c7 00 00 00 00
	00		 mov	 DWORD PTR [eax], OFFSET ??_7facet@locale@std@@6B@
  0000c	89 48 04	 mov	 DWORD PTR [eax+4], ecx

; 177  : 			}

  0000f	c2 04 00	 ret	 4
??0facet@locale@std@@IAE@I@Z ENDP			; std::locale::facet::facet
; Function compile flags: /Ogtpy
; File c:\program files\microsoft visual studio 9.0\vc\include\xlocinfo
_TEXT	ENDS
;	COMDAT ?_Getcvt@_Locinfo@std@@QBE?AU_Cvtvec@@XZ
_TEXT	SEGMENT
?_Getcvt@_Locinfo@std@@QBE?AU_Cvtvec@@XZ PROC		; std::_Locinfo::_Getcvt, COMDAT
; ___$ReturnUdt$ = esi

; 129  : 		return (::_Getcvt());

  00000	e8 00 00 00 00	 call	 __Getcvt
  00005	89 06		 mov	 DWORD PTR [esi], eax
  00007	89 56 04	 mov	 DWORD PTR [esi+4], edx
  0000a	8b c6		 mov	 eax, esi

; 130  : 		}

  0000c	c3		 ret	 0
?_Getcvt@_Locinfo@std@@QBE?AU_Cvtvec@@XZ ENDP		; std::_Locinfo::_Getcvt
; Function compile flags: /Ogtpy
_TEXT	ENDS
;	COMDAT ?_Getlconv@_Locinfo@std@@QBEPBUlconv@@XZ
_TEXT	SEGMENT
?_Getlconv@_Locinfo@std@@QBEPBUlconv@@XZ PROC		; std::_Locinfo::_Getlconv, COMDAT

; 134  : 		return (localeconv());

  00000	e9 00 00 00 00	 jmp	 _localeconv
?_Getlconv@_Locinfo@std@@QBEPBUlconv@@XZ ENDP		; std::_Locinfo::_Getlconv
; Function compile flags: /Ogtpy
_TEXT	ENDS
;	COMDAT ?_Getfalse@_Locinfo@std@@QBEPBDXZ
_TEXT	SEGMENT
?_Getfalse@_Locinfo@std@@QBEPBDXZ PROC			; std::_Locinfo::_Getfalse, COMDAT

; 172  : 		return ("false");

  00000	b8 00 00 00 00	 mov	 eax, OFFSET ??_C@_05LAPONLG@false?$AA@

; 173  : 		}

  00005	c3		 ret	 0
?_Getfalse@_Locinfo@std@@QBEPBDXZ ENDP			; std::_Locinfo::_Getfalse
; Function compile flags: /Ogtpy
_TEXT	ENDS
;	COMDAT ?_Gettrue@_Locinfo@std@@QBEPBDXZ
_TEXT	SEGMENT
?_Gettrue@_Locinfo@std@@QBEPBDXZ PROC			; std::_Locinfo::_Gettrue, COMDAT

; 177  : 		return ("true");

  00000	b8 00 00 00 00	 mov	 eax, OFFSET ??_C@_04LOAJBDKD@true?$AA@

; 178  : 		}

  00005	c3		 ret	 0
?_Gettrue@_Locinfo@std@@QBEPBDXZ ENDP			; std::_Locinfo::_Gettrue
; Function compile flags: /Ogtpy
; File c:\program files\microsoft visual studio 9.0\vc\include\xlocale
_TEXT	ENDS
;	COMDAT ??0id@locale@std@@QAE@I@Z
_TEXT	SEGMENT
__Val$ = 8						; size = 4
??0id@locale@std@@QAE@I@Z PROC				; std::locale::id::id, COMDAT
; _this$ = ecx

; 73   : 			{	// construct with specified stamp value

  00000	8b c1		 mov	 eax, ecx
  00002	8b 4c 24 04	 mov	 ecx, DWORD PTR __Val$[esp-4]
  00006	89 08		 mov	 DWORD PTR [eax], ecx

; 74   : 			}

  00008	c2 04 00	 ret	 4
??0id@locale@std@@QAE@I@Z ENDP				; std::locale::id::id
; Function compile flags: /Ogtpy
_TEXT	ENDS
;	COMDAT ??$_Maklocstr@D@std@@YAPADPBDPADABU_Cvtvec@@@Z
_TEXT	SEGMENT
??$_Maklocstr@D@std@@YAPADPBDPADABU_Cvtvec@@@Z PROC	; std::_Maklocstr<char>, COMDAT
; __Ptr$ = eax

; 624  : 	{	// convert C string to _Elem sequence using _Cvtvec

  00000	56		 push	 esi
  00001	57		 push	 edi
  00002	8b f8		 mov	 edi, eax

; 625  : 	size_t _Count = ::strlen(_Ptr) + 1;

  00004	8d 50 01	 lea	 edx, DWORD PTR [eax+1]
$LL8@Maklocstr:
  00007	8a 08		 mov	 cl, BYTE PTR [eax]
  00009	40		 inc	 eax
  0000a	84 c9		 test	 cl, cl
  0000c	75 f9		 jne	 SHORT $LL8@Maklocstr
  0000e	2b c2		 sub	 eax, edx
  00010	8d 70 01	 lea	 esi, DWORD PTR [eax+1]

; 626  : 	_Elem *_Ptrdest = _NEW_CRT _Elem[_Count];

  00013	56		 push	 esi
  00014	e8 00 00 00 00	 call	 ??_U@YAPAXI@Z		; operator new[]
  00019	83 c4 04	 add	 esp, 4

; 627  : 
; 628  : #pragma warning(push)
; 629  : #pragma warning(disable: 6011)
; 630  : 	/* prefast noise */
; 631  : 	for (_Elem *_Ptrnext = _Ptrdest; 0 < _Count; --_Count, ++_Ptrnext, ++_Ptr)

  0001c	8b c8		 mov	 ecx, eax
  0001e	85 f6		 test	 esi, esi
  00020	76 0b		 jbe	 SHORT $LN1@Maklocstr
$LL3@Maklocstr:

; 632  : 		*_Ptrnext = (_Elem)(unsigned char)*_Ptr;

  00022	8a 17		 mov	 dl, BYTE PTR [edi]
  00024	88 11		 mov	 BYTE PTR [ecx], dl
  00026	4e		 dec	 esi
  00027	41		 inc	 ecx
  00028	47		 inc	 edi
  00029	85 f6		 test	 esi, esi
  0002b	77 f5		 ja	 SHORT $LL3@Maklocstr
$LN1@Maklocstr:
  0002d	5f		 pop	 edi
  0002e	5e		 pop	 esi

; 633  : 	return (_Ptrdest);
; 634  : #pragma warning(pop)
; 635  : 	}

  0002f	c3		 ret	 0
??$_Maklocstr@D@std@@YAPADPBDPADABU_Cvtvec@@@Z ENDP	; std::_Maklocstr<char>
; Function compile flags: /Ogtpy
; File c:\program files\microsoft visual studio 9.0\vc\include\xlocnum
_TEXT	ENDS
;	COMDAT ?_Init@?$num_put@DV?$ostreambuf_iterator@DU?$char_traits@D@std@@@std@@@std@@IAEXABV_Locinfo@2@@Z
_TEXT	SEGMENT
?_Init@?$num_put@DV?$ostreambuf_iterator@DU?$char_traits@D@std@@@std@@@std@@IAEXABV_Locinfo@2@@Z PROC ; std::num_put<char,std::ostreambuf_iterator<char,std::char_traits<char> > >::_Init, COMDAT
; _this$ = esi

; 1050 : 		_Cvt = _Lobj._Getcvt();

  00000	e8 00 00 00 00	 call	 __Getcvt
  00005	89 46 08	 mov	 DWORD PTR [esi+8], eax
  00008	89 56 0c	 mov	 DWORD PTR [esi+12], edx

; 1051 : 		}

  0000b	c3		 ret	 0
?_Init@?$num_put@DV?$ostreambuf_iterator@DU?$char_traits@D@std@@@std@@@std@@IAEXABV_Locinfo@2@@Z ENDP ; std::num_put<char,std::ostreambuf_iterator<char,std::char_traits<char> > >::_Init
; Function compile flags: /Ogtpy
_TEXT	ENDS
;	COMDAT ??0?$num_put@DV?$ostreambuf_iterator@DU?$char_traits@D@std@@@std@@@std@@QAE@ABV_Locinfo@1@I@Z
_TEXT	SEGMENT
??0?$num_put@DV?$ostreambuf_iterator@DU?$char_traits@D@std@@@std@@@std@@QAE@ABV_Locinfo@1@I@Z PROC ; std::num_put<char,std::ostreambuf_iterator<char,std::char_traits<char> > >::num_put<char,std::ostreambuf_iterator<char,std::char_traits<char> > >, COMDAT
; _this$ = esi

; 1066 : 		{	// construct from specified locale

  00000	c7 46 04 00 00
	00 00		 mov	 DWORD PTR [esi+4], 0
  00007	c7 06 00 00 00
	00		 mov	 DWORD PTR [esi], OFFSET ??_7?$num_put@DV?$ostreambuf_iterator@DU?$char_traits@D@std@@@std@@@std@@6B@

; 1067 : 		_Init(_Lobj);

  0000d	e8 00 00 00 00	 call	 __Getcvt
  00012	89 46 08	 mov	 DWORD PTR [esi+8], eax
  00015	89 56 0c	 mov	 DWORD PTR [esi+12], edx

; 1068 : 		}

  00018	8b c6		 mov	 eax, esi
  0001a	c3		 ret	 0
??0?$num_put@DV?$ostreambuf_iterator@DU?$char_traits@D@std@@@std@@@std@@QAE@ABV_Locinfo@1@I@Z ENDP ; std::num_put<char,std::ostreambuf_iterator<char,std::char_traits<char> > >::num_put<char,std::ostreambuf_iterator<char,std::char_traits<char> > >
; Function compile flags: /Ogtpy
; File c:\program files\microsoft visual studio 9.0\vc\include\streambuf
_TEXT	ENDS
;	COMDAT ?sputn@?$basic_streambuf@DU?$char_traits@D@std@@@std@@QAEHPBDH@Z
_TEXT	SEGMENT
__Ptr$ = 8						; size = 4
?sputn@?$basic_streambuf@DU?$char_traits@D@std@@@std@@QAEHPBDH@Z PROC ; std::basic_streambuf<char,std::char_traits<char> >::sputn, COMDAT
; _this$ = ecx
; __Count$ = edx

; 168  : 		return (xsputn(_Ptr, _Count));

  00000	8b 01		 mov	 eax, DWORD PTR [ecx]
  00002	8b 40 20	 mov	 eax, DWORD PTR [eax+32]
  00005	52		 push	 edx
  00006	8b 54 24 08	 mov	 edx, DWORD PTR __Ptr$[esp]
  0000a	52		 push	 edx
  0000b	ff d0		 call	 eax

; 169  : 		}

  0000d	c2 04 00	 ret	 4
?sputn@?$basic_streambuf@DU?$char_traits@D@std@@@std@@QAEHPBDH@Z ENDP ; std::basic_streambuf<char,std::char_traits<char> >::sputn
; Function compile flags: /Ogtpy
; File c:\program files\microsoft visual studio 9.0\vc\include\xlocale
_TEXT	ENDS
;	COMDAT ??$_Maklocchr@D@std@@YADDPADABU_Cvtvec@@@Z
_TEXT	SEGMENT
??$_Maklocchr@D@std@@YADDPADABU_Cvtvec@@@Z PROC		; std::_Maklocchr<char>, COMDAT
; __Byte$ = eax

; 603  : 	return ((_Elem)(unsigned char)_Byte);
; 604  : 	}

  00000	c3		 ret	 0
??$_Maklocchr@D@std@@YADDPADABU_Cvtvec@@@Z ENDP		; std::_Maklocchr<char>
; Function compile flags: /Ogtpy
; File c:\program files\microsoft visual studio 9.0\vc\include\xlocnum
_TEXT	ENDS
;	COMDAT ?_Tidy@?$numpunct@D@std@@AAEXXZ
_TEXT	SEGMENT
?_Tidy@?$numpunct@D@std@@AAEXXZ PROC			; std::numpunct<char>::_Tidy, COMDAT
; _this$ = esi

; 191  : 		_DELETE_CRT_VEC((void *)_Grouping);

  00000	8b 46 08	 mov	 eax, DWORD PTR [esi+8]
  00003	50		 push	 eax
  00004	e8 00 00 00 00	 call	 ??_V@YAXPAX@Z		; operator delete[]

; 192  : 		_DELETE_CRT_VEC((void *)_Falsename);

  00009	8b 4e 10	 mov	 ecx, DWORD PTR [esi+16]
  0000c	51		 push	 ecx
  0000d	e8 00 00 00 00	 call	 ??_V@YAXPAX@Z		; operator delete[]

; 193  : 		_DELETE_CRT_VEC((void *)_Truename);

  00012	8b 56 14	 mov	 edx, DWORD PTR [esi+20]
  00015	52		 push	 edx
  00016	e8 00 00 00 00	 call	 ??_V@YAXPAX@Z		; operator delete[]
  0001b	83 c4 0c	 add	 esp, 12			; 0000000cH

; 194  : 		}

  0001e	c3		 ret	 0
?_Tidy@?$numpunct@D@std@@AAEXXZ ENDP			; std::numpunct<char>::_Tidy
; Function compile flags: /Ogtpy
_TEXT	ENDS
;	COMDAT ?thousands_sep@?$numpunct@D@std@@QBEDXZ
_TEXT	SEGMENT
?thousands_sep@?$numpunct@D@std@@QBEDXZ PROC		; std::numpunct<char>::thousands_sep, COMDAT
; _this$ = ecx

; 75   : 		return (do_thousands_sep());

  00000	8b 01		 mov	 eax, DWORD PTR [ecx]
  00002	8b 50 08	 mov	 edx, DWORD PTR [eax+8]
  00005	ff e2		 jmp	 edx
?thousands_sep@?$numpunct@D@std@@QBEDXZ ENDP		; std::numpunct<char>::thousands_sep
; Function compile flags: /Ogtpy
_TEXT	ENDS
;	COMDAT ?decimal_point@?$numpunct@D@std@@QBEDXZ
_TEXT	SEGMENT
?decimal_point@?$numpunct@D@std@@QBEDXZ PROC		; std::numpunct<char>::decimal_point, COMDAT
; _this$ = ecx

; 70   : 		return (do_decimal_point());

  00000	8b 01		 mov	 eax, DWORD PTR [ecx]
  00002	8b 50 04	 mov	 edx, DWORD PTR [eax+4]
  00005	ff e2		 jmp	 edx
?decimal_point@?$numpunct@D@std@@QBEDXZ ENDP		; std::numpunct<char>::decimal_point
; Function compile flags: /Ogtpy
; File c:\program files\microsoft visual studio 9.0\vc\include\streambuf
_TEXT	ENDS
;	COMDAT ??E?$ostreambuf_iterator@DU?$char_traits@D@std@@@std@@QAEAAV01@XZ
_TEXT	SEGMENT
??E?$ostreambuf_iterator@DU?$char_traits@D@std@@@std@@QAEAAV01@XZ PROC ; std::ostreambuf_iterator<char,std::char_traits<char> >::operator++, COMDAT
; _this$ = eax

; 607  : 		return (*this);
; 608  : 		}

  00000	c3		 ret	 0
??E?$ostreambuf_iterator@DU?$char_traits@D@std@@@std@@QAEAAV01@XZ ENDP ; std::ostreambuf_iterator<char,std::char_traits<char> >::operator++
; Function compile flags: /Ogtpy
_TEXT	ENDS
;	COMDAT ??D?$ostreambuf_iterator@DU?$char_traits@D@std@@@std@@QAEAAV01@XZ
_TEXT	SEGMENT
??D?$ostreambuf_iterator@DU?$char_traits@D@std@@@std@@QAEAAV01@XZ PROC ; std::ostreambuf_iterator<char,std::char_traits<char> >::operator*, COMDAT
; _this$ = eax

; 602  : 		return (*this);
; 603  : 		}

  00000	c3		 ret	 0
??D?$ostreambuf_iterator@DU?$char_traits@D@std@@@std@@QAEAAV01@XZ ENDP ; std::ostreambuf_iterator<char,std::char_traits<char> >::operator*
; Function compile flags: /Ogtpy
; File c:\program files\microsoft visual studio 9.0\vc\include\xstring
_TEXT	ENDS
;	COMDAT ??A?$basic_string@DU?$char_traits@D@std@@V?$allocator@D@2@@std@@QAEAADI@Z
_TEXT	SEGMENT
??A?$basic_string@DU?$char_traits@D@std@@V?$allocator@D@2@@std@@QAEAADI@Z PROC ; std::basic_string<char,std::char_traits<char>,std::allocator<char> >::operator[], COMDAT
; _this$ = eax
; __Off$ = edi

; 1557 : 		{	// subscript mutable sequence

  00000	56		 push	 esi
  00001	8b f0		 mov	 esi, eax

; 1558 : 
; 1559 :  #if _HAS_ITERATOR_DEBUGGING
; 1560 : 		// skip debug checks if the container is initizialed with _IGNORE_MYITERLIST
; 1561 : 		if (this->_Myfirstiter != _IGNORE_MYITERLIST)
; 1562 : 			{
; 1563 : 			if (_Mysize < _Off)
; 1564 : 				{
; 1565 : 				_DEBUG_ERROR("string subscript out of range");
; 1566 : 				_SCL_SECURE_OUT_OF_RANGE;
; 1567 : 				}
; 1568 : 			}
; 1569 :  #else
; 1570 : 		_SCL_SECURE_VALIDATE_RANGE(_Off <= _Mysize);

  00003	3b 7e 14	 cmp	 edi, DWORD PTR [esi+20]
  00006	76 05		 jbe	 SHORT $LN1@operator@5
  00008	e8 00 00 00 00	 call	 __invalid_parameter_noinfo
$LN1@operator@5:

; 1571 :  #endif /* _HAS_ITERATOR_DEBUGGING */
; 1572 : 
; 1573 : 		return (_Myptr()[_Off]);

  0000d	83 7e 18 10	 cmp	 DWORD PTR [esi+24], 16	; 00000010H
  00011	72 08		 jb	 SHORT $LN6@operator@5
  00013	8b 76 04	 mov	 esi, DWORD PTR [esi+4]
  00016	8d 04 3e	 lea	 eax, DWORD PTR [esi+edi]
  00019	5e		 pop	 esi

; 1574 : 		}

  0001a	c3		 ret	 0

; 1571 :  #endif /* _HAS_ITERATOR_DEBUGGING */
; 1572 : 
; 1573 : 		return (_Myptr()[_Off]);

$LN6@operator@5:
  0001b	8d 44 3e 04	 lea	 eax, DWORD PTR [esi+edi+4]
  0001f	5e		 pop	 esi

; 1574 : 		}

  00020	c3		 ret	 0
??A?$basic_string@DU?$char_traits@D@std@@V?$allocator@D@2@@std@@QAEAADI@Z ENDP ; std::basic_string<char,std::char_traits<char>,std::allocator<char> >::operator[]
; Function compile flags: /Ogtpy
; File c:\program files\microsoft visual studio 9.0\vc\include\xlocnum
_TEXT	ENDS
;	COMDAT ?do_thousands_sep@?$numpunct@D@std@@MBEDXZ
_TEXT	SEGMENT
?do_thousands_sep@?$numpunct@D@std@@MBEDXZ PROC		; std::numpunct<char>::do_thousands_sep, COMDAT
; _this$ = ecx

; 170  : 		return (_Kseparator);

  00000	8a 41 0d	 mov	 al, BYTE PTR [ecx+13]

; 171  : 		}

  00003	c3		 ret	 0
?do_thousands_sep@?$numpunct@D@std@@MBEDXZ ENDP		; std::numpunct<char>::do_thousands_sep
; Function compile flags: /Ogtpy
_TEXT	ENDS
;	COMDAT ?do_decimal_point@?$numpunct@D@std@@MBEDXZ
_TEXT	SEGMENT
?do_decimal_point@?$numpunct@D@std@@MBEDXZ PROC		; std::numpunct<char>::do_decimal_point, COMDAT
; _this$ = ecx

; 165  : 		return (_Dp);

  00000	8a 41 0c	 mov	 al, BYTE PTR [ecx+12]

; 166  : 		}

  00003	c3		 ret	 0
?do_decimal_point@?$numpunct@D@std@@MBEDXZ ENDP		; std::numpunct<char>::do_decimal_point
; Function compile flags: /Ogtpy
_TEXT	ENDS
;	COMDAT ??1?$numpunct@D@std@@MAE@XZ
_TEXT	SEGMENT
??1?$numpunct@D@std@@MAE@XZ PROC			; std::numpunct<char>::~numpunct<char>, COMDAT
; _this$ = ecx

; 121  : 		{	// destroy the object

  00000	56		 push	 esi
  00001	8b f1		 mov	 esi, ecx

; 122  : 		_Tidy();

  00003	8b 46 08	 mov	 eax, DWORD PTR [esi+8]
  00006	50		 push	 eax
  00007	c7 06 00 00 00
	00		 mov	 DWORD PTR [esi], OFFSET ??_7?$numpunct@D@std@@6B@
  0000d	e8 00 00 00 00	 call	 ??_V@YAXPAX@Z		; operator delete[]
  00012	8b 4e 10	 mov	 ecx, DWORD PTR [esi+16]
  00015	51		 push	 ecx
  00016	e8 00 00 00 00	 call	 ??_V@YAXPAX@Z		; operator delete[]
  0001b	8b 56 14	 mov	 edx, DWORD PTR [esi+20]
  0001e	52		 push	 edx
  0001f	e8 00 00 00 00	 call	 ??_V@YAXPAX@Z		; operator delete[]
  00024	83 c4 0c	 add	 esp, 12			; 0000000cH

; 123  : 		}

  00027	c7 06 00 00 00
	00		 mov	 DWORD PTR [esi], OFFSET ??_7facet@locale@std@@6B@
  0002d	5e		 pop	 esi
  0002e	c3		 ret	 0
??1?$numpunct@D@std@@MAE@XZ ENDP			; std::numpunct<char>::~numpunct<char>
; Function compile flags: /Ogtpy
_TEXT	ENDS
;	COMDAT ?_Ifmt@?$num_put@DV?$ostreambuf_iterator@DU?$char_traits@D@std@@@std@@@std@@ABAPADPADPBDH@Z
_TEXT	SEGMENT
?_Ifmt@?$num_put@DV?$ostreambuf_iterator@DU?$char_traits@D@std@@@std@@@std@@ABAPADPADPBDH@Z PROC ; std::num_put<char,std::ostreambuf_iterator<char,std::char_traits<char> > >::_Ifmt, COMDAT
; __Fmt$ = eax
; __Spec$ = edi
; __Flags$ = edx

; 1435 : 		char *_Ptr = _Fmt;
; 1436 : 		*_Ptr++ = '%';

  00000	c6 00 25	 mov	 BYTE PTR [eax], 37	; 00000025H
  00003	8d 48 01	 lea	 ecx, DWORD PTR [eax+1]

; 1437 : 
; 1438 : 		if (_Flags & ios_base::showpos)

  00006	f6 c2 20	 test	 dl, 32			; 00000020H
  00009	74 04		 je	 SHORT $LN4@Ifmt

; 1439 : 			*_Ptr++ = '+';

  0000b	c6 01 2b	 mov	 BYTE PTR [ecx], 43	; 0000002bH
  0000e	41		 inc	 ecx
$LN4@Ifmt:

; 1440 : 		if (_Flags & ios_base::showbase)

  0000f	f6 c2 08	 test	 dl, 8
  00012	74 04		 je	 SHORT $LN3@Ifmt

; 1441 : 			*_Ptr++ = '#';

  00014	c6 01 23	 mov	 BYTE PTR [ecx], 35	; 00000023H
  00017	41		 inc	 ecx
$LN3@Ifmt:
  00018	53		 push	 ebx

; 1442 : 		if (_Spec[0] != 'L')

  00019	8a 1f		 mov	 bl, BYTE PTR [edi]
  0001b	56		 push	 esi
  0001c	80 fb 4c	 cmp	 bl, 76			; 0000004cH
  0001f	74 04		 je	 SHORT $LN2@Ifmt

; 1443 : 			*_Ptr++ = _Spec[0];	// qualifier

  00021	88 19		 mov	 BYTE PTR [ecx], bl

; 1444 : 		else

  00023	eb 0b		 jmp	 SHORT $LN11@Ifmt
$LN2@Ifmt:

; 1445 : 			{	/* change L to I64 */
; 1446 : 			*_Ptr++ = 'I';

  00025	c6 01 49	 mov	 BYTE PTR [ecx], 73	; 00000049H
  00028	41		 inc	 ecx

; 1447 : 			*_Ptr++ = '6';

  00029	c6 01 36	 mov	 BYTE PTR [ecx], 54	; 00000036H
  0002c	41		 inc	 ecx

; 1448 : 			*_Ptr++ = '4';

  0002d	c6 01 34	 mov	 BYTE PTR [ecx], 52	; 00000034H
$LN11@Ifmt:

; 1449 : 			}
; 1450 : 
; 1451 : 		ios_base::fmtflags _Basefield = _Flags & ios_base::basefield;

  00030	8b f2		 mov	 esi, edx
  00032	81 e6 00 0e 00
	00		 and	 esi, 3584		; 00000e00H
  00038	41		 inc	 ecx

; 1452 : 		*_Ptr++ = _Basefield == ios_base::oct ? 'o'
; 1453 : 			: _Basefield != ios_base::hex ? _Spec[1]	// 'd' or 'u'
; 1454 : 			: _Flags & ios_base::uppercase ? 'X' : 'x';

  00039	81 fe 00 04 00
	00		 cmp	 esi, 1024		; 00000400H
  0003f	75 0b		 jne	 SHORT $LN9@Ifmt
  00041	b2 6f		 mov	 dl, 111			; 0000006fH
  00043	5e		 pop	 esi
  00044	88 11		 mov	 BYTE PTR [ecx], dl

; 1455 : 		*_Ptr = '\0';

  00046	c6 41 01 00	 mov	 BYTE PTR [ecx+1], 0
  0004a	5b		 pop	 ebx

; 1456 : 		return (_Fmt);
; 1457 : 		}

  0004b	c3		 ret	 0
$LN9@Ifmt:

; 1452 : 		*_Ptr++ = _Basefield == ios_base::oct ? 'o'
; 1453 : 			: _Basefield != ios_base::hex ? _Spec[1]	// 'd' or 'u'
; 1454 : 			: _Flags & ios_base::uppercase ? 'X' : 'x';

  0004c	81 fe 00 08 00
	00		 cmp	 esi, 2048		; 00000800H
  00052	74 0c		 je	 SHORT $LN7@Ifmt
  00054	8a 57 01	 mov	 dl, BYTE PTR [edi+1]
  00057	5e		 pop	 esi
  00058	88 11		 mov	 BYTE PTR [ecx], dl

; 1455 : 		*_Ptr = '\0';

  0005a	c6 41 01 00	 mov	 BYTE PTR [ecx+1], 0
  0005e	5b		 pop	 ebx

; 1456 : 		return (_Fmt);
; 1457 : 		}

  0005f	c3		 ret	 0
$LN7@Ifmt:

; 1452 : 		*_Ptr++ = _Basefield == ios_base::oct ? 'o'
; 1453 : 			: _Basefield != ios_base::hex ? _Spec[1]	// 'd' or 'u'
; 1454 : 			: _Flags & ios_base::uppercase ? 'X' : 'x';

  00060	02 d2		 add	 dl, dl
  00062	02 d2		 add	 dl, dl
  00064	02 d2		 add	 dl, dl
  00066	f6 d2		 not	 dl
  00068	80 e2 20	 and	 dl, 32			; 00000020H
  0006b	80 ca 58	 or	 dl, 88			; 00000058H
  0006e	5e		 pop	 esi
  0006f	88 11		 mov	 BYTE PTR [ecx], dl

; 1455 : 		*_Ptr = '\0';

  00071	c6 41 01 00	 mov	 BYTE PTR [ecx+1], 0
  00075	5b		 pop	 ebx

; 1456 : 		return (_Fmt);
; 1457 : 		}

  00076	c3		 ret	 0
?_Ifmt@?$num_put@DV?$ostreambuf_iterator@DU?$char_traits@D@std@@@std@@@std@@ABAPADPADPBDH@Z ENDP ; std::num_put<char,std::ostreambuf_iterator<char,std::char_traits<char> > >::_Ifmt
; Function compile flags: /Ogtpy
_TEXT	ENDS
;	COMDAT ?_Ffmt@?$num_put@DV?$ostreambuf_iterator@DU?$char_traits@D@std@@@std@@@std@@ABAPADPADDH@Z
_TEXT	SEGMENT
__Spec$ = 8						; size = 1
?_Ffmt@?$num_put@DV?$ostreambuf_iterator@DU?$char_traits@D@std@@@std@@@std@@ABAPADPADDH@Z PROC ; std::num_put<char,std::ostreambuf_iterator<char,std::char_traits<char> > >::_Ffmt, COMDAT
; __Fmt$ = eax
; __Flags$ = edx

; 1291 : 		{	// generate sprintf format for floating-point

  00000	53		 push	 ebx
  00001	8a 5c 24 08	 mov	 bl, BYTE PTR __Spec$[esp]

; 1292 : 		char *_Ptr = _Fmt;
; 1293 : 		*_Ptr++ = '%';

  00005	c6 00 25	 mov	 BYTE PTR [eax], 37	; 00000025H
  00008	8d 48 01	 lea	 ecx, DWORD PTR [eax+1]

; 1294 : 
; 1295 : 		if (_Flags & ios_base::showpos)

  0000b	f6 c2 20	 test	 dl, 32			; 00000020H
  0000e	74 04		 je	 SHORT $LN3@Ffmt

; 1296 : 			*_Ptr++ = '+';

  00010	c6 01 2b	 mov	 BYTE PTR [ecx], 43	; 0000002bH
  00013	41		 inc	 ecx
$LN3@Ffmt:

; 1297 : 		if (_Flags & ios_base::showpoint)

  00014	f6 c2 10	 test	 dl, 16			; 00000010H
  00017	74 04		 je	 SHORT $LN2@Ffmt

; 1298 : 			*_Ptr++ = '#';

  00019	c6 01 23	 mov	 BYTE PTR [ecx], 35	; 00000023H
  0001c	41		 inc	 ecx
$LN2@Ffmt:

; 1299 : 		*_Ptr++ = '.';

  0001d	c6 01 2e	 mov	 BYTE PTR [ecx], 46	; 0000002eH
  00020	41		 inc	 ecx

; 1300 : 		*_Ptr++ = '*';	// for precision argument

  00021	c6 01 2a	 mov	 BYTE PTR [ecx], 42	; 0000002aH
  00024	41		 inc	 ecx

; 1301 : 		if (_Spec != '\0')

  00025	84 db		 test	 bl, bl
  00027	74 03		 je	 SHORT $LN1@Ffmt

; 1302 : 			*_Ptr++ = _Spec;	// 'L' qualifier for long double only

  00029	88 19		 mov	 BYTE PTR [ecx], bl
  0002b	41		 inc	 ecx
$LN1@Ffmt:

; 1303 : 
; 1304 : 		ios_base::fmtflags _Ffl = _Flags & ios_base::floatfield;

  0002c	81 e2 00 30 00
	00		 and	 edx, 12288		; 00003000H
  00032	5b		 pop	 ebx

; 1305 : 		*_Ptr++ = _Ffl == ios_base::fixed ? 'f'
; 1306 : 			: _Ffl == ios_base::hexfloat ? 'a'	// added with TR1
; 1307 : 			: _Ffl == ios_base::scientific ? 'e' : 'g';	// specifier

  00033	81 fa 00 20 00
	00		 cmp	 edx, 8192		; 00002000H
  00039	75 09		 jne	 SHORT $LN8@Ffmt
  0003b	b2 66		 mov	 dl, 102			; 00000066H
  0003d	88 11		 mov	 BYTE PTR [ecx], dl

; 1308 : 		*_Ptr = '\0';

  0003f	c6 41 01 00	 mov	 BYTE PTR [ecx+1], 0

; 1309 : 		return (_Fmt);
; 1310 : 		}

  00043	c3		 ret	 0
$LN8@Ffmt:

; 1305 : 		*_Ptr++ = _Ffl == ios_base::fixed ? 'f'
; 1306 : 			: _Ffl == ios_base::hexfloat ? 'a'	// added with TR1
; 1307 : 			: _Ffl == ios_base::scientific ? 'e' : 'g';	// specifier

  00044	81 fa 00 30 00
	00		 cmp	 edx, 12288		; 00003000H
  0004a	75 09		 jne	 SHORT $LN6@Ffmt
  0004c	b2 61		 mov	 dl, 97			; 00000061H
  0004e	88 11		 mov	 BYTE PTR [ecx], dl

; 1308 : 		*_Ptr = '\0';

  00050	c6 41 01 00	 mov	 BYTE PTR [ecx+1], 0

; 1309 : 		return (_Fmt);
; 1310 : 		}

  00054	c3		 ret	 0
$LN6@Ffmt:

; 1305 : 		*_Ptr++ = _Ffl == ios_base::fixed ? 'f'
; 1306 : 			: _Ffl == ios_base::hexfloat ? 'a'	// added with TR1
; 1307 : 			: _Ffl == ios_base::scientific ? 'e' : 'g';	// specifier

  00055	81 fa 00 10 00
	00		 cmp	 edx, 4096		; 00001000H
  0005b	0f 95 c2	 setne	 dl
  0005e	8d 54 12 65	 lea	 edx, DWORD PTR [edx+edx+101]
  00062	88 11		 mov	 BYTE PTR [ecx], dl

; 1308 : 		*_Ptr = '\0';

  00064	c6 41 01 00	 mov	 BYTE PTR [ecx+1], 0

; 1309 : 		return (_Fmt);
; 1310 : 		}

  00068	c3		 ret	 0
?_Ffmt@?$num_put@DV?$ostreambuf_iterator@DU?$char_traits@D@std@@@std@@@std@@ABAPADPADDH@Z ENDP ; std::num_put<char,std::ostreambuf_iterator<char,std::char_traits<char> > >::_Ffmt
; Function compile flags: /Ogtpy
; File c:\program files\microsoft visual studio 9.0\vc\include\streambuf
_TEXT	ENDS
;	COMDAT ?failed@?$ostreambuf_iterator@DU?$char_traits@D@std@@@std@@QBE_NXZ
_TEXT	SEGMENT
?failed@?$ostreambuf_iterator@DU?$char_traits@D@std@@@std@@QBE_NXZ PROC ; std::ostreambuf_iterator<char,std::char_traits<char> >::failed, COMDAT
; _this$ = eax

; 617  : 		return (_Failed);

  00000	8a 00		 mov	 al, BYTE PTR [eax]

; 618  : 		}

  00002	c3		 ret	 0
?failed@?$ostreambuf_iterator@DU?$char_traits@D@std@@@std@@QBE_NXZ ENDP ; std::ostreambuf_iterator<char,std::char_traits<char> >::failed
; Function compile flags: /Ogtpy
_TEXT	ENDS
;	COMDAT ??0?$ostreambuf_iterator@DU?$char_traits@D@std@@@std@@QAE@PAV?$basic_streambuf@DU?$char_traits@D@std@@@1@@Z
_TEXT	SEGMENT
??0?$ostreambuf_iterator@DU?$char_traits@D@std@@@std@@QAE@PAV?$basic_streambuf@DU?$char_traits@D@std@@@1@@Z PROC ; std::ostreambuf_iterator<char,std::char_traits<char> >::ostreambuf_iterator<char,std::char_traits<char> >, COMDAT
; _this$ = eax
; __Sb$ = ecx

; 583  : 		{	// construct from stream buffer _Sb

  00000	c6 00 00	 mov	 BYTE PTR [eax], 0
  00003	89 48 04	 mov	 DWORD PTR [eax+4], ecx

; 584  : 		}

  00006	c3		 ret	 0
??0?$ostreambuf_iterator@DU?$char_traits@D@std@@@std@@QAE@PAV?$basic_streambuf@DU?$char_traits@D@std@@@1@@Z ENDP ; std::ostreambuf_iterator<char,std::char_traits<char> >::ostreambuf_iterator<char,std::char_traits<char> >
; Function compile flags: /Ogtpy
; File c:\program files\microsoft visual studio 9.0\vc\include\xlocnum
_TEXT	ENDS
;	COMDAT ?put@?$num_put@DV?$ostreambuf_iterator@DU?$char_traits@D@std@@@std@@@std@@QBE?AV?$ostreambuf_iterator@DU?$char_traits@D@std@@@2@V32@AAVios_base@2@D_K@Z
_TEXT	SEGMENT
__Iosbase$ = 8						; size = 4
__Fill$ = 12						; size = 1
__Val$ = 16						; size = 8
__Dest$ = 24						; size = 8
?put@?$num_put@DV?$ostreambuf_iterator@DU?$char_traits@D@std@@@std@@@std@@QBE?AV?$ostreambuf_iterator@DU?$char_traits@D@std@@@2@V32@AAVios_base@2@D_K@Z PROC ; std::num_put<char,std::ostreambuf_iterator<char,std::char_traits<char> > >::put, COMDAT
; _this$ = ecx
; ___$ReturnUdt$ = esi

; 1101 : 		return (do_put(_Dest, _Iosbase, _Fill, _Val));

  00000	8b 54 24 10	 mov	 edx, DWORD PTR __Val$[esp]
  00004	8b 01		 mov	 eax, DWORD PTR [ecx]
  00006	8b 40 10	 mov	 eax, DWORD PTR [eax+16]
  00009	52		 push	 edx
  0000a	8b 54 24 10	 mov	 edx, DWORD PTR __Val$[esp]
  0000e	52		 push	 edx
  0000f	8b 54 24 10	 mov	 edx, DWORD PTR __Fill$[esp+4]
  00013	52		 push	 edx
  00014	8b 54 24 10	 mov	 edx, DWORD PTR __Iosbase$[esp+8]
  00018	52		 push	 edx
  00019	8b 54 24 28	 mov	 edx, DWORD PTR __Dest$[esp+16]
  0001d	52		 push	 edx
  0001e	8b 54 24 28	 mov	 edx, DWORD PTR __Dest$[esp+16]
  00022	52		 push	 edx
  00023	56		 push	 esi
  00024	ff d0		 call	 eax
  00026	8b c6		 mov	 eax, esi

; 1102 : 		}

  00028	c2 18 00	 ret	 24			; 00000018H
?put@?$num_put@DV?$ostreambuf_iterator@DU?$char_traits@D@std@@@std@@@std@@QBE?AV?$ostreambuf_iterator@DU?$char_traits@D@std@@@2@V32@AAVios_base@2@D_K@Z ENDP ; std::num_put<char,std::ostreambuf_iterator<char,std::char_traits<char> > >::put
; Function compile flags: /Ogtpy
_TEXT	ENDS
;	COMDAT ??1?$num_put@DV?$ostreambuf_iterator@DU?$char_traits@D@std@@@std@@@std@@MAE@XZ
_TEXT	SEGMENT
??1?$num_put@DV?$ostreambuf_iterator@DU?$char_traits@D@std@@@std@@@std@@MAE@XZ PROC ; std::num_put<char,std::ostreambuf_iterator<char,std::char_traits<char> > >::~num_put<char,std::ostreambuf_iterator<char,std::char_traits<char> > >, COMDAT
; _this$ = ecx

; 1045 : 		}

  00000	c7 01 00 00 00
	00		 mov	 DWORD PTR [ecx], OFFSET ??_7facet@locale@std@@6B@
  00006	c3		 ret	 0
??1?$num_put@DV?$ostreambuf_iterator@DU?$char_traits@D@std@@@std@@@std@@MAE@XZ ENDP ; std::num_put<char,std::ostreambuf_iterator<char,std::char_traits<char> > >::~num_put<char,std::ostreambuf_iterator<char,std::char_traits<char> > >
; Function compile flags: /Ogtpy
; File c:\program files\microsoft visual studio 9.0\vc\include\ios
_TEXT	ENDS
;	COMDAT ?fill@?$basic_ios@DU?$char_traits@D@std@@@std@@QBEDXZ
_TEXT	SEGMENT
?fill@?$basic_ios@DU?$char_traits@D@std@@@std@@QBEDXZ PROC ; std::basic_ios<char,std::char_traits<char> >::fill, COMDAT
; _this$ = eax

; 106  : 		return (_Fillch);

  00000	8a 40 30	 mov	 al, BYTE PTR [eax+48]

; 107  : 		}

  00003	c3		 ret	 0
?fill@?$basic_ios@DU?$char_traits@D@std@@@std@@QBEDXZ ENDP ; std::basic_ios<char,std::char_traits<char> >::fill
; Function compile flags: /Ogtpy
; File c:\program files\microsoft visual studio 9.0\vc\include\ostream
_TEXT	ENDS
;	COMDAT ??6?$basic_ostream@DU?$char_traits@D@std@@@std@@QAEAAV01@P6AAAV01@AAV01@@Z@Z
_TEXT	SEGMENT
??6?$basic_ostream@DU?$char_traits@D@std@@@std@@QAEAAV01@P6AAAV01@AAV01@@Z@Z PROC ; std::basic_ostream<char,std::char_traits<char> >::operator<<, COMDAT
; _this$ = esi

; 172  : 		_DEBUG_POINTER(_Pfn);
; 173  : 		return ((*_Pfn)(*this));

  00000	6a 0a		 push	 10			; 0000000aH
  00002	8b ce		 mov	 ecx, esi
  00004	e8 00 00 00 00	 call	 ?put@?$basic_ostream@DU?$char_traits@D@std@@@std@@QAEAAV12@D@Z ; std::basic_ostream<char,std::char_traits<char> >::put
  00009	8b ce		 mov	 ecx, esi
  0000b	e8 00 00 00 00	 call	 ?flush@?$basic_ostream@DU?$char_traits@D@std@@@std@@QAEAAV12@XZ ; std::basic_ostream<char,std::char_traits<char> >::flush
  00010	8b c6		 mov	 eax, esi

; 174  : 		}

  00012	c3		 ret	 0
??6?$basic_ostream@DU?$char_traits@D@std@@@std@@QAEAAV01@P6AAAV01@AAV01@@Z@Z ENDP ; std::basic_ostream<char,std::char_traits<char> >::operator<<
; Function compile flags: /Ogtpy
; File c:\program files\microsoft visual studio 9.0\vc\include\xstring
_TEXT	ENDS
;	COMDAT ?empty@?$basic_string@DU?$char_traits@D@std@@V?$allocator@D@2@@std@@QBE_NXZ
_TEXT	SEGMENT
?empty@?$basic_string@DU?$char_traits@D@std@@V?$allocator@D@2@@std@@QBE_NXZ PROC ; std::basic_string<char,std::char_traits<char>,std::allocator<char> >::empty, COMDAT
; _this$ = ecx

; 1705 : 		return (_Mysize == 0);

  00000	33 c0		 xor	 eax, eax
  00002	39 41 14	 cmp	 DWORD PTR [ecx+20], eax
  00005	0f 94 c0	 sete	 al

; 1706 : 		}

  00008	c3		 ret	 0
?empty@?$basic_string@DU?$char_traits@D@std@@V?$allocator@D@2@@std@@QBE_NXZ ENDP ; std::basic_string<char,std::char_traits<char>,std::allocator<char> >::empty
_TEXT	ENDS
PUBLIC	?ChkSIMD@@YAHXZ					; ChkSIMD
; Function compile flags: /Ogtpy
; File i:\nj\my project\cms\cms\main.cpp
;	COMDAT ?ChkSIMD@@YAHXZ
_TEXT	SEGMENT
?ChkSIMD@@YAHXZ PROC					; ChkSIMD, COMDAT

; 104  : int	ChkSIMD(){

  00000	53		 push	 ebx

; 105  : 	__asm{
; 106  : 		push	ebx

  00001	53		 push	 ebx

; 107  : 		push	ecx

  00002	51		 push	 ecx

; 108  : 		push	edx

  00003	52		 push	 edx

; 109  : 
; 110  : 		mov		eax, 1

  00004	b8 01 00 00 00	 mov	 eax, 1

; 111  : 		cpuid

  00009	0f a2		 cpuid

; 112  : 		test	ecx, 002000000h

  0000b	f7 c1 00 00 00
	02		 test	 ecx, 33554432		; 02000000H

; 113  : 		jnz		ChkSIMD_AESNI

  00011	75 16		 jne	 SHORT $ChkSIMD_AESNI$39227

; 114  : 		test	edx, 004000000h		;//SSE2 check

  00013	f7 c2 00 00 00
	04		 test	 edx, 67108864		; 04000000H

; 115  : 		jnz		ChkSIMD_SSE2

  00019	75 07		 jne	 SHORT $ChkSIMD_SSE2$39228

; 116  : 		mov		eax, 0

  0001b	b8 00 00 00 00	 mov	 eax, 0

; 117  : 		jmp		ChkSIMD_END

  00020	eb 0c		 jmp	 SHORT $ChkSIMD_END$39229
$ChkSIMD_SSE2$39228:

; 118  : ChkSIMD_SSE2:
; 119  : 		mov		eax, 1

  00022	b8 01 00 00 00	 mov	 eax, 1

; 120  : 		jmp		ChkSIMD_END

  00027	eb 05		 jmp	 SHORT $ChkSIMD_END$39229
$ChkSIMD_AESNI$39227:

; 121  : ChkSIMD_AESNI:
; 122  : 		mov		eax, 2

  00029	b8 02 00 00 00	 mov	 eax, 2
$ChkSIMD_END$39229:

; 123  : ;		jmp		ChkSIMD_END
; 124  : ChkSIMD_END:
; 125  : 
; 126  : 		pop		edx

  0002e	5a		 pop	 edx

; 127  : 		pop		ecx

  0002f	59		 pop	 ecx

; 128  : 		pop		ebx

  00030	5b		 pop	 ebx

; 129  : 	}
; 130  : }

  00031	5b		 pop	 ebx
  00032	c3		 ret	 0
?ChkSIMD@@YAHXZ ENDP					; ChkSIMD
_TEXT	ENDS
PUBLIC	?ReadTSC@@YA_JXZ				; ReadTSC
; Function compile flags: /Ogtpy
;	COMDAT ?ReadTSC@@YA_JXZ
_TEXT	SEGMENT
?ReadTSC@@YA_JXZ PROC					; ReadTSC, COMDAT

; 91   : 	__asm{
; 92   : ;		cpuid
; 93   : 		rdtsc

  00000	0f 31		 rdtsc

; 94   : 	}
; 95   : }

  00002	c3		 ret	 0
?ReadTSC@@YA_JXZ ENDP					; ReadTSC
; Function compile flags: /Ogtpy
; File c:\program files\microsoft visual studio 9.0\vc\include\xstring
;	COMDAT ?_Eos@?$basic_string@DU?$char_traits@D@std@@V?$allocator@D@2@@std@@IAEXI@Z
_TEXT	SEGMENT
__Newsize$ = 8						; size = 4
?_Eos@?$basic_string@DU?$char_traits@D@std@@V?$allocator@D@2@@std@@IAEXI@Z PROC ; std::basic_string<char,std::char_traits<char>,std::allocator<char> >::_Eos, COMDAT
; _this$ = ecx

; 2114 : 		_Traits::assign(_Myptr()[_Mysize = _Newsize], _Elem());

  00000	83 79 18 10	 cmp	 DWORD PTR [ecx+24], 16	; 00000010H
  00004	8b 44 24 04	 mov	 eax, DWORD PTR __Newsize$[esp-4]
  00008	89 41 14	 mov	 DWORD PTR [ecx+20], eax
  0000b	72 0a		 jb	 SHORT $LN5@Eos
  0000d	8b 49 04	 mov	 ecx, DWORD PTR [ecx+4]
  00010	c6 04 01 00	 mov	 BYTE PTR [ecx+eax], 0

; 2115 : 		}

  00014	c2 04 00	 ret	 4

; 2114 : 		_Traits::assign(_Myptr()[_Mysize = _Newsize], _Elem());

$LN5@Eos:
  00017	c6 44 01 04 00	 mov	 BYTE PTR [ecx+eax+4], 0

; 2115 : 		}

  0001c	c2 04 00	 ret	 4
?_Eos@?$basic_string@DU?$char_traits@D@std@@V?$allocator@D@2@@std@@IAEXI@Z ENDP ; std::basic_string<char,std::char_traits<char>,std::allocator<char> >::_Eos
; Function compile flags: /Ogtpy
; File c:\program files\microsoft visual studio 9.0\vc\include\iosfwd
_TEXT	ENDS
;	COMDAT ??$copy_s@U?$char_traits@D@std@@@_Traits_helper@std@@YAPADPADIPBDIU_Secure_char_traits_tag@1@@Z
_TEXT	SEGMENT
__First1$ = 8						; size = 4
__Size$ = 12						; size = 4
__First2$ = 16						; size = 4
__Count$ = 20						; size = 4
___formal$ = 24						; size = 1
??$copy_s@U?$char_traits@D@std@@@_Traits_helper@std@@YAPADPADIPBDIU_Secure_char_traits_tag@1@@Z PROC ; std::_Traits_helper::copy_s<std::char_traits<char> >, COMDAT

; 597  : 		return _Traits::_Copy_s(_First1, _Size, _First2, _Count);

  00000	8b 44 24 10	 mov	 eax, DWORD PTR __Count$[esp-4]
  00004	8b 4c 24 0c	 mov	 ecx, DWORD PTR __First2$[esp-4]
  00008	8b 54 24 08	 mov	 edx, DWORD PTR __Size$[esp-4]
  0000c	56		 push	 esi
  0000d	8b 74 24 08	 mov	 esi, DWORD PTR __First1$[esp]
  00011	50		 push	 eax
  00012	51		 push	 ecx
  00013	52		 push	 edx
  00014	56		 push	 esi
  00015	e8 00 00 00 00	 call	 _memcpy_s
  0001a	83 c4 10	 add	 esp, 16			; 00000010H
  0001d	8b c6		 mov	 eax, esi
  0001f	5e		 pop	 esi

; 598  : 	}

  00020	c3		 ret	 0
??$copy_s@U?$char_traits@D@std@@@_Traits_helper@std@@YAPADPADIPBDIU_Secure_char_traits_tag@1@@Z ENDP ; std::_Traits_helper::copy_s<std::char_traits<char> >
; Function compile flags: /Ogtpy
; File c:\program files\microsoft visual studio 9.0\vc\include\xmemory
_TEXT	ENDS
;	COMDAT ??$_Allocate@D@std@@YAPADIPAD@Z
_TEXT	SEGMENT
$T56363 = -12						; size = 12
$T56367 = 8						; size = 4
__Count$ = 8						; size = 4
___formal$ = 12						; size = 4
??$_Allocate@D@std@@YAPADIPAD@Z PROC			; std::_Allocate<char>, COMDAT

; 37   : 	if (_Count <= 0)

  00000	8b 4c 24 04	 mov	 ecx, DWORD PTR __Count$[esp-4]
  00004	83 ec 0c	 sub	 esp, 12			; 0000000cH
  00007	85 c9		 test	 ecx, ecx
  00009	77 0f		 ja	 SHORT $LN3@Allocate@7

; 38   : 		_Count = 0;

  0000b	33 c9		 xor	 ecx, ecx
$LN1@Allocate@7:

; 41   : 
; 42   : 		// allocate storage for _Count elements of type _Ty
; 43   : 	return ((_Ty _FARQ *)::operator new(_Count * sizeof (_Ty)));

  0000d	51		 push	 ecx
  0000e	e8 00 00 00 00	 call	 ??2@YAPAXI@Z		; operator new
  00013	83 c4 04	 add	 esp, 4

; 44   : 	}

  00016	83 c4 0c	 add	 esp, 12			; 0000000cH
  00019	c3		 ret	 0
$LN3@Allocate@7:

; 39   : 	else if (((_SIZT)(-1) / _Count) < sizeof (_Ty))

  0001a	83 c8 ff	 or	 eax, -1
  0001d	33 d2		 xor	 edx, edx
  0001f	f7 f1		 div	 ecx
  00021	83 f8 01	 cmp	 eax, 1
  00024	73 e7		 jae	 SHORT $LN1@Allocate@7

; 40   : 		_THROW_NCEE(std::bad_alloc, NULL);

  00026	8d 44 24 10	 lea	 eax, DWORD PTR $T56367[esp+8]
  0002a	50		 push	 eax
  0002b	8d 4c 24 04	 lea	 ecx, DWORD PTR $T56363[esp+16]
  0002f	c7 44 24 14 00
	00 00 00	 mov	 DWORD PTR $T56367[esp+12], 0
  00037	e8 00 00 00 00	 call	 ??0exception@std@@QAE@ABQBD@Z ; std::exception::exception
  0003c	68 00 00 00 00	 push	 OFFSET __TI2?AVbad_alloc@std@@
  00041	8d 4c 24 04	 lea	 ecx, DWORD PTR $T56363[esp+16]
  00045	51		 push	 ecx
  00046	c7 44 24 08 00
	00 00 00	 mov	 DWORD PTR $T56363[esp+20], OFFSET ??_7bad_alloc@std@@6B@
  0004e	e8 00 00 00 00	 call	 __CxxThrowException@8
$LN9@Allocate@7:
$LN8@Allocate@7:
  00053	cc		 int	 3
??$_Allocate@D@std@@YAPADIPAD@Z ENDP			; std::_Allocate<char>
; Function compile flags: /Ogtpy
_TEXT	ENDS
;	COMDAT ??_Gbad_alloc@std@@UAEPAXI@Z
_TEXT	SEGMENT
___flags$ = 8						; size = 4
??_Gbad_alloc@std@@UAEPAXI@Z PROC			; std::bad_alloc::`scalar deleting destructor', COMDAT
; _this$ = ecx
  00000	56		 push	 esi
  00001	8b f1		 mov	 esi, ecx
  00003	c7 06 00 00 00
	00		 mov	 DWORD PTR [esi], OFFSET ??_7bad_alloc@std@@6B@
  00009	e8 00 00 00 00	 call	 ??1exception@std@@UAE@XZ ; std::exception::~exception
  0000e	f6 44 24 08 01	 test	 BYTE PTR ___flags$[esp], 1
  00013	74 09		 je	 SHORT $LN6@scalar@5
  00015	56		 push	 esi
  00016	e8 00 00 00 00	 call	 ??3@YAXPAX@Z		; operator delete
  0001b	83 c4 04	 add	 esp, 4
$LN6@scalar@5:
  0001e	8b c6		 mov	 eax, esi
  00020	5e		 pop	 esi
  00021	c2 04 00	 ret	 4
??_Gbad_alloc@std@@UAEPAXI@Z ENDP			; std::bad_alloc::`scalar deleting destructor'
; Function compile flags: /Ogtpy
; File c:\program files\microsoft visual studio 9.0\vc\include\xstring
_TEXT	ENDS
;	COMDAT ?max_size@?$basic_string@DU?$char_traits@D@std@@V?$allocator@D@2@@std@@QBEIXZ
_TEXT	SEGMENT
?max_size@?$basic_string@DU?$char_traits@D@std@@V?$allocator@D@2@@std@@QBEIXZ PROC ; std::basic_string<char,std::char_traits<char>,std::allocator<char> >::max_size, COMDAT
; _this$ = ecx

; 1671 : 		size_type _Num = _Mybase::_Alval.max_size();
; 1672 : 		return (_Num <= 1 ? 1 : _Num - 1);

  00000	b8 fe ff ff ff	 mov	 eax, -2			; fffffffeH

; 1673 : 		}

  00005	c3		 ret	 0
?max_size@?$basic_string@DU?$char_traits@D@std@@V?$allocator@D@2@@std@@QBEIXZ ENDP ; std::basic_string<char,std::char_traits<char>,std::allocator<char> >::max_size
; Function compile flags: /Ogtpy
; File c:\program files\microsoft visual studio 9.0\vc\include\iosfwd
_TEXT	ENDS
;	COMDAT ??$move_s@U?$char_traits@D@std@@@_Traits_helper@std@@YAPADPADIPBDIU_Secure_char_traits_tag@1@@Z
_TEXT	SEGMENT
__First1$ = 8						; size = 4
__Size$ = 12						; size = 4
__First2$ = 16						; size = 4
__Count$ = 20						; size = 4
___formal$ = 24						; size = 1
??$move_s@U?$char_traits@D@std@@@_Traits_helper@std@@YAPADPADIPBDIU_Secure_char_traits_tag@1@@Z PROC ; std::_Traits_helper::move_s<std::char_traits<char> >, COMDAT

; 624  : 		return _Traits::_Move_s(_First1, _Size, _First2, _Count);

  00000	8b 44 24 10	 mov	 eax, DWORD PTR __Count$[esp-4]
  00004	8b 4c 24 0c	 mov	 ecx, DWORD PTR __First2$[esp-4]
  00008	8b 54 24 08	 mov	 edx, DWORD PTR __Size$[esp-4]
  0000c	56		 push	 esi
  0000d	8b 74 24 08	 mov	 esi, DWORD PTR __First1$[esp]
  00011	50		 push	 eax
  00012	51		 push	 ecx
  00013	52		 push	 edx
  00014	56		 push	 esi
  00015	e8 00 00 00 00	 call	 _memmove_s
  0001a	83 c4 10	 add	 esp, 16			; 00000010H
  0001d	8b c6		 mov	 eax, esi
  0001f	5e		 pop	 esi

; 625  : 	}

  00020	c3		 ret	 0
??$move_s@U?$char_traits@D@std@@@_Traits_helper@std@@YAPADPADIPBDIU_Secure_char_traits_tag@1@@Z ENDP ; std::_Traits_helper::move_s<std::char_traits<char> >
; Function compile flags: /Ogtpy
; File c:\program files\microsoft visual studio 9.0\vc\include\xstring
_TEXT	ENDS
;	COMDAT ??0?$_String_val@DV?$allocator@D@std@@@std@@QAE@ABV01@@Z
_TEXT	SEGMENT
__Right$ = 8						; size = 4
??0?$_String_val@DV?$allocator@D@std@@@std@@QAE@ABV01@@Z PROC ; std::_String_val<char,std::allocator<char> >::_String_val<char,std::allocator<char> >, COMDAT
; _this$ = ecx

; 478  : 		{	// copy constructor

  00000	8b c1		 mov	 eax, ecx

; 479  : #if defined(_DEBUG)
; 480  : 		if (_Right._Myfirstiter == _IGNORE_MYITERLIST)
; 481  : 			{
; 482  : 			this->_Myfirstiter = _IGNORE_MYITERLIST;
; 483  : 			}
; 484  : #endif
; 485  : 		}

  00002	c2 04 00	 ret	 4
??0?$_String_val@DV?$allocator@D@std@@@std@@QAE@ABV01@@Z ENDP ; std::_String_val<char,std::allocator<char> >::_String_val<char,std::allocator<char> >
; Function compile flags: /Ogtpy
; File c:\program files\microsoft visual studio 9.0\vc\include\stdexcept
_TEXT	ENDS
;	COMDAT ?what@runtime_error@std@@UBEPBDXZ
_TEXT	SEGMENT
?what@runtime_error@std@@UBEPBDXZ PROC			; std::runtime_error::what, COMDAT
; _this$ = ecx

; 162  : 		return (_Str.c_str());

  00000	83 79 24 10	 cmp	 DWORD PTR [ecx+36], 16	; 00000010H
  00004	72 04		 jb	 SHORT $LN7@what@2
  00006	8b 41 10	 mov	 eax, DWORD PTR [ecx+16]

; 163  : 		}

  00009	c3		 ret	 0

; 162  : 		return (_Str.c_str());

$LN7@what@2:
  0000a	8d 41 10	 lea	 eax, DWORD PTR [ecx+16]

; 163  : 		}

  0000d	c3		 ret	 0
?what@runtime_error@std@@UBEPBDXZ ENDP			; std::runtime_error::what
; Function compile flags: /Ogtpy
; File c:\program files\microsoft visual studio 9.0\vc\include\streambuf
_TEXT	ENDS
;	COMDAT ?sputc@?$basic_streambuf@DU?$char_traits@D@std@@@std@@QAEHD@Z
_TEXT	SEGMENT
?sputc@?$basic_streambuf@DU?$char_traits@D@std@@@std@@QAEHD@Z PROC ; std::basic_streambuf<char,std::char_traits<char> >::sputc, COMDAT
; _this$ = ecx
; __Ch$ = edx

; 161  : 		return (0 < _Pnavail()
; 162  : 			? _Traits::to_int_type(*_Pninc() = _Ch)
; 163  : 			: overflow(_Traits::to_int_type(_Ch)));

  00000	8b 41 24	 mov	 eax, DWORD PTR [ecx+36]
  00003	83 38 00	 cmp	 DWORD PTR [eax], 0
  00006	74 1c		 je	 SHORT $LN3@sputc
  00008	8b 41 34	 mov	 eax, DWORD PTR [ecx+52]
  0000b	83 38 00	 cmp	 DWORD PTR [eax], 0
  0000e	7e 14		 jle	 SHORT $LN3@sputc
  00010	ff 08		 dec	 DWORD PTR [eax]
  00012	8b 49 24	 mov	 ecx, DWORD PTR [ecx+36]
  00015	8b 01		 mov	 eax, DWORD PTR [ecx]
  00017	56		 push	 esi
  00018	8d 70 01	 lea	 esi, DWORD PTR [eax+1]
  0001b	89 31		 mov	 DWORD PTR [ecx], esi
  0001d	88 10		 mov	 BYTE PTR [eax], dl
  0001f	0f b6 c2	 movzx	 eax, dl
  00022	5e		 pop	 esi

; 164  : 		}

  00023	c3		 ret	 0
$LN3@sputc:

; 161  : 		return (0 < _Pnavail()
; 162  : 			? _Traits::to_int_type(*_Pninc() = _Ch)
; 163  : 			: overflow(_Traits::to_int_type(_Ch)));

  00024	8b 01		 mov	 eax, DWORD PTR [ecx]
  00026	8b 40 04	 mov	 eax, DWORD PTR [eax+4]
  00029	0f b6 d2	 movzx	 edx, dl
  0002c	52		 push	 edx
  0002d	ff d0		 call	 eax

; 164  : 		}

  0002f	c3		 ret	 0
?sputc@?$basic_streambuf@DU?$char_traits@D@std@@@std@@QAEHD@Z ENDP ; std::basic_streambuf<char,std::char_traits<char> >::sputc
; Function compile flags: /Ogtpy
; File c:\program files\microsoft visual studio 9.0\vc\include\ostream
_TEXT	ENDS
;	COMDAT ??1_Sentry_base@?$basic_ostream@DU?$char_traits@D@std@@@std@@QAE@XZ
_TEXT	SEGMENT
??1_Sentry_base@?$basic_ostream@DU?$char_traits@D@std@@@std@@QAE@XZ PROC ; std::basic_ostream<char,std::char_traits<char> >::_Sentry_base::~_Sentry_base, COMDAT
; _this$ = eax

; 82   : 			if (_Myostr.rdbuf() != 0)

  00000	8b 00		 mov	 eax, DWORD PTR [eax]
  00002	8b 08		 mov	 ecx, DWORD PTR [eax]
  00004	8b 51 04	 mov	 edx, DWORD PTR [ecx+4]
  00007	8b 44 02 28	 mov	 eax, DWORD PTR [edx+eax+40]
  0000b	85 c0		 test	 eax, eax
  0000d	74 08		 je	 SHORT $LN8@Sentry_bas@3

; 83   : 				_Myostr.rdbuf()->_Unlock();

  0000f	8d 48 04	 lea	 ecx, DWORD PTR [eax+4]
  00012	e9 00 00 00 00	 jmp	 ?_Unlock@_Mutex@std@@QAEXXZ ; std::_Mutex::_Unlock
$LN8@Sentry_bas@3:

; 84   : 			}

  00017	c3		 ret	 0
??1_Sentry_base@?$basic_ostream@DU?$char_traits@D@std@@@std@@QAE@XZ ENDP ; std::basic_ostream<char,std::char_traits<char> >::_Sentry_base::~_Sentry_base
; Function compile flags: /Ogtpy
_TEXT	ENDS
;	COMDAT ??0_Sentry_base@?$basic_ostream@DU?$char_traits@D@std@@@std@@QAE@AAV12@@Z
_TEXT	SEGMENT
??0_Sentry_base@?$basic_ostream@DU?$char_traits@D@std@@@std@@QAE@AAV12@@Z PROC ; std::basic_ostream<char,std::char_traits<char> >::_Sentry_base::_Sentry_base, COMDAT
; _this$ = esi
; __Ostr$ = eax

; 75   : 			{	// lock the stream buffer, if there

  00000	89 06		 mov	 DWORD PTR [esi], eax

; 76   : 			if (_Myostr.rdbuf() != 0)

  00002	8b 08		 mov	 ecx, DWORD PTR [eax]
  00004	8b 51 04	 mov	 edx, DWORD PTR [ecx+4]
  00007	8b 44 02 28	 mov	 eax, DWORD PTR [edx+eax+40]
  0000b	85 c0		 test	 eax, eax
  0000d	74 08		 je	 SHORT $LN10@Sentry_bas@4

; 77   : 				_Myostr.rdbuf()->_Lock();

  0000f	8d 48 04	 lea	 ecx, DWORD PTR [eax+4]
  00012	e8 00 00 00 00	 call	 ?_Lock@_Mutex@std@@QAEXXZ ; std::_Mutex::_Lock
$LN10@Sentry_bas@4:

; 78   : 			}

  00017	8b c6		 mov	 eax, esi
  00019	c3		 ret	 0
??0_Sentry_base@?$basic_ostream@DU?$char_traits@D@std@@@std@@QAE@AAV12@@Z ENDP ; std::basic_ostream<char,std::char_traits<char> >::_Sentry_base::_Sentry_base
; Function compile flags: /Ogtpy
; File c:\program files\microsoft visual studio 9.0\vc\include\ios
_TEXT	ENDS
;	COMDAT ?hex@std@@YAAAVios_base@1@AAV21@@Z
_TEXT	SEGMENT
__Iosbase$ = 8						; size = 4
?hex@std@@YAAAVios_base@1@AAV21@@Z PROC			; std::hex, COMDAT

; 191  : 	_Iosbase.setf(ios_base::hex, ios_base::basefield);

  00000	8b 44 24 04	 mov	 eax, DWORD PTR __Iosbase$[esp-4]
  00004	8b 48 10	 mov	 ecx, DWORD PTR [eax+16]
  00007	81 e1 ff f9 ff
	ff		 and	 ecx, -1537		; fffff9ffH
  0000d	81 c9 00 08 00
	00		 or	 ecx, 2048		; 00000800H
  00013	89 48 10	 mov	 DWORD PTR [eax+16], ecx

; 192  : 	return (_Iosbase);
; 193  : 	}

  00016	c3		 ret	 0
?hex@std@@YAAAVios_base@1@AAV21@@Z ENDP			; std::hex
; Function compile flags: /Ogtpy
_TEXT	ENDS
;	COMDAT ??1?$basic_ios@DU?$char_traits@D@std@@@std@@UAE@XZ
_TEXT	SEGMENT
??1?$basic_ios@DU?$char_traits@D@std@@@std@@UAE@XZ PROC	; std::basic_ios<char,std::char_traits<char> >::~basic_ios<char,std::char_traits<char> >, COMDAT
; _this$ = ecx

; 39   : 		}

  00000	51		 push	 ecx
  00001	c7 01 00 00 00
	00		 mov	 DWORD PTR [ecx], OFFSET ??_7ios_base@std@@6B@
  00007	e8 00 00 00 00	 call	 ?_Ios_base_dtor@ios_base@std@@CAXPAV12@@Z ; std::ios_base::_Ios_base_dtor
  0000c	59		 pop	 ecx
  0000d	c3		 ret	 0
??1?$basic_ios@DU?$char_traits@D@std@@@std@@UAE@XZ ENDP	; std::basic_ios<char,std::char_traits<char> >::~basic_ios<char,std::char_traits<char> >
; Function compile flags: /Ogtpy
_TEXT	ENDS
;	COMDAT ??_G?$basic_ios@DU?$char_traits@D@std@@@std@@UAEPAXI@Z
_TEXT	SEGMENT
___flags$ = 8						; size = 4
??_G?$basic_ios@DU?$char_traits@D@std@@@std@@UAEPAXI@Z PROC ; std::basic_ios<char,std::char_traits<char> >::`scalar deleting destructor', COMDAT
; _this$ = ecx
  00000	56		 push	 esi
  00001	8b f1		 mov	 esi, ecx
  00003	56		 push	 esi
  00004	c7 06 00 00 00
	00		 mov	 DWORD PTR [esi], OFFSET ??_7ios_base@std@@6B@
  0000a	e8 00 00 00 00	 call	 ?_Ios_base_dtor@ios_base@std@@CAXPAV12@@Z ; std::ios_base::_Ios_base_dtor
  0000f	83 c4 04	 add	 esp, 4
  00012	f6 44 24 08 01	 test	 BYTE PTR ___flags$[esp], 1
  00017	74 09		 je	 SHORT $LN9@scalar@6
  00019	56		 push	 esi
  0001a	e8 00 00 00 00	 call	 ??3@YAXPAX@Z		; operator delete
  0001f	83 c4 04	 add	 esp, 4
$LN9@scalar@6:
  00022	8b c6		 mov	 eax, esi
  00024	5e		 pop	 esi
  00025	c2 04 00	 ret	 4
??_G?$basic_ios@DU?$char_traits@D@std@@@std@@UAEPAXI@Z ENDP ; std::basic_ios<char,std::char_traits<char> >::`scalar deleting destructor'
; Function compile flags: /Ogtpy
; File c:\program files\microsoft visual studio 9.0\vc\include\xlocale
_TEXT	ENDS
;	COMDAT ??1locale@std@@QAE@XZ
_TEXT	SEGMENT
__Lock$56512 = -4					; size = 4
??1locale@std@@QAE@XZ PROC				; std::locale::~locale, COMDAT
; _this$ = ecx

; 390  : 		{	// destroy the object

  00000	51		 push	 ecx
  00001	57		 push	 edi

; 391  : 		if (_Ptr != 0)

  00002	8b 39		 mov	 edi, DWORD PTR [ecx]
  00004	85 ff		 test	 edi, edi
  00006	74 3f		 je	 SHORT $LN4@locale@2

; 392  : 			_DELETE_CRT(_Ptr->_Decref());

  00008	6a 00		 push	 0
  0000a	8d 4c 24 08	 lea	 ecx, DWORD PTR __Lock$56512[esp+12]
  0000e	e8 00 00 00 00	 call	 ??0_Lockit@std@@QAE@H@Z	; std::_Lockit::_Lockit
  00013	8b 47 04	 mov	 eax, DWORD PTR [edi+4]
  00016	85 c0		 test	 eax, eax
  00018	76 09		 jbe	 SHORT $LN6@locale@2
  0001a	83 f8 ff	 cmp	 eax, -1
  0001d	73 04		 jae	 SHORT $LN6@locale@2
  0001f	48		 dec	 eax
  00020	89 47 04	 mov	 DWORD PTR [edi+4], eax
$LN6@locale@2:
  00023	56		 push	 esi
  00024	8b 77 04	 mov	 esi, DWORD PTR [edi+4]
  00027	f7 de		 neg	 esi
  00029	1b f6		 sbb	 esi, esi
  0002b	f7 d6		 not	 esi
  0002d	8d 4c 24 08	 lea	 ecx, DWORD PTR __Lock$56512[esp+12]
  00031	23 f7		 and	 esi, edi
  00033	e8 00 00 00 00	 call	 ??1_Lockit@std@@QAE@XZ	; std::_Lockit::~_Lockit
  00038	85 f6		 test	 esi, esi
  0003a	74 0a		 je	 SHORT $LN9@locale@2
  0003c	8b 06		 mov	 eax, DWORD PTR [esi]
  0003e	8b 10		 mov	 edx, DWORD PTR [eax]
  00040	6a 01		 push	 1
  00042	8b ce		 mov	 ecx, esi
  00044	ff d2		 call	 edx
$LN9@locale@2:
  00046	5e		 pop	 esi
$LN4@locale@2:
  00047	5f		 pop	 edi

; 393  : 		}

  00048	59		 pop	 ecx
  00049	c3		 ret	 0
??1locale@std@@QAE@XZ ENDP				; std::locale::~locale
; Function compile flags: /Ogtpy
_TEXT	ENDS
;	COMDAT ??0locale@std@@QAE@ABV01@@Z
_TEXT	SEGMENT
__Lock$56522 = 8					; size = 4
__Right$ = 8						; size = 4
??0locale@std@@QAE@ABV01@@Z PROC			; std::locale::locale, COMDAT
; _this$ = ecx

; 334  : 		{	// construct by copying

  00000	8b 44 24 04	 mov	 eax, DWORD PTR __Right$[esp-4]
  00004	56		 push	 esi
  00005	8b 30		 mov	 esi, DWORD PTR [eax]
  00007	57		 push	 edi
  00008	8b f9		 mov	 edi, ecx

; 335  : 		_Ptr->_Incref();

  0000a	6a 00		 push	 0
  0000c	8d 4c 24 10	 lea	 ecx, DWORD PTR __Lock$56522[esp+8]
  00010	89 37		 mov	 DWORD PTR [edi], esi
  00012	e8 00 00 00 00	 call	 ??0_Lockit@std@@QAE@H@Z	; std::_Lockit::_Lockit
  00017	8b 46 04	 mov	 eax, DWORD PTR [esi+4]
  0001a	83 f8 ff	 cmp	 eax, -1
  0001d	73 04		 jae	 SHORT $LN3@locale@3
  0001f	40		 inc	 eax
  00020	89 46 04	 mov	 DWORD PTR [esi+4], eax
$LN3@locale@3:
  00023	8d 4c 24 0c	 lea	 ecx, DWORD PTR __Lock$56522[esp+4]
  00027	e8 00 00 00 00	 call	 ??1_Lockit@std@@QAE@XZ	; std::_Lockit::~_Lockit

; 336  : 		}

  0002c	8b c7		 mov	 eax, edi
  0002e	5f		 pop	 edi
  0002f	5e		 pop	 esi
  00030	c2 04 00	 ret	 4
??0locale@std@@QAE@ABV01@@Z ENDP			; std::locale::locale
; Function compile flags: /Ogtpy
; File c:\program files\microsoft visual studio 9.0\vc\include\xstring
_TEXT	ENDS
;	COMDAT ?_Chassign@?$basic_string@DU?$char_traits@D@std@@V?$allocator@D@2@@std@@IAEXIID@Z
_TEXT	SEGMENT
__Off$ = 8						; size = 4
__Count$ = 12						; size = 4
__Ch$ = 16						; size = 1
?_Chassign@?$basic_string@DU?$char_traits@D@std@@V?$allocator@D@2@@std@@IAEXIID@Z PROC ; std::basic_string<char,std::char_traits<char>,std::allocator<char> >::_Chassign, COMDAT
; _this$ = ecx

; 2076 : 		if (_Count == 1)

  00000	8b 44 24 08	 mov	 eax, DWORD PTR __Count$[esp-4]
  00004	83 f8 01	 cmp	 eax, 1
  00007	75 28		 jne	 SHORT $LN2@Chassign

; 2077 : 			_Traits::assign(*(_Myptr() + _Off), _Ch);

  00009	83 79 18 10	 cmp	 DWORD PTR [ecx+24], 16	; 00000010H
  0000d	72 11		 jb	 SHORT $LN7@Chassign
  0000f	8b 49 04	 mov	 ecx, DWORD PTR [ecx+4]
  00012	8a 44 24 0c	 mov	 al, BYTE PTR __Ch$[esp-4]
  00016	8b 54 24 04	 mov	 edx, DWORD PTR __Off$[esp-4]
  0001a	88 04 11	 mov	 BYTE PTR [ecx+edx], al

; 2080 : 		}

  0001d	c2 0c 00	 ret	 12			; 0000000cH

; 2077 : 			_Traits::assign(*(_Myptr() + _Off), _Ch);

$LN7@Chassign:
  00020	8a 44 24 0c	 mov	 al, BYTE PTR __Ch$[esp-4]
  00024	8b 54 24 04	 mov	 edx, DWORD PTR __Off$[esp-4]
  00028	83 c1 04	 add	 ecx, 4
  0002b	88 04 11	 mov	 BYTE PTR [ecx+edx], al

; 2080 : 		}

  0002e	c2 0c 00	 ret	 12			; 0000000cH
$LN2@Chassign:

; 2078 : 		else
; 2079 : 			_Traits::assign(_Myptr() + _Off, _Count, _Ch);

  00031	83 79 18 10	 cmp	 DWORD PTR [ecx+24], 16	; 00000010H
  00035	72 05		 jb	 SHORT $LN13@Chassign
  00037	8b 49 04	 mov	 ecx, DWORD PTR [ecx+4]
  0003a	eb 03		 jmp	 SHORT $LN14@Chassign
$LN13@Chassign:
  0003c	83 c1 04	 add	 ecx, 4
$LN14@Chassign:
  0003f	8b 54 24 04	 mov	 edx, DWORD PTR __Off$[esp-4]
  00043	50		 push	 eax
  00044	0f be 44 24 10	 movsx	 eax, BYTE PTR __Ch$[esp]
  00049	50		 push	 eax
  0004a	03 ca		 add	 ecx, edx
  0004c	51		 push	 ecx
  0004d	e8 00 00 00 00	 call	 _memset
  00052	83 c4 0c	 add	 esp, 12			; 0000000cH

; 2080 : 		}

  00055	c2 0c 00	 ret	 12			; 0000000cH
?_Chassign@?$basic_string@DU?$char_traits@D@std@@V?$allocator@D@2@@std@@IAEXIID@Z ENDP ; std::basic_string<char,std::char_traits<char>,std::allocator<char> >::_Chassign
_TEXT	ENDS
;	COMDAT xdata$x
; File c:\program files\microsoft visual studio 9.0\vc\include\xlocale
xdata$x	SEGMENT
__unwindtable$?_Init@?$numpunct@D@std@@IAEXABV_Locinfo@2@_N@Z DD 0ffffffffH
	DD	00H
	DD	0ffffffffH
	DD	00H
__catchsym$?_Init@?$numpunct@D@std@@IAEXABV_Locinfo@2@_N@Z$2 DD 040H
	DD	00H
	DD	00H
	DD	FLAT:__catch$?_Init@?$numpunct@D@std@@IAEXABV_Locinfo@2@_N@Z$0
__tryblocktable$?_Init@?$numpunct@D@std@@IAEXABV_Locinfo@2@_N@Z DD 00H
	DD	00H
	DD	01H
	DD	01H
	DD	FLAT:__catchsym$?_Init@?$numpunct@D@std@@IAEXABV_Locinfo@2@_N@Z$2
__ehfuncinfo$?_Init@?$numpunct@D@std@@IAEXABV_Locinfo@2@_N@Z DD 019930522H
	DD	02H
	DD	FLAT:__unwindtable$?_Init@?$numpunct@D@std@@IAEXABV_Locinfo@2@_N@Z
	DD	01H
	DD	FLAT:__tryblocktable$?_Init@?$numpunct@D@std@@IAEXABV_Locinfo@2@_N@Z
	DD	2 DUP(00H)
	DD	00H
	DD	01H
; Function compile flags: /Ogtpy
; File c:\program files\microsoft visual studio 9.0\vc\include\xlocnum
xdata$x	ENDS
;	COMDAT ?_Init@?$numpunct@D@std@@IAEXABV_Locinfo@2@_N@Z
_TEXT	SEGMENT
__Ptr$ = -20						; size = 4
__$EHRec$ = -16						; size = 16
_this$ = 8						; size = 4
?_Init@?$numpunct@D@std@@IAEXABV_Locinfo@2@_N@Z PROC	; std::numpunct<char>::_Init, COMDAT

; 135  : 		{	// initialize from _Lobj

  00000	55		 push	 ebp
  00001	8b ec		 mov	 ebp, esp
  00003	6a ff		 push	 -1
  00005	68 00 00 00 00	 push	 __ehhandler$?_Init@?$numpunct@D@std@@IAEXABV_Locinfo@2@_N@Z
  0000a	64 a1 00 00 00
	00		 mov	 eax, DWORD PTR fs:0
  00010	50		 push	 eax
  00011	83 ec 08	 sub	 esp, 8
  00014	53		 push	 ebx
  00015	56		 push	 esi
  00016	57		 push	 edi
  00017	a1 00 00 00 00	 mov	 eax, DWORD PTR ___security_cookie
  0001c	33 c5		 xor	 eax, ebp
  0001e	50		 push	 eax
  0001f	8d 45 f4	 lea	 eax, DWORD PTR __$EHRec$[ebp+4]
  00022	64 a3 00 00 00
	00		 mov	 DWORD PTR fs:0, eax
  00028	89 65 f0	 mov	 DWORD PTR __$EHRec$[ebp], esp
  0002b	8b 5d 08	 mov	 ebx, DWORD PTR _this$[ebp]

; 136  : 		const lconv *_Ptr = _Lobj._Getlconv();

  0002e	e8 00 00 00 00	 call	 _localeconv
  00033	8b f0		 mov	 esi, eax

; 137  : 
; 138  : 		_Grouping = 0;

  00035	33 c0		 xor	 eax, eax
  00037	89 75 ec	 mov	 DWORD PTR __Ptr$[ebp], esi
  0003a	89 43 08	 mov	 DWORD PTR [ebx+8], eax

; 139  : 		_Falsename = 0;

  0003d	89 43 10	 mov	 DWORD PTR [ebx+16], eax

; 140  : 		_Truename = 0;

  00040	89 43 14	 mov	 DWORD PTR [ebx+20], eax

; 141  : 
; 142  : 		_TRY_BEGIN

  00043	89 45 fc	 mov	 DWORD PTR __$EHRec$[ebp+12], eax

; 143  : 		_Grouping = _MAKLOCSTR(char, _Ptr->grouping, _Lobj._Getcvt());

  00046	e8 00 00 00 00	 call	 __Getcvt
  0004b	8b 7e 08	 mov	 edi, DWORD PTR [esi+8]
  0004e	8b c7		 mov	 eax, edi
  00050	8d 50 01	 lea	 edx, DWORD PTR [eax+1]
$LL65@Init:
  00053	8a 08		 mov	 cl, BYTE PTR [eax]
  00055	40		 inc	 eax
  00056	84 c9		 test	 cl, cl
  00058	75 f9		 jne	 SHORT $LL65@Init
  0005a	2b c2		 sub	 eax, edx
  0005c	8d 70 01	 lea	 esi, DWORD PTR [eax+1]
  0005f	56		 push	 esi
  00060	e8 00 00 00 00	 call	 ??_U@YAPAXI@Z		; operator new[]
  00065	83 c4 04	 add	 esp, 4
  00068	8b c8		 mov	 ecx, eax
  0006a	8d 9b 00 00 00
	00		 npad	 6
$LL15@Init:
  00070	85 f6		 test	 esi, esi
  00072	76 09		 jbe	 SHORT $LN13@Init
  00074	8a 17		 mov	 dl, BYTE PTR [edi]
  00076	88 11		 mov	 BYTE PTR [ecx], dl
  00078	4e		 dec	 esi
  00079	41		 inc	 ecx
  0007a	47		 inc	 edi
  0007b	eb f3		 jmp	 SHORT $LL15@Init
$LN13@Init:
  0007d	89 43 08	 mov	 DWORD PTR [ebx+8], eax

; 144  : 		_Falsename = _MAKLOCSTR(_Elem, _Lobj._Getfalse(), _Lobj._Getcvt());

  00080	e8 00 00 00 00	 call	 __Getcvt
  00085	bf 00 00 00 00	 mov	 edi, OFFSET ??_C@_05LAPONLG@false?$AA@
  0008a	8b c7		 mov	 eax, edi
  0008c	8d 50 01	 lea	 edx, DWORD PTR [eax+1]
  0008f	90		 npad	 1
$LL66@Init:
  00090	8a 08		 mov	 cl, BYTE PTR [eax]
  00092	40		 inc	 eax
  00093	84 c9		 test	 cl, cl
  00095	75 f9		 jne	 SHORT $LL66@Init
  00097	2b c2		 sub	 eax, edx
  00099	8d 70 01	 lea	 esi, DWORD PTR [eax+1]
  0009c	56		 push	 esi
  0009d	e8 00 00 00 00	 call	 ??_U@YAPAXI@Z		; operator new[]
  000a2	83 c4 04	 add	 esp, 4
  000a5	8b c8		 mov	 ecx, eax
$LL24@Init:
  000a7	85 f6		 test	 esi, esi
  000a9	76 09		 jbe	 SHORT $LN22@Init
  000ab	8a 17		 mov	 dl, BYTE PTR [edi]
  000ad	88 11		 mov	 BYTE PTR [ecx], dl
  000af	4e		 dec	 esi
  000b0	41		 inc	 ecx
  000b1	47		 inc	 edi
  000b2	eb f3		 jmp	 SHORT $LL24@Init
$LN22@Init:
  000b4	89 43 10	 mov	 DWORD PTR [ebx+16], eax

; 145  : 		_Truename = _MAKLOCSTR(_Elem, _Lobj._Gettrue(), _Lobj._Getcvt());

  000b7	e8 00 00 00 00	 call	 __Getcvt
  000bc	bf 00 00 00 00	 mov	 edi, OFFSET ??_C@_04LOAJBDKD@true?$AA@
  000c1	8b c7		 mov	 eax, edi
  000c3	8d 50 01	 lea	 edx, DWORD PTR [eax+1]
$LL67@Init:
  000c6	8a 08		 mov	 cl, BYTE PTR [eax]
  000c8	40		 inc	 eax
  000c9	84 c9		 test	 cl, cl
  000cb	75 f9		 jne	 SHORT $LL67@Init
  000cd	2b c2		 sub	 eax, edx
  000cf	8d 70 01	 lea	 esi, DWORD PTR [eax+1]
  000d2	56		 push	 esi
  000d3	e8 00 00 00 00	 call	 ??_U@YAPAXI@Z		; operator new[]
  000d8	83 c4 04	 add	 esp, 4
  000db	8b c8		 mov	 ecx, eax
  000dd	8d 49 00	 npad	 3
$LL33@Init:
  000e0	85 f6		 test	 esi, esi
  000e2	76 09		 jbe	 SHORT $LN31@Init
  000e4	8a 17		 mov	 dl, BYTE PTR [edi]
  000e6	88 11		 mov	 BYTE PTR [ecx], dl
  000e8	4e		 dec	 esi
  000e9	41		 inc	 ecx
  000ea	47		 inc	 edi
  000eb	eb f3		 jmp	 SHORT $LL33@Init
$LN31@Init:
  000ed	89 43 14	 mov	 DWORD PTR [ebx+20], eax
  000f0	c7 45 fc ff ff
	ff ff		 mov	 DWORD PTR __$EHRec$[ebp+12], -1

; 149  : 		_CATCH_END
; 150  : 
; 151  : 		_Dp = _MAKLOCCHR(_Elem, _Ptr->decimal_point[0], _Lobj._Getcvt());

  000f7	e8 00 00 00 00	 call	 __Getcvt
  000fc	8b 75 ec	 mov	 esi, DWORD PTR __Ptr$[ebp]
  000ff	8b 06		 mov	 eax, DWORD PTR [esi]
  00101	8a 08		 mov	 cl, BYTE PTR [eax]
  00103	88 4b 0c	 mov	 BYTE PTR [ebx+12], cl

; 152  : 		_Kseparator =
; 153  : 			_MAKLOCCHR(_Elem, _Ptr->thousands_sep[0], _Lobj._Getcvt());

  00106	e8 00 00 00 00	 call	 __Getcvt
  0010b	8b 56 04	 mov	 edx, DWORD PTR [esi+4]
  0010e	8a 02		 mov	 al, BYTE PTR [edx]
  00110	88 43 0d	 mov	 BYTE PTR [ebx+13], al

; 154  : 
; 155  : 		if (_Isdef)

  00113	b0 01		 mov	 al, 1
  00115	84 c0		 test	 al, al
  00117	74 4a		 je	 SHORT $LN1@Init

; 156  : 			{	// apply defaults for required facets
; 157  : 			_Grouping = _MAKLOCSTR(char, "", _Lobj._Getcvt());

  00119	e8 00 00 00 00	 call	 __Getcvt
  0011e	bf 00 00 00 00	 mov	 edi, OFFSET ??_C@_00CNPNBAHC@?$AA@
  00123	8b c7		 mov	 eax, edi
  00125	8d 50 01	 lea	 edx, DWORD PTR [eax+1]
$LL68@Init:
  00128	8a 08		 mov	 cl, BYTE PTR [eax]
  0012a	40		 inc	 eax
  0012b	84 c9		 test	 cl, cl
  0012d	75 f9		 jne	 SHORT $LL68@Init
  0012f	2b c2		 sub	 eax, edx
  00131	8d 70 01	 lea	 esi, DWORD PTR [eax+1]
  00134	56		 push	 esi
  00135	e8 00 00 00 00	 call	 ??_U@YAPAXI@Z		; operator new[]
  0013a	83 c4 04	 add	 esp, 4
  0013d	8b c8		 mov	 ecx, eax
  0013f	85 f6		 test	 esi, esi
  00141	76 0b		 jbe	 SHORT $LN46@Init
$LL48@Init:
  00143	8a 17		 mov	 dl, BYTE PTR [edi]
  00145	88 11		 mov	 BYTE PTR [ecx], dl
  00147	4e		 dec	 esi
  00148	41		 inc	 ecx
  00149	47		 inc	 edi
  0014a	85 f6		 test	 esi, esi
  0014c	77 f5		 ja	 SHORT $LL48@Init
$LN46@Init:
  0014e	89 43 08	 mov	 DWORD PTR [ebx+8], eax

; 158  : 			_Dp = _MAKLOCCHR(_Elem, '.', _Lobj._Getcvt());

  00151	e8 00 00 00 00	 call	 __Getcvt
  00156	c6 43 0c 2e	 mov	 BYTE PTR [ebx+12], 46	; 0000002eH

; 159  : 			_Kseparator = _MAKLOCCHR(_Elem, ',', _Lobj._Getcvt());

  0015a	e8 00 00 00 00	 call	 __Getcvt
  0015f	c6 43 0d 2c	 mov	 BYTE PTR [ebx+13], 44	; 0000002cH
$LN1@Init:

; 160  : 			}
; 161  : 		}

  00163	8b 4d f4	 mov	 ecx, DWORD PTR __$EHRec$[ebp+4]
  00166	64 89 0d 00 00
	00 00		 mov	 DWORD PTR fs:0, ecx
  0016d	59		 pop	 ecx
  0016e	5f		 pop	 edi
  0016f	5e		 pop	 esi
  00170	5b		 pop	 ebx
  00171	8b e5		 mov	 esp, ebp
  00173	5d		 pop	 ebp
  00174	c2 04 00	 ret	 4
__catch$?_Init@?$numpunct@D@std@@IAEXABV_Locinfo@2@_N@Z$0:

; 146  : 		_CATCH_ALL
; 147  : 		_Tidy();

  00177	8b 75 08	 mov	 esi, DWORD PTR _this$[ebp]
  0017a	e8 00 00 00 00	 call	 ?_Tidy@?$numpunct@D@std@@AAEXXZ ; std::numpunct<char>::_Tidy

; 148  : 		_RERAISE;

  0017f	6a 00		 push	 0
  00181	6a 00		 push	 0
  00183	e8 00 00 00 00	 call	 __CxxThrowException@8
$LN71@Init:
$LN70@Init:
  00188	cc		 int	 3
_TEXT	ENDS
;	COMDAT text$x
text$x	SEGMENT
__ehhandler$?_Init@?$numpunct@D@std@@IAEXABV_Locinfo@2@_N@Z:
  00000	8b 54 24 08	 mov	 edx, DWORD PTR [esp+8]
  00004	8d 42 0c	 lea	 eax, DWORD PTR [edx+12]
  00007	8b 4a e8	 mov	 ecx, DWORD PTR [edx-24]
  0000a	33 c8		 xor	 ecx, eax
  0000c	e8 00 00 00 00	 call	 @__security_check_cookie@4
  00011	b8 00 00 00 00	 mov	 eax, OFFSET __ehfuncinfo$?_Init@?$numpunct@D@std@@IAEXABV_Locinfo@2@_N@Z
  00016	e9 00 00 00 00	 jmp	 ___CxxFrameHandler3
text$x	ENDS
?_Init@?$numpunct@D@std@@IAEXABV_Locinfo@2@_N@Z ENDP	; std::numpunct<char>::_Init
;	COMDAT xdata$x
; File c:\program files\microsoft visual studio 9.0\vc\include\xlocale
xdata$x	SEGMENT
__unwindtable$??0?$numpunct@D@std@@QAE@ABV_Locinfo@1@I_N@Z DD 0ffffffffH
	DD	FLAT:__unwindfunclet$??0?$numpunct@D@std@@QAE@ABV_Locinfo@1@I_N@Z$0
__ehfuncinfo$??0?$numpunct@D@std@@QAE@ABV_Locinfo@1@I_N@Z DD 019930522H
	DD	01H
	DD	FLAT:__unwindtable$??0?$numpunct@D@std@@QAE@ABV_Locinfo@1@I_N@Z
	DD	2 DUP(00H)
	DD	2 DUP(00H)
	DD	00H
	DD	01H
; Function compile flags: /Ogtpy
; File c:\program files\microsoft visual studio 9.0\vc\include\xlocnum
xdata$x	ENDS
;	COMDAT ??0?$numpunct@D@std@@QAE@ABV_Locinfo@1@I_N@Z
_TEXT	SEGMENT
__$EHRec$ = -12						; size = 12
_this$ = 8						; size = 4
??0?$numpunct@D@std@@QAE@ABV_Locinfo@1@I_N@Z PROC	; std::numpunct<char>::numpunct<char>, COMDAT

; 106  : 		{	// construct from specified locale

  00000	6a ff		 push	 -1
  00002	68 00 00 00 00	 push	 __ehhandler$??0?$numpunct@D@std@@QAE@ABV_Locinfo@1@I_N@Z
  00007	64 a1 00 00 00
	00		 mov	 eax, DWORD PTR fs:0
  0000d	50		 push	 eax
  0000e	51		 push	 ecx
  0000f	56		 push	 esi
  00010	a1 00 00 00 00	 mov	 eax, DWORD PTR ___security_cookie
  00015	33 c4		 xor	 eax, esp
  00017	50		 push	 eax
  00018	8d 44 24 0c	 lea	 eax, DWORD PTR __$EHRec$[esp+24]
  0001c	64 a3 00 00 00
	00		 mov	 DWORD PTR fs:0, eax
  00022	8b 74 24 1c	 mov	 esi, DWORD PTR _this$[esp+20]
  00026	33 c0		 xor	 eax, eax
  00028	89 46 04	 mov	 DWORD PTR [esi+4], eax
  0002b	89 44 24 14	 mov	 DWORD PTR __$EHRec$[esp+32], eax

; 107  : 		_Init(_Lobj, _Isdef);

  0002f	56		 push	 esi
  00030	c7 06 00 00 00
	00		 mov	 DWORD PTR [esi], OFFSET ??_7?$numpunct@D@std@@6B@
  00036	e8 00 00 00 00	 call	 ?_Init@?$numpunct@D@std@@IAEXABV_Locinfo@2@_N@Z ; std::numpunct<char>::_Init

; 108  : 		}

  0003b	8b c6		 mov	 eax, esi
  0003d	8b 4c 24 0c	 mov	 ecx, DWORD PTR __$EHRec$[esp+24]
  00041	64 89 0d 00 00
	00 00		 mov	 DWORD PTR fs:0, ecx
  00048	59		 pop	 ecx
  00049	5e		 pop	 esi
  0004a	83 c4 10	 add	 esp, 16			; 00000010H
  0004d	c2 04 00	 ret	 4
_TEXT	ENDS
;	COMDAT text$x
text$x	SEGMENT
__unwindfunclet$??0?$numpunct@D@std@@QAE@ABV_Locinfo@1@I_N@Z$0:
  00000	8b 4d 04	 mov	 ecx, DWORD PTR _this$[ebp-4]
  00003	e9 00 00 00 00	 jmp	 ??1facet@locale@std@@UAE@XZ ; std::locale::facet::~facet
__ehhandler$??0?$numpunct@D@std@@QAE@ABV_Locinfo@1@I_N@Z:
  00008	8b 54 24 08	 mov	 edx, DWORD PTR [esp+8]
  0000c	8d 42 f8	 lea	 eax, DWORD PTR [edx-8]
  0000f	8b 4a f4	 mov	 ecx, DWORD PTR [edx-12]
  00012	33 c8		 xor	 ecx, eax
  00014	e8 00 00 00 00	 call	 @__security_check_cookie@4
  00019	b8 00 00 00 00	 mov	 eax, OFFSET __ehfuncinfo$??0?$numpunct@D@std@@QAE@ABV_Locinfo@1@I_N@Z
  0001e	e9 00 00 00 00	 jmp	 ___CxxFrameHandler3
text$x	ENDS
??0?$numpunct@D@std@@QAE@ABV_Locinfo@1@I_N@Z ENDP	; std::numpunct<char>::numpunct<char>
; Function compile flags: /Ogtpy
; File c:\program files\microsoft visual studio 9.0\vc\include\streambuf
;	COMDAT ??4?$ostreambuf_iterator@DU?$char_traits@D@std@@@std@@QAEAAV01@D@Z
_TEXT	SEGMENT
??4?$ostreambuf_iterator@DU?$char_traits@D@std@@@std@@QAEAAV01@D@Z PROC ; std::ostreambuf_iterator<char,std::char_traits<char> >::operator=, COMDAT
; _this$ = esi
; __Right$ = edx

; 593  : 		if (_Strbuf == 0
; 594  : 			|| traits_type::eq_int_type(_Traits::eof(),
; 595  : 				_Strbuf->sputc(_Right)))

  00000	8b 4e 04	 mov	 ecx, DWORD PTR [esi+4]
  00003	85 c9		 test	 ecx, ecx
  00005	74 35		 je	 SHORT $LN1@operator@17
  00007	8b 41 24	 mov	 eax, DWORD PTR [ecx+36]
  0000a	83 38 00	 cmp	 DWORD PTR [eax], 0
  0000d	74 1d		 je	 SHORT $LN7@operator@17
  0000f	8b 41 34	 mov	 eax, DWORD PTR [ecx+52]
  00012	83 38 00	 cmp	 DWORD PTR [eax], 0
  00015	7e 15		 jle	 SHORT $LN7@operator@17
  00017	ff 08		 dec	 DWORD PTR [eax]
  00019	8b 49 24	 mov	 ecx, DWORD PTR [ecx+36]
  0001c	8b 01		 mov	 eax, DWORD PTR [ecx]
  0001e	57		 push	 edi
  0001f	8d 78 01	 lea	 edi, DWORD PTR [eax+1]
  00022	89 39		 mov	 DWORD PTR [ecx], edi
  00024	88 10		 mov	 BYTE PTR [eax], dl
  00026	0f b6 c2	 movzx	 eax, dl
  00029	5f		 pop	 edi
  0002a	eb 0b		 jmp	 SHORT $LN8@operator@17
$LN7@operator@17:
  0002c	8b 01		 mov	 eax, DWORD PTR [ecx]
  0002e	8b 40 04	 mov	 eax, DWORD PTR [eax+4]
  00031	0f b6 d2	 movzx	 edx, dl
  00034	52		 push	 edx
  00035	ff d0		 call	 eax
$LN8@operator@17:
  00037	83 f8 ff	 cmp	 eax, -1
  0003a	75 03		 jne	 SHORT $LN23@operator@17
$LN1@operator@17:

; 596  : 			_Failed = true;

  0003c	c6 06 01	 mov	 BYTE PTR [esi], 1
$LN23@operator@17:

; 597  : 		return (*this);

  0003f	8b c6		 mov	 eax, esi

; 598  : 		}

  00041	c3		 ret	 0
??4?$ostreambuf_iterator@DU?$char_traits@D@std@@@std@@QAEAAV01@D@Z ENDP ; std::ostreambuf_iterator<char,std::char_traits<char> >::operator=
; Function compile flags: /Ogtpy
; File c:\program files\microsoft visual studio 9.0\vc\include\xlocnum
_TEXT	ENDS
;	COMDAT ?_Putc@?$num_put@DV?$ostreambuf_iterator@DU?$char_traits@D@std@@@std@@@std@@ABA?AV?$ostreambuf_iterator@DU?$char_traits@D@std@@@2@V32@PBDI@Z
_TEXT	SEGMENT
___$ReturnUdt$ = 8					; size = 4
__Dest$ = 12						; size = 8
__Count$ = 20						; size = 4
?_Putc@?$num_put@DV?$ostreambuf_iterator@DU?$char_traits@D@std@@@std@@@std@@ABA?AV?$ostreambuf_iterator@DU?$char_traits@D@std@@@2@V32@PBDI@Z PROC ; std::num_put<char,std::ostreambuf_iterator<char,std::char_traits<char> > >::_Putc, COMDAT
; __Ptr$ = eax

; 1521 : 		for (; 0 < _Count; --_Count, ++_Dest, ++_Ptr)

  00000	8b 4c 24 0c	 mov	 ecx, DWORD PTR __Dest$[esp]
  00004	55		 push	 ebp
  00005	8b 6c 24 14	 mov	 ebp, DWORD PTR __Count$[esp]
  00009	57		 push	 edi
  0000a	8b f8		 mov	 edi, eax
  0000c	85 ed		 test	 ebp, ebp
  0000e	76 4c		 jbe	 SHORT $LN1@Putc
  00010	56		 push	 esi
$LL3@Putc:

; 1522 : 			*_Dest = _MAKLOCCHR(_Elem, *_Ptr, _Cvt);

  00011	85 c9		 test	 ecx, ecx
  00013	74 3b		 je	 SHORT $LN12@Putc
  00015	8b 41 24	 mov	 eax, DWORD PTR [ecx+36]
  00018	83 38 00	 cmp	 DWORD PTR [eax], 0
  0001b	8a 17		 mov	 dl, BYTE PTR [edi]
  0001d	8d 71 24	 lea	 esi, DWORD PTR [ecx+36]
  00020	74 1a		 je	 SHORT $LN18@Putc
  00022	8b 41 34	 mov	 eax, DWORD PTR [ecx+52]
  00025	83 38 00	 cmp	 DWORD PTR [eax], 0
  00028	7e 12		 jle	 SHORT $LN18@Putc
  0002a	ff 08		 dec	 DWORD PTR [eax]
  0002c	8b 06		 mov	 eax, DWORD PTR [esi]
  0002e	8b 08		 mov	 ecx, DWORD PTR [eax]
  00030	8d 71 01	 lea	 esi, DWORD PTR [ecx+1]
  00033	89 30		 mov	 DWORD PTR [eax], esi
  00035	88 11		 mov	 BYTE PTR [ecx], dl
  00037	0f b6 c2	 movzx	 eax, dl
  0003a	eb 0b		 jmp	 SHORT $LN19@Putc
$LN18@Putc:
  0003c	8b 01		 mov	 eax, DWORD PTR [ecx]
  0003e	8b 40 04	 mov	 eax, DWORD PTR [eax+4]
  00041	0f b6 d2	 movzx	 edx, dl
  00044	52		 push	 edx
  00045	ff d0		 call	 eax
$LN19@Putc:
  00047	8b 4c 24 18	 mov	 ecx, DWORD PTR __Dest$[esp+12]
  0004b	83 f8 ff	 cmp	 eax, -1
  0004e	75 05		 jne	 SHORT $LN2@Putc
$LN12@Putc:
  00050	c6 44 24 14 01	 mov	 BYTE PTR __Dest$[esp+8], 1
$LN2@Putc:

; 1521 : 		for (; 0 < _Count; --_Count, ++_Dest, ++_Ptr)

  00055	4d		 dec	 ebp
  00056	47		 inc	 edi
  00057	85 ed		 test	 ebp, ebp
  00059	77 b6		 ja	 SHORT $LL3@Putc
  0005b	5e		 pop	 esi
$LN1@Putc:

; 1523 : 		return (_Dest);

  0005c	8b 44 24 0c	 mov	 eax, DWORD PTR ___$ReturnUdt$[esp+4]
  00060	8b 54 24 10	 mov	 edx, DWORD PTR __Dest$[esp+4]
  00064	5f		 pop	 edi
  00065	89 10		 mov	 DWORD PTR [eax], edx
  00067	89 48 04	 mov	 DWORD PTR [eax+4], ecx
  0006a	5d		 pop	 ebp

; 1524 : 		}

  0006b	c3		 ret	 0
?_Putc@?$num_put@DV?$ostreambuf_iterator@DU?$char_traits@D@std@@@std@@@std@@ABA?AV?$ostreambuf_iterator@DU?$char_traits@D@std@@@2@V32@PBDI@Z ENDP ; std::num_put<char,std::ostreambuf_iterator<char,std::char_traits<char> > >::_Putc
; Function compile flags: /Ogtpy
_TEXT	ENDS
;	COMDAT ??_G?$numpunct@D@std@@MAEPAXI@Z
_TEXT	SEGMENT
___flags$ = 8						; size = 4
??_G?$numpunct@D@std@@MAEPAXI@Z PROC			; std::numpunct<char>::`scalar deleting destructor', COMDAT
; _this$ = ecx
  00000	56		 push	 esi
  00001	8b f1		 mov	 esi, ecx
  00003	8b 46 08	 mov	 eax, DWORD PTR [esi+8]
  00006	50		 push	 eax
  00007	c7 06 00 00 00
	00		 mov	 DWORD PTR [esi], OFFSET ??_7?$numpunct@D@std@@6B@
  0000d	e8 00 00 00 00	 call	 ??_V@YAXPAX@Z		; operator delete[]
  00012	8b 4e 10	 mov	 ecx, DWORD PTR [esi+16]
  00015	51		 push	 ecx
  00016	e8 00 00 00 00	 call	 ??_V@YAXPAX@Z		; operator delete[]
  0001b	8b 56 14	 mov	 edx, DWORD PTR [esi+20]
  0001e	52		 push	 edx
  0001f	e8 00 00 00 00	 call	 ??_V@YAXPAX@Z		; operator delete[]
  00024	83 c4 0c	 add	 esp, 12			; 0000000cH
  00027	f6 44 24 08 01	 test	 BYTE PTR ___flags$[esp], 1
  0002c	c7 06 00 00 00
	00		 mov	 DWORD PTR [esi], OFFSET ??_7facet@locale@std@@6B@
  00032	74 09		 je	 SHORT $LN10@scalar@7
  00034	56		 push	 esi
  00035	e8 00 00 00 00	 call	 ??3@YAXPAX@Z		; operator delete
  0003a	83 c4 04	 add	 esp, 4
$LN10@scalar@7:
  0003d	8b c6		 mov	 eax, esi
  0003f	5e		 pop	 esi
  00040	c2 04 00	 ret	 4
??_G?$numpunct@D@std@@MAEPAXI@Z ENDP			; std::numpunct<char>::`scalar deleting destructor'
; Function compile flags: /Ogtpy
_TEXT	ENDS
;	COMDAT ?_Rep@?$num_put@DV?$ostreambuf_iterator@DU?$char_traits@D@std@@@std@@@std@@ABA?AV?$ostreambuf_iterator@DU?$char_traits@D@std@@@2@V32@DI@Z
_TEXT	SEGMENT
__Dest$ = 8						; size = 8
__Ch$ = 16						; size = 1
?_Rep@?$num_put@DV?$ostreambuf_iterator@DU?$char_traits@D@std@@@std@@@std@@ABA?AV?$ostreambuf_iterator@DU?$char_traits@D@std@@@2@V32@DI@Z PROC ; std::num_put<char,std::ostreambuf_iterator<char,std::char_traits<char> > >::_Rep, COMDAT
; ___$ReturnUdt$ = edi
; __Count$ = eax

; 1548 : 		for (; 0 < _Count; --_Count, ++_Dest)

  00000	8b 4c 24 08	 mov	 ecx, DWORD PTR __Dest$[esp]
  00004	53		 push	 ebx
  00005	8a 5c 24 10	 mov	 bl, BYTE PTR __Ch$[esp]
  00009	56		 push	 esi
  0000a	8b f0		 mov	 esi, eax
  0000c	85 f6		 test	 esi, esi
  0000e	76 47		 jbe	 SHORT $LN1@Rep
$LL6@Rep:

; 1549 : 			*_Dest = _Ch;

  00010	85 c9		 test	 ecx, ecx
  00012	74 39		 je	 SHORT $LN10@Rep
  00014	8b 41 24	 mov	 eax, DWORD PTR [ecx+36]
  00017	83 38 00	 cmp	 DWORD PTR [eax], 0
  0001a	8d 51 24	 lea	 edx, DWORD PTR [ecx+36]
  0001d	74 1a		 je	 SHORT $LN16@Rep
  0001f	8b 41 34	 mov	 eax, DWORD PTR [ecx+52]
  00022	83 38 00	 cmp	 DWORD PTR [eax], 0
  00025	7e 12		 jle	 SHORT $LN16@Rep
  00027	ff 08		 dec	 DWORD PTR [eax]
  00029	8b 02		 mov	 eax, DWORD PTR [edx]
  0002b	8b 08		 mov	 ecx, DWORD PTR [eax]
  0002d	8d 51 01	 lea	 edx, DWORD PTR [ecx+1]
  00030	89 10		 mov	 DWORD PTR [eax], edx
  00032	88 19		 mov	 BYTE PTR [ecx], bl
  00034	0f b6 c3	 movzx	 eax, bl
  00037	eb 0b		 jmp	 SHORT $LN17@Rep
$LN16@Rep:
  00039	8b 01		 mov	 eax, DWORD PTR [ecx]
  0003b	8b 40 04	 mov	 eax, DWORD PTR [eax+4]
  0003e	0f b6 d3	 movzx	 edx, bl
  00041	52		 push	 edx
  00042	ff d0		 call	 eax
$LN17@Rep:
  00044	8b 4c 24 10	 mov	 ecx, DWORD PTR __Dest$[esp+8]
  00048	83 f8 ff	 cmp	 eax, -1
  0004b	75 05		 jne	 SHORT $LN2@Rep
$LN10@Rep:
  0004d	c6 44 24 0c 01	 mov	 BYTE PTR __Dest$[esp+4], 1
$LN2@Rep:

; 1548 : 		for (; 0 < _Count; --_Count, ++_Dest)

  00052	83 ee 01	 sub	 esi, 1
  00055	75 b9		 jne	 SHORT $LL6@Rep
$LN1@Rep:

; 1550 : 		return (_Dest);

  00057	8b 54 24 0c	 mov	 edx, DWORD PTR __Dest$[esp+4]
  0005b	5e		 pop	 esi
  0005c	89 17		 mov	 DWORD PTR [edi], edx
  0005e	89 4f 04	 mov	 DWORD PTR [edi+4], ecx
  00061	8b c7		 mov	 eax, edi
  00063	5b		 pop	 ebx

; 1551 : 		}

  00064	c3		 ret	 0
?_Rep@?$num_put@DV?$ostreambuf_iterator@DU?$char_traits@D@std@@@std@@@std@@ABA?AV?$ostreambuf_iterator@DU?$char_traits@D@std@@@2@V32@DI@Z ENDP ; std::num_put<char,std::ostreambuf_iterator<char,std::char_traits<char> > >::_Rep
; Function compile flags: /Ogtpy
_TEXT	ENDS
;	COMDAT ?_Put@?$num_put@DV?$ostreambuf_iterator@DU?$char_traits@D@std@@@std@@@std@@ABA?AV?$ostreambuf_iterator@DU?$char_traits@D@std@@@2@V32@PBDI@Z
_TEXT	SEGMENT
___$ReturnUdt$ = 8					; size = 4
__Dest$ = 12						; size = 8
__Count$ = 20						; size = 4
?_Put@?$num_put@DV?$ostreambuf_iterator@DU?$char_traits@D@std@@@std@@@std@@ABA?AV?$ostreambuf_iterator@DU?$char_traits@D@std@@@2@V32@PBDI@Z PROC ; std::num_put<char,std::ostreambuf_iterator<char,std::char_traits<char> > >::_Put, COMDAT
; __Ptr$ = eax

; 1513 : 		for (; 0 < _Count; --_Count, ++_Dest, ++_Ptr)

  00000	8b 4c 24 0c	 mov	 ecx, DWORD PTR __Dest$[esp]
  00004	55		 push	 ebp
  00005	8b 6c 24 14	 mov	 ebp, DWORD PTR __Count$[esp]
  00009	57		 push	 edi
  0000a	8b f8		 mov	 edi, eax
  0000c	85 ed		 test	 ebp, ebp
  0000e	76 4c		 jbe	 SHORT $LN1@Put
  00010	56		 push	 esi
$LL3@Put:

; 1514 : 			*_Dest = *_Ptr;

  00011	85 c9		 test	 ecx, ecx
  00013	74 3b		 je	 SHORT $LN10@Put
  00015	8b 41 24	 mov	 eax, DWORD PTR [ecx+36]
  00018	83 38 00	 cmp	 DWORD PTR [eax], 0
  0001b	8a 17		 mov	 dl, BYTE PTR [edi]
  0001d	8d 71 24	 lea	 esi, DWORD PTR [ecx+36]
  00020	74 1a		 je	 SHORT $LN16@Put
  00022	8b 41 34	 mov	 eax, DWORD PTR [ecx+52]
  00025	83 38 00	 cmp	 DWORD PTR [eax], 0
  00028	7e 12		 jle	 SHORT $LN16@Put
  0002a	ff 08		 dec	 DWORD PTR [eax]
  0002c	8b 06		 mov	 eax, DWORD PTR [esi]
  0002e	8b 08		 mov	 ecx, DWORD PTR [eax]
  00030	8d 71 01	 lea	 esi, DWORD PTR [ecx+1]
  00033	89 30		 mov	 DWORD PTR [eax], esi
  00035	88 11		 mov	 BYTE PTR [ecx], dl
  00037	0f b6 c2	 movzx	 eax, dl
  0003a	eb 0b		 jmp	 SHORT $LN17@Put
$LN16@Put:
  0003c	8b 01		 mov	 eax, DWORD PTR [ecx]
  0003e	8b 40 04	 mov	 eax, DWORD PTR [eax+4]
  00041	0f b6 d2	 movzx	 edx, dl
  00044	52		 push	 edx
  00045	ff d0		 call	 eax
$LN17@Put:
  00047	8b 4c 24 18	 mov	 ecx, DWORD PTR __Dest$[esp+12]
  0004b	83 f8 ff	 cmp	 eax, -1
  0004e	75 05		 jne	 SHORT $LN2@Put
$LN10@Put:
  00050	c6 44 24 14 01	 mov	 BYTE PTR __Dest$[esp+8], 1
$LN2@Put:

; 1513 : 		for (; 0 < _Count; --_Count, ++_Dest, ++_Ptr)

  00055	4d		 dec	 ebp
  00056	47		 inc	 edi
  00057	85 ed		 test	 ebp, ebp
  00059	77 b6		 ja	 SHORT $LL3@Put
  0005b	5e		 pop	 esi
$LN1@Put:

; 1515 : 		return (_Dest);

  0005c	8b 44 24 0c	 mov	 eax, DWORD PTR ___$ReturnUdt$[esp+4]
  00060	8b 54 24 10	 mov	 edx, DWORD PTR __Dest$[esp+4]
  00064	5f		 pop	 edi
  00065	89 10		 mov	 DWORD PTR [eax], edx
  00067	89 48 04	 mov	 DWORD PTR [eax+4], ecx
  0006a	5d		 pop	 ebp

; 1516 : 		}

  0006b	c3		 ret	 0
?_Put@?$num_put@DV?$ostreambuf_iterator@DU?$char_traits@D@std@@@std@@@std@@ABA?AV?$ostreambuf_iterator@DU?$char_traits@D@std@@@2@V32@PBDI@Z ENDP ; std::num_put<char,std::ostreambuf_iterator<char,std::char_traits<char> > >::_Put
; Function compile flags: /Ogtpy
_TEXT	ENDS
;	COMDAT ??_G?$num_put@DV?$ostreambuf_iterator@DU?$char_traits@D@std@@@std@@@std@@MAEPAXI@Z
_TEXT	SEGMENT
___flags$ = 8						; size = 4
??_G?$num_put@DV?$ostreambuf_iterator@DU?$char_traits@D@std@@@std@@@std@@MAEPAXI@Z PROC ; std::num_put<char,std::ostreambuf_iterator<char,std::char_traits<char> > >::`scalar deleting destructor', COMDAT
; _this$ = ecx
  00000	f6 44 24 04 01	 test	 BYTE PTR ___flags$[esp-4], 1
  00005	56		 push	 esi
  00006	8b f1		 mov	 esi, ecx
  00008	c7 06 00 00 00
	00		 mov	 DWORD PTR [esi], OFFSET ??_7facet@locale@std@@6B@
  0000e	74 09		 je	 SHORT $LN8@scalar@8
  00010	56		 push	 esi
  00011	e8 00 00 00 00	 call	 ??3@YAXPAX@Z		; operator delete
  00016	83 c4 04	 add	 esp, 4
$LN8@scalar@8:
  00019	8b c6		 mov	 eax, esi
  0001b	5e		 pop	 esi
  0001c	c2 04 00	 ret	 4
??_G?$num_put@DV?$ostreambuf_iterator@DU?$char_traits@D@std@@@std@@@std@@MAEPAXI@Z ENDP ; std::num_put<char,std::ostreambuf_iterator<char,std::char_traits<char> > >::`scalar deleting destructor'
; Function compile flags: /Ogtpy
; File c:\program files\microsoft visual studio 9.0\vc\include\iosfwd
;	COMDAT ??$copy_s@U?$char_traits@D@std@@@_Traits_helper@std@@YAPADPADIPBDI@Z
_TEXT	SEGMENT
__First1$ = 8						; size = 4
__Size$ = 12						; size = 4
__First2$ = 16						; size = 4
__Count$ = 20						; size = 4
??$copy_s@U?$char_traits@D@std@@@_Traits_helper@std@@YAPADPADIPBDI@Z PROC ; std::_Traits_helper::copy_s<std::char_traits<char> >, COMDAT

; 589  : 		return copy_s<_Traits>(_First1, _Size, _First2, _Count, _Char_traits_cat<_Traits>());

  00000	8b 44 24 10	 mov	 eax, DWORD PTR __Count$[esp-4]
  00004	8b 4c 24 0c	 mov	 ecx, DWORD PTR __First2$[esp-4]
  00008	8b 54 24 08	 mov	 edx, DWORD PTR __Size$[esp-4]
  0000c	56		 push	 esi
  0000d	8b 74 24 08	 mov	 esi, DWORD PTR __First1$[esp]
  00011	50		 push	 eax
  00012	51		 push	 ecx
  00013	52		 push	 edx
  00014	56		 push	 esi
  00015	e8 00 00 00 00	 call	 _memcpy_s
  0001a	83 c4 10	 add	 esp, 16			; 00000010H
  0001d	8b c6		 mov	 eax, esi
  0001f	5e		 pop	 esi

; 590  : 	}

  00020	c3		 ret	 0
??$copy_s@U?$char_traits@D@std@@@_Traits_helper@std@@YAPADPADIPBDI@Z ENDP ; std::_Traits_helper::copy_s<std::char_traits<char> >
; Function compile flags: /Ogtpy
; File c:\program files\microsoft visual studio 9.0\vc\include\xmemory
_TEXT	ENDS
;	COMDAT ?allocate@?$allocator@D@std@@QAEPADI@Z
_TEXT	SEGMENT
$T59328 = -12						; size = 12
$T59322 = 8						; size = 4
__Count$ = 8						; size = 4
?allocate@?$allocator@D@std@@QAEPADI@Z PROC		; std::allocator<char>::allocate, COMDAT
; _this$ = ecx

; 145  : 		return (_Allocate(_Count, (pointer)0));

  00000	8b 4c 24 04	 mov	 ecx, DWORD PTR __Count$[esp-4]
  00004	83 ec 0c	 sub	 esp, 12			; 0000000cH
  00007	85 c9		 test	 ecx, ecx
  00009	77 11		 ja	 SHORT $LN5@allocate@5
  0000b	33 c9		 xor	 ecx, ecx
$LN3@allocate@5:
  0000d	51		 push	 ecx
  0000e	e8 00 00 00 00	 call	 ??2@YAPAXI@Z		; operator new
  00013	83 c4 04	 add	 esp, 4

; 146  : 		}

  00016	83 c4 0c	 add	 esp, 12			; 0000000cH
  00019	c2 04 00	 ret	 4

; 145  : 		return (_Allocate(_Count, (pointer)0));

$LN5@allocate@5:
  0001c	83 c8 ff	 or	 eax, -1
  0001f	33 d2		 xor	 edx, edx
  00021	f7 f1		 div	 ecx
  00023	83 f8 01	 cmp	 eax, 1
  00026	73 e5		 jae	 SHORT $LN3@allocate@5
  00028	8d 44 24 10	 lea	 eax, DWORD PTR $T59322[esp+8]
  0002c	50		 push	 eax
  0002d	8d 4c 24 04	 lea	 ecx, DWORD PTR $T59328[esp+16]
  00031	c7 44 24 14 00
	00 00 00	 mov	 DWORD PTR $T59322[esp+12], 0
  00039	e8 00 00 00 00	 call	 ??0exception@std@@QAE@ABQBD@Z ; std::exception::exception
  0003e	68 00 00 00 00	 push	 OFFSET __TI2?AVbad_alloc@std@@
  00043	8d 4c 24 04	 lea	 ecx, DWORD PTR $T59328[esp+16]
  00047	51		 push	 ecx
  00048	c7 44 24 08 00
	00 00 00	 mov	 DWORD PTR $T59328[esp+20], OFFSET ??_7bad_alloc@std@@6B@
  00050	e8 00 00 00 00	 call	 __CxxThrowException@8
$LN12@allocate@5:
$LN11@allocate@5:
  00055	cc		 int	 3
?allocate@?$allocator@D@std@@QAEPADI@Z ENDP		; std::allocator<char>::allocate
; Function compile flags: /Ogtpy
; File c:\program files\microsoft visual studio 9.0\vc\include\iosfwd
_TEXT	ENDS
;	COMDAT ??$move_s@U?$char_traits@D@std@@@_Traits_helper@std@@YAPADPADIPBDI@Z
_TEXT	SEGMENT
__First1$ = 8						; size = 4
__Size$ = 12						; size = 4
__First2$ = 16						; size = 4
__Count$ = 20						; size = 4
??$move_s@U?$char_traits@D@std@@@_Traits_helper@std@@YAPADPADIPBDI@Z PROC ; std::_Traits_helper::move_s<std::char_traits<char> >, COMDAT

; 616  : 		return move_s<_Traits>(_First1, _Size, _First2, _Count, _Char_traits_cat<_Traits>());

  00000	8b 44 24 10	 mov	 eax, DWORD PTR __Count$[esp-4]
  00004	8b 4c 24 0c	 mov	 ecx, DWORD PTR __First2$[esp-4]
  00008	8b 54 24 08	 mov	 edx, DWORD PTR __Size$[esp-4]
  0000c	56		 push	 esi
  0000d	8b 74 24 08	 mov	 esi, DWORD PTR __First1$[esp]
  00011	50		 push	 eax
  00012	51		 push	 ecx
  00013	52		 push	 edx
  00014	56		 push	 esi
  00015	e8 00 00 00 00	 call	 _memmove_s
  0001a	83 c4 10	 add	 esp, 16			; 00000010H
  0001d	8b c6		 mov	 eax, esi
  0001f	5e		 pop	 esi

; 617  : 	}

  00020	c3		 ret	 0
??$move_s@U?$char_traits@D@std@@@_Traits_helper@std@@YAPADPADIPBDI@Z ENDP ; std::_Traits_helper::move_s<std::char_traits<char> >
; Function compile flags: /Ogtpy
; File c:\program files\microsoft visual studio 9.0\vc\include\xiosbase
_TEXT	ENDS
;	COMDAT ?getloc@ios_base@std@@QBE?AVlocale@2@XZ
_TEXT	SEGMENT
__Lock$59365 = 8					; size = 4
___$ReturnUdt$ = 8					; size = 4
?getloc@ios_base@std@@QBE?AVlocale@2@XZ PROC		; std::ios_base::getloc, COMDAT
; _this$ = ecx

; 431  : 		return (*_Ploc);

  00000	8b 41 24	 mov	 eax, DWORD PTR [ecx+36]
  00003	56		 push	 esi
  00004	8b 30		 mov	 esi, DWORD PTR [eax]
  00006	57		 push	 edi
  00007	8b 7c 24 0c	 mov	 edi, DWORD PTR ___$ReturnUdt$[esp+4]
  0000b	6a 00		 push	 0
  0000d	8d 4c 24 10	 lea	 ecx, DWORD PTR __Lock$59365[esp+8]
  00011	89 37		 mov	 DWORD PTR [edi], esi
  00013	e8 00 00 00 00	 call	 ??0_Lockit@std@@QAE@H@Z	; std::_Lockit::_Lockit
  00018	8b 46 04	 mov	 eax, DWORD PTR [esi+4]
  0001b	83 f8 ff	 cmp	 eax, -1
  0001e	73 04		 jae	 SHORT $LN5@getloc@2
  00020	40		 inc	 eax
  00021	89 46 04	 mov	 DWORD PTR [esi+4], eax
$LN5@getloc@2:
  00024	8d 4c 24 0c	 lea	 ecx, DWORD PTR __Lock$59365[esp+4]
  00028	e8 00 00 00 00	 call	 ??1_Lockit@std@@QAE@XZ	; std::_Lockit::~_Lockit
  0002d	8b c7		 mov	 eax, edi
  0002f	5f		 pop	 edi
  00030	5e		 pop	 esi

; 432  : 		}

  00031	c2 04 00	 ret	 4
?getloc@ios_base@std@@QBE?AVlocale@2@XZ ENDP		; std::ios_base::getloc
; Function compile flags: /Ogtpy
; File c:\program files\microsoft visual studio 9.0\vc\include\xlocnum
_TEXT	ENDS
;	COMDAT ?_Putgrouped@?$num_put@DV?$ostreambuf_iterator@DU?$char_traits@D@std@@@std@@@std@@ABA?AV?$ostreambuf_iterator@DU?$char_traits@D@std@@@2@V32@PBDID@Z
_TEXT	SEGMENT
$T59374 = -20						; size = 8
$T59375 = -12						; size = 8
___$ReturnUdt$ = 8					; size = 4
__Ptr$ = 12						; size = 4
__Count$ = 16						; size = 4
__Kseparator$ = 20					; size = 1
__Dest$ = 24						; size = 8
?_Putgrouped@?$num_put@DV?$ostreambuf_iterator@DU?$char_traits@D@std@@@std@@@std@@ABA?AV?$ostreambuf_iterator@DU?$char_traits@D@std@@@2@V32@PBDID@Z PROC ; std::num_put<char,std::ostreambuf_iterator<char,std::char_traits<char> > >::_Putgrouped, COMDAT

; 1528 : 		{	// put char sequence [_Ptr, _Ptr + _Count) to _Dest with commas

  00000	83 ec 14	 sub	 esp, 20			; 00000014H
  00003	53		 push	 ebx
  00004	8b 5c 24 24	 mov	 ebx, DWORD PTR __Count$[esp+20]
  00008	55		 push	 ebp
  00009	8b 6c 24 24	 mov	 ebp, DWORD PTR __Ptr$[esp+24]
  0000d	56		 push	 esi
  0000e	57		 push	 edi
  0000f	90		 npad	 1
$LL5@Putgrouped:

; 1529 : 		for (; ; ++_Ptr, --_Count)
; 1530 : 			{	// put field with thousands separators for NULs
; 1531 : 			const char *_Pend =
; 1532 : 				(const char *)::memchr(_Ptr, '\0', _Count);

  00010	53		 push	 ebx
  00011	6a 00		 push	 0
  00013	55		 push	 ebp
  00014	e8 00 00 00 00	 call	 _memchr
  00019	83 c4 0c	 add	 esp, 12			; 0000000cH

; 1533 : 			size_t _Groupsize = _Pend != 0 ? _Pend - _Ptr : _Count;

  0001c	85 c0		 test	 eax, eax
  0001e	74 06		 je	 SHORT $LN8@Putgrouped
  00020	2b c5		 sub	 eax, ebp
  00022	8b f0		 mov	 esi, eax
  00024	eb 02		 jmp	 SHORT $LN9@Putgrouped
$LN8@Putgrouped:
  00026	8b f3		 mov	 esi, ebx
$LN9@Putgrouped:

; 1534 : 
; 1535 : 			_Dest = _Putc(_Dest, _Ptr, _Groupsize);

  00028	8b 44 24 3c	 mov	 eax, DWORD PTR __Dest$[esp+36]
  0002c	8b 4c 24 38	 mov	 ecx, DWORD PTR __Dest$[esp+32]
  00030	56		 push	 esi
  00031	50		 push	 eax
  00032	51		 push	 ecx
  00033	8d 54 24 1c	 lea	 edx, DWORD PTR $T59374[esp+48]
  00037	52		 push	 edx
  00038	8b c5		 mov	 eax, ebp
  0003a	e8 00 00 00 00	 call	 ?_Putc@?$num_put@DV?$ostreambuf_iterator@DU?$char_traits@D@std@@@std@@@std@@ABA?AV?$ostreambuf_iterator@DU?$char_traits@D@std@@@2@V32@PBDI@Z ; std::num_put<char,std::ostreambuf_iterator<char,std::char_traits<char> > >::_Putc
  0003f	8b 08		 mov	 ecx, DWORD PTR [eax]
  00041	89 4c 24 48	 mov	 DWORD PTR __Dest$[esp+48], ecx
  00045	8b 50 04	 mov	 edx, DWORD PTR [eax+4]
  00048	83 c4 10	 add	 esp, 16			; 00000010H

; 1536 : 			_Ptr += _Groupsize, _Count -= _Groupsize;

  0004b	03 ee		 add	 ebp, esi
  0004d	2b de		 sub	 ebx, esi
  0004f	89 54 24 3c	 mov	 DWORD PTR __Dest$[esp+36], edx

; 1537 : 			if (_Count == 0)

  00053	74 32		 je	 SHORT $LN12@Putgrouped

; 1538 : 				break;
; 1539 : 			if (_Kseparator != (_Elem)0)

  00055	8b 4c 24 34	 mov	 ecx, DWORD PTR __Kseparator$[esp+32]
  00059	84 c9		 test	 cl, cl
  0005b	74 26		 je	 SHORT $LN4@Putgrouped

; 1540 : 				_Dest = _Rep(_Dest, _Kseparator, 1);

  0005d	8b 10		 mov	 edx, DWORD PTR [eax]
  0005f	51		 push	 ecx
  00060	8b 48 04	 mov	 ecx, DWORD PTR [eax+4]
  00063	51		 push	 ecx
  00064	52		 push	 edx
  00065	b8 01 00 00 00	 mov	 eax, 1
  0006a	8d 7c 24 24	 lea	 edi, DWORD PTR $T59375[esp+48]
  0006e	e8 00 00 00 00	 call	 ?_Rep@?$num_put@DV?$ostreambuf_iterator@DU?$char_traits@D@std@@@std@@@std@@ABA?AV?$ostreambuf_iterator@DU?$char_traits@D@std@@@2@V32@DI@Z ; std::num_put<char,std::ostreambuf_iterator<char,std::char_traits<char> > >::_Rep
  00073	8b 08		 mov	 ecx, DWORD PTR [eax]
  00075	89 4c 24 44	 mov	 DWORD PTR __Dest$[esp+44], ecx
  00079	8b 50 04	 mov	 edx, DWORD PTR [eax+4]
  0007c	83 c4 0c	 add	 esp, 12			; 0000000cH
  0007f	89 54 24 3c	 mov	 DWORD PTR __Dest$[esp+36], edx
$LN4@Putgrouped:
  00083	45		 inc	 ebp
  00084	4b		 dec	 ebx
  00085	eb 89		 jmp	 SHORT $LL5@Putgrouped
$LN12@Putgrouped:

; 1541 : 			}
; 1542 : 		return (_Dest);

  00087	8b 10		 mov	 edx, DWORD PTR [eax]
  00089	8b 4c 24 28	 mov	 ecx, DWORD PTR ___$ReturnUdt$[esp+32]
  0008d	8b 40 04	 mov	 eax, DWORD PTR [eax+4]

; 1543 : 		}

  00090	5f		 pop	 edi
  00091	5e		 pop	 esi
  00092	5d		 pop	 ebp
  00093	89 41 04	 mov	 DWORD PTR [ecx+4], eax
  00096	89 11		 mov	 DWORD PTR [ecx], edx
  00098	8b c1		 mov	 eax, ecx
  0009a	5b		 pop	 ebx
  0009b	83 c4 14	 add	 esp, 20			; 00000014H
  0009e	c3		 ret	 0
?_Putgrouped@?$num_put@DV?$ostreambuf_iterator@DU?$char_traits@D@std@@@std@@@std@@ABA?AV?$ostreambuf_iterator@DU?$char_traits@D@std@@@2@V32@PBDID@Z ENDP ; std::num_put<char,std::ostreambuf_iterator<char,std::char_traits<char> > >::_Putgrouped
; Function compile flags: /Ogtpy
; File c:\program files\microsoft visual studio 9.0\vc\include\xstring
;	COMDAT ?_Tidy@?$basic_string@DU?$char_traits@D@std@@V?$allocator@D@2@@std@@IAEX_NI@Z
_TEXT	SEGMENT
__Built$ = 8						; size = 1
__Newsize$ = 12						; size = 4
?_Tidy@?$basic_string@DU?$char_traits@D@std@@V?$allocator@D@2@@std@@IAEX_NI@Z PROC ; std::basic_string<char,std::char_traits<char>,std::allocator<char> >::_Tidy, COMDAT
; _this$ = ecx

; 2149 : 		if (!_Built)

  00000	80 7c 24 04 00	 cmp	 BYTE PTR __Built$[esp-4], 0
  00005	56		 push	 esi
  00006	57		 push	 edi
  00007	8b 7c 24 10	 mov	 edi, DWORD PTR __Newsize$[esp+4]
  0000b	8b f1		 mov	 esi, ecx
  0000d	74 27		 je	 SHORT $LN15@Tidy@6

; 2150 : 			;
; 2151 : 		else if (_BUF_SIZE <= _Myres)

  0000f	83 7e 18 10	 cmp	 DWORD PTR [esi+24], 16	; 00000010H
  00013	72 21		 jb	 SHORT $LN15@Tidy@6

; 2152 : 			{	// copy any leftovers to small buffer and deallocate
; 2153 : 			_Elem *_Ptr = _Bx._Ptr;

  00015	8d 46 04	 lea	 eax, DWORD PTR [esi+4]
  00018	53		 push	 ebx
  00019	8b 18		 mov	 ebx, DWORD PTR [eax]

; 2154 : 			if (0 < _Newsize)

  0001b	85 ff		 test	 edi, edi
  0001d	76 0d		 jbe	 SHORT $LN13@Tidy@6

; 2155 : 				_Traits_helper::copy_s<_Traits>(_Bx._Buf, _BUF_SIZE, _Ptr, _Newsize);

  0001f	57		 push	 edi
  00020	53		 push	 ebx
  00021	6a 10		 push	 16			; 00000010H
  00023	50		 push	 eax
  00024	e8 00 00 00 00	 call	 _memcpy_s
  00029	83 c4 10	 add	 esp, 16			; 00000010H
$LN13@Tidy@6:

; 2156 : 			_Mybase::_Alval.deallocate(_Ptr, _Myres + 1);

  0002c	53		 push	 ebx
  0002d	e8 00 00 00 00	 call	 ??3@YAXPAX@Z		; operator delete
  00032	83 c4 04	 add	 esp, 4
  00035	5b		 pop	 ebx
$LN15@Tidy@6:

; 2157 : 			}
; 2158 : 		_Myres = _BUF_SIZE - 1;
; 2159 : 		_Eos(_Newsize);

  00036	89 7e 14	 mov	 DWORD PTR [esi+20], edi
  00039	c7 46 18 0f 00
	00 00		 mov	 DWORD PTR [esi+24], 15	; 0000000fH
  00040	c6 44 3e 04 00	 mov	 BYTE PTR [esi+edi+4], 0
  00045	5f		 pop	 edi
  00046	5e		 pop	 esi

; 2160 : 		}

  00047	c2 08 00	 ret	 8
?_Tidy@?$basic_string@DU?$char_traits@D@std@@V?$allocator@D@2@@std@@IAEX_NI@Z ENDP ; std::basic_string<char,std::char_traits<char>,std::allocator<char> >::_Tidy
_TEXT	ENDS
;	COMDAT xdata$x
; File c:\program files\microsoft visual studio 9.0\vc\include\iosfwd
xdata$x	SEGMENT
__unwindtable$?_Copy@?$basic_string@DU?$char_traits@D@std@@V?$allocator@D@2@@std@@IAEXII@Z DD 0ffffffffH
	DD	00H
	DD	0ffffffffH
	DD	00H
	DD	01H
	DD	00H
	DD	01H
	DD	00H
__catchsym$?_Copy@?$basic_string@DU?$char_traits@D@std@@V?$allocator@D@2@@std@@IAEXII@Z$4 DD 040H
	DD	00H
	DD	00H
	DD	FLAT:__catch$?_Copy@?$basic_string@DU?$char_traits@D@std@@V?$allocator@D@2@@std@@IAEXII@Z$1
__catchsym$?_Copy@?$basic_string@DU?$char_traits@D@std@@V?$allocator@D@2@@std@@IAEXII@Z$5 DD 040H
	DD	00H
	DD	00H
	DD	FLAT:__catch$?_Copy@?$basic_string@DU?$char_traits@D@std@@V?$allocator@D@2@@std@@IAEXII@Z$0
__tryblocktable$?_Copy@?$basic_string@DU?$char_traits@D@std@@V?$allocator@D@2@@std@@IAEXII@Z DD 02H
	DD	02H
	DD	03H
	DD	01H
	DD	FLAT:__catchsym$?_Copy@?$basic_string@DU?$char_traits@D@std@@V?$allocator@D@2@@std@@IAEXII@Z$4
	DD	00H
	DD	00H
	DD	03H
	DD	01H
	DD	FLAT:__catchsym$?_Copy@?$basic_string@DU?$char_traits@D@std@@V?$allocator@D@2@@std@@IAEXII@Z$5
__ehfuncinfo$?_Copy@?$basic_string@DU?$char_traits@D@std@@V?$allocator@D@2@@std@@IAEXII@Z DD 019930522H
	DD	04H
	DD	FLAT:__unwindtable$?_Copy@?$basic_string@DU?$char_traits@D@std@@V?$allocator@D@2@@std@@IAEXII@Z
	DD	02H
	DD	FLAT:__tryblocktable$?_Copy@?$basic_string@DU?$char_traits@D@std@@V?$allocator@D@2@@std@@IAEXII@Z
	DD	2 DUP(00H)
	DD	00H
	DD	01H
; Function compile flags: /Ogtpy
; File c:\program files\microsoft visual studio 9.0\vc\include\xstring
xdata$x	ENDS
;	COMDAT ?_Copy@?$basic_string@DU?$char_traits@D@std@@V?$allocator@D@2@@std@@IAEXII@Z
_TEXT	SEGMENT
$T59746 = -40						; size = 12
__Newres$ = -28						; size = 4
$T59732 = -24						; size = 4
_this$ = -20						; size = 4
__$EHRec$ = -16						; size = 16
__Ptr$ = 8						; size = 4
__Newsize$ = 8						; size = 4
__Oldlen$ = 12						; size = 4
?_Copy@?$basic_string@DU?$char_traits@D@std@@V?$allocator@D@2@@std@@IAEXII@Z PROC ; std::basic_string<char,std::char_traits<char>,std::allocator<char> >::_Copy, COMDAT
; _this$ = ecx

; 2083 : 		{	// copy _Oldlen elements to newly allocated buffer

  00000	55		 push	 ebp
  00001	8b ec		 mov	 ebp, esp
  00003	6a ff		 push	 -1
  00005	68 00 00 00 00	 push	 __ehhandler$?_Copy@?$basic_string@DU?$char_traits@D@std@@V?$allocator@D@2@@std@@IAEXII@Z
  0000a	64 a1 00 00 00
	00		 mov	 eax, DWORD PTR fs:0
  00010	50		 push	 eax
  00011	83 ec 1c	 sub	 esp, 28			; 0000001cH
  00014	53		 push	 ebx
  00015	56		 push	 esi
  00016	57		 push	 edi
  00017	a1 00 00 00 00	 mov	 eax, DWORD PTR ___security_cookie
  0001c	33 c5		 xor	 eax, ebp
  0001e	50		 push	 eax
  0001f	8d 45 f4	 lea	 eax, DWORD PTR __$EHRec$[ebp+4]
  00022	64 a3 00 00 00
	00		 mov	 DWORD PTR fs:0, eax
  00028	89 65 f0	 mov	 DWORD PTR __$EHRec$[ebp], esp
  0002b	8b f9		 mov	 edi, ecx
  0002d	89 7d ec	 mov	 DWORD PTR _this$[ebp], edi

; 2084 : 		size_type _Newres = _Newsize | _ALLOC_MASK;

  00030	8b 45 08	 mov	 eax, DWORD PTR __Newsize$[ebp]
  00033	8b f0		 mov	 esi, eax
  00035	83 ce 0f	 or	 esi, 15			; 0000000fH

; 2085 : 		if (max_size() < _Newres)

  00038	83 fe fe	 cmp	 esi, -2			; fffffffeH
  0003b	76 04		 jbe	 SHORT $LN6@Copy

; 2086 : 			_Newres = _Newsize;	// undo roundup if too big

  0003d	8b f0		 mov	 esi, eax

; 2087 : 		else if (_Newres / 3 < _Myres / 2

  0003f	eb 22		 jmp	 SHORT $LN4@Copy
$LN6@Copy:

; 2088 : 			&& _Myres <= max_size() - _Myres / 2)

  00041	8b 5f 18	 mov	 ebx, DWORD PTR [edi+24]
  00044	b8 ab aa aa aa	 mov	 eax, -1431655765	; aaaaaaabH
  00049	f7 e6		 mul	 esi
  0004b	8b cb		 mov	 ecx, ebx
  0004d	d1 e9		 shr	 ecx, 1
  0004f	d1 ea		 shr	 edx, 1
  00051	3b d1		 cmp	 edx, ecx
  00053	73 0e		 jae	 SHORT $LN4@Copy
  00055	b8 fe ff ff ff	 mov	 eax, -2			; fffffffeH
  0005a	2b c1		 sub	 eax, ecx
  0005c	3b d8		 cmp	 ebx, eax
  0005e	77 03		 ja	 SHORT $LN4@Copy

; 2089 : 			_Newres = _Myres + _Myres / 2;	// grow exponentially if possible

  00060	8d 34 19	 lea	 esi, DWORD PTR [ecx+ebx]
$LN4@Copy:

; 2090 : 		_Elem *_Ptr = 0;
; 2091 : 
; 2092 : 		_TRY_BEGIN

  00063	33 db		 xor	 ebx, ebx

; 2093 : 			_Ptr = _Mybase::_Alval.allocate(_Newres + 1);

  00065	8d 4e 01	 lea	 ecx, DWORD PTR [esi+1]
  00068	89 5d fc	 mov	 DWORD PTR __$EHRec$[ebp+12], ebx
  0006b	3b cb		 cmp	 ecx, ebx
  0006d	77 10		 ja	 SHORT $LN37@Copy
  0006f	33 c9		 xor	 ecx, ecx
$LN35@Copy:
  00071	51		 push	 ecx
  00072	e8 00 00 00 00	 call	 ??2@YAPAXI@Z		; operator new
  00077	83 c4 04	 add	 esp, 4
  0007a	89 45 08	 mov	 DWORD PTR __Ptr$[ebp], eax
  0007d	eb 56		 jmp	 SHORT $LN16@Copy
$LN37@Copy:
  0007f	83 c8 ff	 or	 eax, -1
  00082	33 d2		 xor	 edx, edx
  00084	f7 f1		 div	 ecx
  00086	83 f8 01	 cmp	 eax, 1
  00089	73 e6		 jae	 SHORT $LN35@Copy
  0008b	8d 4d e8	 lea	 ecx, DWORD PTR $T59732[ebp]
  0008e	51		 push	 ecx
  0008f	8d 4d d8	 lea	 ecx, DWORD PTR $T59746[ebp]
  00092	89 5d e8	 mov	 DWORD PTR $T59732[ebp], ebx
  00095	e8 00 00 00 00	 call	 ??0exception@std@@QAE@ABQBD@Z ; std::exception::exception
  0009a	68 00 00 00 00	 push	 OFFSET __TI2?AVbad_alloc@std@@
  0009f	8d 55 d8	 lea	 edx, DWORD PTR $T59746[ebp]
  000a2	52		 push	 edx
  000a3	c7 45 d8 00 00
	00 00		 mov	 DWORD PTR $T59746[ebp], OFFSET ??_7bad_alloc@std@@6B@
  000aa	e8 00 00 00 00	 call	 __CxxThrowException@8
$LN117@Copy:
__catch$?_Copy@?$basic_string@DU?$char_traits@D@std@@V?$allocator@D@2@@std@@IAEXII@Z$0:

; 2094 : 		_CATCH_ALL
; 2095 : 			_Newres = _Newsize;	// allocation failed, undo roundup and retry

  000af	8b 45 08	 mov	 eax, DWORD PTR __Newsize$[ebp]

; 2096 : 			_TRY_BEGIN
; 2097 : 				_Ptr = _Mybase::_Alval.allocate(_Newres + 1);

  000b2	8b 4d ec	 mov	 ecx, DWORD PTR _this$[ebp]
  000b5	89 45 e4	 mov	 DWORD PTR __Newres$[ebp], eax
  000b8	40		 inc	 eax
  000b9	89 65 f0	 mov	 DWORD PTR __$EHRec$[ebp], esp
  000bc	50		 push	 eax
  000bd	c6 45 fc 02	 mov	 BYTE PTR __$EHRec$[ebp+12], 2
  000c1	e8 00 00 00 00	 call	 ?allocate@?$allocator@D@std@@QAEPADI@Z ; std::allocator<char>::allocate
  000c6	89 45 08	 mov	 DWORD PTR __Ptr$[ebp], eax

; 2101 : 			_CATCH_END
; 2102 : 		_CATCH_END

  000c9	b8 00 00 00 00	 mov	 eax, $LN113@Copy
  000ce	c3		 ret	 0
$LN113@Copy:
  000cf	8b 7d ec	 mov	 edi, DWORD PTR _this$[ebp]
  000d2	8b 75 e4	 mov	 esi, DWORD PTR __Newres$[ebp]
$LN16@Copy:

; 2103 : 
; 2104 : 		if (0 < _Oldlen)

  000d5	8b 5d 0c	 mov	 ebx, DWORD PTR __Oldlen$[ebp]
  000d8	85 db		 test	 ebx, ebx
  000da	76 20		 jbe	 SHORT $LN78@Copy

; 2105 : 			_Traits_helper::copy_s<_Traits>(_Ptr, _Newres + 1, _Myptr(), _Oldlen);	// copy existing elements

  000dc	83 7f 18 10	 cmp	 DWORD PTR [edi+24], 16	; 00000010H
  000e0	72 05		 jb	 SHORT $LN70@Copy
  000e2	8b 47 04	 mov	 eax, DWORD PTR [edi+4]
  000e5	eb 03		 jmp	 SHORT $LN71@Copy
$LN70@Copy:
  000e7	8d 47 04	 lea	 eax, DWORD PTR [edi+4]
$LN71@Copy:
  000ea	8b 4d 08	 mov	 ecx, DWORD PTR __Ptr$[ebp]
  000ed	53		 push	 ebx
  000ee	50		 push	 eax
  000ef	8d 46 01	 lea	 eax, DWORD PTR [esi+1]
  000f2	50		 push	 eax
  000f3	51		 push	 ecx
  000f4	e8 00 00 00 00	 call	 _memcpy_s
  000f9	83 c4 10	 add	 esp, 16			; 00000010H
$LN78@Copy:

; 2106 : 		_Tidy(true);

  000fc	83 7f 18 10	 cmp	 DWORD PTR [edi+24], 16	; 00000010H
  00100	72 0c		 jb	 SHORT $LN94@Copy
  00102	8b 57 04	 mov	 edx, DWORD PTR [edi+4]
  00105	52		 push	 edx
  00106	e8 00 00 00 00	 call	 ??3@YAXPAX@Z		; operator delete
  0010b	83 c4 04	 add	 esp, 4
$LN94@Copy:

; 2107 : 		_Bx._Ptr = _Ptr;

  0010e	8b 4d 08	 mov	 ecx, DWORD PTR __Ptr$[ebp]
  00111	8d 47 04	 lea	 eax, DWORD PTR [edi+4]
  00114	c6 00 00	 mov	 BYTE PTR [eax], 0
  00117	89 08		 mov	 DWORD PTR [eax], ecx

; 2108 : 		_Myres = _Newres;

  00119	89 77 18	 mov	 DWORD PTR [edi+24], esi

; 2109 : 		_Eos(_Oldlen);

  0011c	89 5f 14	 mov	 DWORD PTR [edi+20], ebx
  0011f	83 fe 10	 cmp	 esi, 16			; 00000010H
  00122	72 02		 jb	 SHORT $LN108@Copy
  00124	8b c1		 mov	 eax, ecx
$LN108@Copy:
  00126	c6 04 18 00	 mov	 BYTE PTR [eax+ebx], 0

; 2110 : 		}

  0012a	8b 4d f4	 mov	 ecx, DWORD PTR __$EHRec$[ebp+4]
  0012d	64 89 0d 00 00
	00 00		 mov	 DWORD PTR fs:0, ecx
  00134	59		 pop	 ecx
  00135	5f		 pop	 edi
  00136	5e		 pop	 esi
  00137	5b		 pop	 ebx
  00138	8b e5		 mov	 esp, ebp
  0013a	5d		 pop	 ebp
  0013b	c2 08 00	 ret	 8
__catch$?_Copy@?$basic_string@DU?$char_traits@D@std@@V?$allocator@D@2@@std@@IAEXII@Z$1:

; 2098 : 			_CATCH_ALL
; 2099 : 			_Tidy(true);	// failed again, discard storage and reraise

  0013e	8b 75 ec	 mov	 esi, DWORD PTR _this$[ebp]
  00141	83 7e 18 10	 cmp	 DWORD PTR [esi+24], 16	; 00000010H
  00145	72 0c		 jb	 SHORT $LN58@Copy
  00147	8b 46 04	 mov	 eax, DWORD PTR [esi+4]
  0014a	50		 push	 eax
  0014b	e8 00 00 00 00	 call	 ??3@YAXPAX@Z		; operator delete
  00150	83 c4 04	 add	 esp, 4
$LN58@Copy:

; 2100 : 			_RERAISE;

  00153	6a 00		 push	 0
  00155	c7 46 18 0f 00
	00 00		 mov	 DWORD PTR [esi+24], 15	; 0000000fH
  0015c	c7 46 14 00 00
	00 00		 mov	 DWORD PTR [esi+20], 0
  00163	6a 00		 push	 0
  00165	c6 46 04 00	 mov	 BYTE PTR [esi+4], 0
  00169	e8 00 00 00 00	 call	 __CxxThrowException@8
$LN118@Copy:
$LN116@Copy:
  0016e	cc		 int	 3
_TEXT	ENDS
;	COMDAT text$x
text$x	SEGMENT
__ehhandler$?_Copy@?$basic_string@DU?$char_traits@D@std@@V?$allocator@D@2@@std@@IAEXII@Z:
  00000	8b 54 24 08	 mov	 edx, DWORD PTR [esp+8]
  00004	8d 42 0c	 lea	 eax, DWORD PTR [edx+12]
  00007	8b 4a d4	 mov	 ecx, DWORD PTR [edx-44]
  0000a	33 c8		 xor	 ecx, eax
  0000c	e8 00 00 00 00	 call	 @__security_check_cookie@4
  00011	b8 00 00 00 00	 mov	 eax, OFFSET __ehfuncinfo$?_Copy@?$basic_string@DU?$char_traits@D@std@@V?$allocator@D@2@@std@@IAEXII@Z
  00016	e9 00 00 00 00	 jmp	 ___CxxFrameHandler3
text$x	ENDS
?_Copy@?$basic_string@DU?$char_traits@D@std@@V?$allocator@D@2@@std@@IAEXII@Z ENDP ; std::basic_string<char,std::char_traits<char>,std::allocator<char> >::_Copy
; Function compile flags: /Ogtpy
;	COMDAT ?erase@?$basic_string@DU?$char_traits@D@std@@V?$allocator@D@2@@std@@QAEAAV12@II@Z
_TEXT	SEGMENT
tv130 = 8						; size = 4
__Off$ = 8						; size = 4
__Count$ = 12						; size = 4
?erase@?$basic_string@DU?$char_traits@D@std@@V?$allocator@D@2@@std@@QAEAAV12@II@Z PROC ; std::basic_string<char,std::char_traits<char>,std::allocator<char> >::erase, COMDAT
; _this$ = ecx

; 1262 : 		{	// erase elements [_Off, _Off + _Count)

  00000	53		 push	 ebx

; 1263 : 		if (_Mysize < _Off)

  00001	8b 5c 24 08	 mov	 ebx, DWORD PTR __Off$[esp]
  00005	56		 push	 esi
  00006	8b f1		 mov	 esi, ecx
  00008	57		 push	 edi
  00009	39 5e 14	 cmp	 DWORD PTR [esi+20], ebx
  0000c	73 05		 jae	 SHORT $LN3@erase@2

; 1264 : 			_String_base::_Xran();	// _Off off end

  0000e	e8 00 00 00 00	 call	 ?_Xran@_String_base@std@@SAXXZ ; std::_String_base::_Xran
$LN3@erase@2:

; 1265 : 		if (_Mysize - _Off < _Count)

  00013	8b 46 14	 mov	 eax, DWORD PTR [esi+20]
  00016	8b 7c 24 14	 mov	 edi, DWORD PTR __Count$[esp+8]
  0001a	2b c3		 sub	 eax, ebx
  0001c	3b c7		 cmp	 eax, edi

; 1266 : 			_Count = _Mysize - _Off;	// trim _Count

  0001e	0f 42 f8	 cmovb	 edi, eax

; 1267 : 		if (0 < _Count)

  00021	85 ff		 test	 edi, edi
  00023	76 55		 jbe	 SHORT $LN30@erase@2

; 1268 : 			{	// move elements down
; 1269 : 			_Traits_helper::move_s<_Traits>(_Myptr() + _Off, _Myres - _Off, _Myptr() + _Off + _Count,
; 1270 : 				_Mysize - _Off - _Count);

  00025	8b 4e 18	 mov	 ecx, DWORD PTR [esi+24]
  00028	55		 push	 ebp
  00029	8d 6e 04	 lea	 ebp, DWORD PTR [esi+4]
  0002c	83 f9 10	 cmp	 ecx, 16			; 00000010H
  0002f	72 09		 jb	 SHORT $LN8@erase@2
  00031	8b 55 00	 mov	 edx, DWORD PTR [ebp]
  00034	89 54 24 14	 mov	 DWORD PTR tv130[esp+12], edx
  00038	eb 04		 jmp	 SHORT $LN9@erase@2
$LN8@erase@2:
  0003a	89 6c 24 14	 mov	 DWORD PTR tv130[esp+12], ebp
$LN9@erase@2:
  0003e	83 f9 10	 cmp	 ecx, 16			; 00000010H
  00041	72 05		 jb	 SHORT $LN12@erase@2
  00043	8b 55 00	 mov	 edx, DWORD PTR [ebp]
  00046	eb 02		 jmp	 SHORT $LN13@erase@2
$LN12@erase@2:
  00048	8b d5		 mov	 edx, ebp
$LN13@erase@2:
  0004a	2b c7		 sub	 eax, edi
  0004c	50		 push	 eax
  0004d	8b 44 24 18	 mov	 eax, DWORD PTR tv130[esp+16]
  00051	03 c3		 add	 eax, ebx
  00053	03 c7		 add	 eax, edi
  00055	50		 push	 eax
  00056	2b cb		 sub	 ecx, ebx
  00058	51		 push	 ecx
  00059	03 d3		 add	 edx, ebx
  0005b	52		 push	 edx
  0005c	e8 00 00 00 00	 call	 _memmove_s

; 1271 : 			size_type _Newsize = _Mysize - _Count;

  00061	8b 46 14	 mov	 eax, DWORD PTR [esi+20]
  00064	2b c7		 sub	 eax, edi
  00066	83 c4 10	 add	 esp, 16			; 00000010H

; 1272 : 			_Eos(_Newsize);

  00069	83 7e 18 10	 cmp	 DWORD PTR [esi+24], 16	; 00000010H
  0006d	89 46 14	 mov	 DWORD PTR [esi+20], eax
  00070	72 03		 jb	 SHORT $LN26@erase@2
  00072	8b 6d 00	 mov	 ebp, DWORD PTR [ebp]
$LN26@erase@2:
  00075	c6 04 28 00	 mov	 BYTE PTR [eax+ebp], 0
  00079	5d		 pop	 ebp
$LN30@erase@2:
  0007a	5f		 pop	 edi

; 1273 : 			}
; 1274 : 		return (*this);

  0007b	8b c6		 mov	 eax, esi
  0007d	5e		 pop	 esi
  0007e	5b		 pop	 ebx

; 1275 : 		}

  0007f	c2 08 00	 ret	 8
?erase@?$basic_string@DU?$char_traits@D@std@@V?$allocator@D@2@@std@@QAEAAV12@II@Z ENDP ; std::basic_string<char,std::char_traits<char>,std::allocator<char> >::erase
; Function compile flags: /Ogtpy
_TEXT	ENDS
;	COMDAT ??0?$basic_string@DU?$char_traits@D@std@@V?$allocator@D@2@@std@@QAE@XZ
_TEXT	SEGMENT
??0?$basic_string@DU?$char_traits@D@std@@V?$allocator@D@2@@std@@QAE@XZ PROC ; std::basic_string<char,std::char_traits<char>,std::allocator<char> >::basic_string<char,std::char_traits<char>,std::allocator<char> >, COMDAT
; _this$ = ecx

; 565  : 		{	// construct empty string

  00000	8b c1		 mov	 eax, ecx

; 566  : 		_Tidy();

  00002	33 c9		 xor	 ecx, ecx
  00004	c7 40 18 0f 00
	00 00		 mov	 DWORD PTR [eax+24], 15	; 0000000fH
  0000b	89 48 14	 mov	 DWORD PTR [eax+20], ecx
  0000e	88 48 04	 mov	 BYTE PTR [eax+4], cl

; 567  : 		}

  00011	c3		 ret	 0
??0?$basic_string@DU?$char_traits@D@std@@V?$allocator@D@2@@std@@QAE@XZ ENDP ; std::basic_string<char,std::char_traits<char>,std::allocator<char> >::basic_string<char,std::char_traits<char>,std::allocator<char> >
; Function compile flags: /Ogtpy
;	COMDAT ??1?$basic_string@DU?$char_traits@D@std@@V?$allocator@D@2@@std@@QAE@XZ
_TEXT	SEGMENT
??1?$basic_string@DU?$char_traits@D@std@@V?$allocator@D@2@@std@@QAE@XZ PROC ; std::basic_string<char,std::char_traits<char>,std::allocator<char> >::~basic_string<char,std::char_traits<char>,std::allocator<char> >, COMDAT
; _this$ = ecx

; 905  : 		{	// destroy the string

  00000	56		 push	 esi
  00001	8b f1		 mov	 esi, ecx

; 906  : 		_Tidy(true);

  00003	83 7e 18 10	 cmp	 DWORD PTR [esi+24], 16	; 00000010H
  00007	72 0c		 jb	 SHORT $LN17@basic_stri
  00009	8b 46 04	 mov	 eax, DWORD PTR [esi+4]
  0000c	50		 push	 eax
  0000d	e8 00 00 00 00	 call	 ??3@YAXPAX@Z		; operator delete
  00012	83 c4 04	 add	 esp, 4
$LN17@basic_stri:
  00015	33 c0		 xor	 eax, eax
  00017	c7 46 18 0f 00
	00 00		 mov	 DWORD PTR [esi+24], 15	; 0000000fH
  0001e	89 46 14	 mov	 DWORD PTR [esi+20], eax
  00021	88 46 04	 mov	 BYTE PTR [esi+4], al
  00024	5e		 pop	 esi

; 907  : 		}

  00025	c3		 ret	 0
??1?$basic_string@DU?$char_traits@D@std@@V?$allocator@D@2@@std@@QAE@XZ ENDP ; std::basic_string<char,std::char_traits<char>,std::allocator<char> >::~basic_string<char,std::char_traits<char>,std::allocator<char> >
; Function compile flags: /Ogtpy
_TEXT	ENDS
;	COMDAT ?_Grow@?$basic_string@DU?$char_traits@D@std@@V?$allocator@D@2@@std@@IAE_NI_N@Z
_TEXT	SEGMENT
__Newsize$ = 8						; size = 4
__Trim$ = 12						; size = 1
?_Grow@?$basic_string@DU?$char_traits@D@std@@V?$allocator@D@2@@std@@IAE_NI_N@Z PROC ; std::basic_string<char,std::char_traits<char>,std::allocator<char> >::_Grow, COMDAT
; _this$ = ecx

; 2119 : 		{	// ensure buffer is big enough, trim to size if _Trim is true

  00000	53		 push	 ebx

; 2120 : 			if (max_size() < _Newsize)

  00001	8b 5c 24 08	 mov	 ebx, DWORD PTR __Newsize$[esp]
  00005	56		 push	 esi
  00006	8b f1		 mov	 esi, ecx
  00008	83 fb fe	 cmp	 ebx, -2			; fffffffeH
  0000b	76 05		 jbe	 SHORT $LN6@Grow

; 2121 : 			_String_base::_Xlen();	// result too long

  0000d	e8 00 00 00 00	 call	 ?_Xlen@_String_base@std@@SAXXZ ; std::_String_base::_Xlen
$LN6@Grow:

; 2122 : 		if (_Myres < _Newsize)

  00012	8b 46 18	 mov	 eax, DWORD PTR [esi+24]
  00015	3b c3		 cmp	 eax, ebx
  00017	73 19		 jae	 SHORT $LN5@Grow

; 2123 : 			_Copy(_Newsize, _Mysize);	// reallocate to grow

  00019	8b 46 14	 mov	 eax, DWORD PTR [esi+20]
  0001c	50		 push	 eax
  0001d	53		 push	 ebx
  0001e	8b ce		 mov	 ecx, esi
  00020	e8 00 00 00 00	 call	 ?_Copy@?$basic_string@DU?$char_traits@D@std@@V?$allocator@D@2@@std@@IAEXII@Z ; std::basic_string<char,std::char_traits<char>,std::allocator<char> >::_Copy

; 2129 : 		return (0 < _Newsize);	// return true only if more work to do

  00025	33 c9		 xor	 ecx, ecx
  00027	3b cb		 cmp	 ecx, ebx
  00029	1b c0		 sbb	 eax, eax
  0002b	5e		 pop	 esi
  0002c	f7 d8		 neg	 eax
  0002e	5b		 pop	 ebx

; 2130 : 		}

  0002f	c2 08 00	 ret	 8
$LN5@Grow:

; 2124 : 		else if (_Trim && _Newsize < _BUF_SIZE)

  00032	80 7c 24 10 00	 cmp	 BYTE PTR __Trim$[esp+4], 0
  00037	74 52		 je	 SHORT $LN3@Grow
  00039	83 fb 10	 cmp	 ebx, 16			; 00000010H
  0003c	73 4d		 jae	 SHORT $LN3@Grow
  0003e	57		 push	 edi

; 2125 : 			_Tidy(true,	// copy and deallocate if trimming to small string
; 2126 : 				_Newsize < _Mysize ? _Newsize : _Mysize);

  0003f	8b 7e 14	 mov	 edi, DWORD PTR [esi+20]
  00042	3b df		 cmp	 ebx, edi
  00044	73 02		 jae	 SHORT $LN9@Grow
  00046	8b fb		 mov	 edi, ebx
$LN9@Grow:
  00048	83 f8 10	 cmp	 eax, 16			; 00000010H
  0004b	72 21		 jb	 SHORT $LN33@Grow
  0004d	8d 46 04	 lea	 eax, DWORD PTR [esi+4]
  00050	55		 push	 ebp
  00051	8b 28		 mov	 ebp, DWORD PTR [eax]
  00053	85 ff		 test	 edi, edi
  00055	76 0d		 jbe	 SHORT $LN31@Grow
  00057	57		 push	 edi
  00058	55		 push	 ebp
  00059	6a 10		 push	 16			; 00000010H
  0005b	50		 push	 eax
  0005c	e8 00 00 00 00	 call	 _memcpy_s
  00061	83 c4 10	 add	 esp, 16			; 00000010H
$LN31@Grow:
  00064	55		 push	 ebp
  00065	e8 00 00 00 00	 call	 ??3@YAXPAX@Z		; operator delete
  0006a	83 c4 04	 add	 esp, 4
  0006d	5d		 pop	 ebp
$LN33@Grow:
  0006e	89 7e 14	 mov	 DWORD PTR [esi+20], edi
  00071	c7 46 18 0f 00
	00 00		 mov	 DWORD PTR [esi+24], 15	; 0000000fH

; 2129 : 		return (0 < _Newsize);	// return true only if more work to do

  00078	33 c9		 xor	 ecx, ecx
  0007a	c6 44 3e 04 00	 mov	 BYTE PTR [esi+edi+4], 0
  0007f	3b cb		 cmp	 ecx, ebx
  00081	5f		 pop	 edi
  00082	1b c0		 sbb	 eax, eax
  00084	5e		 pop	 esi
  00085	f7 d8		 neg	 eax
  00087	5b		 pop	 ebx

; 2130 : 		}

  00088	c2 08 00	 ret	 8
$LN3@Grow:

; 2127 : 		else if (_Newsize == 0)

  0008b	85 db		 test	 ebx, ebx
  0008d	75 20		 jne	 SHORT $LN49@Grow

; 2128 : 			_Eos(0);	// new size is zero, just null terminate

  0008f	89 5e 14	 mov	 DWORD PTR [esi+20], ebx
  00092	83 f8 10	 cmp	 eax, 16			; 00000010H
  00095	72 12		 jb	 SHORT $LN47@Grow
  00097	8b 76 04	 mov	 esi, DWORD PTR [esi+4]

; 2129 : 		return (0 < _Newsize);	// return true only if more work to do

  0009a	33 c9		 xor	 ecx, ecx
  0009c	3b cb		 cmp	 ecx, ebx
  0009e	88 1e		 mov	 BYTE PTR [esi], bl
  000a0	1b c0		 sbb	 eax, eax
  000a2	5e		 pop	 esi
  000a3	f7 d8		 neg	 eax
  000a5	5b		 pop	 ebx

; 2130 : 		}

  000a6	c2 08 00	 ret	 8

; 2128 : 			_Eos(0);	// new size is zero, just null terminate

$LN47@Grow:
  000a9	83 c6 04	 add	 esi, 4
  000ac	c6 06 00	 mov	 BYTE PTR [esi], 0
$LN49@Grow:

; 2129 : 		return (0 < _Newsize);	// return true only if more work to do

  000af	33 c9		 xor	 ecx, ecx
  000b1	3b cb		 cmp	 ecx, ebx
  000b3	1b c0		 sbb	 eax, eax
  000b5	5e		 pop	 esi
  000b6	f7 d8		 neg	 eax
  000b8	5b		 pop	 ebx

; 2130 : 		}

  000b9	c2 08 00	 ret	 8
?_Grow@?$basic_string@DU?$char_traits@D@std@@V?$allocator@D@2@@std@@IAE_NI_N@Z ENDP ; std::basic_string<char,std::char_traits<char>,std::allocator<char> >::_Grow
; Function compile flags: /Ogtpy
; File c:\program files\microsoft visual studio 9.0\vc\include\stdexcept
_TEXT	ENDS
;	COMDAT ??1runtime_error@std@@UAE@XZ
_TEXT	SEGMENT
??1runtime_error@std@@UAE@XZ PROC			; std::runtime_error::~runtime_error, COMDAT
; _this$ = ecx

; 157  : 		{	// destroy the object

  00000	56		 push	 esi
  00001	8b f1		 mov	 esi, ecx
  00003	c7 06 00 00 00
	00		 mov	 DWORD PTR [esi], OFFSET ??_7runtime_error@std@@6B@

; 158  : 		}

  00009	83 7e 24 10	 cmp	 DWORD PTR [esi+36], 16	; 00000010H
  0000d	72 0c		 jb	 SHORT $LN19@runtime_er
  0000f	8b 46 10	 mov	 eax, DWORD PTR [esi+16]
  00012	50		 push	 eax
  00013	e8 00 00 00 00	 call	 ??3@YAXPAX@Z		; operator delete
  00018	83 c4 04	 add	 esp, 4
$LN19@runtime_er:
  0001b	33 c0		 xor	 eax, eax
  0001d	c7 46 24 0f 00
	00 00		 mov	 DWORD PTR [esi+36], 15	; 0000000fH
  00024	89 46 20	 mov	 DWORD PTR [esi+32], eax
  00027	88 46 10	 mov	 BYTE PTR [esi+16], al
  0002a	8b ce		 mov	 ecx, esi
  0002c	5e		 pop	 esi
  0002d	e9 00 00 00 00	 jmp	 ??1exception@std@@UAE@XZ ; std::exception::~exception
??1runtime_error@std@@UAE@XZ ENDP			; std::runtime_error::~runtime_error
; Function compile flags: /Ogtpy
; File c:\program files\microsoft visual studio 9.0\vc\include\xiosbase
_TEXT	ENDS
;	COMDAT ??1failure@ios_base@std@@UAE@XZ
_TEXT	SEGMENT
??1failure@ios_base@std@@UAE@XZ PROC			; std::ios_base::failure::~failure, COMDAT
; _this$ = ecx

; 224  : 			{	// destroy the object

  00000	56		 push	 esi
  00001	8b f1		 mov	 esi, ecx

; 225  : 			}

  00003	c7 06 00 00 00
	00		 mov	 DWORD PTR [esi], OFFSET ??_7runtime_error@std@@6B@
  00009	83 7e 24 10	 cmp	 DWORD PTR [esi+36], 16	; 00000010H
  0000d	72 0c		 jb	 SHORT $LN21@failure
  0000f	8b 46 10	 mov	 eax, DWORD PTR [esi+16]
  00012	50		 push	 eax
  00013	e8 00 00 00 00	 call	 ??3@YAXPAX@Z		; operator delete
  00018	83 c4 04	 add	 esp, 4
$LN21@failure:
  0001b	33 c0		 xor	 eax, eax
  0001d	c7 46 24 0f 00
	00 00		 mov	 DWORD PTR [esi+36], 15	; 0000000fH
  00024	89 46 20	 mov	 DWORD PTR [esi+32], eax
  00027	88 46 10	 mov	 BYTE PTR [esi+16], al
  0002a	8b ce		 mov	 ecx, esi
  0002c	5e		 pop	 esi
  0002d	e9 00 00 00 00	 jmp	 ??1exception@std@@UAE@XZ ; std::exception::~exception
??1failure@ios_base@std@@UAE@XZ ENDP			; std::ios_base::failure::~failure
; Function compile flags: /Ogtpy
; File c:\program files\microsoft visual studio 9.0\vc\include\xstring
_TEXT	ENDS
;	COMDAT ?append@?$basic_string@DU?$char_traits@D@std@@V?$allocator@D@2@@std@@QAEAAV12@ID@Z
_TEXT	SEGMENT
__Count$ = 8						; size = 4
__Ch$ = 12						; size = 1
?append@?$basic_string@DU?$char_traits@D@std@@V?$allocator@D@2@@std@@QAEAAV12@ID@Z PROC ; std::basic_string<char,std::char_traits<char>,std::allocator<char> >::append, COMDAT
; _this$ = ecx

; 998  : 		{	// append _Count * _Ch

  00000	53		 push	 ebx

; 999  : 			if (npos - _Mysize <= _Count)

  00001	8b 5c 24 08	 mov	 ebx, DWORD PTR __Count$[esp]
  00005	56		 push	 esi
  00006	83 c8 ff	 or	 eax, -1
  00009	8b f1		 mov	 esi, ecx
  0000b	2b 46 14	 sub	 eax, DWORD PTR [esi+20]
  0000e	3b c3		 cmp	 eax, ebx
  00010	77 05		 ja	 SHORT $LN2@append

; 1000 : 			_String_base::_Xlen();	// result too long

  00012	e8 00 00 00 00	 call	 ?_Xlen@_String_base@std@@SAXXZ ; std::_String_base::_Xlen
$LN2@append:

; 1001 : 
; 1002 : 		size_type _Num;
; 1003 : 		if (0 < _Count && _Grow(_Num = _Mysize + _Count))

  00017	85 db		 test	 ebx, ebx
  00019	0f 86 80 00 00
	00		 jbe	 $LN63@append
  0001f	57		 push	 edi
  00020	8b 7e 14	 mov	 edi, DWORD PTR [esi+20]
  00023	03 fb		 add	 edi, ebx
  00025	83 ff fe	 cmp	 edi, -2			; fffffffeH
  00028	76 05		 jbe	 SHORT $LN10@append
  0002a	e8 00 00 00 00	 call	 ?_Xlen@_String_base@std@@SAXXZ ; std::_String_base::_Xlen
$LN10@append:
  0002f	8b 46 18	 mov	 eax, DWORD PTR [esi+24]
  00032	3b c7		 cmp	 eax, edi
  00034	73 39		 jae	 SHORT $LN9@append
  00036	8b 4e 14	 mov	 ecx, DWORD PTR [esi+20]
  00039	51		 push	 ecx
  0003a	57		 push	 edi
  0003b	8b ce		 mov	 ecx, esi
  0003d	e8 00 00 00 00	 call	 ?_Copy@?$basic_string@DU?$char_traits@D@std@@V?$allocator@D@2@@std@@IAEXII@Z ; std::basic_string<char,std::char_traits<char>,std::allocator<char> >::_Copy
  00042	85 ff		 test	 edi, edi
$LN66@append:
  00044	76 58		 jbe	 SHORT $LN64@append

; 1004 : 			{	// make room and append new stuff using assign
; 1005 : 			_Chassign(_Mysize, _Count, _Ch);

  00046	8b 54 24 14	 mov	 edx, DWORD PTR __Ch$[esp+8]
  0004a	8b 46 14	 mov	 eax, DWORD PTR [esi+20]
  0004d	52		 push	 edx
  0004e	53		 push	 ebx
  0004f	50		 push	 eax
  00050	8b ce		 mov	 ecx, esi
  00052	e8 00 00 00 00	 call	 ?_Chassign@?$basic_string@DU?$char_traits@D@std@@V?$allocator@D@2@@std@@IAEXIID@Z ; std::basic_string<char,std::char_traits<char>,std::allocator<char> >::_Chassign

; 1006 : 			_Eos(_Num);

  00057	83 7e 18 10	 cmp	 DWORD PTR [esi+24], 16	; 00000010H
  0005b	89 7e 14	 mov	 DWORD PTR [esi+20], edi
  0005e	72 37		 jb	 SHORT $LN59@append
  00060	8b 46 04	 mov	 eax, DWORD PTR [esi+4]
  00063	c6 04 38 00	 mov	 BYTE PTR [eax+edi], 0
  00067	5f		 pop	 edi

; 1007 : 			}
; 1008 : 		return (*this);

  00068	8b c6		 mov	 eax, esi
  0006a	5e		 pop	 esi
  0006b	5b		 pop	 ebx

; 1009 : 		}

  0006c	c2 08 00	 ret	 8

; 1001 : 
; 1002 : 		size_type _Num;
; 1003 : 		if (0 < _Count && _Grow(_Num = _Mysize + _Count))

$LN9@append:
  0006f	85 ff		 test	 edi, edi
  00071	75 d1		 jne	 SHORT $LN66@append
  00073	89 7e 14	 mov	 DWORD PTR [esi+20], edi
  00076	83 f8 10	 cmp	 eax, 16			; 00000010H
  00079	72 0e		 jb	 SHORT $LN51@append
  0007b	8b 46 04	 mov	 eax, DWORD PTR [esi+4]
  0007e	5f		 pop	 edi
  0007f	c6 00 00	 mov	 BYTE PTR [eax], 0

; 1007 : 			}
; 1008 : 		return (*this);

  00082	8b c6		 mov	 eax, esi
  00084	5e		 pop	 esi
  00085	5b		 pop	 ebx

; 1009 : 		}

  00086	c2 08 00	 ret	 8

; 1001 : 
; 1002 : 		size_type _Num;
; 1003 : 		if (0 < _Count && _Grow(_Num = _Mysize + _Count))

$LN51@append:
  00089	8d 46 04	 lea	 eax, DWORD PTR [esi+4]
  0008c	5f		 pop	 edi
  0008d	c6 00 00	 mov	 BYTE PTR [eax], 0

; 1007 : 			}
; 1008 : 		return (*this);

  00090	8b c6		 mov	 eax, esi
  00092	5e		 pop	 esi
  00093	5b		 pop	 ebx

; 1009 : 		}

  00094	c2 08 00	 ret	 8

; 1006 : 			_Eos(_Num);

$LN59@append:
  00097	8d 46 04	 lea	 eax, DWORD PTR [esi+4]
  0009a	c6 04 38 00	 mov	 BYTE PTR [eax+edi], 0
$LN64@append:
  0009e	5f		 pop	 edi
$LN63@append:

; 1007 : 			}
; 1008 : 		return (*this);

  0009f	8b c6		 mov	 eax, esi
  000a1	5e		 pop	 esi
  000a2	5b		 pop	 ebx

; 1009 : 		}

  000a3	c2 08 00	 ret	 8
?append@?$basic_string@DU?$char_traits@D@std@@V?$allocator@D@2@@std@@QAEAAV12@ID@Z ENDP ; std::basic_string<char,std::char_traits<char>,std::allocator<char> >::append
_TEXT	ENDS
;	COMDAT xdata$x
; File c:\program files\microsoft visual studio 9.0\vc\include\iosfwd
xdata$x	SEGMENT
__unwindtable$??0_Locinfo@std@@QAE@ABV?$basic_string@DU?$char_traits@D@std@@V?$allocator@D@2@@1@@Z DD 0ffffffffH
	DD	FLAT:__unwindfunclet$??0_Locinfo@std@@QAE@ABV?$basic_string@DU?$char_traits@D@std@@V?$allocator@D@2@@1@@Z$0
	DD	00H
	DD	FLAT:__unwindfunclet$??0_Locinfo@std@@QAE@ABV?$basic_string@DU?$char_traits@D@std@@V?$allocator@D@2@@1@@Z$1
	DD	01H
	DD	FLAT:__unwindfunclet$??0_Locinfo@std@@QAE@ABV?$basic_string@DU?$char_traits@D@std@@V?$allocator@D@2@@1@@Z$2
	DD	02H
	DD	FLAT:__unwindfunclet$??0_Locinfo@std@@QAE@ABV?$basic_string@DU?$char_traits@D@std@@V?$allocator@D@2@@1@@Z$3
	DD	03H
	DD	FLAT:__unwindfunclet$??0_Locinfo@std@@QAE@ABV?$basic_string@DU?$char_traits@D@std@@V?$allocator@D@2@@1@@Z$4
__ehfuncinfo$??0_Locinfo@std@@QAE@ABV?$basic_string@DU?$char_traits@D@std@@V?$allocator@D@2@@1@@Z DD 019930522H
	DD	05H
	DD	FLAT:__unwindtable$??0_Locinfo@std@@QAE@ABV?$basic_string@DU?$char_traits@D@std@@V?$allocator@D@2@@1@@Z
	DD	2 DUP(00H)
	DD	2 DUP(00H)
	DD	00H
	DD	01H
; Function compile flags: /Ogtpy
; File c:\program files\microsoft visual studio 9.0\vc\include\xlocinfo
xdata$x	ENDS
;	COMDAT ??0_Locinfo@std@@QAE@ABV?$basic_string@DU?$char_traits@D@std@@V?$allocator@D@2@@1@@Z
_TEXT	SEGMENT
_this$ = -16						; size = 4
__$EHRec$ = -12						; size = 12
_locstr$ = 8						; size = 4
??0_Locinfo@std@@QAE@ABV?$basic_string@DU?$char_traits@D@std@@V?$allocator@D@2@@1@@Z PROC ; std::_Locinfo::_Locinfo, COMDAT
; _this$ = ecx

; 96   : 		{

  00000	6a ff		 push	 -1
  00002	68 00 00 00 00	 push	 __ehhandler$??0_Locinfo@std@@QAE@ABV?$basic_string@DU?$char_traits@D@std@@V?$allocator@D@2@@1@@Z
  00007	64 a1 00 00 00
	00		 mov	 eax, DWORD PTR fs:0
  0000d	50		 push	 eax
  0000e	51		 push	 ecx
  0000f	53		 push	 ebx
  00010	56		 push	 esi
  00011	a1 00 00 00 00	 mov	 eax, DWORD PTR ___security_cookie
  00016	33 c4		 xor	 eax, esp
  00018	50		 push	 eax
  00019	8d 44 24 10	 lea	 eax, DWORD PTR __$EHRec$[esp+28]
  0001d	64 a3 00 00 00
	00		 mov	 DWORD PTR fs:0, eax
  00023	8b f1		 mov	 esi, ecx
  00025	89 74 24 0c	 mov	 DWORD PTR _this$[esp+28], esi
  00029	33 db		 xor	 ebx, ebx
  0002b	53		 push	 ebx
  0002c	e8 00 00 00 00	 call	 ??0_Lockit@std@@QAE@H@Z	; std::_Lockit::_Lockit
  00031	89 5c 24 18	 mov	 DWORD PTR __$EHRec$[esp+36], ebx
  00035	b8 0f 00 00 00	 mov	 eax, 15			; 0000000fH
  0003a	89 46 1c	 mov	 DWORD PTR [esi+28], eax
  0003d	89 5e 18	 mov	 DWORD PTR [esi+24], ebx
  00040	88 5e 08	 mov	 BYTE PTR [esi+8], bl
  00043	89 46 38	 mov	 DWORD PTR [esi+56], eax
  00046	89 5e 34	 mov	 DWORD PTR [esi+52], ebx
  00049	88 5e 24	 mov	 BYTE PTR [esi+36], bl
  0004c	89 46 54	 mov	 DWORD PTR [esi+84], eax
  0004f	89 5e 50	 mov	 DWORD PTR [esi+80], ebx
  00052	88 5e 40	 mov	 BYTE PTR [esi+64], bl
  00055	89 46 70	 mov	 DWORD PTR [esi+112], eax
  00058	89 5e 6c	 mov	 DWORD PTR [esi+108], ebx
  0005b	88 5e 5c	 mov	 BYTE PTR [esi+92], bl

; 97   :         _Locinfo_ctor(this, locstr);

  0005e	8b 44 24 20	 mov	 eax, DWORD PTR _locstr$[esp+24]
  00062	50		 push	 eax
  00063	56		 push	 esi
  00064	c6 44 24 20 04	 mov	 BYTE PTR __$EHRec$[esp+44], 4
  00069	e8 00 00 00 00	 call	 ?_Locinfo_ctor@_Locinfo@std@@SAXPAV12@ABV?$basic_string@DU?$char_traits@D@std@@V?$allocator@D@2@@2@@Z ; std::_Locinfo::_Locinfo_ctor
  0006e	83 c4 08	 add	 esp, 8

; 98   : 		}

  00071	8b c6		 mov	 eax, esi
  00073	8b 4c 24 10	 mov	 ecx, DWORD PTR __$EHRec$[esp+28]
  00077	64 89 0d 00 00
	00 00		 mov	 DWORD PTR fs:0, ecx
  0007e	59		 pop	 ecx
  0007f	5e		 pop	 esi
  00080	5b		 pop	 ebx
  00081	83 c4 10	 add	 esp, 16			; 00000010H
  00084	c2 04 00	 ret	 4
_TEXT	ENDS
;	COMDAT text$x
text$x	SEGMENT
__unwindfunclet$??0_Locinfo@std@@QAE@ABV?$basic_string@DU?$char_traits@D@std@@V?$allocator@D@2@@1@@Z$0:
  00000	8b 4d f0	 mov	 ecx, DWORD PTR _this$[ebp]
  00003	e9 00 00 00 00	 jmp	 ??1_Lockit@std@@QAE@XZ	; std::_Lockit::~_Lockit
__unwindfunclet$??0_Locinfo@std@@QAE@ABV?$basic_string@DU?$char_traits@D@std@@V?$allocator@D@2@@1@@Z$1:
  00008	8b 4d f0	 mov	 ecx, DWORD PTR _this$[ebp]
  0000b	83 c1 04	 add	 ecx, 4
  0000e	e9 00 00 00 00	 jmp	 ??1?$basic_string@DU?$char_traits@D@std@@V?$allocator@D@2@@std@@QAE@XZ ; std::basic_string<char,std::char_traits<char>,std::allocator<char> >::~basic_string<char,std::char_traits<char>,std::allocator<char> >
__unwindfunclet$??0_Locinfo@std@@QAE@ABV?$basic_string@DU?$char_traits@D@std@@V?$allocator@D@2@@1@@Z$2:
  00013	8b 4d f0	 mov	 ecx, DWORD PTR _this$[ebp]
  00016	83 c1 20	 add	 ecx, 32			; 00000020H
  00019	e9 00 00 00 00	 jmp	 ??1?$basic_string@DU?$char_traits@D@std@@V?$allocator@D@2@@std@@QAE@XZ ; std::basic_string<char,std::char_traits<char>,std::allocator<char> >::~basic_string<char,std::char_traits<char>,std::allocator<char> >
__unwindfunclet$??0_Locinfo@std@@QAE@ABV?$basic_string@DU?$char_traits@D@std@@V?$allocator@D@2@@1@@Z$3:
  0001e	8b 4d f0	 mov	 ecx, DWORD PTR _this$[ebp]
  00021	83 c1 3c	 add	 ecx, 60			; 0000003cH
  00024	e9 00 00 00 00	 jmp	 ??1?$basic_string@DU?$char_traits@D@std@@V?$allocator@D@2@@std@@QAE@XZ ; std::basic_string<char,std::char_traits<char>,std::allocator<char> >::~basic_string<char,std::char_traits<char>,std::allocator<char> >
__unwindfunclet$??0_Locinfo@std@@QAE@ABV?$basic_string@DU?$char_traits@D@std@@V?$allocator@D@2@@1@@Z$4:
  00029	8b 4d f0	 mov	 ecx, DWORD PTR _this$[ebp]
  0002c	83 c1 58	 add	 ecx, 88			; 00000058H
  0002f	e9 00 00 00 00	 jmp	 ??1?$basic_string@DU?$char_traits@D@std@@V?$allocator@D@2@@std@@QAE@XZ ; std::basic_string<char,std::char_traits<char>,std::allocator<char> >::~basic_string<char,std::char_traits<char>,std::allocator<char> >
__ehhandler$??0_Locinfo@std@@QAE@ABV?$basic_string@DU?$char_traits@D@std@@V?$allocator@D@2@@1@@Z:
  00034	8b 54 24 08	 mov	 edx, DWORD PTR [esp+8]
  00038	8d 42 f4	 lea	 eax, DWORD PTR [edx-12]
  0003b	8b 4a f0	 mov	 ecx, DWORD PTR [edx-16]
  0003e	33 c8		 xor	 ecx, eax
  00040	e8 00 00 00 00	 call	 @__security_check_cookie@4
  00045	b8 00 00 00 00	 mov	 eax, OFFSET __ehfuncinfo$??0_Locinfo@std@@QAE@ABV?$basic_string@DU?$char_traits@D@std@@V?$allocator@D@2@@1@@Z
  0004a	e9 00 00 00 00	 jmp	 ___CxxFrameHandler3
text$x	ENDS
??0_Locinfo@std@@QAE@ABV?$basic_string@DU?$char_traits@D@std@@V?$allocator@D@2@@1@@Z ENDP ; std::_Locinfo::_Locinfo
;	COMDAT xdata$x
; File c:\program files\microsoft visual studio 9.0\vc\include\iosfwd
xdata$x	SEGMENT
__unwindtable$??1_Locinfo@std@@QAE@XZ DD 0ffffffffH
	DD	FLAT:__unwindfunclet$??1_Locinfo@std@@QAE@XZ$0
	DD	00H
	DD	FLAT:__unwindfunclet$??1_Locinfo@std@@QAE@XZ$1
	DD	01H
	DD	FLAT:__unwindfunclet$??1_Locinfo@std@@QAE@XZ$2
	DD	02H
	DD	FLAT:__unwindfunclet$??1_Locinfo@std@@QAE@XZ$3
	DD	03H
	DD	FLAT:__unwindfunclet$??1_Locinfo@std@@QAE@XZ$4
__ehfuncinfo$??1_Locinfo@std@@QAE@XZ DD 019930522H
	DD	05H
	DD	FLAT:__unwindtable$??1_Locinfo@std@@QAE@XZ
	DD	2 DUP(00H)
	DD	2 DUP(00H)
	DD	00H
	DD	01H
; Function compile flags: /Ogtpy
; File c:\program files\microsoft visual studio 9.0\vc\include\xlocinfo
xdata$x	ENDS
;	COMDAT ??1_Locinfo@std@@QAE@XZ
_TEXT	SEGMENT
_this$ = -16						; size = 4
__$EHRec$ = -12						; size = 12
??1_Locinfo@std@@QAE@XZ PROC				; std::_Locinfo::~_Locinfo, COMDAT
; _this$ = ecx

; 101  :         {

  00000	6a ff		 push	 -1
  00002	68 00 00 00 00	 push	 __ehhandler$??1_Locinfo@std@@QAE@XZ
  00007	64 a1 00 00 00
	00		 mov	 eax, DWORD PTR fs:0
  0000d	50		 push	 eax
  0000e	51		 push	 ecx
  0000f	53		 push	 ebx
  00010	55		 push	 ebp
  00011	56		 push	 esi
  00012	57		 push	 edi
  00013	a1 00 00 00 00	 mov	 eax, DWORD PTR ___security_cookie
  00018	33 c4		 xor	 eax, esp
  0001a	50		 push	 eax
  0001b	8d 44 24 18	 lea	 eax, DWORD PTR __$EHRec$[esp+36]
  0001f	64 a3 00 00 00
	00		 mov	 DWORD PTR fs:0, eax
  00025	8b f1		 mov	 esi, ecx
  00027	89 74 24 14	 mov	 DWORD PTR _this$[esp+36], esi

; 102  :         _Locinfo_dtor(this);

  0002b	56		 push	 esi
  0002c	c7 44 24 24 04
	00 00 00	 mov	 DWORD PTR __$EHRec$[esp+48], 4
  00034	e8 00 00 00 00	 call	 ?_Locinfo_dtor@_Locinfo@std@@SAXPAV12@@Z ; std::_Locinfo::_Locinfo_dtor

; 103  :         }

  00039	bd 10 00 00 00	 mov	 ebp, 16			; 00000010H
  0003e	83 c4 04	 add	 esp, 4
  00041	39 6e 70	 cmp	 DWORD PTR [esi+112], ebp
  00044	72 0c		 jb	 SHORT $LN24@Locinfo
  00046	8b 46 5c	 mov	 eax, DWORD PTR [esi+92]
  00049	50		 push	 eax
  0004a	e8 00 00 00 00	 call	 ??3@YAXPAX@Z		; operator delete
  0004f	83 c4 04	 add	 esp, 4
$LN24@Locinfo:
  00052	33 db		 xor	 ebx, ebx
  00054	bf 0f 00 00 00	 mov	 edi, 15			; 0000000fH
  00059	89 7e 70	 mov	 DWORD PTR [esi+112], edi
  0005c	89 5e 6c	 mov	 DWORD PTR [esi+108], ebx
  0005f	88 5e 5c	 mov	 BYTE PTR [esi+92], bl
  00062	39 6e 54	 cmp	 DWORD PTR [esi+84], ebp
  00065	72 0c		 jb	 SHORT $LN50@Locinfo
  00067	8b 46 40	 mov	 eax, DWORD PTR [esi+64]
  0006a	50		 push	 eax
  0006b	e8 00 00 00 00	 call	 ??3@YAXPAX@Z		; operator delete
  00070	83 c4 04	 add	 esp, 4
$LN50@Locinfo:
  00073	89 7e 54	 mov	 DWORD PTR [esi+84], edi
  00076	89 5e 50	 mov	 DWORD PTR [esi+80], ebx
  00079	88 5e 40	 mov	 BYTE PTR [esi+64], bl
  0007c	39 6e 38	 cmp	 DWORD PTR [esi+56], ebp
  0007f	72 0c		 jb	 SHORT $LN76@Locinfo
  00081	8b 46 24	 mov	 eax, DWORD PTR [esi+36]
  00084	50		 push	 eax
  00085	e8 00 00 00 00	 call	 ??3@YAXPAX@Z		; operator delete
  0008a	83 c4 04	 add	 esp, 4
$LN76@Locinfo:
  0008d	89 7e 38	 mov	 DWORD PTR [esi+56], edi
  00090	89 5e 34	 mov	 DWORD PTR [esi+52], ebx
  00093	88 5e 24	 mov	 BYTE PTR [esi+36], bl
  00096	39 6e 1c	 cmp	 DWORD PTR [esi+28], ebp
  00099	72 0c		 jb	 SHORT $LN102@Locinfo
  0009b	8b 46 08	 mov	 eax, DWORD PTR [esi+8]
  0009e	50		 push	 eax
  0009f	e8 00 00 00 00	 call	 ??3@YAXPAX@Z		; operator delete
  000a4	83 c4 04	 add	 esp, 4
$LN102@Locinfo:
  000a7	89 7e 1c	 mov	 DWORD PTR [esi+28], edi
  000aa	89 5e 18	 mov	 DWORD PTR [esi+24], ebx
  000ad	8b ce		 mov	 ecx, esi
  000af	88 5e 08	 mov	 BYTE PTR [esi+8], bl
  000b2	c7 44 24 20 ff
	ff ff ff	 mov	 DWORD PTR __$EHRec$[esp+44], -1
  000ba	e8 00 00 00 00	 call	 ??1_Lockit@std@@QAE@XZ	; std::_Lockit::~_Lockit
  000bf	8b 4c 24 18	 mov	 ecx, DWORD PTR __$EHRec$[esp+36]
  000c3	64 89 0d 00 00
	00 00		 mov	 DWORD PTR fs:0, ecx
  000ca	59		 pop	 ecx
  000cb	5f		 pop	 edi
  000cc	5e		 pop	 esi
  000cd	5d		 pop	 ebp
  000ce	5b		 pop	 ebx
  000cf	83 c4 10	 add	 esp, 16			; 00000010H
  000d2	c3		 ret	 0
_TEXT	ENDS
;	COMDAT text$x
text$x	SEGMENT
__unwindfunclet$??1_Locinfo@std@@QAE@XZ$0:
  00000	8b 4d f0	 mov	 ecx, DWORD PTR _this$[ebp]
  00003	e9 00 00 00 00	 jmp	 ??1_Lockit@std@@QAE@XZ	; std::_Lockit::~_Lockit
__unwindfunclet$??1_Locinfo@std@@QAE@XZ$1:
  00008	8b 4d f0	 mov	 ecx, DWORD PTR _this$[ebp]
  0000b	83 c1 04	 add	 ecx, 4
  0000e	e9 00 00 00 00	 jmp	 ??1?$basic_string@DU?$char_traits@D@std@@V?$allocator@D@2@@std@@QAE@XZ ; std::basic_string<char,std::char_traits<char>,std::allocator<char> >::~basic_string<char,std::char_traits<char>,std::allocator<char> >
__unwindfunclet$??1_Locinfo@std@@QAE@XZ$2:
  00013	8b 4d f0	 mov	 ecx, DWORD PTR _this$[ebp]
  00016	83 c1 20	 add	 ecx, 32			; 00000020H
  00019	e9 00 00 00 00	 jmp	 ??1?$basic_string@DU?$char_traits@D@std@@V?$allocator@D@2@@std@@QAE@XZ ; std::basic_string<char,std::char_traits<char>,std::allocator<char> >::~basic_string<char,std::char_traits<char>,std::allocator<char> >
__unwindfunclet$??1_Locinfo@std@@QAE@XZ$3:
  0001e	8b 4d f0	 mov	 ecx, DWORD PTR _this$[ebp]
  00021	83 c1 3c	 add	 ecx, 60			; 0000003cH
  00024	e9 00 00 00 00	 jmp	 ??1?$basic_string@DU?$char_traits@D@std@@V?$allocator@D@2@@std@@QAE@XZ ; std::basic_string<char,std::char_traits<char>,std::allocator<char> >::~basic_string<char,std::char_traits<char>,std::allocator<char> >
__unwindfunclet$??1_Locinfo@std@@QAE@XZ$4:
  00029	8b 4d f0	 mov	 ecx, DWORD PTR _this$[ebp]
  0002c	83 c1 58	 add	 ecx, 88			; 00000058H
  0002f	e9 00 00 00 00	 jmp	 ??1?$basic_string@DU?$char_traits@D@std@@V?$allocator@D@2@@std@@QAE@XZ ; std::basic_string<char,std::char_traits<char>,std::allocator<char> >::~basic_string<char,std::char_traits<char>,std::allocator<char> >
__ehhandler$??1_Locinfo@std@@QAE@XZ:
  00034	8b 54 24 08	 mov	 edx, DWORD PTR [esp+8]
  00038	8d 42 ec	 lea	 eax, DWORD PTR [edx-20]
  0003b	8b 4a e8	 mov	 ecx, DWORD PTR [edx-24]
  0003e	33 c8		 xor	 ecx, eax
  00040	e8 00 00 00 00	 call	 @__security_check_cookie@4
  00045	b8 00 00 00 00	 mov	 eax, OFFSET __ehfuncinfo$??1_Locinfo@std@@QAE@XZ
  0004a	e9 00 00 00 00	 jmp	 ___CxxFrameHandler3
text$x	ENDS
??1_Locinfo@std@@QAE@XZ ENDP				; std::_Locinfo::~_Locinfo
; Function compile flags: /Ogtpy
; File c:\program files\microsoft visual studio 9.0\vc\include\xstring
;	COMDAT ?append@?$basic_string@DU?$char_traits@D@std@@V?$allocator@D@2@@std@@QAEAAV12@ABV12@II@Z
_TEXT	SEGMENT
__Right$ = 8						; size = 4
__Roff$ = 12						; size = 4
__Count$ = 16						; size = 4
?append@?$basic_string@DU?$char_traits@D@std@@V?$allocator@D@2@@std@@QAEAAV12@ABV12@II@Z PROC ; std::basic_string<char,std::char_traits<char>,std::allocator<char> >::append, COMDAT
; _this$ = esi

; 951  : 		{	// append _Right [_Roff, _Roff + _Count)

  00000	53		 push	 ebx
  00001	8b 5c 24 10	 mov	 ebx, DWORD PTR __Count$[esp]
  00005	55		 push	 ebp
  00006	8b 6c 24 0c	 mov	 ebp, DWORD PTR __Right$[esp+4]
  0000a	57		 push	 edi

; 952  : 		if (_Right.size() < _Roff)

  0000b	8b 7c 24 14	 mov	 edi, DWORD PTR __Roff$[esp+8]
  0000f	39 7d 14	 cmp	 DWORD PTR [ebp+20], edi
  00012	73 05		 jae	 SHORT $LN5@append@2

; 953  : 			_String_base::_Xran();	// _Roff off end

  00014	e8 00 00 00 00	 call	 ?_Xran@_String_base@std@@SAXXZ ; std::_String_base::_Xran
$LN5@append@2:

; 954  : 		size_type _Num = _Right.size() - _Roff;

  00019	8b 45 14	 mov	 eax, DWORD PTR [ebp+20]
  0001c	2b c7		 sub	 eax, edi

; 955  : 		if (_Num < _Count)

  0001e	3b c3		 cmp	 eax, ebx

; 956  : 			_Count = _Num;	// trim _Count to size

  00020	0f 42 d8	 cmovb	 ebx, eax

; 957  : 		if (npos - _Mysize <= _Count || _Mysize + _Count < _Mysize)

  00023	8b 46 14	 mov	 eax, DWORD PTR [esi+20]
  00026	83 c9 ff	 or	 ecx, -1
  00029	2b c8		 sub	 ecx, eax
  0002b	3b cb		 cmp	 ecx, ebx
  0002d	76 07		 jbe	 SHORT $LN2@append@2
  0002f	8d 14 18	 lea	 edx, DWORD PTR [eax+ebx]
  00032	3b d0		 cmp	 edx, eax
  00034	73 05		 jae	 SHORT $LN3@append@2
$LN2@append@2:

; 958  : 			_String_base::_Xlen();	// result too long

  00036	e8 00 00 00 00	 call	 ?_Xlen@_String_base@std@@SAXXZ ; std::_String_base::_Xlen
$LN3@append@2:

; 959  : 
; 960  : 		if (0 < _Count && _Grow(_Num = _Mysize + _Count))

  0003b	85 db		 test	 ebx, ebx
  0003d	0f 86 a4 00 00
	00		 jbe	 $LN87@append@2
  00043	8b 7e 14	 mov	 edi, DWORD PTR [esi+20]
  00046	03 fb		 add	 edi, ebx
  00048	83 ff fe	 cmp	 edi, -2			; fffffffeH
  0004b	76 05		 jbe	 SHORT $LN17@append@2
  0004d	e8 00 00 00 00	 call	 ?_Xlen@_String_base@std@@SAXXZ ; std::_String_base::_Xlen
$LN17@append@2:
  00052	8b 46 18	 mov	 eax, DWORD PTR [esi+24]
  00055	3b c7		 cmp	 eax, edi
  00057	73 1b		 jae	 SHORT $LN16@append@2
  00059	8b 46 14	 mov	 eax, DWORD PTR [esi+20]
  0005c	50		 push	 eax
  0005d	57		 push	 edi
  0005e	8b ce		 mov	 ecx, esi
  00060	e8 00 00 00 00	 call	 ?_Copy@?$basic_string@DU?$char_traits@D@std@@V?$allocator@D@2@@std@@IAEXII@Z ; std::basic_string<char,std::char_traits<char>,std::allocator<char> >::_Copy
  00065	85 ff		 test	 edi, edi
$LN88@append@2:
  00067	76 7e		 jbe	 SHORT $LN87@append@2

; 961  : 			{	// make room and append new stuff
; 962  : 			_Traits_helper::copy_s<_Traits>(_Myptr() + _Mysize, _Myres - _Mysize,
; 963  : 				_Right._Myptr() + _Roff, _Count);

  00069	83 7d 18 10	 cmp	 DWORD PTR [ebp+24], 16	; 00000010H
  0006d	72 2d		 jb	 SHORT $LN64@append@2
  0006f	8b 6d 04	 mov	 ebp, DWORD PTR [ebp+4]
  00072	eb 2b		 jmp	 SHORT $LN65@append@2

; 959  : 
; 960  : 		if (0 < _Count && _Grow(_Num = _Mysize + _Count))

$LN16@append@2:
  00074	85 ff		 test	 edi, edi
  00076	75 ef		 jne	 SHORT $LN88@append@2
  00078	89 7e 14	 mov	 DWORD PTR [esi+20], edi
  0007b	83 f8 10	 cmp	 eax, 16			; 00000010H
  0007e	72 0e		 jb	 SHORT $LN58@append@2
  00080	8b 46 04	 mov	 eax, DWORD PTR [esi+4]
  00083	5f		 pop	 edi
  00084	5d		 pop	 ebp
  00085	c6 00 00	 mov	 BYTE PTR [eax], 0

; 965  : 			}
; 966  : 		return (*this);

  00088	8b c6		 mov	 eax, esi
  0008a	5b		 pop	 ebx

; 967  : 		}

  0008b	c2 0c 00	 ret	 12			; 0000000cH

; 959  : 
; 960  : 		if (0 < _Count && _Grow(_Num = _Mysize + _Count))

$LN58@append@2:
  0008e	5f		 pop	 edi
  0008f	8d 46 04	 lea	 eax, DWORD PTR [esi+4]
  00092	5d		 pop	 ebp
  00093	c6 00 00	 mov	 BYTE PTR [eax], 0

; 965  : 			}
; 966  : 		return (*this);

  00096	8b c6		 mov	 eax, esi
  00098	5b		 pop	 ebx

; 967  : 		}

  00099	c2 0c 00	 ret	 12			; 0000000cH

; 961  : 			{	// make room and append new stuff
; 962  : 			_Traits_helper::copy_s<_Traits>(_Myptr() + _Mysize, _Myres - _Mysize,
; 963  : 				_Right._Myptr() + _Roff, _Count);

$LN64@append@2:
  0009c	83 c5 04	 add	 ebp, 4
$LN65@append@2:
  0009f	8b 46 18	 mov	 eax, DWORD PTR [esi+24]
  000a2	83 f8 10	 cmp	 eax, 16			; 00000010H
  000a5	72 05		 jb	 SHORT $LN68@append@2
  000a7	8b 56 04	 mov	 edx, DWORD PTR [esi+4]
  000aa	eb 03		 jmp	 SHORT $LN69@append@2
$LN68@append@2:
  000ac	8d 56 04	 lea	 edx, DWORD PTR [esi+4]
$LN69@append@2:
  000af	8b 4e 14	 mov	 ecx, DWORD PTR [esi+20]
  000b2	53		 push	 ebx
  000b3	8b 5c 24 18	 mov	 ebx, DWORD PTR __Roff$[esp+12]
  000b7	03 eb		 add	 ebp, ebx
  000b9	2b c1		 sub	 eax, ecx
  000bb	55		 push	 ebp
  000bc	50		 push	 eax
  000bd	03 ca		 add	 ecx, edx
  000bf	51		 push	 ecx
  000c0	e8 00 00 00 00	 call	 _memcpy_s
  000c5	83 c4 10	 add	 esp, 16			; 00000010H

; 964  : 			_Eos(_Num);

  000c8	83 7e 18 10	 cmp	 DWORD PTR [esi+24], 16	; 00000010H
  000cc	89 7e 14	 mov	 DWORD PTR [esi+20], edi
  000cf	72 0f		 jb	 SHORT $LN82@append@2
  000d1	8b 46 04	 mov	 eax, DWORD PTR [esi+4]
  000d4	c6 04 38 00	 mov	 BYTE PTR [eax+edi], 0
  000d8	5f		 pop	 edi
  000d9	5d		 pop	 ebp

; 965  : 			}
; 966  : 		return (*this);

  000da	8b c6		 mov	 eax, esi
  000dc	5b		 pop	 ebx

; 967  : 		}

  000dd	c2 0c 00	 ret	 12			; 0000000cH

; 964  : 			_Eos(_Num);

$LN82@append@2:
  000e0	8d 46 04	 lea	 eax, DWORD PTR [esi+4]
  000e3	c6 04 38 00	 mov	 BYTE PTR [eax+edi], 0
$LN87@append@2:
  000e7	5f		 pop	 edi
  000e8	5d		 pop	 ebp

; 965  : 			}
; 966  : 		return (*this);

  000e9	8b c6		 mov	 eax, esi
  000eb	5b		 pop	 ebx

; 967  : 		}

  000ec	c2 0c 00	 ret	 12			; 0000000cH
?append@?$basic_string@DU?$char_traits@D@std@@V?$allocator@D@2@@std@@QAEAAV12@ABV12@II@Z ENDP ; std::basic_string<char,std::char_traits<char>,std::allocator<char> >::append
; Function compile flags: /Ogtpy
; File c:\program files\microsoft visual studio 9.0\vc\include\xlocnum
_TEXT	ENDS
;	COMDAT ?grouping@?$numpunct@D@std@@QBE?AV?$basic_string@DU?$char_traits@D@std@@V?$allocator@D@2@@2@XZ
_TEXT	SEGMENT
$T62156 = -4						; size = 4
?grouping@?$numpunct@D@std@@QBE?AV?$basic_string@DU?$char_traits@D@std@@V?$allocator@D@2@@2@XZ PROC ; std::numpunct<char>::grouping, COMDAT
; _this$ = ecx
; ___$ReturnUdt$ = esi

; 79   : 		{	// return grouping string

  00000	51		 push	 ecx

; 80   : 		return (do_grouping());

  00001	8b 01		 mov	 eax, DWORD PTR [ecx]
  00003	8b 50 0c	 mov	 edx, DWORD PTR [eax+12]
  00006	56		 push	 esi
  00007	c7 44 24 04 00
	00 00 00	 mov	 DWORD PTR $T62156[esp+8], 0
  0000f	ff d2		 call	 edx
  00011	8b c6		 mov	 eax, esi

; 81   : 		}

  00013	59		 pop	 ecx
  00014	c3		 ret	 0
?grouping@?$numpunct@D@std@@QBE?AV?$basic_string@DU?$char_traits@D@std@@V?$allocator@D@2@@2@XZ ENDP ; std::numpunct<char>::grouping
; Function compile flags: /Ogtpy
; File c:\program files\microsoft visual studio 9.0\vc\include\xstring
_TEXT	ENDS
;	COMDAT ?insert@?$basic_string@DU?$char_traits@D@std@@V?$allocator@D@2@@std@@QAEAAV12@IID@Z
_TEXT	SEGMENT
tv188 = 8						; size = 4
__Count$ = 8						; size = 4
__Ch$ = 12						; size = 1
?insert@?$basic_string@DU?$char_traits@D@std@@V?$allocator@D@2@@std@@QAEAAV12@IID@Z PROC ; std::basic_string<char,std::char_traits<char>,std::allocator<char> >::insert, COMDAT
; _this$ = esi
; __Off$ = edi

; 1196 : 		{	// insert _Count * _Ch at _Off

  00000	55		 push	 ebp
  00001	8b 6c 24 08	 mov	 ebp, DWORD PTR __Count$[esp]

; 1197 : 		if (_Mysize < _Off)

  00005	39 7e 14	 cmp	 DWORD PTR [esi+20], edi
  00008	73 05		 jae	 SHORT $LN3@insert

; 1198 : 			_String_base::_Xran();	// _Off off end

  0000a	e8 00 00 00 00	 call	 ?_Xran@_String_base@std@@SAXXZ ; std::_String_base::_Xran
$LN3@insert:

; 1199 : 		if (npos - _Mysize <= _Count)

  0000f	83 c8 ff	 or	 eax, -1
  00012	2b 46 14	 sub	 eax, DWORD PTR [esi+20]
  00015	3b c5		 cmp	 eax, ebp
  00017	77 05		 ja	 SHORT $LN2@insert

; 1200 : 			_String_base::_Xlen();	// result too long

  00019	e8 00 00 00 00	 call	 ?_Xlen@_String_base@std@@SAXXZ ; std::_String_base::_Xlen
$LN2@insert:

; 1201 : 		size_type _Num;
; 1202 : 		if (0 < _Count && _Grow(_Num = _Mysize + _Count))

  0001e	85 ed		 test	 ebp, ebp
  00020	0f 86 c1 00 00
	00		 jbe	 $LN80@insert
  00026	53		 push	 ebx
  00027	8b 5e 14	 mov	 ebx, DWORD PTR [esi+20]
  0002a	03 dd		 add	 ebx, ebp
  0002c	83 fb fe	 cmp	 ebx, -2			; fffffffeH
  0002f	76 05		 jbe	 SHORT $LN11@insert
  00031	e8 00 00 00 00	 call	 ?_Xlen@_String_base@std@@SAXXZ ; std::_String_base::_Xlen
$LN11@insert:
  00036	8b 46 18	 mov	 eax, DWORD PTR [esi+24]
  00039	3b c3		 cmp	 eax, ebx
  0003b	73 25		 jae	 SHORT $LN10@insert
  0003d	8b 4e 14	 mov	 ecx, DWORD PTR [esi+20]
  00040	51		 push	 ecx
  00041	53		 push	 ebx
  00042	8b ce		 mov	 ecx, esi
  00044	e8 00 00 00 00	 call	 ?_Copy@?$basic_string@DU?$char_traits@D@std@@V?$allocator@D@2@@std@@IAEXII@Z ; std::basic_string<char,std::char_traits<char>,std::allocator<char> >::_Copy
  00049	85 db		 test	 ebx, ebx
$LN83@insert:
  0004b	0f 86 95 00 00
	00		 jbe	 $LN81@insert

; 1203 : 			{	// make room and insert new stuff
; 1204 : 			_Traits_helper::move_s<_Traits>(_Myptr() + _Off + _Count, _Myres - _Off - _Count,
; 1205 : 				_Myptr() + _Off, _Mysize - _Off);	// empty out hole

  00051	8b 46 18	 mov	 eax, DWORD PTR [esi+24]
  00054	83 f8 10	 cmp	 eax, 16			; 00000010H
  00057	72 2e		 jb	 SHORT $LN58@insert
  00059	8b 56 04	 mov	 edx, DWORD PTR [esi+4]
  0005c	89 54 24 0c	 mov	 DWORD PTR tv188[esp+4], edx
  00060	eb 2c		 jmp	 SHORT $LN59@insert

; 1201 : 		size_type _Num;
; 1202 : 		if (0 < _Count && _Grow(_Num = _Mysize + _Count))

$LN10@insert:
  00062	85 db		 test	 ebx, ebx
  00064	75 e5		 jne	 SHORT $LN83@insert
  00066	89 5e 14	 mov	 DWORD PTR [esi+20], ebx
  00069	83 f8 10	 cmp	 eax, 16			; 00000010H
  0006c	72 0c		 jb	 SHORT $LN52@insert
  0006e	8b 46 04	 mov	 eax, DWORD PTR [esi+4]
  00071	88 18		 mov	 BYTE PTR [eax], bl
  00073	5b		 pop	 ebx

; 1208 : 			}
; 1209 : 		return (*this);

  00074	8b c6		 mov	 eax, esi
  00076	5d		 pop	 ebp

; 1210 : 		}

  00077	c2 08 00	 ret	 8

; 1201 : 		size_type _Num;
; 1202 : 		if (0 < _Count && _Grow(_Num = _Mysize + _Count))

$LN52@insert:
  0007a	8d 46 04	 lea	 eax, DWORD PTR [esi+4]
  0007d	5b		 pop	 ebx
  0007e	c6 00 00	 mov	 BYTE PTR [eax], 0

; 1208 : 			}
; 1209 : 		return (*this);

  00081	8b c6		 mov	 eax, esi
  00083	5d		 pop	 ebp

; 1210 : 		}

  00084	c2 08 00	 ret	 8

; 1203 : 			{	// make room and insert new stuff
; 1204 : 			_Traits_helper::move_s<_Traits>(_Myptr() + _Off + _Count, _Myres - _Off - _Count,
; 1205 : 				_Myptr() + _Off, _Mysize - _Off);	// empty out hole

$LN58@insert:
  00087	8d 4e 04	 lea	 ecx, DWORD PTR [esi+4]
  0008a	89 4c 24 0c	 mov	 DWORD PTR tv188[esp+4], ecx
$LN59@insert:
  0008e	83 f8 10	 cmp	 eax, 16			; 00000010H
  00091	72 05		 jb	 SHORT $LN62@insert
  00093	8b 4e 04	 mov	 ecx, DWORD PTR [esi+4]
  00096	eb 03		 jmp	 SHORT $LN63@insert
$LN62@insert:
  00098	8d 4e 04	 lea	 ecx, DWORD PTR [esi+4]
$LN63@insert:
  0009b	8b 56 14	 mov	 edx, DWORD PTR [esi+20]
  0009e	2b d7		 sub	 edx, edi
  000a0	52		 push	 edx
  000a1	8b 54 24 10	 mov	 edx, DWORD PTR tv188[esp+8]
  000a5	03 d7		 add	 edx, edi
  000a7	2b c7		 sub	 eax, edi
  000a9	52		 push	 edx
  000aa	2b c5		 sub	 eax, ebp
  000ac	03 cf		 add	 ecx, edi
  000ae	50		 push	 eax
  000af	03 cd		 add	 ecx, ebp
  000b1	51		 push	 ecx
  000b2	e8 00 00 00 00	 call	 _memmove_s

; 1206 : 			_Chassign(_Off, _Count, _Ch);	// fill hole

  000b7	8b 44 24 20	 mov	 eax, DWORD PTR __Ch$[esp+20]
  000bb	83 c4 10	 add	 esp, 16			; 00000010H
  000be	50		 push	 eax
  000bf	55		 push	 ebp
  000c0	57		 push	 edi
  000c1	8b ce		 mov	 ecx, esi
  000c3	e8 00 00 00 00	 call	 ?_Chassign@?$basic_string@DU?$char_traits@D@std@@V?$allocator@D@2@@std@@IAEXIID@Z ; std::basic_string<char,std::char_traits<char>,std::allocator<char> >::_Chassign

; 1207 : 			_Eos(_Num);

  000c8	83 7e 18 10	 cmp	 DWORD PTR [esi+24], 16	; 00000010H
  000cc	89 5e 14	 mov	 DWORD PTR [esi+20], ebx
  000cf	72 0e		 jb	 SHORT $LN76@insert
  000d1	8b 46 04	 mov	 eax, DWORD PTR [esi+4]
  000d4	c6 04 18 00	 mov	 BYTE PTR [eax+ebx], 0
  000d8	5b		 pop	 ebx

; 1208 : 			}
; 1209 : 		return (*this);

  000d9	8b c6		 mov	 eax, esi
  000db	5d		 pop	 ebp

; 1210 : 		}

  000dc	c2 08 00	 ret	 8

; 1207 : 			_Eos(_Num);

$LN76@insert:
  000df	8d 46 04	 lea	 eax, DWORD PTR [esi+4]
  000e2	c6 04 18 00	 mov	 BYTE PTR [eax+ebx], 0
$LN81@insert:
  000e6	5b		 pop	 ebx
$LN80@insert:

; 1208 : 			}
; 1209 : 		return (*this);

  000e7	8b c6		 mov	 eax, esi
  000e9	5d		 pop	 ebp

; 1210 : 		}

  000ea	c2 08 00	 ret	 8
?insert@?$basic_string@DU?$char_traits@D@std@@V?$allocator@D@2@@std@@QAEAAV12@IID@Z ENDP ; std::basic_string<char,std::char_traits<char>,std::allocator<char> >::insert
; Function compile flags: /Ogtpy
_TEXT	ENDS
;	COMDAT ?append@?$basic_string@DU?$char_traits@D@std@@V?$allocator@D@2@@std@@QAEAAV12@PBDI@Z
_TEXT	SEGMENT
__Ptr$ = 8						; size = 4
__Count$ = 12						; size = 4
?append@?$basic_string@DU?$char_traits@D@std@@V?$allocator@D@2@@std@@QAEAAV12@PBDI@Z PROC ; std::basic_string<char,std::char_traits<char>,std::allocator<char> >::append, COMDAT
; _this$ = eax

; 970  : 		{	// append [_Ptr, _Ptr + _Count)

  00000	8b 4c 24 04	 mov	 ecx, DWORD PTR __Ptr$[esp-4]
  00004	53		 push	 ebx
  00005	55		 push	 ebp
  00006	8b 6c 24 10	 mov	 ebp, DWORD PTR __Count$[esp+4]
  0000a	56		 push	 esi
  0000b	57		 push	 edi
  0000c	8b f0		 mov	 esi, eax

; 971  : 
; 972  :  #if _HAS_ITERATOR_DEBUGGING
; 973  : 		if (_Count != 0)
; 974  : 			_DEBUG_POINTER(_Ptr);
; 975  :  #endif /* _HAS_ITERATOR_DEBUGGING */
; 976  : 
; 977  : 		if (_Inside(_Ptr))

  0000e	85 c9		 test	 ecx, ecx
  00010	74 41		 je	 SHORT $LN95@append@3
  00012	8b 7e 18	 mov	 edi, DWORD PTR [esi+24]
  00015	8d 46 04	 lea	 eax, DWORD PTR [esi+4]
  00018	83 ff 10	 cmp	 edi, 16			; 00000010H
  0001b	72 04		 jb	 SHORT $LN14@append@3
  0001d	8b 10		 mov	 edx, DWORD PTR [eax]
  0001f	eb 02		 jmp	 SHORT $LN15@append@3
$LN14@append@3:
  00021	8b d0		 mov	 edx, eax
$LN15@append@3:
  00023	3b ca		 cmp	 ecx, edx
  00025	72 2c		 jb	 SHORT $LN95@append@3
  00027	83 ff 10	 cmp	 edi, 16			; 00000010H
  0002a	72 04		 jb	 SHORT $LN18@append@3
  0002c	8b 10		 mov	 edx, DWORD PTR [eax]
  0002e	eb 02		 jmp	 SHORT $LN19@append@3
$LN18@append@3:
  00030	8b d0		 mov	 edx, eax
$LN19@append@3:
  00032	8b 5e 14	 mov	 ebx, DWORD PTR [esi+20]
  00035	03 da		 add	 ebx, edx
  00037	3b d9		 cmp	 ebx, ecx
  00039	76 18		 jbe	 SHORT $LN95@append@3

; 978  : 			return (append(*this, _Ptr - _Myptr(), _Count));	// substring

  0003b	83 ff 10	 cmp	 edi, 16			; 00000010H
  0003e	72 02		 jb	 SHORT $LN22@append@3
  00040	8b 00		 mov	 eax, DWORD PTR [eax]
$LN22@append@3:
  00042	55		 push	 ebp
  00043	2b c8		 sub	 ecx, eax
  00045	51		 push	 ecx
  00046	56		 push	 esi
  00047	e8 00 00 00 00	 call	 ?append@?$basic_string@DU?$char_traits@D@std@@V?$allocator@D@2@@std@@QAEAAV12@ABV12@II@Z ; std::basic_string<char,std::char_traits<char>,std::allocator<char> >::append
  0004c	5f		 pop	 edi
  0004d	5e		 pop	 esi
  0004e	5d		 pop	 ebp
  0004f	5b		 pop	 ebx

; 989  : 		}

  00050	c2 08 00	 ret	 8
$LN95@append@3:

; 979  : 		if (npos - _Mysize <= _Count || _Mysize + _Count < _Mysize)

  00053	8b 46 14	 mov	 eax, DWORD PTR [esi+20]
  00056	83 c9 ff	 or	 ecx, -1
  00059	2b c8		 sub	 ecx, eax
  0005b	3b cd		 cmp	 ecx, ebp
  0005d	76 07		 jbe	 SHORT $LN2@append@3
  0005f	8d 14 28	 lea	 edx, DWORD PTR [eax+ebp]
  00062	3b d0		 cmp	 edx, eax
  00064	73 05		 jae	 SHORT $LN3@append@3
$LN2@append@3:

; 980  : 			_String_base::_Xlen();	// result too long

  00066	e8 00 00 00 00	 call	 ?_Xlen@_String_base@std@@SAXXZ ; std::_String_base::_Xlen
$LN3@append@3:

; 981  : 
; 982  : 		size_type _Num;
; 983  : 		if (0 < _Count && _Grow(_Num = _Mysize + _Count))

  0006b	85 ed		 test	 ebp, ebp
  0006d	0f 86 87 00 00
	00		 jbe	 $LN92@append@3
  00073	8b 7e 14	 mov	 edi, DWORD PTR [esi+20]
  00076	03 fd		 add	 edi, ebp
  00078	83 ff fe	 cmp	 edi, -2			; fffffffeH
  0007b	76 05		 jbe	 SHORT $LN29@append@3
  0007d	e8 00 00 00 00	 call	 ?_Xlen@_String_base@std@@SAXXZ ; std::_String_base::_Xlen
$LN29@append@3:
  00082	8b 46 18	 mov	 eax, DWORD PTR [esi+24]
  00085	3b c7		 cmp	 eax, edi
  00087	73 1f		 jae	 SHORT $LN28@append@3
  00089	8b 46 14	 mov	 eax, DWORD PTR [esi+20]
  0008c	50		 push	 eax
  0008d	57		 push	 edi
  0008e	8b ce		 mov	 ecx, esi
  00090	e8 00 00 00 00	 call	 ?_Copy@?$basic_string@DU?$char_traits@D@std@@V?$allocator@D@2@@std@@IAEXII@Z ; std::basic_string<char,std::char_traits<char>,std::allocator<char> >::_Copy
  00095	85 ff		 test	 edi, edi
$LN96@append@3:
  00097	76 61		 jbe	 SHORT $LN92@append@3

; 984  : 			{	// make room and append new stuff
; 985  : 			_Traits_helper::copy_s<_Traits>(_Myptr() + _Mysize, _Myres - _Mysize, _Ptr, _Count);

  00099	8b 46 18	 mov	 eax, DWORD PTR [esi+24]
  0009c	8d 5e 04	 lea	 ebx, DWORD PTR [esi+4]
  0009f	83 f8 10	 cmp	 eax, 16			; 00000010H
  000a2	72 2e		 jb	 SHORT $LN76@append@3
  000a4	8b 13		 mov	 edx, DWORD PTR [ebx]
  000a6	eb 2c		 jmp	 SHORT $LN77@append@3

; 981  : 
; 982  : 		size_type _Num;
; 983  : 		if (0 < _Count && _Grow(_Num = _Mysize + _Count))

$LN28@append@3:
  000a8	85 ff		 test	 edi, edi
  000aa	75 eb		 jne	 SHORT $LN96@append@3
  000ac	89 7e 14	 mov	 DWORD PTR [esi+20], edi
  000af	83 f8 10	 cmp	 eax, 16			; 00000010H
  000b2	72 0f		 jb	 SHORT $LN70@append@3
  000b4	8b 46 04	 mov	 eax, DWORD PTR [esi+4]
  000b7	5f		 pop	 edi
  000b8	c6 00 00	 mov	 BYTE PTR [eax], 0

; 987  : 			}
; 988  : 		return (*this);

  000bb	8b c6		 mov	 eax, esi
  000bd	5e		 pop	 esi
  000be	5d		 pop	 ebp
  000bf	5b		 pop	 ebx

; 989  : 		}

  000c0	c2 08 00	 ret	 8

; 981  : 
; 982  : 		size_type _Num;
; 983  : 		if (0 < _Count && _Grow(_Num = _Mysize + _Count))

$LN70@append@3:
  000c3	8d 46 04	 lea	 eax, DWORD PTR [esi+4]
  000c6	5f		 pop	 edi
  000c7	c6 00 00	 mov	 BYTE PTR [eax], 0

; 987  : 			}
; 988  : 		return (*this);

  000ca	8b c6		 mov	 eax, esi
  000cc	5e		 pop	 esi
  000cd	5d		 pop	 ebp
  000ce	5b		 pop	 ebx

; 989  : 		}

  000cf	c2 08 00	 ret	 8

; 984  : 			{	// make room and append new stuff
; 985  : 			_Traits_helper::copy_s<_Traits>(_Myptr() + _Mysize, _Myres - _Mysize, _Ptr, _Count);

$LN76@append@3:
  000d2	8b d3		 mov	 edx, ebx
$LN77@append@3:
  000d4	8b 4e 14	 mov	 ecx, DWORD PTR [esi+20]
  000d7	55		 push	 ebp
  000d8	8b 6c 24 18	 mov	 ebp, DWORD PTR __Ptr$[esp+16]
  000dc	2b c1		 sub	 eax, ecx
  000de	55		 push	 ebp
  000df	50		 push	 eax
  000e0	03 ca		 add	 ecx, edx
  000e2	51		 push	 ecx
  000e3	e8 00 00 00 00	 call	 _memcpy_s
  000e8	83 c4 10	 add	 esp, 16			; 00000010H

; 986  : 			_Eos(_Num);

  000eb	83 7e 18 10	 cmp	 DWORD PTR [esi+24], 16	; 00000010H
  000ef	89 7e 14	 mov	 DWORD PTR [esi+20], edi
  000f2	72 02		 jb	 SHORT $LN90@append@3
  000f4	8b 1b		 mov	 ebx, DWORD PTR [ebx]
$LN90@append@3:
  000f6	c6 04 3b 00	 mov	 BYTE PTR [ebx+edi], 0
$LN92@append@3:
  000fa	5f		 pop	 edi

; 987  : 			}
; 988  : 		return (*this);

  000fb	8b c6		 mov	 eax, esi
  000fd	5e		 pop	 esi
  000fe	5d		 pop	 ebp
  000ff	5b		 pop	 ebx

; 989  : 		}

  00100	c2 08 00	 ret	 8
?append@?$basic_string@DU?$char_traits@D@std@@V?$allocator@D@2@@std@@QAEAAV12@PBDI@Z ENDP ; std::basic_string<char,std::char_traits<char>,std::allocator<char> >::append
; Function compile flags: /Ogtpy
; File c:\program files\microsoft visual studio 9.0\vc\include\xlocnum
_TEXT	ENDS
;	COMDAT ?truename@?$numpunct@D@std@@QBE?AV?$basic_string@DU?$char_traits@D@std@@V?$allocator@D@2@@2@XZ
_TEXT	SEGMENT
$T62691 = -4						; size = 4
?truename@?$numpunct@D@std@@QBE?AV?$basic_string@DU?$char_traits@D@std@@V?$allocator@D@2@@2@XZ PROC ; std::numpunct<char>::truename, COMDAT
; _this$ = ecx
; ___$ReturnUdt$ = esi

; 89   : 		{	// return name for true

  00000	51		 push	 ecx

; 90   : 		return (do_truename());

  00001	8b 01		 mov	 eax, DWORD PTR [ecx]
  00003	8b 50 14	 mov	 edx, DWORD PTR [eax+20]
  00006	56		 push	 esi
  00007	c7 44 24 04 00
	00 00 00	 mov	 DWORD PTR $T62691[esp+8], 0
  0000f	ff d2		 call	 edx
  00011	8b c6		 mov	 eax, esi

; 91   : 		}

  00013	59		 pop	 ecx
  00014	c3		 ret	 0
?truename@?$numpunct@D@std@@QBE?AV?$basic_string@DU?$char_traits@D@std@@V?$allocator@D@2@@2@XZ ENDP ; std::numpunct<char>::truename
; Function compile flags: /Ogtpy
_TEXT	ENDS
;	COMDAT ?falsename@?$numpunct@D@std@@QBE?AV?$basic_string@DU?$char_traits@D@std@@V?$allocator@D@2@@2@XZ
_TEXT	SEGMENT
$T62697 = -4						; size = 4
?falsename@?$numpunct@D@std@@QBE?AV?$basic_string@DU?$char_traits@D@std@@V?$allocator@D@2@@2@XZ PROC ; std::numpunct<char>::falsename, COMDAT
; _this$ = ecx
; ___$ReturnUdt$ = esi

; 84   : 		{	// return name for false

  00000	51		 push	 ecx

; 85   : 		return (do_falsename());

  00001	8b 01		 mov	 eax, DWORD PTR [ecx]
  00003	8b 50 10	 mov	 edx, DWORD PTR [eax+16]
  00006	56		 push	 esi
  00007	c7 44 24 04 00
	00 00 00	 mov	 DWORD PTR $T62697[esp+8], 0
  0000f	ff d2		 call	 edx
  00011	8b c6		 mov	 eax, esi

; 86   : 		}

  00013	59		 pop	 ecx
  00014	c3		 ret	 0
?falsename@?$numpunct@D@std@@QBE?AV?$basic_string@DU?$char_traits@D@std@@V?$allocator@D@2@@2@XZ ENDP ; std::numpunct<char>::falsename
; Function compile flags: /Ogtpy
; File c:\program files\microsoft visual studio 9.0\vc\include\xstring
;	COMDAT ?assign@?$basic_string@DU?$char_traits@D@std@@V?$allocator@D@2@@std@@QAEAAV12@ABV12@II@Z
_TEXT	SEGMENT
__Right$ = 8						; size = 4
__Roff$ = 12						; size = 4
__Count$ = 16						; size = 4
?assign@?$basic_string@DU?$char_traits@D@std@@V?$allocator@D@2@@std@@QAEAAV12@ABV12@II@Z PROC ; std::basic_string<char,std::char_traits<char>,std::allocator<char> >::assign, COMDAT
; _this$ = ecx

; 1046 : 		{	// assign _Right [_Roff, _Roff + _Count)

  00000	53		 push	 ebx

; 1047 : 		if (_Right.size() < _Roff)

  00001	8b 5c 24 08	 mov	 ebx, DWORD PTR __Right$[esp]
  00005	55		 push	 ebp
  00006	8b 6c 24 10	 mov	 ebp, DWORD PTR __Roff$[esp+4]
  0000a	56		 push	 esi
  0000b	57		 push	 edi
  0000c	8b f1		 mov	 esi, ecx
  0000e	39 6b 14	 cmp	 DWORD PTR [ebx+20], ebp
  00011	73 05		 jae	 SHORT $LN5@assign@2

; 1048 : 			_String_base::_Xran();	// _Roff off end

  00013	e8 00 00 00 00	 call	 ?_Xran@_String_base@std@@SAXXZ ; std::_String_base::_Xran
$LN5@assign@2:

; 1049 : 		size_type _Num = _Right.size() - _Roff;

  00018	8b 7b 14	 mov	 edi, DWORD PTR [ebx+20]

; 1050 : 		if (_Count < _Num)

  0001b	8b 44 24 1c	 mov	 eax, DWORD PTR __Count$[esp+12]
  0001f	2b fd		 sub	 edi, ebp
  00021	3b c7		 cmp	 eax, edi

; 1051 : 			_Num = _Count;	// trim _Num to size

  00023	0f 42 f8	 cmovb	 edi, eax

; 1052 : 
; 1053 : 		if (this == &_Right)

  00026	3b f3		 cmp	 esi, ebx
  00028	75 1f		 jne	 SHORT $LN3@assign@2

; 1054 : 			erase((size_type)(_Roff + _Num)), erase(0, _Roff);	// substring

  0002a	6a ff		 push	 -1
  0002c	03 fd		 add	 edi, ebp
  0002e	57		 push	 edi
  0002f	8b ce		 mov	 ecx, esi
  00031	e8 00 00 00 00	 call	 ?erase@?$basic_string@DU?$char_traits@D@std@@V?$allocator@D@2@@std@@QAEAAV12@II@Z ; std::basic_string<char,std::char_traits<char>,std::allocator<char> >::erase
  00036	55		 push	 ebp
  00037	6a 00		 push	 0
  00039	8b ce		 mov	 ecx, esi
  0003b	e8 00 00 00 00	 call	 ?erase@?$basic_string@DU?$char_traits@D@std@@V?$allocator@D@2@@std@@QAEAAV12@II@Z ; std::basic_string<char,std::char_traits<char>,std::allocator<char> >::erase
  00040	5f		 pop	 edi

; 1059 : 			}
; 1060 : 		return (*this);

  00041	8b c6		 mov	 eax, esi
  00043	5e		 pop	 esi
  00044	5d		 pop	 ebp
  00045	5b		 pop	 ebx

; 1061 : 		}

  00046	c2 0c 00	 ret	 12			; 0000000cH
$LN3@assign@2:

; 1055 : 		else if (_Grow(_Num))

  00049	83 ff fe	 cmp	 edi, -2			; fffffffeH
  0004c	76 05		 jbe	 SHORT $LN17@assign@2
  0004e	e8 00 00 00 00	 call	 ?_Xlen@_String_base@std@@SAXXZ ; std::_String_base::_Xlen
$LN17@assign@2:
  00053	8b 46 18	 mov	 eax, DWORD PTR [esi+24]
  00056	3b c7		 cmp	 eax, edi
  00058	73 1b		 jae	 SHORT $LN16@assign@2
  0005a	8b 46 14	 mov	 eax, DWORD PTR [esi+20]
  0005d	50		 push	 eax
  0005e	57		 push	 edi
  0005f	8b ce		 mov	 ecx, esi
  00061	e8 00 00 00 00	 call	 ?_Copy@?$basic_string@DU?$char_traits@D@std@@V?$allocator@D@2@@std@@IAEXII@Z ; std::basic_string<char,std::char_traits<char>,std::allocator<char> >::_Copy
  00066	85 ff		 test	 edi, edi
$LN87@assign@2:
  00068	76 66		 jbe	 SHORT $LN86@assign@2

; 1056 : 			{	// make room and assign new stuff
; 1057 : 			_Traits_helper::copy_s<_Traits>(_Myptr(), _Myres, _Right._Myptr() + _Roff, _Num);

  0006a	83 7b 18 10	 cmp	 DWORD PTR [ebx+24], 16	; 00000010H
  0006e	72 2f		 jb	 SHORT $LN64@assign@2
  00070	8b 53 04	 mov	 edx, DWORD PTR [ebx+4]
  00073	eb 2d		 jmp	 SHORT $LN65@assign@2

; 1055 : 		else if (_Grow(_Num))

$LN16@assign@2:
  00075	85 ff		 test	 edi, edi
  00077	75 ef		 jne	 SHORT $LN87@assign@2
  00079	89 7e 14	 mov	 DWORD PTR [esi+20], edi
  0007c	83 f8 10	 cmp	 eax, 16			; 00000010H
  0007f	72 0f		 jb	 SHORT $LN58@assign@2
  00081	8b 46 04	 mov	 eax, DWORD PTR [esi+4]
  00084	5f		 pop	 edi
  00085	c6 00 00	 mov	 BYTE PTR [eax], 0

; 1059 : 			}
; 1060 : 		return (*this);

  00088	8b c6		 mov	 eax, esi
  0008a	5e		 pop	 esi
  0008b	5d		 pop	 ebp
  0008c	5b		 pop	 ebx

; 1061 : 		}

  0008d	c2 0c 00	 ret	 12			; 0000000cH

; 1055 : 		else if (_Grow(_Num))

$LN58@assign@2:
  00090	8d 46 04	 lea	 eax, DWORD PTR [esi+4]
  00093	5f		 pop	 edi
  00094	c6 00 00	 mov	 BYTE PTR [eax], 0

; 1059 : 			}
; 1060 : 		return (*this);

  00097	8b c6		 mov	 eax, esi
  00099	5e		 pop	 esi
  0009a	5d		 pop	 ebp
  0009b	5b		 pop	 ebx

; 1061 : 		}

  0009c	c2 0c 00	 ret	 12			; 0000000cH

; 1056 : 			{	// make room and assign new stuff
; 1057 : 			_Traits_helper::copy_s<_Traits>(_Myptr(), _Myres, _Right._Myptr() + _Roff, _Num);

$LN64@assign@2:
  0009f	8d 53 04	 lea	 edx, DWORD PTR [ebx+4]
$LN65@assign@2:
  000a2	8b 4e 18	 mov	 ecx, DWORD PTR [esi+24]
  000a5	8d 5e 04	 lea	 ebx, DWORD PTR [esi+4]
  000a8	83 f9 10	 cmp	 ecx, 16			; 00000010H
  000ab	72 04		 jb	 SHORT $LN68@assign@2
  000ad	8b 03		 mov	 eax, DWORD PTR [ebx]
  000af	eb 02		 jmp	 SHORT $LN69@assign@2
$LN68@assign@2:
  000b1	8b c3		 mov	 eax, ebx
$LN69@assign@2:
  000b3	57		 push	 edi
  000b4	03 d5		 add	 edx, ebp
  000b6	52		 push	 edx
  000b7	51		 push	 ecx
  000b8	50		 push	 eax
  000b9	e8 00 00 00 00	 call	 _memcpy_s
  000be	83 c4 10	 add	 esp, 16			; 00000010H

; 1058 : 			_Eos(_Num);

  000c1	83 7e 18 10	 cmp	 DWORD PTR [esi+24], 16	; 00000010H
  000c5	89 7e 14	 mov	 DWORD PTR [esi+20], edi
  000c8	72 02		 jb	 SHORT $LN82@assign@2
  000ca	8b 1b		 mov	 ebx, DWORD PTR [ebx]
$LN82@assign@2:
  000cc	c6 04 3b 00	 mov	 BYTE PTR [ebx+edi], 0
$LN86@assign@2:
  000d0	5f		 pop	 edi

; 1059 : 			}
; 1060 : 		return (*this);

  000d1	8b c6		 mov	 eax, esi
  000d3	5e		 pop	 esi
  000d4	5d		 pop	 ebp
  000d5	5b		 pop	 ebx

; 1061 : 		}

  000d6	c2 0c 00	 ret	 12			; 0000000cH
?assign@?$basic_string@DU?$char_traits@D@std@@V?$allocator@D@2@@std@@QAEAAV12@ABV12@II@Z ENDP ; std::basic_string<char,std::char_traits<char>,std::allocator<char> >::assign
; Function compile flags: /Ogtpy
_TEXT	ENDS
;	COMDAT ??_Gruntime_error@std@@UAEPAXI@Z
_TEXT	SEGMENT
___flags$ = 8						; size = 4
??_Gruntime_error@std@@UAEPAXI@Z PROC			; std::runtime_error::`scalar deleting destructor', COMDAT
; _this$ = ecx
  00000	56		 push	 esi
  00001	8b f1		 mov	 esi, ecx
  00003	c7 06 00 00 00
	00		 mov	 DWORD PTR [esi], OFFSET ??_7runtime_error@std@@6B@
  00009	83 7e 24 10	 cmp	 DWORD PTR [esi+36], 16	; 00000010H
  0000d	72 0c		 jb	 SHORT $LN22@scalar@17
  0000f	8b 46 10	 mov	 eax, DWORD PTR [esi+16]
  00012	50		 push	 eax
  00013	e8 00 00 00 00	 call	 ??3@YAXPAX@Z		; operator delete
  00018	83 c4 04	 add	 esp, 4
$LN22@scalar@17:
  0001b	33 c0		 xor	 eax, eax
  0001d	c7 46 24 0f 00
	00 00		 mov	 DWORD PTR [esi+36], 15	; 0000000fH
  00024	89 46 20	 mov	 DWORD PTR [esi+32], eax
  00027	8b ce		 mov	 ecx, esi
  00029	88 46 10	 mov	 BYTE PTR [esi+16], al
  0002c	e8 00 00 00 00	 call	 ??1exception@std@@UAE@XZ ; std::exception::~exception
  00031	f6 44 24 08 01	 test	 BYTE PTR ___flags$[esp], 1
  00036	74 09		 je	 SHORT $LN32@scalar@17
  00038	56		 push	 esi
  00039	e8 00 00 00 00	 call	 ??3@YAXPAX@Z		; operator delete
  0003e	83 c4 04	 add	 esp, 4
$LN32@scalar@17:
  00041	8b c6		 mov	 eax, esi
  00043	5e		 pop	 esi
  00044	c2 04 00	 ret	 4
??_Gruntime_error@std@@UAEPAXI@Z ENDP			; std::runtime_error::`scalar deleting destructor'
; Function compile flags: /Ogtpy
_TEXT	ENDS
;	COMDAT ??_Gfailure@ios_base@std@@UAEPAXI@Z
_TEXT	SEGMENT
___flags$ = 8						; size = 4
??_Gfailure@ios_base@std@@UAEPAXI@Z PROC		; std::ios_base::failure::`scalar deleting destructor', COMDAT
; _this$ = ecx
  00000	56		 push	 esi
  00001	8b f1		 mov	 esi, ecx
  00003	c7 06 00 00 00
	00		 mov	 DWORD PTR [esi], OFFSET ??_7runtime_error@std@@6B@
  00009	83 7e 24 10	 cmp	 DWORD PTR [esi+36], 16	; 00000010H
  0000d	72 0c		 jb	 SHORT $LN24@scalar@18
  0000f	8b 46 10	 mov	 eax, DWORD PTR [esi+16]
  00012	50		 push	 eax
  00013	e8 00 00 00 00	 call	 ??3@YAXPAX@Z		; operator delete
  00018	83 c4 04	 add	 esp, 4
$LN24@scalar@18:
  0001b	33 c0		 xor	 eax, eax
  0001d	c7 46 24 0f 00
	00 00		 mov	 DWORD PTR [esi+36], 15	; 0000000fH
  00024	89 46 20	 mov	 DWORD PTR [esi+32], eax
  00027	8b ce		 mov	 ecx, esi
  00029	88 46 10	 mov	 BYTE PTR [esi+16], al
  0002c	e8 00 00 00 00	 call	 ??1exception@std@@UAE@XZ ; std::exception::~exception
  00031	f6 44 24 08 01	 test	 BYTE PTR ___flags$[esp], 1
  00036	74 09		 je	 SHORT $LN34@scalar@18
  00038	56		 push	 esi
  00039	e8 00 00 00 00	 call	 ??3@YAXPAX@Z		; operator delete
  0003e	83 c4 04	 add	 esp, 4
$LN34@scalar@18:
  00041	8b c6		 mov	 eax, esi
  00043	5e		 pop	 esi
  00044	c2 04 00	 ret	 4
??_Gfailure@ios_base@std@@UAEPAXI@Z ENDP		; std::ios_base::failure::`scalar deleting destructor'
; Function compile flags: /Ogtpy
_TEXT	ENDS
;	COMDAT ?assign@?$basic_string@DU?$char_traits@D@std@@V?$allocator@D@2@@std@@QAEAAV12@PBDI@Z
_TEXT	SEGMENT
__Ptr$ = 8						; size = 4
__Count$ = 12						; size = 4
?assign@?$basic_string@DU?$char_traits@D@std@@V?$allocator@D@2@@std@@QAEAAV12@PBDI@Z PROC ; std::basic_string<char,std::char_traits<char>,std::allocator<char> >::assign, COMDAT
; _this$ = ecx

; 1064 : 		{	// assign [_Ptr, _Ptr + _Count)

  00000	55		 push	 ebp

; 1065 : 
; 1066 :  #if _HAS_ITERATOR_DEBUGGING
; 1067 : 		if (_Count != 0)
; 1068 : 			_DEBUG_POINTER(_Ptr);
; 1069 :  #endif /* _HAS_ITERATOR_DEBUGGING */
; 1070 : 
; 1071 : 		if (_Inside(_Ptr))

  00001	8b 6c 24 08	 mov	 ebp, DWORD PTR __Ptr$[esp]
  00005	56		 push	 esi
  00006	57		 push	 edi
  00007	8b f1		 mov	 esi, ecx
  00009	85 ed		 test	 ebp, ebp
  0000b	74 46		 je	 SHORT $LN93@assign@3
  0000d	8b 56 18	 mov	 edx, DWORD PTR [esi+24]
  00010	8d 46 04	 lea	 eax, DWORD PTR [esi+4]
  00013	83 fa 10	 cmp	 edx, 16			; 00000010H
  00016	72 04		 jb	 SHORT $LN12@assign@3
  00018	8b 08		 mov	 ecx, DWORD PTR [eax]
  0001a	eb 02		 jmp	 SHORT $LN13@assign@3
$LN12@assign@3:
  0001c	8b c8		 mov	 ecx, eax
$LN13@assign@3:
  0001e	3b e9		 cmp	 ebp, ecx
  00020	72 31		 jb	 SHORT $LN93@assign@3
  00022	83 fa 10	 cmp	 edx, 16			; 00000010H
  00025	72 04		 jb	 SHORT $LN16@assign@3
  00027	8b 08		 mov	 ecx, DWORD PTR [eax]
  00029	eb 02		 jmp	 SHORT $LN17@assign@3
$LN16@assign@3:
  0002b	8b c8		 mov	 ecx, eax
$LN17@assign@3:
  0002d	8b 7e 14	 mov	 edi, DWORD PTR [esi+20]
  00030	03 f9		 add	 edi, ecx
  00032	3b fd		 cmp	 edi, ebp
  00034	76 1d		 jbe	 SHORT $LN93@assign@3

; 1072 : 			return (assign(*this, _Ptr - _Myptr(), _Count));	// substring

  00036	83 fa 10	 cmp	 edx, 16			; 00000010H
  00039	72 02		 jb	 SHORT $LN20@assign@3
  0003b	8b 00		 mov	 eax, DWORD PTR [eax]
$LN20@assign@3:
  0003d	8b 4c 24 14	 mov	 ecx, DWORD PTR __Count$[esp+8]
  00041	51		 push	 ecx
  00042	2b e8		 sub	 ebp, eax
  00044	55		 push	 ebp
  00045	56		 push	 esi
  00046	8b ce		 mov	 ecx, esi
  00048	e8 00 00 00 00	 call	 ?assign@?$basic_string@DU?$char_traits@D@std@@V?$allocator@D@2@@std@@QAEAAV12@ABV12@II@Z ; std::basic_string<char,std::char_traits<char>,std::allocator<char> >::assign
  0004d	5f		 pop	 edi
  0004e	5e		 pop	 esi
  0004f	5d		 pop	 ebp

; 1080 : 		}

  00050	c2 08 00	 ret	 8
$LN93@assign@3:

; 1073 : 
; 1074 : 		if (_Grow(_Count))

  00053	8b 7c 24 14	 mov	 edi, DWORD PTR __Count$[esp+8]
  00057	83 ff fe	 cmp	 edi, -2			; fffffffeH
  0005a	76 05		 jbe	 SHORT $LN27@assign@3
  0005c	e8 00 00 00 00	 call	 ?_Xlen@_String_base@std@@SAXXZ ; std::_String_base::_Xlen
$LN27@assign@3:
  00061	8b 46 18	 mov	 eax, DWORD PTR [esi+24]
  00064	3b c7		 cmp	 eax, edi
  00066	73 20		 jae	 SHORT $LN26@assign@3
  00068	8b 56 14	 mov	 edx, DWORD PTR [esi+20]
  0006b	52		 push	 edx
  0006c	57		 push	 edi
  0006d	8b ce		 mov	 ecx, esi
  0006f	e8 00 00 00 00	 call	 ?_Copy@?$basic_string@DU?$char_traits@D@std@@V?$allocator@D@2@@std@@IAEXII@Z ; std::basic_string<char,std::char_traits<char>,std::allocator<char> >::_Copy
  00074	85 ff		 test	 edi, edi
$LN94@assign@3:
  00076	76 56		 jbe	 SHORT $LN90@assign@3

; 1075 : 			{	// make room and assign new stuff
; 1076 : 			_Traits_helper::copy_s<_Traits>(_Myptr(), _Myres, _Ptr, _Count);

  00078	8b 4e 18	 mov	 ecx, DWORD PTR [esi+24]
  0007b	53		 push	 ebx
  0007c	8d 5e 04	 lea	 ebx, DWORD PTR [esi+4]
  0007f	83 f9 10	 cmp	 ecx, 16			; 00000010H
  00082	72 2c		 jb	 SHORT $LN74@assign@3
  00084	8b 03		 mov	 eax, DWORD PTR [ebx]
  00086	eb 2a		 jmp	 SHORT $LN75@assign@3

; 1073 : 
; 1074 : 		if (_Grow(_Count))

$LN26@assign@3:
  00088	85 ff		 test	 edi, edi
  0008a	75 ea		 jne	 SHORT $LN94@assign@3
  0008c	89 7e 14	 mov	 DWORD PTR [esi+20], edi
  0008f	83 f8 10	 cmp	 eax, 16			; 00000010H
  00092	72 0e		 jb	 SHORT $LN68@assign@3
  00094	8b 46 04	 mov	 eax, DWORD PTR [esi+4]
  00097	5f		 pop	 edi
  00098	c6 00 00	 mov	 BYTE PTR [eax], 0

; 1078 : 			}
; 1079 : 		return (*this);

  0009b	8b c6		 mov	 eax, esi
  0009d	5e		 pop	 esi
  0009e	5d		 pop	 ebp

; 1080 : 		}

  0009f	c2 08 00	 ret	 8

; 1073 : 
; 1074 : 		if (_Grow(_Count))

$LN68@assign@3:
  000a2	8d 46 04	 lea	 eax, DWORD PTR [esi+4]
  000a5	5f		 pop	 edi
  000a6	c6 00 00	 mov	 BYTE PTR [eax], 0

; 1078 : 			}
; 1079 : 		return (*this);

  000a9	8b c6		 mov	 eax, esi
  000ab	5e		 pop	 esi
  000ac	5d		 pop	 ebp

; 1080 : 		}

  000ad	c2 08 00	 ret	 8

; 1075 : 			{	// make room and assign new stuff
; 1076 : 			_Traits_helper::copy_s<_Traits>(_Myptr(), _Myres, _Ptr, _Count);

$LN74@assign@3:
  000b0	8b c3		 mov	 eax, ebx
$LN75@assign@3:
  000b2	57		 push	 edi
  000b3	55		 push	 ebp
  000b4	51		 push	 ecx
  000b5	50		 push	 eax
  000b6	e8 00 00 00 00	 call	 _memcpy_s
  000bb	83 c4 10	 add	 esp, 16			; 00000010H

; 1077 : 			_Eos(_Count);

  000be	83 7e 18 10	 cmp	 DWORD PTR [esi+24], 16	; 00000010H
  000c2	89 7e 14	 mov	 DWORD PTR [esi+20], edi
  000c5	72 02		 jb	 SHORT $LN88@assign@3
  000c7	8b 1b		 mov	 ebx, DWORD PTR [ebx]
$LN88@assign@3:
  000c9	c6 04 3b 00	 mov	 BYTE PTR [ebx+edi], 0
  000cd	5b		 pop	 ebx
$LN90@assign@3:
  000ce	5f		 pop	 edi

; 1078 : 			}
; 1079 : 		return (*this);

  000cf	8b c6		 mov	 eax, esi
  000d1	5e		 pop	 esi
  000d2	5d		 pop	 ebp

; 1080 : 		}

  000d3	c2 08 00	 ret	 8
?assign@?$basic_string@DU?$char_traits@D@std@@V?$allocator@D@2@@std@@QAEAAV12@PBDI@Z ENDP ; std::basic_string<char,std::char_traits<char>,std::allocator<char> >::assign
; Function compile flags: /Ogtpy
_TEXT	ENDS
;	COMDAT ?assign@?$basic_string@DU?$char_traits@D@std@@V?$allocator@D@2@@std@@QAEAAV12@ABV12@@Z
_TEXT	SEGMENT
?assign@?$basic_string@DU?$char_traits@D@std@@V?$allocator@D@2@@std@@QAEAAV12@ABV12@@Z PROC ; std::basic_string<char,std::char_traits<char>,std::allocator<char> >::assign, COMDAT
; _this$ = ecx
; __Right$ = eax

; 1041 : 		return (assign(_Right, 0, npos));

  00000	6a ff		 push	 -1
  00002	6a 00		 push	 0
  00004	50		 push	 eax
  00005	e8 00 00 00 00	 call	 ?assign@?$basic_string@DU?$char_traits@D@std@@V?$allocator@D@2@@std@@QAEAAV12@ABV12@II@Z ; std::basic_string<char,std::char_traits<char>,std::allocator<char> >::assign

; 1042 : 		}

  0000a	c3		 ret	 0
?assign@?$basic_string@DU?$char_traits@D@std@@V?$allocator@D@2@@std@@QAEAAV12@ABV12@@Z ENDP ; std::basic_string<char,std::char_traits<char>,std::allocator<char> >::assign
; Function compile flags: /Ogtpy
_TEXT	ENDS
;	COMDAT ??_GOPSW@@QAEPAXI@Z
_TEXT	SEGMENT
??_GOPSW@@QAEPAXI@Z PROC				; OPSW::`scalar deleting destructor', COMDAT
; _this$ = eax
  00000	56		 push	 esi
  00001	8b f0		 mov	 esi, eax
  00003	e8 00 00 00 00	 call	 ??1OPSW@@QAE@XZ		; OPSW::~OPSW
  00008	56		 push	 esi
  00009	e8 00 00 00 00	 call	 ??3@YAXPAX@Z		; operator delete
  0000e	83 c4 04	 add	 esp, 4
  00011	8b c6		 mov	 eax, esi
  00013	5e		 pop	 esi
  00014	c3		 ret	 0
??_GOPSW@@QAEPAXI@Z ENDP				; OPSW::`scalar deleting destructor'
; Function compile flags: /Ogtpy
;	COMDAT ??0?$basic_string@DU?$char_traits@D@std@@V?$allocator@D@2@@std@@QAE@ABV01@@Z
_TEXT	SEGMENT
__Right$ = 8						; size = 4
??0?$basic_string@DU?$char_traits@D@std@@V?$allocator@D@2@@std@@QAE@ABV01@@Z PROC ; std::basic_string<char,std::char_traits<char>,std::allocator<char> >::basic_string<char,std::char_traits<char>,std::allocator<char> >, COMDAT
; _this$ = ecx

; 721  : 		{	// construct by copying _Right

  00000	56		 push	 esi

; 722  : 		_Tidy();

  00001	33 c0		 xor	 eax, eax
  00003	8b f1		 mov	 esi, ecx

; 723  : 		assign(_Right, 0, npos);

  00005	6a ff		 push	 -1
  00007	89 46 14	 mov	 DWORD PTR [esi+20], eax
  0000a	c7 46 18 0f 00
	00 00		 mov	 DWORD PTR [esi+24], 15	; 0000000fH
  00011	50		 push	 eax
  00012	88 46 04	 mov	 BYTE PTR [esi+4], al
  00015	8b 44 24 10	 mov	 eax, DWORD PTR __Right$[esp+8]
  00019	50		 push	 eax
  0001a	e8 00 00 00 00	 call	 ?assign@?$basic_string@DU?$char_traits@D@std@@V?$allocator@D@2@@std@@QAEAAV12@ABV12@II@Z ; std::basic_string<char,std::char_traits<char>,std::allocator<char> >::assign

; 724  : 		}

  0001f	8b c6		 mov	 eax, esi
  00021	5e		 pop	 esi
  00022	c2 04 00	 ret	 4
??0?$basic_string@DU?$char_traits@D@std@@V?$allocator@D@2@@std@@QAE@ABV01@@Z ENDP ; std::basic_string<char,std::char_traits<char>,std::allocator<char> >::basic_string<char,std::char_traits<char>,std::allocator<char> >
; Function compile flags: /Ogtpy
_TEXT	ENDS
;	COMDAT ?assign@?$basic_string@DU?$char_traits@D@std@@V?$allocator@D@2@@std@@QAEAAV12@PBD@Z
_TEXT	SEGMENT
__Ptr$ = 8						; size = 4
?assign@?$basic_string@DU?$char_traits@D@std@@V?$allocator@D@2@@std@@QAEAAV12@PBD@Z PROC ; std::basic_string<char,std::char_traits<char>,std::allocator<char> >::assign, COMDAT
; _this$ = ecx

; 1083 : 		{	// assign [_Ptr, <null>)

  00000	56		 push	 esi

; 1084 : 		_DEBUG_POINTER(_Ptr);
; 1085 : 		return (assign(_Ptr, _Traits::length(_Ptr)));

  00001	8b 74 24 08	 mov	 esi, DWORD PTR __Ptr$[esp]
  00005	8b c6		 mov	 eax, esi
  00007	57		 push	 edi
  00008	8d 78 01	 lea	 edi, DWORD PTR [eax+1]
  0000b	eb 03 8d 49 00	 npad	 5
$LL5@assign@4:
  00010	8a 10		 mov	 dl, BYTE PTR [eax]
  00012	40		 inc	 eax
  00013	84 d2		 test	 dl, dl
  00015	75 f9		 jne	 SHORT $LL5@assign@4
  00017	2b c7		 sub	 eax, edi
  00019	50		 push	 eax
  0001a	56		 push	 esi
  0001b	e8 00 00 00 00	 call	 ?assign@?$basic_string@DU?$char_traits@D@std@@V?$allocator@D@2@@std@@QAEAAV12@PBDI@Z ; std::basic_string<char,std::char_traits<char>,std::allocator<char> >::assign
  00020	5f		 pop	 edi
  00021	5e		 pop	 esi

; 1086 : 		}

  00022	c2 04 00	 ret	 4
?assign@?$basic_string@DU?$char_traits@D@std@@V?$allocator@D@2@@std@@QAEAAV12@PBD@Z ENDP ; std::basic_string<char,std::char_traits<char>,std::allocator<char> >::assign
_TEXT	ENDS
;	COMDAT xdata$x
; File c:\program files\microsoft visual studio 9.0\vc\include\iosfwd
xdata$x	SEGMENT
__unwindtable$??0runtime_error@std@@QAE@ABV?$basic_string@DU?$char_traits@D@std@@V?$allocator@D@2@@1@@Z DD 0ffffffffH
	DD	FLAT:__unwindfunclet$??0runtime_error@std@@QAE@ABV?$basic_string@DU?$char_traits@D@std@@V?$allocator@D@2@@1@@Z$0
__ehfuncinfo$??0runtime_error@std@@QAE@ABV?$basic_string@DU?$char_traits@D@std@@V?$allocator@D@2@@1@@Z DD 019930522H
	DD	01H
	DD	FLAT:__unwindtable$??0runtime_error@std@@QAE@ABV?$basic_string@DU?$char_traits@D@std@@V?$allocator@D@2@@1@@Z
	DD	2 DUP(00H)
	DD	2 DUP(00H)
	DD	00H
	DD	01H
; Function compile flags: /Ogtpy
; File c:\program files\microsoft visual studio 9.0\vc\include\stdexcept
xdata$x	ENDS
;	COMDAT ??0runtime_error@std@@QAE@ABV?$basic_string@DU?$char_traits@D@std@@V?$allocator@D@2@@1@@Z
_TEXT	SEGMENT
_this$ = -16						; size = 4
__$EHRec$ = -12						; size = 12
__Message$ = 8						; size = 4
??0runtime_error@std@@QAE@ABV?$basic_string@DU?$char_traits@D@std@@V?$allocator@D@2@@1@@Z PROC ; std::runtime_error::runtime_error, COMDAT
; _this$ = ecx

; 153  : 		{	// construct from message string

  00000	6a ff		 push	 -1
  00002	68 00 00 00 00	 push	 __ehhandler$??0runtime_error@std@@QAE@ABV?$basic_string@DU?$char_traits@D@std@@V?$allocator@D@2@@1@@Z
  00007	64 a1 00 00 00
	00		 mov	 eax, DWORD PTR fs:0
  0000d	50		 push	 eax
  0000e	51		 push	 ecx
  0000f	56		 push	 esi
  00010	a1 00 00 00 00	 mov	 eax, DWORD PTR ___security_cookie
  00015	33 c4		 xor	 eax, esp
  00017	50		 push	 eax
  00018	8d 44 24 0c	 lea	 eax, DWORD PTR __$EHRec$[esp+24]
  0001c	64 a3 00 00 00
	00		 mov	 DWORD PTR fs:0, eax
  00022	8b f1		 mov	 esi, ecx
  00024	89 74 24 08	 mov	 DWORD PTR _this$[esp+24], esi
  00028	e8 00 00 00 00	 call	 ??0exception@std@@QAE@XZ ; std::exception::exception
  0002d	33 c0		 xor	 eax, eax
  0002f	89 44 24 14	 mov	 DWORD PTR __$EHRec$[esp+32], eax
  00033	8d 4e 0c	 lea	 ecx, DWORD PTR [esi+12]
  00036	c7 06 00 00 00
	00		 mov	 DWORD PTR [esi], OFFSET ??_7runtime_error@std@@6B@
  0003c	6a ff		 push	 -1
  0003e	89 41 14	 mov	 DWORD PTR [ecx+20], eax
  00041	c7 41 18 0f 00
	00 00		 mov	 DWORD PTR [ecx+24], 15	; 0000000fH
  00048	50		 push	 eax
  00049	88 41 04	 mov	 BYTE PTR [ecx+4], al
  0004c	8b 44 24 24	 mov	 eax, DWORD PTR __Message$[esp+28]
  00050	50		 push	 eax
  00051	e8 00 00 00 00	 call	 ?assign@?$basic_string@DU?$char_traits@D@std@@V?$allocator@D@2@@std@@QAEAAV12@ABV12@II@Z ; std::basic_string<char,std::char_traits<char>,std::allocator<char> >::assign

; 154  : 		}

  00056	8b c6		 mov	 eax, esi
  00058	8b 4c 24 0c	 mov	 ecx, DWORD PTR __$EHRec$[esp+24]
  0005c	64 89 0d 00 00
	00 00		 mov	 DWORD PTR fs:0, ecx
  00063	59		 pop	 ecx
  00064	5e		 pop	 esi
  00065	83 c4 10	 add	 esp, 16			; 00000010H
  00068	c2 04 00	 ret	 4
_TEXT	ENDS
;	COMDAT text$x
text$x	SEGMENT
__unwindfunclet$??0runtime_error@std@@QAE@ABV?$basic_string@DU?$char_traits@D@std@@V?$allocator@D@2@@1@@Z$0:
  00000	8b 4d f0	 mov	 ecx, DWORD PTR _this$[ebp]
  00003	e9 00 00 00 00	 jmp	 ??1exception@std@@UAE@XZ ; std::exception::~exception
__ehhandler$??0runtime_error@std@@QAE@ABV?$basic_string@DU?$char_traits@D@std@@V?$allocator@D@2@@1@@Z:
  00008	8b 54 24 08	 mov	 edx, DWORD PTR [esp+8]
  0000c	8d 42 f8	 lea	 eax, DWORD PTR [edx-8]
  0000f	8b 4a f4	 mov	 ecx, DWORD PTR [edx-12]
  00012	33 c8		 xor	 ecx, eax
  00014	e8 00 00 00 00	 call	 @__security_check_cookie@4
  00019	b8 00 00 00 00	 mov	 eax, OFFSET __ehfuncinfo$??0runtime_error@std@@QAE@ABV?$basic_string@DU?$char_traits@D@std@@V?$allocator@D@2@@1@@Z
  0001e	e9 00 00 00 00	 jmp	 ___CxxFrameHandler3
text$x	ENDS
??0runtime_error@std@@QAE@ABV?$basic_string@DU?$char_traits@D@std@@V?$allocator@D@2@@1@@Z ENDP ; std::runtime_error::runtime_error
; Function compile flags: /Ogtpy
; File c:\program files\microsoft visual studio 9.0\vc\include\xlocale
;	COMDAT ?name@locale@std@@QBE?AV?$basic_string@DU?$char_traits@D@std@@V?$allocator@D@2@@2@XZ
_TEXT	SEGMENT
$T69045 = -4						; size = 4
___$ReturnUdt$ = 8					; size = 4
?name@locale@std@@QBE?AV?$basic_string@DU?$char_traits@D@std@@V?$allocator@D@2@@2@XZ PROC ; std::locale::name, COMDAT
; _this$ = ecx

; 407  : 		{	// return locale name

  00000	51		 push	 ecx

; 408  : 		return (_Ptr->_Name);

  00001	8b 01		 mov	 eax, DWORD PTR [ecx]
  00003	56		 push	 esi
  00004	8b 74 24 0c	 mov	 esi, DWORD PTR ___$ReturnUdt$[esp+4]
  00008	33 d2		 xor	 edx, edx
  0000a	6a ff		 push	 -1
  0000c	83 c0 18	 add	 eax, 24			; 00000018H
  0000f	52		 push	 edx
  00010	c7 46 18 0f 00
	00 00		 mov	 DWORD PTR [esi+24], 15	; 0000000fH
  00017	89 56 14	 mov	 DWORD PTR [esi+20], edx
  0001a	50		 push	 eax
  0001b	8b ce		 mov	 ecx, esi
  0001d	89 54 24 10	 mov	 DWORD PTR $T69045[esp+20], edx
  00021	88 56 04	 mov	 BYTE PTR [esi+4], dl
  00024	e8 00 00 00 00	 call	 ?assign@?$basic_string@DU?$char_traits@D@std@@V?$allocator@D@2@@std@@QAEAAV12@ABV12@II@Z ; std::basic_string<char,std::char_traits<char>,std::allocator<char> >::assign
  00029	8b c6		 mov	 eax, esi
  0002b	5e		 pop	 esi

; 409  : 		}

  0002c	59		 pop	 ecx
  0002d	c2 04 00	 ret	 4
?name@locale@std@@QBE?AV?$basic_string@DU?$char_traits@D@std@@V?$allocator@D@2@@2@XZ ENDP ; std::locale::name
_TEXT	ENDS
;	COMDAT xdata$x
; File c:\program files\microsoft visual studio 9.0\vc\include\iosfwd
xdata$x	SEGMENT
__unwindtable$?_Getcat@?$numpunct@D@std@@SAIPAPBVfacet@locale@2@PBV42@@Z DD 0ffffffffH
	DD	FLAT:__unwindfunclet$?_Getcat@?$numpunct@D@std@@SAIPAPBVfacet@locale@2@PBV42@@Z$0
	DD	00H
	DD	FLAT:__unwindfunclet$?_Getcat@?$numpunct@D@std@@SAIPAPBVfacet@locale@2@PBV42@@Z$1
	DD	01H
	DD	FLAT:__unwindfunclet$?_Getcat@?$numpunct@D@std@@SAIPAPBVfacet@locale@2@PBV42@@Z$2
	DD	0ffffffffH
	DD	FLAT:__unwindfunclet$?_Getcat@?$numpunct@D@std@@SAIPAPBVfacet@locale@2@PBV42@@Z$1
	DD	03H
	DD	FLAT:__unwindfunclet$?_Getcat@?$numpunct@D@std@@SAIPAPBVfacet@locale@2@PBV42@@Z$2
__ehfuncinfo$?_Getcat@?$numpunct@D@std@@SAIPAPBVfacet@locale@2@PBV42@@Z DD 019930522H
	DD	05H
	DD	FLAT:__unwindtable$?_Getcat@?$numpunct@D@std@@SAIPAPBVfacet@locale@2@PBV42@@Z
	DD	2 DUP(00H)
	DD	2 DUP(00H)
	DD	00H
	DD	01H
; Function compile flags: /Ogtpy
; File c:\program files\microsoft visual studio 9.0\vc\include\xlocnum
xdata$x	ENDS
;	COMDAT ?_Getcat@?$numpunct@D@std@@SAIPAPBVfacet@locale@2@PBV42@@Z
_TEXT	SEGMENT
$T69168 = -164						; size = 4
$T69162 = -160						; size = 4
$T69164 = -156						; size = 28
$T69163 = -128						; size = 116
__$EHRec$ = -12						; size = 12
__Ploc$ = 8						; size = 4
?_Getcat@?$numpunct@D@std@@SAIPAPBVfacet@locale@2@PBV42@@Z PROC ; std::numpunct<char>::_Getcat, COMDAT
; __Ppf$ = edi

; 112  : 		{	// return locale category mask and construct standard facet

  00000	6a ff		 push	 -1
  00002	68 00 00 00 00	 push	 __ehhandler$?_Getcat@?$numpunct@D@std@@SAIPAPBVfacet@locale@2@PBV42@@Z
  00007	64 a1 00 00 00
	00		 mov	 eax, DWORD PTR fs:0
  0000d	50		 push	 eax
  0000e	81 ec 98 00 00
	00		 sub	 esp, 152		; 00000098H
  00014	53		 push	 ebx
  00015	56		 push	 esi
  00016	a1 00 00 00 00	 mov	 eax, DWORD PTR ___security_cookie
  0001b	33 c4		 xor	 eax, esp
  0001d	50		 push	 eax
  0001e	8d 84 24 a4 00
	00 00		 lea	 eax, DWORD PTR __$EHRec$[esp+176]
  00025	64 a3 00 00 00
	00		 mov	 DWORD PTR fs:0, eax

; 114  : 			*_Ppf = _NEW_CRT numpunct<_Elem>(
; 115  : 				_Locinfo(_Ploc->name()), 0, true);

  0002b	33 db		 xor	 ebx, ebx
  0002d	89 5c 24 0c	 mov	 DWORD PTR $T69168[esp+176], ebx
  00031	3b fb		 cmp	 edi, ebx
  00033	0f 84 a7 00 00
	00		 je	 $LN42@Getcat

; 113  : 		if (_Ppf != 0 && *_Ppf == 0)

  00039	39 1f		 cmp	 DWORD PTR [edi], ebx
  0003b	0f 85 9f 00 00
	00		 jne	 $LN42@Getcat

; 114  : 			*_Ppf = _NEW_CRT numpunct<_Elem>(
; 115  : 				_Locinfo(_Ploc->name()), 0, true);

  00041	6a 18		 push	 24			; 00000018H
  00043	e8 00 00 00 00	 call	 ??2@YAPAXI@Z		; operator new
  00048	8b f0		 mov	 esi, eax
  0004a	83 c4 04	 add	 esp, 4
  0004d	89 74 24 10	 mov	 DWORD PTR $T69162[esp+176], esi
  00051	89 9c 24 ac 00
	00 00		 mov	 DWORD PTR __$EHRec$[esp+184], ebx
  00058	3b f3		 cmp	 esi, ebx
  0005a	74 47		 je	 SHORT $LN4@Getcat
  0005c	8b 8c 24 b4 00
	00 00		 mov	 ecx, DWORD PTR __Ploc$[esp+172]
  00063	8d 44 24 14	 lea	 eax, DWORD PTR $T69164[esp+176]
  00067	50		 push	 eax
  00068	e8 00 00 00 00	 call	 ?name@locale@std@@QBE?AV?$basic_string@DU?$char_traits@D@std@@V?$allocator@D@2@@2@XZ ; std::locale::name
  0006d	c6 84 24 ac 00
	00 00 01	 mov	 BYTE PTR __$EHRec$[esp+184], 1
  00075	50		 push	 eax
  00076	8d 4c 24 34	 lea	 ecx, DWORD PTR $T69163[esp+180]
  0007a	c7 44 24 10 01
	00 00 00	 mov	 DWORD PTR $T69168[esp+180], 1
  00082	e8 00 00 00 00	 call	 ??0_Locinfo@std@@QAE@ABV?$basic_string@DU?$char_traits@D@std@@V?$allocator@D@2@@1@@Z ; std::_Locinfo::_Locinfo
  00087	c7 84 24 ac 00
	00 00 02 00 00
	00		 mov	 DWORD PTR __$EHRec$[esp+184], 2
  00092	bb 03 00 00 00	 mov	 ebx, 3
  00097	56		 push	 esi
  00098	89 5c 24 10	 mov	 DWORD PTR $T69168[esp+180], ebx
  0009c	e8 00 00 00 00	 call	 ??0?$numpunct@D@std@@QAE@ABV_Locinfo@1@I_N@Z ; std::numpunct<char>::numpunct<char>
  000a1	eb 02		 jmp	 SHORT $LN5@Getcat
$LN4@Getcat:
  000a3	33 c0		 xor	 eax, eax
$LN5@Getcat:
  000a5	89 07		 mov	 DWORD PTR [edi], eax
  000a7	c7 84 24 ac 00
	00 00 03 00 00
	00		 mov	 DWORD PTR __$EHRec$[esp+184], 3
  000b2	f6 c3 02	 test	 bl, 2
  000b5	74 10		 je	 SHORT $LN11@Getcat
  000b7	83 e3 fd	 and	 ebx, -3			; fffffffdH
  000ba	8d 4c 24 30	 lea	 ecx, DWORD PTR $T69163[esp+176]
  000be	89 5c 24 0c	 mov	 DWORD PTR $T69168[esp+176], ebx
  000c2	e8 00 00 00 00	 call	 ??1_Locinfo@std@@QAE@XZ	; std::_Locinfo::~_Locinfo
$LN11@Getcat:
  000c7	f6 c3 01	 test	 bl, 1
  000ca	74 14		 je	 SHORT $LN42@Getcat
  000cc	83 7c 24 2c 10	 cmp	 DWORD PTR $T69164[esp+200], 16 ; 00000010H
  000d1	72 0d		 jb	 SHORT $LN42@Getcat
  000d3	8b 4c 24 18	 mov	 ecx, DWORD PTR $T69164[esp+180]
  000d7	51		 push	 ecx
  000d8	e8 00 00 00 00	 call	 ??3@YAXPAX@Z		; operator delete
  000dd	83 c4 04	 add	 esp, 4
$LN42@Getcat:

; 116  : 		return (_X_NUMERIC);

  000e0	b8 04 00 00 00	 mov	 eax, 4

; 117  : 		}

  000e5	8b 8c 24 a4 00
	00 00		 mov	 ecx, DWORD PTR __$EHRec$[esp+176]
  000ec	64 89 0d 00 00
	00 00		 mov	 DWORD PTR fs:0, ecx
  000f3	59		 pop	 ecx
  000f4	5e		 pop	 esi
  000f5	5b		 pop	 ebx
  000f6	81 c4 a4 00 00
	00		 add	 esp, 164		; 000000a4H
  000fc	c3		 ret	 0
_TEXT	ENDS
;	COMDAT text$x
text$x	SEGMENT
__unwindfunclet$?_Getcat@?$numpunct@D@std@@SAIPAPBVfacet@locale@2@PBV42@@Z$0:
  00000	8b 85 60 ff ff
	ff		 mov	 eax, DWORD PTR $T69162[ebp]
  00006	50		 push	 eax
  00007	e8 00 00 00 00	 call	 ??3@YAXPAX@Z		; operator delete
  0000c	59		 pop	 ecx
  0000d	c3		 ret	 0
__unwindfunclet$?_Getcat@?$numpunct@D@std@@SAIPAPBVfacet@locale@2@PBV42@@Z$1:
  0000e	8b 85 5c ff ff
	ff		 mov	 eax, DWORD PTR $T69168[ebp]
  00014	83 e0 01	 and	 eax, 1
  00017	0f 84 12 00 00
	00		 je	 $LN8@Getcat
  0001d	83 a5 5c ff ff
	ff fe		 and	 DWORD PTR $T69168[ebp], -2 ; fffffffeH
  00024	8d 8d 64 ff ff
	ff		 lea	 ecx, DWORD PTR $T69164[ebp]
  0002a	e9 00 00 00 00	 jmp	 ??1?$basic_string@DU?$char_traits@D@std@@V?$allocator@D@2@@std@@QAE@XZ ; std::basic_string<char,std::char_traits<char>,std::allocator<char> >::~basic_string<char,std::char_traits<char>,std::allocator<char> >
$LN8@Getcat:
  0002f	c3		 ret	 0
__unwindfunclet$?_Getcat@?$numpunct@D@std@@SAIPAPBVfacet@locale@2@PBV42@@Z$2:
  00030	8b 85 5c ff ff
	ff		 mov	 eax, DWORD PTR $T69168[ebp]
  00036	83 e0 02	 and	 eax, 2
  00039	0f 84 0f 00 00
	00		 je	 $LN10@Getcat
  0003f	83 a5 5c ff ff
	ff fd		 and	 DWORD PTR $T69168[ebp], -3 ; fffffffdH
  00046	8d 4d 80	 lea	 ecx, DWORD PTR $T69163[ebp]
  00049	e9 00 00 00 00	 jmp	 ??1_Locinfo@std@@QAE@XZ	; std::_Locinfo::~_Locinfo
$LN10@Getcat:
  0004e	c3		 ret	 0
__ehhandler$?_Getcat@?$numpunct@D@std@@SAIPAPBVfacet@locale@2@PBV42@@Z:
  0004f	8b 54 24 08	 mov	 edx, DWORD PTR [esp+8]
  00053	8d 82 60 ff ff
	ff		 lea	 eax, DWORD PTR [edx-160]
  00059	8b 8a 5c ff ff
	ff		 mov	 ecx, DWORD PTR [edx-164]
  0005f	33 c8		 xor	 ecx, eax
  00061	e8 00 00 00 00	 call	 @__security_check_cookie@4
  00066	b8 00 00 00 00	 mov	 eax, OFFSET __ehfuncinfo$?_Getcat@?$numpunct@D@std@@SAIPAPBVfacet@locale@2@PBV42@@Z
  0006b	e9 00 00 00 00	 jmp	 ___CxxFrameHandler3
text$x	ENDS
?_Getcat@?$numpunct@D@std@@SAIPAPBVfacet@locale@2@PBV42@@Z ENDP ; std::numpunct<char>::_Getcat
;	COMDAT xdata$x
; File c:\program files\microsoft visual studio 9.0\vc\include\iosfwd
xdata$x	SEGMENT
__unwindtable$?_Getcat@?$num_put@DV?$ostreambuf_iterator@DU?$char_traits@D@std@@@std@@@std@@SAIPAPBVfacet@locale@2@PBV42@@Z DD 0ffffffffH
	DD	FLAT:__unwindfunclet$?_Getcat@?$num_put@DV?$ostreambuf_iterator@DU?$char_traits@D@std@@@std@@@std@@SAIPAPBVfacet@locale@2@PBV42@@Z$0
	DD	00H
	DD	FLAT:__unwindfunclet$?_Getcat@?$num_put@DV?$ostreambuf_iterator@DU?$char_traits@D@std@@@std@@@std@@SAIPAPBVfacet@locale@2@PBV42@@Z$1
	DD	0ffffffffH
	DD	FLAT:__unwindfunclet$?_Getcat@?$num_put@DV?$ostreambuf_iterator@DU?$char_traits@D@std@@@std@@@std@@SAIPAPBVfacet@locale@2@PBV42@@Z$1
__ehfuncinfo$?_Getcat@?$num_put@DV?$ostreambuf_iterator@DU?$char_traits@D@std@@@std@@@std@@SAIPAPBVfacet@locale@2@PBV42@@Z DD 019930522H
	DD	03H
	DD	FLAT:__unwindtable$?_Getcat@?$num_put@DV?$ostreambuf_iterator@DU?$char_traits@D@std@@@std@@@std@@SAIPAPBVfacet@locale@2@PBV42@@Z
	DD	2 DUP(00H)
	DD	2 DUP(00H)
	DD	00H
	DD	01H
; Function compile flags: /Ogtpy
; File c:\program files\microsoft visual studio 9.0\vc\include\xlocnum
xdata$x	ENDS
;	COMDAT ?_Getcat@?$num_put@DV?$ostreambuf_iterator@DU?$char_traits@D@std@@@std@@@std@@SAIPAPBVfacet@locale@2@PBV42@@Z
_TEXT	SEGMENT
$T69305 = -164						; size = 4
$T69299 = -160						; size = 4
$T69301 = -156						; size = 28
$T69300 = -128						; size = 116
__$EHRec$ = -12						; size = 12
__Ppf$ = 8						; size = 4
__Ploc$ = 12						; size = 4
?_Getcat@?$num_put@DV?$ostreambuf_iterator@DU?$char_traits@D@std@@@std@@@std@@SAIPAPBVfacet@locale@2@PBV42@@Z PROC ; std::num_put<char,std::ostreambuf_iterator<char,std::char_traits<char> > >::_Getcat, COMDAT

; 1033 : 		{	// return locale category mask and construct standard facet

  00000	6a ff		 push	 -1
  00002	68 00 00 00 00	 push	 __ehhandler$?_Getcat@?$num_put@DV?$ostreambuf_iterator@DU?$char_traits@D@std@@@std@@@std@@SAIPAPBVfacet@locale@2@PBV42@@Z
  00007	64 a1 00 00 00
	00		 mov	 eax, DWORD PTR fs:0
  0000d	50		 push	 eax
  0000e	81 ec 98 00 00
	00		 sub	 esp, 152		; 00000098H
  00014	53		 push	 ebx
  00015	55		 push	 ebp
  00016	56		 push	 esi
  00017	a1 00 00 00 00	 mov	 eax, DWORD PTR ___security_cookie
  0001c	33 c4		 xor	 eax, esp
  0001e	50		 push	 eax
  0001f	8d 84 24 a8 00
	00 00		 lea	 eax, DWORD PTR __$EHRec$[esp+180]
  00026	64 a3 00 00 00
	00		 mov	 DWORD PTR fs:0, eax
  0002c	8b ac 24 b8 00
	00 00		 mov	 ebp, DWORD PTR __Ppf$[esp+176]
  00033	33 db		 xor	 ebx, ebx

; 1034 : 		if (_Ppf != 0 && *_Ppf == 0)

  00035	89 5c 24 10	 mov	 DWORD PTR $T69305[esp+180], ebx
  00039	85 ed		 test	 ebp, ebp
  0003b	0f 84 ac 00 00
	00		 je	 $LN50@Getcat@2
  00041	39 5d 00	 cmp	 DWORD PTR [ebp], ebx
  00044	0f 85 a3 00 00
	00		 jne	 $LN50@Getcat@2

; 1035 : 			*_Ppf = _NEW_CRT num_put<_Elem, _OutIt>(
; 1036 : 				_Locinfo(_Ploc->name()));

  0004a	6a 10		 push	 16			; 00000010H
  0004c	e8 00 00 00 00	 call	 ??2@YAPAXI@Z		; operator new
  00051	8b f0		 mov	 esi, eax
  00053	83 c4 04	 add	 esp, 4
  00056	89 74 24 14	 mov	 DWORD PTR $T69299[esp+180], esi
  0005a	89 9c 24 b0 00
	00 00		 mov	 DWORD PTR __$EHRec$[esp+188], ebx
  00061	85 f6		 test	 esi, esi
  00063	74 4a		 je	 SHORT $LN4@Getcat@2
  00065	8b 8c 24 bc 00
	00 00		 mov	 ecx, DWORD PTR __Ploc$[esp+176]
  0006c	8d 44 24 18	 lea	 eax, DWORD PTR $T69301[esp+180]
  00070	50		 push	 eax
  00071	e8 00 00 00 00	 call	 ?name@locale@std@@QBE?AV?$basic_string@DU?$char_traits@D@std@@V?$allocator@D@2@@2@XZ ; std::locale::name
  00076	c6 84 24 b0 00
	00 00 01	 mov	 BYTE PTR __$EHRec$[esp+188], 1
  0007e	50		 push	 eax
  0007f	8d 4c 24 38	 lea	 ecx, DWORD PTR $T69300[esp+184]
  00083	c7 44 24 14 01
	00 00 00	 mov	 DWORD PTR $T69305[esp+184], 1
  0008b	e8 00 00 00 00	 call	 ??0_Locinfo@std@@QAE@ABV?$basic_string@DU?$char_traits@D@std@@V?$allocator@D@2@@1@@Z ; std::_Locinfo::_Locinfo
  00090	bb 03 00 00 00	 mov	 ebx, 3
  00095	c7 46 04 00 00
	00 00		 mov	 DWORD PTR [esi+4], 0
  0009c	c7 06 00 00 00
	00		 mov	 DWORD PTR [esi], OFFSET ??_7?$num_put@DV?$ostreambuf_iterator@DU?$char_traits@D@std@@@std@@@std@@6B@
  000a2	e8 00 00 00 00	 call	 __Getcvt
  000a7	89 46 08	 mov	 DWORD PTR [esi+8], eax
  000aa	89 56 0c	 mov	 DWORD PTR [esi+12], edx
  000ad	eb 02		 jmp	 SHORT $LN5@Getcat@2
$LN4@Getcat@2:
  000af	33 f6		 xor	 esi, esi
$LN5@Getcat@2:
  000b1	c7 84 24 b0 00
	00 00 02 00 00
	00		 mov	 DWORD PTR __$EHRec$[esp+188], 2
  000bc	89 75 00	 mov	 DWORD PTR [ebp], esi
  000bf	f6 c3 02	 test	 bl, 2
  000c2	74 10		 je	 SHORT $LN11@Getcat@2
  000c4	83 e3 fd	 and	 ebx, -3			; fffffffdH
  000c7	8d 4c 24 34	 lea	 ecx, DWORD PTR $T69300[esp+180]
  000cb	89 5c 24 10	 mov	 DWORD PTR $T69305[esp+180], ebx
  000cf	e8 00 00 00 00	 call	 ??1_Locinfo@std@@QAE@XZ	; std::_Locinfo::~_Locinfo
$LN11@Getcat@2:
  000d4	f6 c3 01	 test	 bl, 1
  000d7	74 14		 je	 SHORT $LN50@Getcat@2
  000d9	83 7c 24 30 10	 cmp	 DWORD PTR $T69301[esp+204], 16 ; 00000010H
  000de	72 0d		 jb	 SHORT $LN50@Getcat@2
  000e0	8b 4c 24 1c	 mov	 ecx, DWORD PTR $T69301[esp+184]
  000e4	51		 push	 ecx
  000e5	e8 00 00 00 00	 call	 ??3@YAXPAX@Z		; operator delete
  000ea	83 c4 04	 add	 esp, 4
$LN50@Getcat@2:

; 1037 : 		return (_X_NUMERIC);

  000ed	b8 04 00 00 00	 mov	 eax, 4

; 1038 : 		}

  000f2	8b 8c 24 a8 00
	00 00		 mov	 ecx, DWORD PTR __$EHRec$[esp+180]
  000f9	64 89 0d 00 00
	00 00		 mov	 DWORD PTR fs:0, ecx
  00100	59		 pop	 ecx
  00101	5e		 pop	 esi
  00102	5d		 pop	 ebp
  00103	5b		 pop	 ebx
  00104	81 c4 a4 00 00
	00		 add	 esp, 164		; 000000a4H
  0010a	c3		 ret	 0
_TEXT	ENDS
;	COMDAT text$x
text$x	SEGMENT
__unwindfunclet$?_Getcat@?$num_put@DV?$ostreambuf_iterator@DU?$char_traits@D@std@@@std@@@std@@SAIPAPBVfacet@locale@2@PBV42@@Z$0:
  00000	8b 85 60 ff ff
	ff		 mov	 eax, DWORD PTR $T69299[ebp]
  00006	50		 push	 eax
  00007	e8 00 00 00 00	 call	 ??3@YAXPAX@Z		; operator delete
  0000c	59		 pop	 ecx
  0000d	c3		 ret	 0
__unwindfunclet$?_Getcat@?$num_put@DV?$ostreambuf_iterator@DU?$char_traits@D@std@@@std@@@std@@SAIPAPBVfacet@locale@2@PBV42@@Z$1:
  0000e	8b 85 5c ff ff
	ff		 mov	 eax, DWORD PTR $T69305[ebp]
  00014	83 e0 01	 and	 eax, 1
  00017	0f 84 12 00 00
	00		 je	 $LN8@Getcat@2
  0001d	83 a5 5c ff ff
	ff fe		 and	 DWORD PTR $T69305[ebp], -2 ; fffffffeH
  00024	8d 8d 64 ff ff
	ff		 lea	 ecx, DWORD PTR $T69301[ebp]
  0002a	e9 00 00 00 00	 jmp	 ??1?$basic_string@DU?$char_traits@D@std@@V?$allocator@D@2@@std@@QAE@XZ ; std::basic_string<char,std::char_traits<char>,std::allocator<char> >::~basic_string<char,std::char_traits<char>,std::allocator<char> >
$LN8@Getcat@2:
  0002f	c3		 ret	 0
__ehhandler$?_Getcat@?$num_put@DV?$ostreambuf_iterator@DU?$char_traits@D@std@@@std@@@std@@SAIPAPBVfacet@locale@2@PBV42@@Z:
  00030	8b 54 24 08	 mov	 edx, DWORD PTR [esp+8]
  00034	8d 82 5c ff ff
	ff		 lea	 eax, DWORD PTR [edx-164]
  0003a	8b 8a 58 ff ff
	ff		 mov	 ecx, DWORD PTR [edx-168]
  00040	33 c8		 xor	 ecx, eax
  00042	e8 00 00 00 00	 call	 @__security_check_cookie@4
  00047	b8 00 00 00 00	 mov	 eax, OFFSET __ehfuncinfo$?_Getcat@?$num_put@DV?$ostreambuf_iterator@DU?$char_traits@D@std@@@std@@@std@@SAIPAPBVfacet@locale@2@PBV42@@Z
  0004c	e9 00 00 00 00	 jmp	 ___CxxFrameHandler3
text$x	ENDS
?_Getcat@?$num_put@DV?$ostreambuf_iterator@DU?$char_traits@D@std@@@std@@@std@@SAIPAPBVfacet@locale@2@PBV42@@Z ENDP ; std::num_put<char,std::ostreambuf_iterator<char,std::char_traits<char> > >::_Getcat
;	COMDAT xdata$x
; File c:\program files\microsoft visual studio 9.0\vc\include\xlocale
xdata$x	SEGMENT
__unwindtable$??$use_facet@V?$numpunct@D@std@@@std@@YAABV?$numpunct@D@0@ABVlocale@0@@Z DD 0ffffffffH
	DD	FLAT:__unwindfunclet$??$use_facet@V?$numpunct@D@std@@@std@@YAABV?$numpunct@D@0@ABVlocale@0@@Z$0
__ehfuncinfo$??$use_facet@V?$numpunct@D@std@@@std@@YAABV?$numpunct@D@0@ABVlocale@0@@Z DD 019930522H
	DD	01H
	DD	FLAT:__unwindtable$??$use_facet@V?$numpunct@D@std@@@std@@YAABV?$numpunct@D@0@ABVlocale@0@@Z
	DD	2 DUP(00H)
	DD	2 DUP(00H)
	DD	00H
	DD	01H
; Function compile flags: /Ogtpy
xdata$x	ENDS
;	COMDAT ??$use_facet@V?$numpunct@D@std@@@std@@YAABV?$numpunct@D@0@ABVlocale@0@@Z
_TEXT	SEGMENT
__Psave$40163 = -36					; size = 4
__Lock$69469 = -32					; size = 4
__Lock$69491 = -32					; size = 4
__Lock$40162 = -28					; size = 4
$T69462 = -24						; size = 12
__$EHRec$ = -12						; size = 12
??$use_facet@V?$numpunct@D@std@@@std@@YAABV?$numpunct@D@0@ABVlocale@0@@Z PROC ; std::use_facet<std::numpunct<char> >, COMDAT
; __Loc$ = ecx

; 486  : {	// get facet reference from locale

  00000	6a ff		 push	 -1
  00002	68 00 00 00 00	 push	 __ehhandler$??$use_facet@V?$numpunct@D@std@@@std@@YAABV?$numpunct@D@0@ABVlocale@0@@Z
  00007	64 a1 00 00 00
	00		 mov	 eax, DWORD PTR fs:0
  0000d	50		 push	 eax
  0000e	83 ec 18	 sub	 esp, 24			; 00000018H
  00011	53		 push	 ebx
  00012	56		 push	 esi
  00013	57		 push	 edi
  00014	a1 00 00 00 00	 mov	 eax, DWORD PTR ___security_cookie
  00019	33 c4		 xor	 eax, esp
  0001b	50		 push	 eax
  0001c	8d 44 24 28	 lea	 eax, DWORD PTR __$EHRec$[esp+52]
  00020	64 a3 00 00 00
	00		 mov	 DWORD PTR fs:0, eax
  00026	8b f9		 mov	 edi, ecx

; 487  : 	_BEGIN_LOCK(_LOCK_LOCALE)	// the thread lock, make get atomic

  00028	6a 00		 push	 0
  0002a	8d 4c 24 1c	 lea	 ecx, DWORD PTR __Lock$40162[esp+56]
  0002e	e8 00 00 00 00	 call	 ??0_Lockit@std@@QAE@H@Z	; std::_Lockit::_Lockit
  00033	c7 44 24 30 00
	00 00 00	 mov	 DWORD PTR __$EHRec$[esp+60], 0

; 488  : 		const locale::facet *_Psave =
; 489  : 			_Facetptr<_Facet>::_Psave;	// static pointer to lazy facet
; 490  : 
; 491  : 		size_t _Id = _Facet::id;

  0003b	83 3d 00 00 00
	00 00		 cmp	 DWORD PTR ?id@?$numpunct@D@std@@2V0locale@2@A, 0 ; std::numpunct<char>::id
  00042	8b 1d 00 00 00
	00		 mov	 ebx, DWORD PTR ?_Psave@?$_Facetptr@V?$numpunct@D@std@@@std@@2PBVfacet@locale@2@B ; std::_Facetptr<std::numpunct<char> >::_Psave
  00048	89 5c 24 10	 mov	 DWORD PTR __Psave$40163[esp+52], ebx
  0004c	75 2d		 jne	 SHORT $LN11@use_facet
  0004e	6a 00		 push	 0
  00050	8d 4c 24 18	 lea	 ecx, DWORD PTR __Lock$69469[esp+56]
  00054	e8 00 00 00 00	 call	 ??0_Lockit@std@@QAE@H@Z	; std::_Lockit::_Lockit
  00059	83 3d 00 00 00
	00 00		 cmp	 DWORD PTR ?id@?$numpunct@D@std@@2V0locale@2@A, 0 ; std::numpunct<char>::id
  00060	75 10		 jne	 SHORT $LN10@use_facet
  00062	a1 00 00 00 00	 mov	 eax, DWORD PTR ?_Id_cnt@id@locale@std@@0HA ; std::locale::id::_Id_cnt
  00067	40		 inc	 eax
  00068	a3 00 00 00 00	 mov	 DWORD PTR ?_Id_cnt@id@locale@std@@0HA, eax ; std::locale::id::_Id_cnt
  0006d	a3 00 00 00 00	 mov	 DWORD PTR ?id@?$numpunct@D@std@@2V0locale@2@A, eax ; std::numpunct<char>::id
$LN10@use_facet:
  00072	8d 4c 24 14	 lea	 ecx, DWORD PTR __Lock$69469[esp+52]
  00076	e8 00 00 00 00	 call	 ??1_Lockit@std@@QAE@XZ	; std::_Lockit::~_Lockit
$LN11@use_facet:
  0007b	8b 35 00 00 00
	00		 mov	 esi, DWORD PTR ?id@?$numpunct@D@std@@2V0locale@2@A ; std::numpunct<char>::id

; 492  : 		const locale::facet *_Pf = _Loc._Getfacet(_Id);

  00081	8b 07		 mov	 eax, DWORD PTR [edi]
  00083	3b 70 0c	 cmp	 esi, DWORD PTR [eax+12]
  00086	73 22		 jae	 SHORT $LN20@use_facet
  00088	8b 48 08	 mov	 ecx, DWORD PTR [eax+8]
  0008b	8b 0c b1	 mov	 ecx, DWORD PTR [ecx+esi*4]
  0008e	85 c9		 test	 ecx, ecx
  00090	75 1c		 jne	 SHORT $LN16@use_facet
$LN30@use_facet:
  00092	80 78 14 00	 cmp	 BYTE PTR [eax+20], 0
  00096	74 16		 je	 SHORT $LN16@use_facet
  00098	e8 00 00 00 00	 call	 ?_Getgloballocale@locale@std@@CAPAV_Locimp@12@XZ ; std::locale::_Getgloballocale
  0009d	3b 70 0c	 cmp	 esi, DWORD PTR [eax+12]
  000a0	73 12		 jae	 SHORT $LN31@use_facet
  000a2	8b 50 08	 mov	 edx, DWORD PTR [eax+8]
  000a5	8b 34 b2	 mov	 esi, DWORD PTR [edx+esi*4]
  000a8	eb 06		 jmp	 SHORT $LN15@use_facet
$LN20@use_facet:
  000aa	33 c9		 xor	 ecx, ecx
  000ac	eb e4		 jmp	 SHORT $LN30@use_facet
$LN16@use_facet:
  000ae	8b f1		 mov	 esi, ecx
$LN15@use_facet:

; 493  : 
; 494  : 		if (_Pf != 0)

  000b0	85 f6		 test	 esi, esi
  000b2	75 6a		 jne	 SHORT $LN28@use_facet
$LN31@use_facet:

; 495  : 			;	// got facet from locale
; 496  : 		else if (_Psave != 0)

  000b4	85 db		 test	 ebx, ebx
  000b6	74 04		 je	 SHORT $LN4@use_facet

; 497  : 			_Pf = _Psave;	// lazy facet already allocated

  000b8	8b f3		 mov	 esi, ebx
  000ba	eb 62		 jmp	 SHORT $LN28@use_facet
$LN4@use_facet:

; 498  : 		else if (_Facet::_Getcat(&_Psave, &_Loc) == (size_t)(-1))

  000bc	57		 push	 edi
  000bd	8d 7c 24 14	 lea	 edi, DWORD PTR __Psave$40163[esp+56]
  000c1	e8 00 00 00 00	 call	 ?_Getcat@?$numpunct@D@std@@SAIPAPBVfacet@locale@2@PBV42@@Z ; std::numpunct<char>::_Getcat
  000c6	83 c4 04	 add	 esp, 4
  000c9	83 f8 ff	 cmp	 eax, -1
  000cc	75 1d		 jne	 SHORT $LN2@use_facet

; 499  : 
; 500  :  #if _HAS_EXCEPTIONS
; 501  : 		_THROW_NCEE(bad_cast, _EMPTY_ARGUMENT);	// lazy disallowed

  000ce	68 00 00 00 00	 push	 OFFSET ??_C@_08EPJLHIJG@bad?5cast?$AA@
  000d3	8d 4c 24 20	 lea	 ecx, DWORD PTR $T69462[esp+56]
  000d7	e8 00 00 00 00	 call	 ??0bad_cast@std@@QAE@PBD@Z ; std::bad_cast::bad_cast
  000dc	68 00 00 00 00	 push	 OFFSET __TI2?AVbad_cast@std@@
  000e1	8d 44 24 20	 lea	 eax, DWORD PTR $T69462[esp+56]
  000e5	50		 push	 eax
  000e6	e8 00 00 00 00	 call	 __CxxThrowException@8
$LN34@use_facet:
$LN2@use_facet:

; 502  : 
; 503  : 	#else /* _HAS_EXCEPTIONS */
; 504  : 			abort();	// lazy disallowed
; 505  : 	#endif /* _HAS_EXCEPTIONS */
; 506  : 
; 507  : 		else
; 508  : 			{	// queue up lazy facet for destruction
; 509  : 			_Pf = _Psave;

  000eb	8b 74 24 10	 mov	 esi, DWORD PTR __Psave$40163[esp+52]

; 510  : 			_Facetptr<_Facet>::_Psave = _Psave;
; 511  : 
; 512  : 			locale::facet *_Pfmod = (_Facet *)_Psave;
; 513  : 			_Pfmod->_Incref();

  000ef	6a 00		 push	 0
  000f1	8d 4c 24 18	 lea	 ecx, DWORD PTR __Lock$69491[esp+56]
  000f5	89 35 00 00 00
	00		 mov	 DWORD PTR ?_Psave@?$_Facetptr@V?$numpunct@D@std@@@std@@2PBVfacet@locale@2@B, esi ; std::_Facetptr<std::numpunct<char> >::_Psave
  000fb	e8 00 00 00 00	 call	 ??0_Lockit@std@@QAE@H@Z	; std::_Lockit::_Lockit
  00100	8b 46 04	 mov	 eax, DWORD PTR [esi+4]
  00103	83 f8 ff	 cmp	 eax, -1
  00106	73 04		 jae	 SHORT $LN24@use_facet
  00108	40		 inc	 eax
  00109	89 46 04	 mov	 DWORD PTR [esi+4], eax
$LN24@use_facet:
  0010c	8d 4c 24 14	 lea	 ecx, DWORD PTR __Lock$69491[esp+52]
  00110	e8 00 00 00 00	 call	 ??1_Lockit@std@@QAE@XZ	; std::_Lockit::~_Lockit

; 514  : 			_Pfmod->_Register();

  00115	56		 push	 esi
  00116	e8 00 00 00 00	 call	 ?facet_Register@facet@locale@std@@CAXPAV123@@Z ; std::locale::facet::facet_Register
  0011b	83 c4 04	 add	 esp, 4
$LN28@use_facet:

; 515  : 			}
; 516  : 
; 517  : 		return ((const _Facet&)(*_Pf));	// should be dynamic_cast

  0011e	8d 4c 24 18	 lea	 ecx, DWORD PTR __Lock$40162[esp+52]
  00122	c7 44 24 30 ff
	ff ff ff	 mov	 DWORD PTR __$EHRec$[esp+60], -1
  0012a	e8 00 00 00 00	 call	 ??1_Lockit@std@@QAE@XZ	; std::_Lockit::~_Lockit
  0012f	8b c6		 mov	 eax, esi

; 518  : 	_END_LOCK()
; 519  : 	}

  00131	8b 4c 24 28	 mov	 ecx, DWORD PTR __$EHRec$[esp+52]
  00135	64 89 0d 00 00
	00 00		 mov	 DWORD PTR fs:0, ecx
  0013c	59		 pop	 ecx
  0013d	5f		 pop	 edi
  0013e	5e		 pop	 esi
  0013f	5b		 pop	 ebx
  00140	83 c4 24	 add	 esp, 36			; 00000024H
  00143	c3		 ret	 0
$LN33@use_facet:
_TEXT	ENDS
;	COMDAT text$x
text$x	SEGMENT
__unwindfunclet$??$use_facet@V?$numpunct@D@std@@@std@@YAABV?$numpunct@D@0@ABVlocale@0@@Z$0:
  00000	8d 4d e4	 lea	 ecx, DWORD PTR __Lock$40162[ebp]
  00003	e9 00 00 00 00	 jmp	 ??1_Lockit@std@@QAE@XZ	; std::_Lockit::~_Lockit
__ehhandler$??$use_facet@V?$numpunct@D@std@@@std@@YAABV?$numpunct@D@0@ABVlocale@0@@Z:
  00008	8b 54 24 08	 mov	 edx, DWORD PTR [esp+8]
  0000c	8d 42 dc	 lea	 eax, DWORD PTR [edx-36]
  0000f	8b 4a d8	 mov	 ecx, DWORD PTR [edx-40]
  00012	33 c8		 xor	 ecx, eax
  00014	e8 00 00 00 00	 call	 @__security_check_cookie@4
  00019	b8 00 00 00 00	 mov	 eax, OFFSET __ehfuncinfo$??$use_facet@V?$numpunct@D@std@@@std@@YAABV?$numpunct@D@0@ABVlocale@0@@Z
  0001e	e9 00 00 00 00	 jmp	 ___CxxFrameHandler3
text$x	ENDS
??$use_facet@V?$numpunct@D@std@@@std@@YAABV?$numpunct@D@0@ABVlocale@0@@Z ENDP ; std::use_facet<std::numpunct<char> >
;	COMDAT xdata$x
xdata$x	SEGMENT
__unwindtable$??$use_facet@V?$num_put@DV?$ostreambuf_iterator@DU?$char_traits@D@std@@@std@@@std@@@std@@YAABV?$num_put@DV?$ostreambuf_iterator@DU?$char_traits@D@std@@@std@@@0@ABVlocale@0@@Z DD 0ffffffffH
	DD	FLAT:__unwindfunclet$??$use_facet@V?$num_put@DV?$ostreambuf_iterator@DU?$char_traits@D@std@@@std@@@std@@@std@@YAABV?$num_put@DV?$ostreambuf_iterator@DU?$char_traits@D@std@@@std@@@0@ABVlocale@0@@Z$0
__ehfuncinfo$??$use_facet@V?$num_put@DV?$ostreambuf_iterator@DU?$char_traits@D@std@@@std@@@std@@@std@@YAABV?$num_put@DV?$ostreambuf_iterator@DU?$char_traits@D@std@@@std@@@0@ABVlocale@0@@Z DD 019930522H
	DD	01H
	DD	FLAT:__unwindtable$??$use_facet@V?$num_put@DV?$ostreambuf_iterator@DU?$char_traits@D@std@@@std@@@std@@@std@@YAABV?$num_put@DV?$ostreambuf_iterator@DU?$char_traits@D@std@@@std@@@0@ABVlocale@0@@Z
	DD	2 DUP(00H)
	DD	2 DUP(00H)
	DD	00H
	DD	01H
; Function compile flags: /Ogtpy
xdata$x	ENDS
;	COMDAT ??$use_facet@V?$num_put@DV?$ostreambuf_iterator@DU?$char_traits@D@std@@@std@@@std@@@std@@YAABV?$num_put@DV?$ostreambuf_iterator@DU?$char_traits@D@std@@@std@@@0@ABVlocale@0@@Z
_TEXT	SEGMENT
__Psave$40133 = -36					; size = 4
__Lock$69517 = -32					; size = 4
__Lock$69539 = -32					; size = 4
__Lock$40132 = -28					; size = 4
$T69510 = -24						; size = 12
__$EHRec$ = -12						; size = 12
??$use_facet@V?$num_put@DV?$ostreambuf_iterator@DU?$char_traits@D@std@@@std@@@std@@@std@@YAABV?$num_put@DV?$ostreambuf_iterator@DU?$char_traits@D@std@@@std@@@0@ABVlocale@0@@Z PROC ; std::use_facet<std::num_put<char,std::ostreambuf_iterator<char,std::char_traits<char> > > >, COMDAT
; __Loc$ = edi

; 486  : {	// get facet reference from locale

  00000	6a ff		 push	 -1
  00002	68 00 00 00 00	 push	 __ehhandler$??$use_facet@V?$num_put@DV?$ostreambuf_iterator@DU?$char_traits@D@std@@@std@@@std@@@std@@YAABV?$num_put@DV?$ostreambuf_iterator@DU?$char_traits@D@std@@@std@@@0@ABVlocale@0@@Z
  00007	64 a1 00 00 00
	00		 mov	 eax, DWORD PTR fs:0
  0000d	50		 push	 eax
  0000e	83 ec 18	 sub	 esp, 24			; 00000018H
  00011	53		 push	 ebx
  00012	56		 push	 esi
  00013	a1 00 00 00 00	 mov	 eax, DWORD PTR ___security_cookie
  00018	33 c4		 xor	 eax, esp
  0001a	50		 push	 eax
  0001b	8d 44 24 24	 lea	 eax, DWORD PTR __$EHRec$[esp+48]
  0001f	64 a3 00 00 00
	00		 mov	 DWORD PTR fs:0, eax

; 487  : 	_BEGIN_LOCK(_LOCK_LOCALE)	// the thread lock, make get atomic

  00025	6a 00		 push	 0
  00027	8d 4c 24 18	 lea	 ecx, DWORD PTR __Lock$40132[esp+52]
  0002b	e8 00 00 00 00	 call	 ??0_Lockit@std@@QAE@H@Z	; std::_Lockit::_Lockit
  00030	c7 44 24 2c 00
	00 00 00	 mov	 DWORD PTR __$EHRec$[esp+56], 0

; 488  : 		const locale::facet *_Psave =
; 489  : 			_Facetptr<_Facet>::_Psave;	// static pointer to lazy facet
; 490  : 
; 491  : 		size_t _Id = _Facet::id;

  00038	83 3d 00 00 00
	00 00		 cmp	 DWORD PTR ?id@?$num_put@DV?$ostreambuf_iterator@DU?$char_traits@D@std@@@std@@@std@@2V0locale@2@A, 0 ; std::num_put<char,std::ostreambuf_iterator<char,std::char_traits<char> > >::id
  0003f	8b 1d 00 00 00
	00		 mov	 ebx, DWORD PTR ?_Psave@?$_Facetptr@V?$num_put@DV?$ostreambuf_iterator@DU?$char_traits@D@std@@@std@@@std@@@std@@2PBVfacet@locale@2@B ; std::_Facetptr<std::num_put<char,std::ostreambuf_iterator<char,std::char_traits<char> > > >::_Psave
  00045	89 5c 24 0c	 mov	 DWORD PTR __Psave$40133[esp+48], ebx
  00049	75 2d		 jne	 SHORT $LN11@use_facet@2
  0004b	6a 00		 push	 0
  0004d	8d 4c 24 14	 lea	 ecx, DWORD PTR __Lock$69517[esp+52]
  00051	e8 00 00 00 00	 call	 ??0_Lockit@std@@QAE@H@Z	; std::_Lockit::_Lockit
  00056	83 3d 00 00 00
	00 00		 cmp	 DWORD PTR ?id@?$num_put@DV?$ostreambuf_iterator@DU?$char_traits@D@std@@@std@@@std@@2V0locale@2@A, 0 ; std::num_put<char,std::ostreambuf_iterator<char,std::char_traits<char> > >::id
  0005d	75 10		 jne	 SHORT $LN10@use_facet@2
  0005f	a1 00 00 00 00	 mov	 eax, DWORD PTR ?_Id_cnt@id@locale@std@@0HA ; std::locale::id::_Id_cnt
  00064	40		 inc	 eax
  00065	a3 00 00 00 00	 mov	 DWORD PTR ?_Id_cnt@id@locale@std@@0HA, eax ; std::locale::id::_Id_cnt
  0006a	a3 00 00 00 00	 mov	 DWORD PTR ?id@?$num_put@DV?$ostreambuf_iterator@DU?$char_traits@D@std@@@std@@@std@@2V0locale@2@A, eax ; std::num_put<char,std::ostreambuf_iterator<char,std::char_traits<char> > >::id
$LN10@use_facet@2:
  0006f	8d 4c 24 10	 lea	 ecx, DWORD PTR __Lock$69517[esp+48]
  00073	e8 00 00 00 00	 call	 ??1_Lockit@std@@QAE@XZ	; std::_Lockit::~_Lockit
$LN11@use_facet@2:
  00078	8b 35 00 00 00
	00		 mov	 esi, DWORD PTR ?id@?$num_put@DV?$ostreambuf_iterator@DU?$char_traits@D@std@@@std@@@std@@2V0locale@2@A ; std::num_put<char,std::ostreambuf_iterator<char,std::char_traits<char> > >::id

; 492  : 		const locale::facet *_Pf = _Loc._Getfacet(_Id);

  0007e	8b 07		 mov	 eax, DWORD PTR [edi]
  00080	3b 70 0c	 cmp	 esi, DWORD PTR [eax+12]
  00083	73 22		 jae	 SHORT $LN20@use_facet@2
  00085	8b 48 08	 mov	 ecx, DWORD PTR [eax+8]
  00088	8b 0c b1	 mov	 ecx, DWORD PTR [ecx+esi*4]
  0008b	85 c9		 test	 ecx, ecx
  0008d	75 1c		 jne	 SHORT $LN16@use_facet@2
$LN30@use_facet@2:
  0008f	80 78 14 00	 cmp	 BYTE PTR [eax+20], 0
  00093	74 16		 je	 SHORT $LN16@use_facet@2
  00095	e8 00 00 00 00	 call	 ?_Getgloballocale@locale@std@@CAPAV_Locimp@12@XZ ; std::locale::_Getgloballocale
  0009a	3b 70 0c	 cmp	 esi, DWORD PTR [eax+12]
  0009d	73 12		 jae	 SHORT $LN31@use_facet@2
  0009f	8b 50 08	 mov	 edx, DWORD PTR [eax+8]
  000a2	8b 34 b2	 mov	 esi, DWORD PTR [edx+esi*4]
  000a5	eb 06		 jmp	 SHORT $LN15@use_facet@2
$LN20@use_facet@2:
  000a7	33 c9		 xor	 ecx, ecx
  000a9	eb e4		 jmp	 SHORT $LN30@use_facet@2
$LN16@use_facet@2:
  000ab	8b f1		 mov	 esi, ecx
$LN15@use_facet@2:

; 493  : 
; 494  : 		if (_Pf != 0)

  000ad	85 f6		 test	 esi, esi
  000af	75 6b		 jne	 SHORT $LN28@use_facet@2
$LN31@use_facet@2:

; 495  : 			;	// got facet from locale
; 496  : 		else if (_Psave != 0)

  000b1	85 db		 test	 ebx, ebx
  000b3	74 04		 je	 SHORT $LN4@use_facet@2

; 497  : 			_Pf = _Psave;	// lazy facet already allocated

  000b5	8b f3		 mov	 esi, ebx
  000b7	eb 63		 jmp	 SHORT $LN28@use_facet@2
$LN4@use_facet@2:

; 498  : 		else if (_Facet::_Getcat(&_Psave, &_Loc) == (size_t)(-1))

  000b9	8d 44 24 0c	 lea	 eax, DWORD PTR __Psave$40133[esp+48]
  000bd	57		 push	 edi
  000be	50		 push	 eax
  000bf	e8 00 00 00 00	 call	 ?_Getcat@?$num_put@DV?$ostreambuf_iterator@DU?$char_traits@D@std@@@std@@@std@@SAIPAPBVfacet@locale@2@PBV42@@Z ; std::num_put<char,std::ostreambuf_iterator<char,std::char_traits<char> > >::_Getcat
  000c4	83 c4 08	 add	 esp, 8
  000c7	83 f8 ff	 cmp	 eax, -1
  000ca	75 1d		 jne	 SHORT $LN2@use_facet@2

; 499  : 
; 500  :  #if _HAS_EXCEPTIONS
; 501  : 		_THROW_NCEE(bad_cast, _EMPTY_ARGUMENT);	// lazy disallowed

  000cc	68 00 00 00 00	 push	 OFFSET ??_C@_08EPJLHIJG@bad?5cast?$AA@
  000d1	8d 4c 24 1c	 lea	 ecx, DWORD PTR $T69510[esp+52]
  000d5	e8 00 00 00 00	 call	 ??0bad_cast@std@@QAE@PBD@Z ; std::bad_cast::bad_cast
  000da	68 00 00 00 00	 push	 OFFSET __TI2?AVbad_cast@std@@
  000df	8d 4c 24 1c	 lea	 ecx, DWORD PTR $T69510[esp+52]
  000e3	51		 push	 ecx
  000e4	e8 00 00 00 00	 call	 __CxxThrowException@8
$LN34@use_facet@2:
$LN2@use_facet@2:

; 502  : 
; 503  : 	#else /* _HAS_EXCEPTIONS */
; 504  : 			abort();	// lazy disallowed
; 505  : 	#endif /* _HAS_EXCEPTIONS */
; 506  : 
; 507  : 		else
; 508  : 			{	// queue up lazy facet for destruction
; 509  : 			_Pf = _Psave;

  000e9	8b 74 24 0c	 mov	 esi, DWORD PTR __Psave$40133[esp+48]

; 510  : 			_Facetptr<_Facet>::_Psave = _Psave;
; 511  : 
; 512  : 			locale::facet *_Pfmod = (_Facet *)_Psave;
; 513  : 			_Pfmod->_Incref();

  000ed	6a 00		 push	 0
  000ef	8d 4c 24 14	 lea	 ecx, DWORD PTR __Lock$69539[esp+52]
  000f3	89 35 00 00 00
	00		 mov	 DWORD PTR ?_Psave@?$_Facetptr@V?$num_put@DV?$ostreambuf_iterator@DU?$char_traits@D@std@@@std@@@std@@@std@@2PBVfacet@locale@2@B, esi ; std::_Facetptr<std::num_put<char,std::ostreambuf_iterator<char,std::char_traits<char> > > >::_Psave
  000f9	e8 00 00 00 00	 call	 ??0_Lockit@std@@QAE@H@Z	; std::_Lockit::_Lockit
  000fe	8b 46 04	 mov	 eax, DWORD PTR [esi+4]
  00101	83 f8 ff	 cmp	 eax, -1
  00104	73 04		 jae	 SHORT $LN24@use_facet@2
  00106	40		 inc	 eax
  00107	89 46 04	 mov	 DWORD PTR [esi+4], eax
$LN24@use_facet@2:
  0010a	8d 4c 24 10	 lea	 ecx, DWORD PTR __Lock$69539[esp+48]
  0010e	e8 00 00 00 00	 call	 ??1_Lockit@std@@QAE@XZ	; std::_Lockit::~_Lockit

; 514  : 			_Pfmod->_Register();

  00113	56		 push	 esi
  00114	e8 00 00 00 00	 call	 ?facet_Register@facet@locale@std@@CAXPAV123@@Z ; std::locale::facet::facet_Register
  00119	83 c4 04	 add	 esp, 4
$LN28@use_facet@2:

; 515  : 			}
; 516  : 
; 517  : 		return ((const _Facet&)(*_Pf));	// should be dynamic_cast

  0011c	8d 4c 24 14	 lea	 ecx, DWORD PTR __Lock$40132[esp+48]
  00120	c7 44 24 2c ff
	ff ff ff	 mov	 DWORD PTR __$EHRec$[esp+56], -1
  00128	e8 00 00 00 00	 call	 ??1_Lockit@std@@QAE@XZ	; std::_Lockit::~_Lockit
  0012d	8b c6		 mov	 eax, esi

; 518  : 	_END_LOCK()
; 519  : 	}

  0012f	8b 4c 24 24	 mov	 ecx, DWORD PTR __$EHRec$[esp+48]
  00133	64 89 0d 00 00
	00 00		 mov	 DWORD PTR fs:0, ecx
  0013a	59		 pop	 ecx
  0013b	5e		 pop	 esi
  0013c	5b		 pop	 ebx
  0013d	83 c4 24	 add	 esp, 36			; 00000024H
  00140	c3		 ret	 0
$LN33@use_facet@2:
_TEXT	ENDS
;	COMDAT text$x
text$x	SEGMENT
__unwindfunclet$??$use_facet@V?$num_put@DV?$ostreambuf_iterator@DU?$char_traits@D@std@@@std@@@std@@@std@@YAABV?$num_put@DV?$ostreambuf_iterator@DU?$char_traits@D@std@@@std@@@0@ABVlocale@0@@Z$0:
  00000	8d 4d e4	 lea	 ecx, DWORD PTR __Lock$40132[ebp]
  00003	e9 00 00 00 00	 jmp	 ??1_Lockit@std@@QAE@XZ	; std::_Lockit::~_Lockit
__ehhandler$??$use_facet@V?$num_put@DV?$ostreambuf_iterator@DU?$char_traits@D@std@@@std@@@std@@@std@@YAABV?$num_put@DV?$ostreambuf_iterator@DU?$char_traits@D@std@@@std@@@0@ABVlocale@0@@Z:
  00008	8b 54 24 08	 mov	 edx, DWORD PTR [esp+8]
  0000c	8d 42 e0	 lea	 eax, DWORD PTR [edx-32]
  0000f	8b 4a dc	 mov	 ecx, DWORD PTR [edx-36]
  00012	33 c8		 xor	 ecx, eax
  00014	e8 00 00 00 00	 call	 @__security_check_cookie@4
  00019	b8 00 00 00 00	 mov	 eax, OFFSET __ehfuncinfo$??$use_facet@V?$num_put@DV?$ostreambuf_iterator@DU?$char_traits@D@std@@@std@@@std@@@std@@YAABV?$num_put@DV?$ostreambuf_iterator@DU?$char_traits@D@std@@@std@@@0@ABVlocale@0@@Z
  0001e	e9 00 00 00 00	 jmp	 ___CxxFrameHandler3
text$x	ENDS
??$use_facet@V?$num_put@DV?$ostreambuf_iterator@DU?$char_traits@D@std@@@std@@@std@@@std@@YAABV?$num_put@DV?$ostreambuf_iterator@DU?$char_traits@D@std@@@std@@@0@ABVlocale@0@@Z ENDP ; std::use_facet<std::num_put<char,std::ostreambuf_iterator<char,std::char_traits<char> > > >
PUBLIC	__Iosbase$GSCopy$
PUBLIC	__$ArrayPad$
;	COMDAT xdata$x
; File c:\program files\microsoft visual studio 9.0\vc\include\iosfwd
xdata$x	SEGMENT
__unwindtable$?_Iput@?$num_put@DV?$ostreambuf_iterator@DU?$char_traits@D@std@@@std@@@std@@ABA?AV?$ostreambuf_iterator@DU?$char_traits@D@std@@@2@V32@AAVios_base@2@DPADI@Z DD 0ffffffffH
	DD	FLAT:__unwindfunclet$?_Iput@?$num_put@DV?$ostreambuf_iterator@DU?$char_traits@D@std@@@std@@@std@@ABA?AV?$ostreambuf_iterator@DU?$char_traits@D@std@@@2@V32@AAVios_base@2@DPADI@Z$0
	DD	0ffffffffH
	DD	FLAT:__unwindfunclet$?_Iput@?$num_put@DV?$ostreambuf_iterator@DU?$char_traits@D@std@@@std@@@std@@ABA?AV?$ostreambuf_iterator@DU?$char_traits@D@std@@@2@V32@AAVios_base@2@DPADI@Z$1
__ehfuncinfo$?_Iput@?$num_put@DV?$ostreambuf_iterator@DU?$char_traits@D@std@@@std@@@std@@ABA?AV?$ostreambuf_iterator@DU?$char_traits@D@std@@@2@V32@AAVios_base@2@DPADI@Z DD 019930522H
	DD	02H
	DD	FLAT:__unwindtable$?_Iput@?$num_put@DV?$ostreambuf_iterator@DU?$char_traits@D@std@@@std@@@std@@ABA?AV?$ostreambuf_iterator@DU?$char_traits@D@std@@@2@V32@AAVios_base@2@DPADI@Z
	DD	2 DUP(00H)
	DD	2 DUP(00H)
	DD	00H
	DD	01H
; Function compile flags: /Ogtpy
; File c:\program files\microsoft visual studio 9.0\vc\include\xlocnum
xdata$x	ENDS
;	COMDAT ?_Iput@?$num_put@DV?$ostreambuf_iterator@DU?$char_traits@D@std@@@std@@@std@@ABA?AV?$ostreambuf_iterator@DU?$char_traits@D@std@@@2@V32@AAVios_base@2@DPADI@Z
_TEXT	SEGMENT
__Lock$69595 = -64					; size = 4
__Prefix$ = -64						; size = 4
$T69660 = -60						; size = 1
$T69559 = -60						; size = 4
$T69570 = -56						; size = 8
$T69569 = -56						; size = 8
$T69568 = -56						; size = 8
$T69567 = -56						; size = 8
__Punct_fac$ = -56					; size = 4
__Iosbase$GSCopy$ = -48					; size = 4
__Grouping$ = -44					; size = 28
__$ArrayPad$ = -16					; size = 4
__$EHRec$ = -12						; size = 12
___$ReturnUdt$ = 8					; size = 4
__Fill$ = 12						; size = 1
__Buf$ = 16						; size = 4
__Count$ = 20						; size = 4
__Dest$ = 24						; size = 8
?_Iput@?$num_put@DV?$ostreambuf_iterator@DU?$char_traits@D@std@@@std@@@std@@ABA?AV?$ostreambuf_iterator@DU?$char_traits@D@std@@@2@V32@AAVios_base@2@DPADI@Z PROC ; std::num_put<char,std::ostreambuf_iterator<char,std::char_traits<char> > >::_Iput, COMDAT
; __Iosbase$ = ecx

; 1461 : 		{	// put formatted integer to _Dest

  00000	6a ff		 push	 -1
  00002	68 00 00 00 00	 push	 __ehhandler$?_Iput@?$num_put@DV?$ostreambuf_iterator@DU?$char_traits@D@std@@@std@@@std@@ABA?AV?$ostreambuf_iterator@DU?$char_traits@D@std@@@2@V32@AAVios_base@2@DPADI@Z
  00007	64 a1 00 00 00
	00		 mov	 eax, DWORD PTR fs:0
  0000d	50		 push	 eax
  0000e	83 ec 34	 sub	 esp, 52			; 00000034H
  00011	a1 00 00 00 00	 mov	 eax, DWORD PTR ___security_cookie
  00016	33 c4		 xor	 eax, esp
  00018	89 44 24 30	 mov	 DWORD PTR __$ArrayPad$[esp+64], eax
  0001c	53		 push	 ebx
  0001d	55		 push	 ebp
  0001e	56		 push	 esi
  0001f	57		 push	 edi
  00020	a1 00 00 00 00	 mov	 eax, DWORD PTR ___security_cookie
  00025	33 c4		 xor	 eax, esp
  00027	50		 push	 eax
  00028	8d 44 24 48	 lea	 eax, DWORD PTR __$EHRec$[esp+84]
  0002c	64 a3 00 00 00
	00		 mov	 DWORD PTR fs:0, eax
  00032	8b 6c 24 60	 mov	 ebp, DWORD PTR __Buf$[esp+80]

; 1462 : 		_DEBUG_POINTER(_Dest);
; 1463 : 		const _Mypunct& _Punct_fac = _USE(_Iosbase.getloc(), _Mypunct);

  00036	8d 44 24 18	 lea	 eax, DWORD PTR $T69559[esp+84]
  0003a	50		 push	 eax
  0003b	89 4c 24 28	 mov	 DWORD PTR __Iosbase$GSCopy$[esp+88], ecx
  0003f	e8 00 00 00 00	 call	 ?getloc@ios_base@std@@QBE?AVlocale@2@XZ ; std::ios_base::getloc
  00044	8b c8		 mov	 ecx, eax
  00046	c7 44 24 50 00
	00 00 00	 mov	 DWORD PTR __$EHRec$[esp+92], 0
  0004e	e8 00 00 00 00	 call	 ??$use_facet@V?$numpunct@D@std@@@std@@YAABV?$numpunct@D@0@ABVlocale@0@@Z ; std::use_facet<std::numpunct<char> >
  00053	8b d8		 mov	 ebx, eax
  00055	c7 44 24 50 ff
	ff ff ff	 mov	 DWORD PTR __$EHRec$[esp+92], -1
  0005d	8b 44 24 18	 mov	 eax, DWORD PTR $T69559[esp+84]
  00061	89 5c 24 1c	 mov	 DWORD PTR __Punct_fac$[esp+84], ebx
  00065	85 c0		 test	 eax, eax
  00067	74 3f		 je	 SHORT $LN22@Iput
  00069	6a 00		 push	 0
  0006b	8d 4c 24 18	 lea	 ecx, DWORD PTR __Lock$69595[esp+88]
  0006f	8b f8		 mov	 edi, eax
  00071	e8 00 00 00 00	 call	 ??0_Lockit@std@@QAE@H@Z	; std::_Lockit::_Lockit
  00076	8b 47 04	 mov	 eax, DWORD PTR [edi+4]
  00079	85 c0		 test	 eax, eax
  0007b	76 09		 jbe	 SHORT $LN24@Iput
  0007d	83 f8 ff	 cmp	 eax, -1
  00080	73 04		 jae	 SHORT $LN24@Iput
  00082	48		 dec	 eax
  00083	89 47 04	 mov	 DWORD PTR [edi+4], eax
$LN24@Iput:
  00086	8b 77 04	 mov	 esi, DWORD PTR [edi+4]
  00089	f7 de		 neg	 esi
  0008b	1b f6		 sbb	 esi, esi
  0008d	f7 d6		 not	 esi
  0008f	8d 4c 24 14	 lea	 ecx, DWORD PTR __Lock$69595[esp+84]
  00093	23 f7		 and	 esi, edi
  00095	e8 00 00 00 00	 call	 ??1_Lockit@std@@QAE@XZ	; std::_Lockit::~_Lockit
  0009a	85 f6		 test	 esi, esi
  0009c	74 0a		 je	 SHORT $LN22@Iput
  0009e	8b 16		 mov	 edx, DWORD PTR [esi]
  000a0	8b 02		 mov	 eax, DWORD PTR [edx]
  000a2	6a 01		 push	 1
  000a4	8b ce		 mov	 ecx, esi
  000a6	ff d0		 call	 eax
$LN22@Iput:

; 1464 : 		const string _Grouping = _Punct_fac.grouping();

  000a8	8d 74 24 28	 lea	 esi, DWORD PTR __Grouping$[esp+84]
  000ac	8b cb		 mov	 ecx, ebx
  000ae	e8 00 00 00 00	 call	 ?grouping@?$numpunct@D@std@@QBE?AV?$basic_string@DU?$char_traits@D@std@@V?$allocator@D@2@@2@XZ ; std::numpunct<char>::grouping
  000b3	b9 01 00 00 00	 mov	 ecx, 1
  000b8	89 4c 24 50	 mov	 DWORD PTR __$EHRec$[esp+92], ecx

; 1465 : 		const size_t _Prefix = *_Buf == '+' || *_Buf == '-' ? 1
; 1466 : 			: *_Buf == '0' && (_Buf[1] == 'x' || _Buf[1] == 'X') ? 2
; 1467 : 			: 0;

  000bc	8a 45 00	 mov	 al, BYTE PTR [ebp]
  000bf	3c 2b		 cmp	 al, 43			; 0000002bH
  000c1	74 27		 je	 SHORT $LN10@Iput
  000c3	3c 2d		 cmp	 al, 45			; 0000002dH
  000c5	74 23		 je	 SHORT $LN10@Iput
  000c7	3c 30		 cmp	 al, 48			; 00000030H
  000c9	75 15		 jne	 SHORT $LN12@Iput
  000cb	8a 45 01	 mov	 al, BYTE PTR [ebp+1]
  000ce	3c 78		 cmp	 al, 120			; 00000078H
  000d0	74 04		 je	 SHORT $LN11@Iput
  000d2	3c 58		 cmp	 al, 88			; 00000058H
  000d4	75 0a		 jne	 SHORT $LN12@Iput
$LN11@Iput:
  000d6	c7 44 24 14 02
	00 00 00	 mov	 DWORD PTR __Prefix$[esp+84], 2
  000de	eb 0e		 jmp	 SHORT $LN14@Iput
$LN12@Iput:
  000e0	c7 44 24 14 00
	00 00 00	 mov	 DWORD PTR __Prefix$[esp+84], 0
  000e8	eb 04		 jmp	 SHORT $LN14@Iput
$LN10@Iput:
  000ea	89 4c 24 14	 mov	 DWORD PTR __Prefix$[esp+84], ecx
$LN14@Iput:

; 1468 : 
; 1469 : 		if (*_Grouping.c_str() != CHAR_MAX && '\0' < *_Grouping.c_str())

  000ee	8b 4c 24 40	 mov	 ecx, DWORD PTR __Grouping$[esp+108]
  000f2	8b 54 24 2c	 mov	 edx, DWORD PTR __Grouping$[esp+88]
  000f6	8b c2		 mov	 eax, edx
  000f8	83 f9 10	 cmp	 ecx, 16			; 00000010H
  000fb	73 04		 jae	 SHORT $LN33@Iput
  000fd	8d 44 24 2c	 lea	 eax, DWORD PTR __Grouping$[esp+88]
$LN33@Iput:
  00101	80 38 7f	 cmp	 BYTE PTR [eax], 127	; 0000007fH
  00104	74 6a		 je	 SHORT $LN5@Iput
  00106	8b c2		 mov	 eax, edx
  00108	83 f9 10	 cmp	 ecx, 16			; 00000010H
  0010b	73 04		 jae	 SHORT $LN39@Iput
  0010d	8d 44 24 2c	 lea	 eax, DWORD PTR __Grouping$[esp+88]
$LN39@Iput:
  00111	80 38 00	 cmp	 BYTE PTR [eax], 0
  00114	7e 5a		 jle	 SHORT $LN5@Iput

; 1470 : 			{	// grouping specified, add thousands separators
; 1471 : 			const char *_Pg = _Grouping.c_str();

  00116	8b da		 mov	 ebx, edx
  00118	83 f9 10	 cmp	 ecx, 16			; 00000010H
  0011b	73 04		 jae	 SHORT $LN45@Iput
  0011d	8d 5c 24 2c	 lea	 ebx, DWORD PTR __Grouping$[esp+88]
$LN45@Iput:

; 1472 : 			size_t _Off = _Count;
; 1473 : 			while (*_Pg != CHAR_MAX && '\0' < *_Pg
; 1474 : 				&& (size_t)*_Pg < _Off - _Prefix)

  00121	8a 03		 mov	 al, BYTE PTR [ebx]
  00123	8b 74 24 64	 mov	 esi, DWORD PTR __Count$[esp+80]
  00127	3c 7f		 cmp	 al, 127			; 0000007fH
  00129	74 41		 je	 SHORT $LN91@Iput
$LN6@Iput:
  0012b	84 c0		 test	 al, al
  0012d	7e 3d		 jle	 SHORT $LN91@Iput
  0012f	8b ce		 mov	 ecx, esi
  00131	2b 4c 24 14	 sub	 ecx, DWORD PTR __Prefix$[esp+84]
  00135	0f be c0	 movsx	 eax, al
  00138	3b c1		 cmp	 eax, ecx
  0013a	73 30		 jae	 SHORT $LN91@Iput

; 1475 : 				{	// add a NUL to mark thousands separator
; 1476 : 				_Off -= *_Pg;

  0013c	2b f0		 sub	 esi, eax

; 1477 : 				_CRT_SECURE_MEMMOVE(&_Buf[_Off + 1], _Count + 1 - _Off,

  0013e	8b 44 24 64	 mov	 eax, DWORD PTR __Count$[esp+80]
  00142	2b c6		 sub	 eax, esi
  00144	40		 inc	 eax
  00145	50		 push	 eax
  00146	8d 3c 2e	 lea	 edi, DWORD PTR [esi+ebp]
  00149	57		 push	 edi
  0014a	50		 push	 eax
  0014b	8d 54 2e 01	 lea	 edx, DWORD PTR [esi+ebp+1]
  0014f	52		 push	 edx
  00150	e8 00 00 00 00	 call	 _memmove_s

; 1478 : 					&_Buf[_Off],	 _Count + 1 - _Off);
; 1479 : 				_Buf[_Off] = '\0', ++_Count;

  00155	ff 44 24 74	 inc	 DWORD PTR __Count$[esp+96]
  00159	83 c4 10	 add	 esp, 16			; 00000010H
  0015c	c6 07 00	 mov	 BYTE PTR [edi], 0

; 1480 : 				if ('\0' < _Pg[1])

  0015f	80 7b 01 00	 cmp	 BYTE PTR [ebx+1], 0
  00163	7e 01		 jle	 SHORT $LN4@Iput

; 1472 : 			size_t _Off = _Count;
; 1473 : 			while (*_Pg != CHAR_MAX && '\0' < *_Pg
; 1474 : 				&& (size_t)*_Pg < _Off - _Prefix)

  00165	43		 inc	 ebx
$LN4@Iput:
  00166	8a 03		 mov	 al, BYTE PTR [ebx]
  00168	3c 7f		 cmp	 al, 127			; 0000007fH
  0016a	75 bf		 jne	 SHORT $LN6@Iput
$LN91@Iput:
  0016c	8b 5c 24 1c	 mov	 ebx, DWORD PTR __Punct_fac$[esp+84]
$LN5@Iput:

; 1481 : 					++_Pg;	// not last group, advance
; 1482 : 				}
; 1483 : 			}
; 1484 : 
; 1485 : 		size_t _Fillcount = _Iosbase.width() <= 0
; 1486 : 			|| (size_t)_Iosbase.width() <= _Count
; 1487 : 				? 0 : (size_t)_Iosbase.width() - _Count;

  00170	8b 4c 24 24	 mov	 ecx, DWORD PTR __Iosbase$GSCopy$[esp+84]
  00174	8b 71 18	 mov	 esi, DWORD PTR [ecx+24]
  00177	85 f6		 test	 esi, esi
  00179	7e 0c		 jle	 SHORT $LN15@Iput
  0017b	8b 44 24 64	 mov	 eax, DWORD PTR __Count$[esp+80]
  0017f	3b f0		 cmp	 esi, eax
  00181	76 04		 jbe	 SHORT $LN15@Iput
  00183	2b f0		 sub	 esi, eax
  00185	eb 02		 jmp	 SHORT $LN16@Iput
$LN15@Iput:
  00187	33 f6		 xor	 esi, esi
$LN16@Iput:

; 1488 : 
; 1489 : 		ios_base::fmtflags _Adjustfield =
; 1490 : 			_Iosbase.flags() & ios_base::adjustfield;

  00189	8b 41 10	 mov	 eax, DWORD PTR [ecx+16]
  0018c	25 c0 01 00 00	 and	 eax, 448		; 000001c0H

; 1491 : 		if (_Adjustfield != ios_base::left
; 1492 : 			&& _Adjustfield != ios_base::internal)

  00191	83 f8 40	 cmp	 eax, 64			; 00000040H
  00194	74 7d		 je	 SHORT $LN1@Iput
  00196	3d 00 01 00 00	 cmp	 eax, 256		; 00000100H
  0019b	74 1f		 je	 SHORT $LN85@Iput

; 1493 : 			{	// put leading fill
; 1494 : 			_Dest = _Rep(_Dest, _Fill, _Fillcount);

  0019d	8b 44 24 5c	 mov	 eax, DWORD PTR __Fill$[esp+80]
  001a1	8b 4c 24 6c	 mov	 ecx, DWORD PTR __Dest$[esp+84]
  001a5	8b 54 24 68	 mov	 edx, DWORD PTR __Dest$[esp+80]
  001a9	50		 push	 eax
  001aa	51		 push	 ecx
  001ab	52		 push	 edx
  001ac	8b c6		 mov	 eax, esi
  001ae	8d 7c 24 28	 lea	 edi, DWORD PTR $T69567[esp+96]
  001b2	e8 00 00 00 00	 call	 ?_Rep@?$num_put@DV?$ostreambuf_iterator@DU?$char_traits@D@std@@@std@@@std@@ABA?AV?$ostreambuf_iterator@DU?$char_traits@D@std@@@2@V32@DI@Z ; std::num_put<char,std::ostreambuf_iterator<char,std::char_traits<char> > >::_Rep
  001b7	83 c4 0c	 add	 esp, 12			; 0000000cH

; 1495 : 			_Fillcount = 0;

  001ba	eb 48		 jmp	 SHORT $LN95@Iput
$LN85@Iput:

; 1496 : 			}
; 1497 : 		else if (_Adjustfield == ios_base::internal)
; 1498 : 			{	// put internal fill
; 1499 : 			_Dest = _Putc(_Dest, _Buf, _Prefix);	// put prefix

  001bc	8b 7c 24 14	 mov	 edi, DWORD PTR __Prefix$[esp+84]
  001c0	8b 44 24 6c	 mov	 eax, DWORD PTR __Dest$[esp+84]
  001c4	8b 4c 24 68	 mov	 ecx, DWORD PTR __Dest$[esp+80]
  001c8	57		 push	 edi
  001c9	50		 push	 eax
  001ca	51		 push	 ecx
  001cb	8d 54 24 28	 lea	 edx, DWORD PTR $T69568[esp+96]
  001cf	52		 push	 edx
  001d0	8b c5		 mov	 eax, ebp
  001d2	e8 00 00 00 00	 call	 ?_Putc@?$num_put@DV?$ostreambuf_iterator@DU?$char_traits@D@std@@@std@@@std@@ABA?AV?$ostreambuf_iterator@DU?$char_traits@D@std@@@2@V32@PBDI@Z ; std::num_put<char,std::ostreambuf_iterator<char,std::char_traits<char> > >::_Putc
  001d7	8b 08		 mov	 ecx, DWORD PTR [eax]

; 1500 : 			_Buf += _Prefix, _Count -= _Prefix;

  001d9	29 7c 24 74	 sub	 DWORD PTR __Count$[esp+96], edi
  001dd	89 4c 24 78	 mov	 DWORD PTR __Dest$[esp+96], ecx
  001e1	8b 50 04	 mov	 edx, DWORD PTR [eax+4]

; 1501 : 			_Dest = _Rep(_Dest, _Fill, _Fillcount), _Fillcount = 0;

  001e4	8b 4c 24 6c	 mov	 ecx, DWORD PTR __Fill$[esp+96]
  001e8	89 54 24 7c	 mov	 DWORD PTR __Dest$[esp+100], edx
  001ec	8b 50 04	 mov	 edx, DWORD PTR [eax+4]
  001ef	8b 00		 mov	 eax, DWORD PTR [eax]
  001f1	51		 push	 ecx
  001f2	52		 push	 edx
  001f3	50		 push	 eax
  001f4	03 ef		 add	 ebp, edi
  001f6	8b c6		 mov	 eax, esi
  001f8	8d 7c 24 38	 lea	 edi, DWORD PTR $T69569[esp+112]
  001fc	e8 00 00 00 00	 call	 ?_Rep@?$num_put@DV?$ostreambuf_iterator@DU?$char_traits@D@std@@@std@@@std@@ABA?AV?$ostreambuf_iterator@DU?$char_traits@D@std@@@2@V32@DI@Z ; std::num_put<char,std::ostreambuf_iterator<char,std::char_traits<char> > >::_Rep
  00201	83 c4 1c	 add	 esp, 28			; 0000001cH
$LN95@Iput:
  00204	8b 08		 mov	 ecx, DWORD PTR [eax]
  00206	89 4c 24 68	 mov	 DWORD PTR __Dest$[esp+80], ecx
  0020a	8b 50 04	 mov	 edx, DWORD PTR [eax+4]
  0020d	33 f6		 xor	 esi, esi
  0020f	89 54 24 6c	 mov	 DWORD PTR __Dest$[esp+84], edx
$LN1@Iput:

; 1502 : 			}
; 1503 : 
; 1504 : 		_Dest = _Putgrouped(_Dest, _Buf, _Count,
; 1505 : 			_Punct_fac.thousands_sep());	// put field

  00213	8b 03		 mov	 eax, DWORD PTR [ebx]
  00215	8b 50 08	 mov	 edx, DWORD PTR [eax+8]
  00218	8b cb		 mov	 ecx, ebx
  0021a	ff d2		 call	 edx
  0021c	8b 4c 24 68	 mov	 ecx, DWORD PTR __Dest$[esp+80]
  00220	88 44 24 18	 mov	 BYTE PTR $T69660[esp+84], al
  00224	8b 44 24 6c	 mov	 eax, DWORD PTR __Dest$[esp+84]
  00228	8b 54 24 18	 mov	 edx, DWORD PTR $T69660[esp+84]
  0022c	50		 push	 eax
  0022d	8b 44 24 68	 mov	 eax, DWORD PTR __Count$[esp+84]
  00231	51		 push	 ecx
  00232	52		 push	 edx
  00233	50		 push	 eax
  00234	8d 4c 24 2c	 lea	 ecx, DWORD PTR $T69570[esp+100]
  00238	55		 push	 ebp
  00239	51		 push	 ecx
  0023a	e8 00 00 00 00	 call	 ?_Putgrouped@?$num_put@DV?$ostreambuf_iterator@DU?$char_traits@D@std@@@std@@@std@@ABA?AV?$ostreambuf_iterator@DU?$char_traits@D@std@@@2@V32@PBDID@Z ; std::num_put<char,std::ostreambuf_iterator<char,std::char_traits<char> > >::_Putgrouped
  0023f	8b 08		 mov	 ecx, DWORD PTR [eax]

; 1506 : 		_Iosbase.width(0);

  00241	8b 54 24 3c	 mov	 edx, DWORD PTR __Iosbase$GSCopy$[esp+108]

; 1507 : 		return (_Rep(_Dest, _Fill, _Fillcount));	// put trailing fill

  00245	8b 7c 24 70	 mov	 edi, DWORD PTR ___$ReturnUdt$[esp+104]
  00249	89 8c 24 80 00
	00 00		 mov	 DWORD PTR __Dest$[esp+104], ecx
  00250	8b 40 04	 mov	 eax, DWORD PTR [eax+4]
  00253	c7 42 18 00 00
	00 00		 mov	 DWORD PTR [edx+24], 0
  0025a	8b 54 24 74	 mov	 edx, DWORD PTR __Fill$[esp+104]
  0025e	52		 push	 edx
  0025f	50		 push	 eax
  00260	89 84 24 8c 00
	00 00		 mov	 DWORD PTR __Dest$[esp+116], eax
  00267	51		 push	 ecx
  00268	8b c6		 mov	 eax, esi
  0026a	e8 00 00 00 00	 call	 ?_Rep@?$num_put@DV?$ostreambuf_iterator@DU?$char_traits@D@std@@@std@@@std@@ABA?AV?$ostreambuf_iterator@DU?$char_traits@D@std@@@2@V32@DI@Z ; std::num_put<char,std::ostreambuf_iterator<char,std::char_traits<char> > >::_Rep
  0026f	83 c4 24	 add	 esp, 36			; 00000024H
  00272	83 7c 24 40 10	 cmp	 DWORD PTR __Grouping$[esp+108], 16 ; 00000010H
  00277	72 0d		 jb	 SHORT $LN86@Iput
  00279	8b 44 24 2c	 mov	 eax, DWORD PTR __Grouping$[esp+88]
  0027d	50		 push	 eax
  0027e	e8 00 00 00 00	 call	 ??3@YAXPAX@Z		; operator delete
  00283	83 c4 04	 add	 esp, 4
$LN86@Iput:
  00286	8b c7		 mov	 eax, edi

; 1508 : 		}

  00288	8b 4c 24 48	 mov	 ecx, DWORD PTR __$EHRec$[esp+84]
  0028c	64 89 0d 00 00
	00 00		 mov	 DWORD PTR fs:0, ecx
  00293	59		 pop	 ecx
  00294	5f		 pop	 edi
  00295	5e		 pop	 esi
  00296	5d		 pop	 ebp
  00297	5b		 pop	 ebx
  00298	8b 4c 24 30	 mov	 ecx, DWORD PTR __$ArrayPad$[esp+64]
  0029c	33 cc		 xor	 ecx, esp
  0029e	e8 00 00 00 00	 call	 @__security_check_cookie@4
  002a3	83 c4 40	 add	 esp, 64			; 00000040H
  002a6	c3		 ret	 0
_TEXT	ENDS
;	COMDAT text$x
text$x	SEGMENT
__unwindfunclet$?_Iput@?$num_put@DV?$ostreambuf_iterator@DU?$char_traits@D@std@@@std@@@std@@ABA?AV?$ostreambuf_iterator@DU?$char_traits@D@std@@@2@V32@AAVios_base@2@DPADI@Z$0:
  00000	8d 4d c4	 lea	 ecx, DWORD PTR $T69559[ebp]
  00003	e9 00 00 00 00	 jmp	 ??1locale@std@@QAE@XZ	; std::locale::~locale
__unwindfunclet$?_Iput@?$num_put@DV?$ostreambuf_iterator@DU?$char_traits@D@std@@@std@@@std@@ABA?AV?$ostreambuf_iterator@DU?$char_traits@D@std@@@2@V32@AAVios_base@2@DPADI@Z$1:
  00008	8d 4d d4	 lea	 ecx, DWORD PTR __Grouping$[ebp]
  0000b	e9 00 00 00 00	 jmp	 ??1?$basic_string@DU?$char_traits@D@std@@V?$allocator@D@2@@std@@QAE@XZ ; std::basic_string<char,std::char_traits<char>,std::allocator<char> >::~basic_string<char,std::char_traits<char>,std::allocator<char> >
__ehhandler$?_Iput@?$num_put@DV?$ostreambuf_iterator@DU?$char_traits@D@std@@@std@@@std@@ABA?AV?$ostreambuf_iterator@DU?$char_traits@D@std@@@2@V32@AAVios_base@2@DPADI@Z:
  00010	8b 54 24 08	 mov	 edx, DWORD PTR [esp+8]
  00014	8d 42 bc	 lea	 eax, DWORD PTR [edx-68]
  00017	8b 4a b8	 mov	 ecx, DWORD PTR [edx-72]
  0001a	33 c8		 xor	 ecx, eax
  0001c	e8 00 00 00 00	 call	 @__security_check_cookie@4
  00021	83 c0 10	 add	 eax, 16			; 00000010H
  00024	8b 4a fc	 mov	 ecx, DWORD PTR [edx-4]
  00027	33 c8		 xor	 ecx, eax
  00029	e8 00 00 00 00	 call	 @__security_check_cookie@4
  0002e	b8 00 00 00 00	 mov	 eax, OFFSET __ehfuncinfo$?_Iput@?$num_put@DV?$ostreambuf_iterator@DU?$char_traits@D@std@@@std@@@std@@ABA?AV?$ostreambuf_iterator@DU?$char_traits@D@std@@@2@V32@AAVios_base@2@DPADI@Z
  00033	e9 00 00 00 00	 jmp	 ___CxxFrameHandler3
text$x	ENDS
?_Iput@?$num_put@DV?$ostreambuf_iterator@DU?$char_traits@D@std@@@std@@@std@@ABA?AV?$ostreambuf_iterator@DU?$char_traits@D@std@@@2@V32@AAVios_base@2@DPADI@Z ENDP ; std::num_put<char,std::ostreambuf_iterator<char,std::char_traits<char> > >::_Iput
PUBLIC	__Iosbase$GSCopy$
PUBLIC	__$ArrayPad$
;	COMDAT xdata$x
; File c:\program files\microsoft visual studio 9.0\vc\include\iosfwd
xdata$x	SEGMENT
__unwindtable$?_Fput@?$num_put@DV?$ostreambuf_iterator@DU?$char_traits@D@std@@@std@@@std@@ABA?AV?$ostreambuf_iterator@DU?$char_traits@D@std@@@2@V32@AAVios_base@2@DPBDIIII@Z DD 0ffffffffH
	DD	FLAT:__unwindfunclet$?_Fput@?$num_put@DV?$ostreambuf_iterator@DU?$char_traits@D@std@@@std@@@std@@ABA?AV?$ostreambuf_iterator@DU?$char_traits@D@std@@@2@V32@AAVios_base@2@DPBDIIII@Z$0
	DD	0ffffffffH
	DD	FLAT:__unwindfunclet$?_Fput@?$num_put@DV?$ostreambuf_iterator@DU?$char_traits@D@std@@@std@@@std@@ABA?AV?$ostreambuf_iterator@DU?$char_traits@D@std@@@2@V32@AAVios_base@2@DPBDIIII@Z$1
	DD	01H
	DD	FLAT:__unwindfunclet$?_Fput@?$num_put@DV?$ostreambuf_iterator@DU?$char_traits@D@std@@@std@@@std@@ABA?AV?$ostreambuf_iterator@DU?$char_traits@D@std@@@2@V32@AAVios_base@2@DPBDIIII@Z$2
__ehfuncinfo$?_Fput@?$num_put@DV?$ostreambuf_iterator@DU?$char_traits@D@std@@@std@@@std@@ABA?AV?$ostreambuf_iterator@DU?$char_traits@D@std@@@2@V32@AAVios_base@2@DPBDIIII@Z DD 019930522H
	DD	03H
	DD	FLAT:__unwindtable$?_Fput@?$num_put@DV?$ostreambuf_iterator@DU?$char_traits@D@std@@@std@@@std@@ABA?AV?$ostreambuf_iterator@DU?$char_traits@D@std@@@2@V32@AAVios_base@2@DPBDIIII@Z
	DD	2 DUP(00H)
	DD	2 DUP(00H)
	DD	00H
	DD	01H
; Function compile flags: /Ogtpy
; File c:\program files\microsoft visual studio 9.0\vc\include\xlocnum
xdata$x	ENDS
;	COMDAT ?_Fput@?$num_put@DV?$ostreambuf_iterator@DU?$char_traits@D@std@@@std@@@std@@ABA?AV?$ostreambuf_iterator@DU?$char_traits@D@std@@@2@V32@AAVios_base@2@DPBDIIII@Z
_TEXT	SEGMENT
__Enders$ = -112					; size = 3
__Fillcount$ = -108					; size = 4
__Pointptr$ = -108					; size = 4
__Lock$69843 = -104					; size = 4
$T69809 = -104						; size = 8
$T69808 = -104						; size = 8
$T69807 = -104						; size = 8
$T69806 = -104						; size = 8
$T69805 = -104						; size = 8
$T69804 = -104						; size = 8
__Prefix$ = -104					; size = 4
__Kseparator$ = -96					; size = 1
$T69834 = -96						; size = 4
$T70078 = -92						; size = 1
$T69817 = -92						; size = 8
$T69816 = -92						; size = 8
$T69815 = -92						; size = 8
$T69812 = -92						; size = 8
$T69811 = -92						; size = 8
$T69810 = -92						; size = 8
__Punct_fac$ = -92					; size = 4
__Iosbase$GSCopy$ = -84					; size = 4
$T69799 = -80						; size = 4
__Groupstring$ = -76					; size = 28
__Grouping$ = -48					; size = 28
__$ArrayPad$ = -20					; size = 4
__$EHRec$ = -12						; size = 12
___$ReturnUdt$ = 8					; size = 4
__Fill$ = 12						; size = 1
__Buf$ = 16						; size = 4
__Beforepoint$ = 20					; size = 4
__Afterpoint$ = 24					; size = 4
__Trailing$ = 28					; size = 4
__Count$ = 32						; size = 4
__Dest$ = 36						; size = 8
?_Fput@?$num_put@DV?$ostreambuf_iterator@DU?$char_traits@D@std@@@std@@@std@@ABA?AV?$ostreambuf_iterator@DU?$char_traits@D@std@@@2@V32@AAVios_base@2@DPBDIIII@Z PROC ; std::num_put<char,std::ostreambuf_iterator<char,std::char_traits<char> > >::_Fput, COMDAT
; __Iosbase$ = ecx

; 1316 : 		{	// put formatted floating-point to _Dest

  00000	6a ff		 push	 -1
  00002	68 00 00 00 00	 push	 __ehhandler$?_Fput@?$num_put@DV?$ostreambuf_iterator@DU?$char_traits@D@std@@@std@@@std@@ABA?AV?$ostreambuf_iterator@DU?$char_traits@D@std@@@2@V32@AAVios_base@2@DPBDIIII@Z
  00007	64 a1 00 00 00
	00		 mov	 eax, DWORD PTR fs:0
  0000d	50		 push	 eax
  0000e	83 ec 68	 sub	 esp, 104		; 00000068H
  00011	a1 00 00 00 00	 mov	 eax, DWORD PTR ___security_cookie
  00016	33 c4		 xor	 eax, esp
  00018	89 44 24 60	 mov	 DWORD PTR __$ArrayPad$[esp+116], eax
  0001c	53		 push	 ebx
  0001d	55		 push	 ebp
  0001e	56		 push	 esi
  0001f	57		 push	 edi
  00020	a1 00 00 00 00	 mov	 eax, DWORD PTR ___security_cookie
  00025	33 c4		 xor	 eax, esp
  00027	50		 push	 eax
  00028	8d 44 24 7c	 lea	 eax, DWORD PTR __$EHRec$[esp+136]
  0002c	64 a3 00 00 00
	00		 mov	 DWORD PTR fs:0, eax
  00032	8b 9c 24 a4 00
	00 00		 mov	 ebx, DWORD PTR __Count$[esp+132]
  00039	8b ac 24 94 00
	00 00		 mov	 ebp, DWORD PTR __Buf$[esp+132]

; 1317 : 		_DEBUG_POINTER(_Dest);
; 1318 : 		const _Mypunct& _Punct_fac = _USE(_Iosbase.getloc(), _Mypunct);

  00040	8d 44 24 38	 lea	 eax, DWORD PTR $T69799[esp+136]
  00044	50		 push	 eax
  00045	89 4c 24 38	 mov	 DWORD PTR __Iosbase$GSCopy$[esp+140], ecx
  00049	e8 00 00 00 00	 call	 ?getloc@ios_base@std@@QBE?AVlocale@2@XZ ; std::ios_base::getloc
  0004e	8b c8		 mov	 ecx, eax
  00050	c7 84 24 84 00
	00 00 00 00 00
	00		 mov	 DWORD PTR __$EHRec$[esp+144], 0
  0005b	e8 00 00 00 00	 call	 ??$use_facet@V?$numpunct@D@std@@@std@@YAABV?$numpunct@D@0@ABVlocale@0@@Z ; std::use_facet<std::numpunct<char> >
  00060	8b f8		 mov	 edi, eax
  00062	c7 84 24 84 00
	00 00 ff ff ff
	ff		 mov	 DWORD PTR __$EHRec$[esp+144], -1
  0006d	8b 44 24 38	 mov	 eax, DWORD PTR $T69799[esp+136]
  00071	89 7c 24 2c	 mov	 DWORD PTR __Punct_fac$[esp+136], edi
  00075	85 c0		 test	 eax, eax
  00077	74 45		 je	 SHORT $LN31@Fput
  00079	8b f0		 mov	 esi, eax
  0007b	6a 00		 push	 0
  0007d	8d 4c 24 24	 lea	 ecx, DWORD PTR __Lock$69843[esp+140]
  00081	89 74 24 2c	 mov	 DWORD PTR $T69834[esp+140], esi
  00085	e8 00 00 00 00	 call	 ??0_Lockit@std@@QAE@H@Z	; std::_Lockit::_Lockit
  0008a	8b 46 04	 mov	 eax, DWORD PTR [esi+4]
  0008d	85 c0		 test	 eax, eax
  0008f	76 09		 jbe	 SHORT $LN33@Fput
  00091	83 f8 ff	 cmp	 eax, -1
  00094	73 04		 jae	 SHORT $LN33@Fput
  00096	48		 dec	 eax
  00097	89 46 04	 mov	 DWORD PTR [esi+4], eax
$LN33@Fput:
  0009a	8b 76 04	 mov	 esi, DWORD PTR [esi+4]
  0009d	f7 de		 neg	 esi
  0009f	1b f6		 sbb	 esi, esi
  000a1	f7 d6		 not	 esi
  000a3	23 74 24 28	 and	 esi, DWORD PTR $T69834[esp+136]
  000a7	8d 4c 24 20	 lea	 ecx, DWORD PTR __Lock$69843[esp+136]
  000ab	e8 00 00 00 00	 call	 ??1_Lockit@std@@QAE@XZ	; std::_Lockit::~_Lockit
  000b0	85 f6		 test	 esi, esi
  000b2	74 0a		 je	 SHORT $LN31@Fput
  000b4	8b 16		 mov	 edx, DWORD PTR [esi]
  000b6	8b 02		 mov	 eax, DWORD PTR [edx]
  000b8	6a 01		 push	 1
  000ba	8b ce		 mov	 ecx, esi
  000bc	ff d0		 call	 eax
$LN31@Fput:

; 1319 : 		const string _Grouping = _Punct_fac.grouping();

  000be	8d 74 24 58	 lea	 esi, DWORD PTR __Grouping$[esp+136]
  000c2	8b cf		 mov	 ecx, edi
  000c4	e8 00 00 00 00	 call	 ?grouping@?$numpunct@D@std@@QBE?AV?$basic_string@DU?$char_traits@D@std@@V?$allocator@D@2@@2@XZ ; std::numpunct<char>::grouping
  000c9	be 01 00 00 00	 mov	 esi, 1
  000ce	89 b4 24 84 00
	00 00		 mov	 DWORD PTR __$EHRec$[esp+144], esi

; 1320 : 		const _Elem _Kseparator = _Punct_fac.thousands_sep();

  000d5	8b 17		 mov	 edx, DWORD PTR [edi]
  000d7	8b 42 08	 mov	 eax, DWORD PTR [edx+8]
  000da	8b cf		 mov	 ecx, edi
  000dc	ff d0		 call	 eax

; 1321 : 		string _Groupstring;

  000de	33 c9		 xor	 ecx, ecx
  000e0	88 44 24 28	 mov	 BYTE PTR __Kseparator$[esp+136], al
  000e4	c7 44 24 54 0f
	00 00 00	 mov	 DWORD PTR __Groupstring$[esp+160], 15 ; 0000000fH
  000ec	89 4c 24 50	 mov	 DWORD PTR __Groupstring$[esp+156], ecx
  000f0	88 4c 24 40	 mov	 BYTE PTR __Groupstring$[esp+140], cl
  000f4	c6 84 24 84 00
	00 00 02	 mov	 BYTE PTR __$EHRec$[esp+144], 2

; 1322 : 		const _Elem _E0 = _MAKLOCCHR(_Elem, '0', _Cvt);
; 1323 : 		size_t _Prefix = _Buf[0] == '+' || _Buf[0] == '-' ? 1 : 0;

  000fc	8a 45 00	 mov	 al, BYTE PTR [ebp]
  000ff	3c 2b		 cmp	 al, 43			; 0000002bH
  00101	74 08		 je	 SHORT $LN19@Fput
  00103	89 4c 24 20	 mov	 DWORD PTR __Prefix$[esp+136], ecx
  00107	3c 2d		 cmp	 al, 45			; 0000002dH
  00109	75 04		 jne	 SHORT $LN20@Fput
$LN19@Fput:
  0010b	89 74 24 20	 mov	 DWORD PTR __Prefix$[esp+136], esi
$LN20@Fput:

; 1324 : 
; 1325 : 		char _Enders[3];
; 1326 : 		_Enders[0] = ::localeconv()->decimal_point[0];

  0010f	e8 00 00 00 00	 call	 _localeconv
  00114	8b 08		 mov	 ecx, DWORD PTR [eax]
  00116	8a 11		 mov	 dl, BYTE PTR [ecx]

; 1327 : 		_Enders[1] = 'e';
; 1328 : 		_Enders[2] = '\0';
; 1329 : 
; 1330 : 		const char *_Eptr = (const char *)::memchr(_Buf,
; 1331 : 			'e', _Count);	// find exponent

  00118	53		 push	 ebx
  00119	6a 65		 push	 101			; 00000065H
  0011b	55		 push	 ebp
  0011c	88 54 24 24	 mov	 BYTE PTR __Enders$[esp+148], dl
  00120	c6 44 24 25 65	 mov	 BYTE PTR __Enders$[esp+149], 101 ; 00000065H
  00125	c6 44 24 26 00	 mov	 BYTE PTR __Enders$[esp+150], 0
  0012a	e8 00 00 00 00	 call	 _memchr
  0012f	83 c4 0c	 add	 esp, 12			; 0000000cH
  00132	8b f8		 mov	 edi, eax

; 1332 : 		const char *_Pointptr = (const char *)::memchr(_Buf,
; 1333 : 			_Enders[0], _Count);	// find decimal point

  00134	0f be 44 24 18	 movsx	 eax, BYTE PTR __Enders$[esp+136]
  00139	53		 push	 ebx
  0013a	50		 push	 eax
  0013b	55		 push	 ebp
  0013c	e8 00 00 00 00	 call	 _memchr
  00141	8b f0		 mov	 esi, eax
  00143	83 c4 0c	 add	 esp, 12			; 0000000cH
  00146	89 74 24 1c	 mov	 DWORD PTR __Pointptr$[esp+136], esi

; 1334 : 		if (_Pointptr == 0)

  0014a	85 f6		 test	 esi, esi
  0014c	75 07		 jne	 SHORT $LN16@Fput

; 1335 : 			_Trailing = 0;

  0014e	89 84 24 a0 00
	00 00		 mov	 DWORD PTR __Trailing$[esp+132], eax
$LN16@Fput:

; 1336 : 
; 1337 : 		if (*_Grouping.c_str() != CHAR_MAX && '\0' < *_Grouping.c_str())

  00155	8b 4c 24 70	 mov	 ecx, DWORD PTR __Grouping$[esp+160]
  00159	8b 54 24 5c	 mov	 edx, DWORD PTR __Grouping$[esp+140]
  0015d	8b c2		 mov	 eax, edx
  0015f	83 f9 10	 cmp	 ecx, 16			; 00000010H
  00162	73 04		 jae	 SHORT $LN78@Fput
  00164	8d 44 24 5c	 lea	 eax, DWORD PTR __Grouping$[esp+140]
$LN78@Fput:
  00168	80 38 7f	 cmp	 BYTE PTR [eax], 127	; 0000007fH
  0016b	0f 84 49 01 00
	00		 je	 $LN105@Fput
  00171	8b c2		 mov	 eax, edx
  00173	83 f9 10	 cmp	 ecx, 16			; 00000010H
  00176	73 04		 jae	 SHORT $LN84@Fput
  00178	8d 44 24 5c	 lea	 eax, DWORD PTR __Grouping$[esp+140]
$LN84@Fput:
  0017c	80 38 00	 cmp	 BYTE PTR [eax], 0
  0017f	0f 8e 35 01 00
	00		 jle	 $LN105@Fput

; 1338 : 			{	// grouping specified, add thousands separators
; 1339 : 			_Groupstring.append(_Buf, _Count);	// assemble field into string

  00185	53		 push	 ebx
  00186	55		 push	 ebp
  00187	8d 44 24 44	 lea	 eax, DWORD PTR __Groupstring$[esp+144]
  0018b	e8 00 00 00 00	 call	 ?append@?$basic_string@DU?$char_traits@D@std@@V?$allocator@D@2@@std@@QAEAAV12@PBDI@Z ; std::basic_string<char,std::char_traits<char>,std::allocator<char> >::append

; 1340 : 			if (_Eptr == 0)

  00190	85 ff		 test	 edi, edi
  00192	75 15		 jne	 SHORT $LN14@Fput

; 1341 : 				_Groupstring.append(_Trailing, '0');

  00194	8b 8c 24 a0 00
	00 00		 mov	 ecx, DWORD PTR __Trailing$[esp+132]
  0019b	6a 30		 push	 48			; 00000030H
  0019d	51		 push	 ecx
  0019e	8d 4c 24 44	 lea	 ecx, DWORD PTR __Groupstring$[esp+144]
  001a2	e8 00 00 00 00	 call	 ?append@?$basic_string@DU?$char_traits@D@std@@V?$allocator@D@2@@std@@QAEAAV12@ID@Z ; std::basic_string<char,std::char_traits<char>,std::allocator<char> >::append

; 1342 : 			else

  001a7	eb 37		 jmp	 SHORT $LN13@Fput
$LN14@Fput:

; 1343 : 				{	/* dispose of any zeros before exponent */
; 1344 : 				if (_Pointptr == 0)

  001a9	85 f6		 test	 esi, esi
  001ab	75 1a		 jne	 SHORT $LN12@Fput

; 1345 : 					{	/* no point but exponent, put scaling zeros */
; 1346 : 					_Groupstring.append(_Beforepoint, '0');

  001ad	8b 94 24 98 00
	00 00		 mov	 edx, DWORD PTR __Beforepoint$[esp+132]
  001b4	6a 30		 push	 48			; 00000030H
  001b6	52		 push	 edx
  001b7	8d 4c 24 44	 lea	 ecx, DWORD PTR __Groupstring$[esp+144]
  001bb	e8 00 00 00 00	 call	 ?append@?$basic_string@DU?$char_traits@D@std@@V?$allocator@D@2@@std@@QAEAAV12@ID@Z ; std::basic_string<char,std::char_traits<char>,std::allocator<char> >::append

; 1347 : 					_Beforepoint = 0;

  001c0	89 b4 24 98 00
	00 00		 mov	 DWORD PTR __Beforepoint$[esp+132], esi
$LN12@Fput:

; 1348 : 					}
; 1349 : 				_Groupstring.insert(_Eptr - _Buf, _Trailing, '0');

  001c7	8b 84 24 a0 00
	00 00		 mov	 eax, DWORD PTR __Trailing$[esp+132]
  001ce	6a 30		 push	 48			; 00000030H
  001d0	50		 push	 eax
  001d1	2b fd		 sub	 edi, ebp
  001d3	8d 74 24 44	 lea	 esi, DWORD PTR __Groupstring$[esp+144]
  001d7	e8 00 00 00 00	 call	 ?insert@?$basic_string@DU?$char_traits@D@std@@V?$allocator@D@2@@std@@QAEAAV12@IID@Z ; std::basic_string<char,std::char_traits<char>,std::allocator<char> >::insert
  001dc	8b 74 24 1c	 mov	 esi, DWORD PTR __Pointptr$[esp+136]
$LN13@Fput:

; 1350 : 				}
; 1351 : 			_Trailing = 0;
; 1352 : 
; 1353 : 			if (_Pointptr == 0)
; 1354 : 				_Groupstring.append(_Beforepoint, '0');

  001e0	6a 30		 push	 48			; 00000030H
  001e2	85 f6		 test	 esi, esi
  001e4	75 13		 jne	 SHORT $LN11@Fput
  001e6	8b 8c 24 9c 00
	00 00		 mov	 ecx, DWORD PTR __Beforepoint$[esp+136]
  001ed	51		 push	 ecx
  001ee	8d 4c 24 44	 lea	 ecx, DWORD PTR __Groupstring$[esp+144]
  001f2	e8 00 00 00 00	 call	 ?append@?$basic_string@DU?$char_traits@D@std@@V?$allocator@D@2@@std@@QAEAAV12@ID@Z ; std::basic_string<char,std::char_traits<char>,std::allocator<char> >::append

; 1355 : 			else

  001f7	eb 34		 jmp	 SHORT $LN10@Fput
$LN11@Fput:

; 1356 : 				{	// fill in zeros around decimal point
; 1357 : 				_Groupstring.insert(_Pointptr - _Buf + 1, _Afterpoint, '0');

  001f9	8b 94 24 a0 00
	00 00		 mov	 edx, DWORD PTR __Afterpoint$[esp+136]
  00200	8b de		 mov	 ebx, esi
  00202	2b dd		 sub	 ebx, ebp
  00204	52		 push	 edx
  00205	8d 7b 01	 lea	 edi, DWORD PTR [ebx+1]
  00208	8d 74 24 44	 lea	 esi, DWORD PTR __Groupstring$[esp+144]
  0020c	e8 00 00 00 00	 call	 ?insert@?$basic_string@DU?$char_traits@D@std@@V?$allocator@D@2@@std@@QAEAAV12@IID@Z ; std::basic_string<char,std::char_traits<char>,std::allocator<char> >::insert

; 1358 : 				_Groupstring.insert(_Pointptr - _Buf, _Beforepoint, '0');

  00211	8b 84 24 98 00
	00 00		 mov	 eax, DWORD PTR __Beforepoint$[esp+132]
  00218	6a 30		 push	 48			; 00000030H
  0021a	50		 push	 eax
  0021b	8b fb		 mov	 edi, ebx
  0021d	e8 00 00 00 00	 call	 ?insert@?$basic_string@DU?$char_traits@D@std@@V?$allocator@D@2@@std@@QAEAAV12@IID@Z ; std::basic_string<char,std::char_traits<char>,std::allocator<char> >::insert

; 1359 : 				_Afterpoint = 0;

  00222	c7 84 24 9c 00
	00 00 00 00 00
	00		 mov	 DWORD PTR __Afterpoint$[esp+132], 0
$LN10@Fput:

; 1360 : 				}
; 1361 : 			_Beforepoint = 0;
; 1362 : 
; 1363 : 			const char *_Pg = _Grouping.c_str();

  0022d	8b 5c 24 5c	 mov	 ebx, DWORD PTR __Grouping$[esp+140]
  00231	b8 10 00 00 00	 mov	 eax, 16			; 00000010H
  00236	c7 84 24 98 00
	00 00 00 00 00
	00		 mov	 DWORD PTR __Beforepoint$[esp+132], 0
  00241	39 44 24 70	 cmp	 DWORD PTR __Grouping$[esp+160], eax
  00245	73 04		 jae	 SHORT $LN90@Fput
  00247	8d 5c 24 5c	 lea	 ebx, DWORD PTR __Grouping$[esp+140]
$LN90@Fput:

; 1364 : 			size_t _Off = ::strcspn(&_Groupstring[0], &_Enders[0]);

  0024b	39 44 24 54	 cmp	 DWORD PTR __Groupstring$[esp+160], eax
  0024f	8b 44 24 40	 mov	 eax, DWORD PTR __Groupstring$[esp+140]
  00253	73 04		 jae	 SHORT $LN97@Fput
  00255	8d 44 24 40	 lea	 eax, DWORD PTR __Groupstring$[esp+140]
$LN97@Fput:
  00259	8d 4c 24 18	 lea	 ecx, DWORD PTR __Enders$[esp+136]
  0025d	51		 push	 ecx
  0025e	50		 push	 eax
  0025f	e8 00 00 00 00	 call	 _strcspn
  00264	8b f8		 mov	 edi, eax

; 1365 : 			while (*_Pg != CHAR_MAX && '\0' < *_Pg
; 1366 : 				&& (size_t)*_Pg < _Off - _Prefix)

  00266	8a 03		 mov	 al, BYTE PTR [ebx]
  00268	83 c4 08	 add	 esp, 8
  0026b	3c 7f		 cmp	 al, 127			; 0000007fH
  0026d	74 2d		 je	 SHORT $LN8@Fput
$LN9@Fput:
  0026f	84 c0		 test	 al, al
  00271	7e 29		 jle	 SHORT $LN8@Fput
  00273	8b d7		 mov	 edx, edi
  00275	2b 54 24 20	 sub	 edx, DWORD PTR __Prefix$[esp+136]
  00279	0f be c0	 movsx	 eax, al
  0027c	3b c2		 cmp	 eax, edx
  0027e	73 1c		 jae	 SHORT $LN8@Fput

; 1367 : 				{	// add a NUL to mark thousands separator
; 1368 : 				_Groupstring.insert(_Off -= *_Pg, (size_t)1, '\0');

  00280	6a 00		 push	 0
  00282	2b f8		 sub	 edi, eax
  00284	6a 01		 push	 1
  00286	8d 74 24 44	 lea	 esi, DWORD PTR __Groupstring$[esp+144]
  0028a	e8 00 00 00 00	 call	 ?insert@?$basic_string@DU?$char_traits@D@std@@V?$allocator@D@2@@std@@QAEAAV12@IID@Z ; std::basic_string<char,std::char_traits<char>,std::allocator<char> >::insert

; 1369 : 				if ('\0' < _Pg[1])

  0028f	80 7b 01 00	 cmp	 BYTE PTR [ebx+1], 0
  00293	7e 01		 jle	 SHORT $LN7@Fput

; 1365 : 			while (*_Pg != CHAR_MAX && '\0' < *_Pg
; 1366 : 				&& (size_t)*_Pg < _Off - _Prefix)

  00295	43		 inc	 ebx
$LN7@Fput:
  00296	8a 03		 mov	 al, BYTE PTR [ebx]
  00298	3c 7f		 cmp	 al, 127			; 0000007fH
  0029a	75 d3		 jne	 SHORT $LN9@Fput
$LN8@Fput:

; 1370 : 					++_Pg;	// not last group, advance
; 1371 : 				}
; 1372 : 
; 1373 : 			_Buf = &_Groupstring[0];

  0029c	83 7c 24 54 10	 cmp	 DWORD PTR __Groupstring$[esp+160], 16 ; 00000010H
  002a1	8b 6c 24 40	 mov	 ebp, DWORD PTR __Groupstring$[esp+140]
  002a5	73 04		 jae	 SHORT $LN104@Fput
  002a7	8d 6c 24 40	 lea	 ebp, DWORD PTR __Groupstring$[esp+140]
$LN104@Fput:

; 1374 : 			_Trailing = 0;
; 1375 : 			_Count = _Groupstring.size();

  002ab	8b 5c 24 50	 mov	 ebx, DWORD PTR __Groupstring$[esp+156]
  002af	c7 84 24 a0 00
	00 00 00 00 00
	00		 mov	 DWORD PTR __Trailing$[esp+132], 0
$LN105@Fput:

; 1376 : 			}
; 1377 : 
; 1378 : 		size_t _Fillcount = _Beforepoint + _Afterpoint + _Trailing + _Count;

  002ba	8b 8c 24 9c 00
	00 00		 mov	 ecx, DWORD PTR __Afterpoint$[esp+132]
  002c1	8b 84 24 98 00
	00 00		 mov	 eax, DWORD PTR __Beforepoint$[esp+132]

; 1379 : 		_Fillcount = _Iosbase.width() <= 0
; 1380 : 			|| (size_t)_Iosbase.width() <= _Fillcount
; 1381 : 				? 0 : (size_t)_Iosbase.width() - _Fillcount;

  002c8	8b 54 24 34	 mov	 edx, DWORD PTR __Iosbase$GSCopy$[esp+136]
  002cc	03 c1		 add	 eax, ecx
  002ce	03 84 24 a0 00
	00 00		 add	 eax, DWORD PTR __Trailing$[esp+132]
  002d5	8b 4a 18	 mov	 ecx, DWORD PTR [edx+24]
  002d8	03 c3		 add	 eax, ebx
  002da	85 c9		 test	 ecx, ecx
  002dc	7e 0e		 jle	 SHORT $LN21@Fput
  002de	3b c8		 cmp	 ecx, eax
  002e0	76 0a		 jbe	 SHORT $LN21@Fput
  002e2	2b c8		 sub	 ecx, eax
  002e4	8b f1		 mov	 esi, ecx
  002e6	89 74 24 1c	 mov	 DWORD PTR __Fillcount$[esp+136], esi
  002ea	eb 0c		 jmp	 SHORT $LN22@Fput
$LN21@Fput:
  002ec	c7 44 24 1c 00
	00 00 00	 mov	 DWORD PTR __Fillcount$[esp+136], 0
  002f4	8b 74 24 1c	 mov	 esi, DWORD PTR __Fillcount$[esp+136]
$LN22@Fput:

; 1382 : 		ios_base::fmtflags _Adjustfield =
; 1383 : 			_Iosbase.flags() & ios_base::adjustfield;

  002f8	8b 42 10	 mov	 eax, DWORD PTR [edx+16]
  002fb	25 c0 01 00 00	 and	 eax, 448		; 000001c0H

; 1384 : 		if (_Adjustfield != ios_base::left
; 1385 : 			&& _Adjustfield != ios_base::internal)

  00300	83 f8 40	 cmp	 eax, 64			; 00000040H
  00303	0f 84 bd 00 00
	00		 je	 $LN4@Fput
  00309	3d 00 01 00 00	 cmp	 eax, 256		; 00000100H
  0030e	74 38		 je	 SHORT $LN174@Fput

; 1386 : 			{	// put leading fill
; 1387 : 			_Dest = _Rep(_Dest, _Fill, _Fillcount);

  00310	8b 94 24 90 00
	00 00		 mov	 edx, DWORD PTR __Fill$[esp+132]
  00317	8b 84 24 ac 00
	00 00		 mov	 eax, DWORD PTR __Dest$[esp+136]
  0031e	8b 8c 24 a8 00
	00 00		 mov	 ecx, DWORD PTR __Dest$[esp+132]
  00325	52		 push	 edx
  00326	50		 push	 eax
  00327	51		 push	 ecx
  00328	8b c6		 mov	 eax, esi
  0032a	8d 7c 24 2c	 lea	 edi, DWORD PTR $T69804[esp+148]
  0032e	e8 00 00 00 00	 call	 ?_Rep@?$num_put@DV?$ostreambuf_iterator@DU?$char_traits@D@std@@@std@@@std@@ABA?AV?$ostreambuf_iterator@DU?$char_traits@D@std@@@2@V32@DI@Z ; std::num_put<char,std::ostreambuf_iterator<char,std::char_traits<char> > >::_Rep
  00333	8b 10		 mov	 edx, DWORD PTR [eax]
  00335	89 94 24 b4 00
	00 00		 mov	 DWORD PTR __Dest$[esp+144], edx
  0033c	8b 40 04	 mov	 eax, DWORD PTR [eax+4]
  0033f	89 84 24 b8 00
	00 00		 mov	 DWORD PTR __Dest$[esp+148], eax

; 1388 : 			_Fillcount = 0;

  00346	eb 73		 jmp	 SHORT $LN185@Fput
$LN174@Fput:

; 1389 : 			}
; 1390 : 		else if (_Adjustfield == ios_base::internal)
; 1391 : 			{	// put internal fill
; 1392 : 			if (0 < _Prefix)

  00348	83 7c 24 20 00	 cmp	 DWORD PTR __Prefix$[esp+136], 0
  0034d	76 36		 jbe	 SHORT $LN3@Fput

; 1393 : 				{	// but first put sign
; 1394 : 				_Dest = _Putc(_Dest, _Buf, 1);

  0034f	8b 8c 24 ac 00
	00 00		 mov	 ecx, DWORD PTR __Dest$[esp+136]
  00356	8b 94 24 a8 00
	00 00		 mov	 edx, DWORD PTR __Dest$[esp+132]
  0035d	6a 01		 push	 1
  0035f	51		 push	 ecx
  00360	52		 push	 edx
  00361	8d 44 24 2c	 lea	 eax, DWORD PTR $T69805[esp+148]
  00365	50		 push	 eax
  00366	8b c5		 mov	 eax, ebp
  00368	e8 00 00 00 00	 call	 ?_Putc@?$num_put@DV?$ostreambuf_iterator@DU?$char_traits@D@std@@@std@@@std@@ABA?AV?$ostreambuf_iterator@DU?$char_traits@D@std@@@2@V32@PBDI@Z ; std::num_put<char,std::ostreambuf_iterator<char,std::char_traits<char> > >::_Putc
  0036d	8b 08		 mov	 ecx, DWORD PTR [eax]
  0036f	89 8c 24 b8 00
	00 00		 mov	 DWORD PTR __Dest$[esp+148], ecx
  00376	8b 50 04	 mov	 edx, DWORD PTR [eax+4]
  00379	83 c4 10	 add	 esp, 16			; 00000010H

; 1395 : 				++_Buf, --_Count;

  0037c	45		 inc	 ebp
  0037d	89 94 24 ac 00
	00 00		 mov	 DWORD PTR __Dest$[esp+136], edx
  00384	4b		 dec	 ebx
$LN3@Fput:

; 1396 : 				}
; 1397 : 			_Dest = _Rep(_Dest, _Fill, _Fillcount);

  00385	8b 84 24 90 00
	00 00		 mov	 eax, DWORD PTR __Fill$[esp+132]
  0038c	8b 8c 24 ac 00
	00 00		 mov	 ecx, DWORD PTR __Dest$[esp+136]
  00393	8b 94 24 a8 00
	00 00		 mov	 edx, DWORD PTR __Dest$[esp+132]
  0039a	50		 push	 eax
  0039b	51		 push	 ecx
  0039c	52		 push	 edx
  0039d	8b c6		 mov	 eax, esi
  0039f	8d 7c 24 2c	 lea	 edi, DWORD PTR $T69806[esp+148]
  003a3	e8 00 00 00 00	 call	 ?_Rep@?$num_put@DV?$ostreambuf_iterator@DU?$char_traits@D@std@@@std@@@std@@ABA?AV?$ostreambuf_iterator@DU?$char_traits@D@std@@@2@V32@DI@Z ; std::num_put<char,std::ostreambuf_iterator<char,std::char_traits<char> > >::_Rep
  003a8	8b 08		 mov	 ecx, DWORD PTR [eax]
  003aa	89 8c 24 b4 00
	00 00		 mov	 DWORD PTR __Dest$[esp+144], ecx
  003b1	8b 50 04	 mov	 edx, DWORD PTR [eax+4]
  003b4	89 94 24 b8 00
	00 00		 mov	 DWORD PTR __Dest$[esp+148], edx
$LN185@Fput:

; 1398 : 			_Fillcount = 0;

  003bb	c7 44 24 28 00
	00 00 00	 mov	 DWORD PTR __Fillcount$[esp+148], 0
  003c3	83 c4 0c	 add	 esp, 12			; 0000000cH
$LN4@Fput:

; 1399 : 			}
; 1400 : 
; 1401 : 		_Pointptr = (const char *)::memchr(_Buf,
; 1402 : 			_Enders[0], _Count);	// find decimal point again

  003c6	0f be 44 24 18	 movsx	 eax, BYTE PTR __Enders$[esp+136]
  003cb	53		 push	 ebx
  003cc	50		 push	 eax
  003cd	55		 push	 ebp
  003ce	e8 00 00 00 00	 call	 _memchr
  003d3	83 c4 0c	 add	 esp, 12			; 0000000cH

; 1403 : 		if (_Pointptr != 0)

  003d6	85 c0		 test	 eax, eax
  003d8	0f 84 e6 00 00
	00		 je	 $LN2@Fput

; 1404 : 			{	// has decimal point, put pieces and zero fills
; 1405 : 			size_t _Fracoffset = _Pointptr - _Buf + 1;
; 1406 : 			_Dest = _Putgrouped(_Dest, _Buf, _Fracoffset - 1, _Kseparator);

  003de	8b 8c 24 ac 00
	00 00		 mov	 ecx, DWORD PTR __Dest$[esp+136]
  003e5	8b 94 24 a8 00
	00 00		 mov	 edx, DWORD PTR __Dest$[esp+132]
  003ec	51		 push	 ecx
  003ed	2b c5		 sub	 eax, ebp
  003ef	40		 inc	 eax
  003f0	52		 push	 edx
  003f1	8b f0		 mov	 esi, eax
  003f3	8b 44 24 30	 mov	 eax, DWORD PTR __Kseparator$[esp+144]
  003f7	50		 push	 eax
  003f8	8d 4e ff	 lea	 ecx, DWORD PTR [esi-1]
  003fb	51		 push	 ecx
  003fc	8d 54 24 30	 lea	 edx, DWORD PTR $T69807[esp+152]
  00400	55		 push	 ebp
  00401	52		 push	 edx
  00402	e8 00 00 00 00	 call	 ?_Putgrouped@?$num_put@DV?$ostreambuf_iterator@DU?$char_traits@D@std@@@std@@@std@@ABA?AV?$ostreambuf_iterator@DU?$char_traits@D@std@@@2@V32@PBDID@Z ; std::num_put<char,std::ostreambuf_iterator<char,std::char_traits<char> > >::_Putgrouped
  00407	8b 08		 mov	 ecx, DWORD PTR [eax]
  00409	89 8c 24 c0 00
	00 00		 mov	 DWORD PTR __Dest$[esp+156], ecx
  00410	8b 50 04	 mov	 edx, DWORD PTR [eax+4]
  00413	89 94 24 c4 00
	00 00		 mov	 DWORD PTR __Dest$[esp+160], edx

; 1407 : 			_Dest = _Rep(_Dest, _E0, _Beforepoint);

  0041a	8b 48 04	 mov	 ecx, DWORD PTR [eax+4]
  0041d	8b 10		 mov	 edx, DWORD PTR [eax]
  0041f	8b 84 24 b0 00
	00 00		 mov	 eax, DWORD PTR __Beforepoint$[esp+156]
  00426	6a 30		 push	 48			; 00000030H
  00428	51		 push	 ecx
  00429	52		 push	 edx
  0042a	8d 7c 24 44	 lea	 edi, DWORD PTR $T69808[esp+172]
  0042e	e8 00 00 00 00	 call	 ?_Rep@?$num_put@DV?$ostreambuf_iterator@DU?$char_traits@D@std@@@std@@@std@@ABA?AV?$ostreambuf_iterator@DU?$char_traits@D@std@@@2@V32@DI@Z ; std::num_put<char,std::ostreambuf_iterator<char,std::char_traits<char> > >::_Rep
  00433	8b 08		 mov	 ecx, DWORD PTR [eax]
  00435	89 8c 24 cc 00
	00 00		 mov	 DWORD PTR __Dest$[esp+168], ecx
  0043c	8b 50 04	 mov	 edx, DWORD PTR [eax+4]

; 1408 : 			_Dest = _Rep(_Dest, _Punct_fac.decimal_point(), 1);

  0043f	8b 4c 24 50	 mov	 ecx, DWORD PTR __Punct_fac$[esp+172]
  00443	89 94 24 d0 00
	00 00		 mov	 DWORD PTR __Dest$[esp+172], edx
  0044a	8b 01		 mov	 eax, DWORD PTR [ecx]
  0044c	8b 50 04	 mov	 edx, DWORD PTR [eax+4]
  0044f	83 c4 24	 add	 esp, 36			; 00000024H
  00452	ff d2		 call	 edx
  00454	8b 8c 24 ac 00
	00 00		 mov	 ecx, DWORD PTR __Dest$[esp+136]
  0045b	8b 94 24 a8 00
	00 00		 mov	 edx, DWORD PTR __Dest$[esp+132]
  00462	88 44 24 2c	 mov	 BYTE PTR $T70078[esp+136], al
  00466	8b 44 24 2c	 mov	 eax, DWORD PTR $T70078[esp+136]
  0046a	50		 push	 eax
  0046b	51		 push	 ecx
  0046c	52		 push	 edx
  0046d	b8 01 00 00 00	 mov	 eax, 1
  00472	8d 7c 24 2c	 lea	 edi, DWORD PTR $T69809[esp+148]
  00476	e8 00 00 00 00	 call	 ?_Rep@?$num_put@DV?$ostreambuf_iterator@DU?$char_traits@D@std@@@std@@@std@@ABA?AV?$ostreambuf_iterator@DU?$char_traits@D@std@@@2@V32@DI@Z ; std::num_put<char,std::ostreambuf_iterator<char,std::char_traits<char> > >::_Rep
  0047b	8b 08		 mov	 ecx, DWORD PTR [eax]
  0047d	89 8c 24 b4 00
	00 00		 mov	 DWORD PTR __Dest$[esp+144], ecx
  00484	8b 50 04	 mov	 edx, DWORD PTR [eax+4]
  00487	83 c4 0c	 add	 esp, 12			; 0000000cH
  0048a	89 94 24 ac 00
	00 00		 mov	 DWORD PTR __Dest$[esp+136], edx

; 1409 : 			_Dest = _Rep(_Dest, _E0, _Afterpoint);

  00491	8b 48 04	 mov	 ecx, DWORD PTR [eax+4]
  00494	8b 10		 mov	 edx, DWORD PTR [eax]
  00496	8b 84 24 9c 00
	00 00		 mov	 eax, DWORD PTR __Afterpoint$[esp+132]
  0049d	6a 30		 push	 48			; 00000030H
  0049f	51		 push	 ecx
  004a0	52		 push	 edx
  004a1	8d 7c 24 38	 lea	 edi, DWORD PTR $T69810[esp+148]
  004a5	e8 00 00 00 00	 call	 ?_Rep@?$num_put@DV?$ostreambuf_iterator@DU?$char_traits@D@std@@@std@@@std@@ABA?AV?$ostreambuf_iterator@DU?$char_traits@D@std@@@2@V32@DI@Z ; std::num_put<char,std::ostreambuf_iterator<char,std::char_traits<char> > >::_Rep
  004aa	8b 08		 mov	 ecx, DWORD PTR [eax]
  004ac	89 8c 24 b4 00
	00 00		 mov	 DWORD PTR __Dest$[esp+144], ecx
  004b3	8b 50 04	 mov	 edx, DWORD PTR [eax+4]
  004b6	83 c4 0c	 add	 esp, 12			; 0000000cH

; 1410 : 			_Buf += _Fracoffset, _Count -= _Fracoffset;

  004b9	03 ee		 add	 ebp, esi
  004bb	89 94 24 ac 00
	00 00		 mov	 DWORD PTR __Dest$[esp+136], edx
  004c2	2b de		 sub	 ebx, esi
$LN2@Fput:

; 1411 : 			}
; 1412 : 
; 1413 : 		_Eptr = (const char *)::memchr(_Buf,
; 1414 : 			'e', _Count);	// find exponent again

  004c4	53		 push	 ebx
  004c5	6a 65		 push	 101			; 00000065H
  004c7	55		 push	 ebp
  004c8	e8 00 00 00 00	 call	 _memchr
  004cd	83 c4 0c	 add	 esp, 12			; 0000000cH

; 1415 : 		if (_Eptr != 0)

  004d0	85 c0		 test	 eax, eax
  004d2	0f 84 b9 00 00
	00		 je	 $LN1@Fput

; 1416 : 			{	// has exponent field, put it out
; 1417 : 			size_t _Expoffset = _Eptr - _Buf + 1;
; 1418 : 			_Dest = _Putgrouped(_Dest, _Buf, _Expoffset - 1, _Kseparator);

  004d8	8b 8c 24 a8 00
	00 00		 mov	 ecx, DWORD PTR __Dest$[esp+132]
  004df	8b 54 24 28	 mov	 edx, DWORD PTR __Kseparator$[esp+136]
  004e3	2b c5		 sub	 eax, ebp
  004e5	40		 inc	 eax
  004e6	8b f0		 mov	 esi, eax
  004e8	8b 84 24 ac 00
	00 00		 mov	 eax, DWORD PTR __Dest$[esp+136]
  004ef	50		 push	 eax
  004f0	51		 push	 ecx
  004f1	52		 push	 edx
  004f2	8d 46 ff	 lea	 eax, DWORD PTR [esi-1]
  004f5	50		 push	 eax
  004f6	8d 4c 24 3c	 lea	 ecx, DWORD PTR $T69811[esp+152]
  004fa	55		 push	 ebp
  004fb	51		 push	 ecx
  004fc	e8 00 00 00 00	 call	 ?_Putgrouped@?$num_put@DV?$ostreambuf_iterator@DU?$char_traits@D@std@@@std@@@std@@ABA?AV?$ostreambuf_iterator@DU?$char_traits@D@std@@@2@V32@PBDID@Z ; std::num_put<char,std::ostreambuf_iterator<char,std::char_traits<char> > >::_Putgrouped
  00501	8b 10		 mov	 edx, DWORD PTR [eax]
  00503	89 94 24 c0 00
	00 00		 mov	 DWORD PTR __Dest$[esp+156], edx
  0050a	8b 48 04	 mov	 ecx, DWORD PTR [eax+4]
  0050d	89 8c 24 c4 00
	00 00		 mov	 DWORD PTR __Dest$[esp+160], ecx

; 1419 : 			_Dest = _Rep(_Dest, _E0, _Trailing), _Trailing = 0;

  00514	8b 50 04	 mov	 edx, DWORD PTR [eax+4]
  00517	8b 00		 mov	 eax, DWORD PTR [eax]
  00519	6a 30		 push	 48			; 00000030H
  0051b	52		 push	 edx
  0051c	50		 push	 eax
  0051d	8b 84 24 c4 00
	00 00		 mov	 eax, DWORD PTR __Trailing$[esp+168]
  00524	8d 7c 24 50	 lea	 edi, DWORD PTR $T69812[esp+172]
  00528	e8 00 00 00 00	 call	 ?_Rep@?$num_put@DV?$ostreambuf_iterator@DU?$char_traits@D@std@@@std@@@std@@ABA?AV?$ostreambuf_iterator@DU?$char_traits@D@std@@@2@V32@DI@Z ; std::num_put<char,std::ostreambuf_iterator<char,std::char_traits<char> > >::_Rep
  0052d	8b 08		 mov	 ecx, DWORD PTR [eax]
  0052f	89 8c 24 cc 00
	00 00		 mov	 DWORD PTR __Dest$[esp+168], ecx

; 1420 : 			_Dest = _Putc(_Dest, _Iosbase.flags() & ios_base::uppercase
; 1421 : 				? "E" : "e", 1);

  00536	8b 4c 24 58	 mov	 ecx, DWORD PTR __Iosbase$GSCopy$[esp+172]
  0053a	8b 50 04	 mov	 edx, DWORD PTR [eax+4]
  0053d	83 c4 24	 add	 esp, 36			; 00000024H
  00540	f6 41 10 04	 test	 BYTE PTR [ecx+16], 4
  00544	89 94 24 ac 00
	00 00		 mov	 DWORD PTR __Dest$[esp+136], edx
  0054b	c7 84 24 a0 00
	00 00 00 00 00
	00		 mov	 DWORD PTR __Trailing$[esp+132], 0
  00556	b9 00 00 00 00	 mov	 ecx, OFFSET ??_C@_01DDCIFGEA@E?$AA@
  0055b	75 05		 jne	 SHORT $LN24@Fput
  0055d	b9 00 00 00 00	 mov	 ecx, OFFSET ??_C@_01KGKMHCOC@e?$AA@
$LN24@Fput:
  00562	8b 50 04	 mov	 edx, DWORD PTR [eax+4]
  00565	8b 00		 mov	 eax, DWORD PTR [eax]
  00567	6a 01		 push	 1
  00569	52		 push	 edx
  0056a	50		 push	 eax
  0056b	8d 54 24 38	 lea	 edx, DWORD PTR $T69815[esp+148]
  0056f	52		 push	 edx
  00570	8b c1		 mov	 eax, ecx
  00572	e8 00 00 00 00	 call	 ?_Putc@?$num_put@DV?$ostreambuf_iterator@DU?$char_traits@D@std@@@std@@@std@@ABA?AV?$ostreambuf_iterator@DU?$char_traits@D@std@@@2@V32@PBDI@Z ; std::num_put<char,std::ostreambuf_iterator<char,std::char_traits<char> > >::_Putc
  00577	8b 08		 mov	 ecx, DWORD PTR [eax]
  00579	89 8c 24 b8 00
	00 00		 mov	 DWORD PTR __Dest$[esp+148], ecx
  00580	8b 50 04	 mov	 edx, DWORD PTR [eax+4]
  00583	83 c4 10	 add	 esp, 16			; 00000010H

; 1422 : 			_Buf += _Expoffset, _Count -= _Expoffset;

  00586	03 ee		 add	 ebp, esi
  00588	89 94 24 ac 00
	00 00		 mov	 DWORD PTR __Dest$[esp+136], edx
  0058f	2b de		 sub	 ebx, esi
$LN1@Fput:

; 1423 : 			}
; 1424 : 
; 1425 : 		_Dest = _Putgrouped(_Dest, _Buf, _Count,
; 1426 : 			_Kseparator);	// put leftover field

  00591	8b 84 24 ac 00
	00 00		 mov	 eax, DWORD PTR __Dest$[esp+136]
  00598	8b 8c 24 a8 00
	00 00		 mov	 ecx, DWORD PTR __Dest$[esp+132]
  0059f	8b 54 24 28	 mov	 edx, DWORD PTR __Kseparator$[esp+136]
  005a3	50		 push	 eax
  005a4	51		 push	 ecx
  005a5	52		 push	 edx
  005a6	53		 push	 ebx
  005a7	8d 44 24 3c	 lea	 eax, DWORD PTR $T69816[esp+152]
  005ab	55		 push	 ebp
  005ac	50		 push	 eax
  005ad	e8 00 00 00 00	 call	 ?_Putgrouped@?$num_put@DV?$ostreambuf_iterator@DU?$char_traits@D@std@@@std@@@std@@ABA?AV?$ostreambuf_iterator@DU?$char_traits@D@std@@@2@V32@PBDID@Z ; std::num_put<char,std::ostreambuf_iterator<char,std::char_traits<char> > >::_Putgrouped
  005b2	8b 08		 mov	 ecx, DWORD PTR [eax]
  005b4	89 8c 24 c0 00
	00 00		 mov	 DWORD PTR __Dest$[esp+156], ecx
  005bb	8b 50 04	 mov	 edx, DWORD PTR [eax+4]
  005be	89 94 24 c4 00
	00 00		 mov	 DWORD PTR __Dest$[esp+160], edx

; 1427 : 		_Dest = _Rep(_Dest, _E0, _Trailing);	// put trailing zeros

  005c5	8b 48 04	 mov	 ecx, DWORD PTR [eax+4]
  005c8	8b 10		 mov	 edx, DWORD PTR [eax]
  005ca	8b 84 24 b8 00
	00 00		 mov	 eax, DWORD PTR __Trailing$[esp+156]
  005d1	6a 30		 push	 48			; 00000030H
  005d3	51		 push	 ecx
  005d4	52		 push	 edx
  005d5	8d 7c 24 50	 lea	 edi, DWORD PTR $T69817[esp+172]
  005d9	e8 00 00 00 00	 call	 ?_Rep@?$num_put@DV?$ostreambuf_iterator@DU?$char_traits@D@std@@@std@@@std@@ABA?AV?$ostreambuf_iterator@DU?$char_traits@D@std@@@2@V32@DI@Z ; std::num_put<char,std::ostreambuf_iterator<char,std::char_traits<char> > >::_Rep
  005de	8b 08		 mov	 ecx, DWORD PTR [eax]

; 1428 : 		_Iosbase.width(0);

  005e0	8b 54 24 58	 mov	 edx, DWORD PTR __Iosbase$GSCopy$[esp+172]

; 1429 : 		return (_Rep(_Dest, _Fill, _Fillcount));	// put trailing fill

  005e4	8b bc 24 b0 00
	00 00		 mov	 edi, DWORD PTR ___$ReturnUdt$[esp+168]
  005eb	89 8c 24 cc 00
	00 00		 mov	 DWORD PTR __Dest$[esp+168], ecx
  005f2	8b 40 04	 mov	 eax, DWORD PTR [eax+4]
  005f5	33 f6		 xor	 esi, esi
  005f7	83 c4 24	 add	 esp, 36			; 00000024H
  005fa	89 72 18	 mov	 DWORD PTR [edx+24], esi
  005fd	8b 94 24 90 00
	00 00		 mov	 edx, DWORD PTR __Fill$[esp+132]
  00604	52		 push	 edx
  00605	50		 push	 eax
  00606	89 84 24 b4 00
	00 00		 mov	 DWORD PTR __Dest$[esp+144], eax
  0060d	8b 44 24 24	 mov	 eax, DWORD PTR __Fillcount$[esp+144]
  00611	51		 push	 ecx
  00612	e8 00 00 00 00	 call	 ?_Rep@?$num_put@DV?$ostreambuf_iterator@DU?$char_traits@D@std@@@std@@@std@@ABA?AV?$ostreambuf_iterator@DU?$char_traits@D@std@@@2@V32@DI@Z ; std::num_put<char,std::ostreambuf_iterator<char,std::char_traits<char> > >::_Rep
  00617	bb 10 00 00 00	 mov	 ebx, 16			; 00000010H
  0061c	83 c4 0c	 add	 esp, 12			; 0000000cH
  0061f	39 5c 24 54	 cmp	 DWORD PTR __Groupstring$[esp+160], ebx
  00623	72 0d		 jb	 SHORT $LN137@Fput
  00625	8b 44 24 40	 mov	 eax, DWORD PTR __Groupstring$[esp+140]
  00629	50		 push	 eax
  0062a	e8 00 00 00 00	 call	 ??3@YAXPAX@Z		; operator delete
  0062f	83 c4 04	 add	 esp, 4
$LN137@Fput:
  00632	c7 44 24 54 0f
	00 00 00	 mov	 DWORD PTR __Groupstring$[esp+160], 15 ; 0000000fH
  0063a	89 74 24 50	 mov	 DWORD PTR __Groupstring$[esp+156], esi
  0063e	c6 44 24 40 00	 mov	 BYTE PTR __Groupstring$[esp+140], 0
  00643	39 5c 24 70	 cmp	 DWORD PTR __Grouping$[esp+160], ebx
  00647	72 0d		 jb	 SHORT $LN175@Fput
  00649	8b 4c 24 5c	 mov	 ecx, DWORD PTR __Grouping$[esp+140]
  0064d	51		 push	 ecx
  0064e	e8 00 00 00 00	 call	 ??3@YAXPAX@Z		; operator delete
  00653	83 c4 04	 add	 esp, 4
$LN175@Fput:
  00656	8b c7		 mov	 eax, edi

; 1430 : 		}

  00658	8b 4c 24 7c	 mov	 ecx, DWORD PTR __$EHRec$[esp+136]
  0065c	64 89 0d 00 00
	00 00		 mov	 DWORD PTR fs:0, ecx
  00663	59		 pop	 ecx
  00664	5f		 pop	 edi
  00665	5e		 pop	 esi
  00666	5d		 pop	 ebp
  00667	5b		 pop	 ebx
  00668	8b 4c 24 60	 mov	 ecx, DWORD PTR __$ArrayPad$[esp+116]
  0066c	33 cc		 xor	 ecx, esp
  0066e	e8 00 00 00 00	 call	 @__security_check_cookie@4
  00673	83 c4 74	 add	 esp, 116		; 00000074H
  00676	c3		 ret	 0
_TEXT	ENDS
;	COMDAT text$x
text$x	SEGMENT
__unwindfunclet$?_Fput@?$num_put@DV?$ostreambuf_iterator@DU?$char_traits@D@std@@@std@@@std@@ABA?AV?$ostreambuf_iterator@DU?$char_traits@D@std@@@2@V32@AAVios_base@2@DPBDIIII@Z$0:
  00000	8d 4d b0	 lea	 ecx, DWORD PTR $T69799[ebp]
  00003	e9 00 00 00 00	 jmp	 ??1locale@std@@QAE@XZ	; std::locale::~locale
__unwindfunclet$?_Fput@?$num_put@DV?$ostreambuf_iterator@DU?$char_traits@D@std@@@std@@@std@@ABA?AV?$ostreambuf_iterator@DU?$char_traits@D@std@@@2@V32@AAVios_base@2@DPBDIIII@Z$1:
  00008	8d 4d d0	 lea	 ecx, DWORD PTR __Grouping$[ebp]
  0000b	e9 00 00 00 00	 jmp	 ??1?$basic_string@DU?$char_traits@D@std@@V?$allocator@D@2@@std@@QAE@XZ ; std::basic_string<char,std::char_traits<char>,std::allocator<char> >::~basic_string<char,std::char_traits<char>,std::allocator<char> >
__unwindfunclet$?_Fput@?$num_put@DV?$ostreambuf_iterator@DU?$char_traits@D@std@@@std@@@std@@ABA?AV?$ostreambuf_iterator@DU?$char_traits@D@std@@@2@V32@AAVios_base@2@DPBDIIII@Z$2:
  00010	8d 4d b4	 lea	 ecx, DWORD PTR __Groupstring$[ebp]
  00013	e9 00 00 00 00	 jmp	 ??1?$basic_string@DU?$char_traits@D@std@@V?$allocator@D@2@@std@@QAE@XZ ; std::basic_string<char,std::char_traits<char>,std::allocator<char> >::~basic_string<char,std::char_traits<char>,std::allocator<char> >
__ehhandler$?_Fput@?$num_put@DV?$ostreambuf_iterator@DU?$char_traits@D@std@@@std@@@std@@ABA?AV?$ostreambuf_iterator@DU?$char_traits@D@std@@@2@V32@AAVios_base@2@DPBDIIII@Z:
  00018	8b 54 24 08	 mov	 edx, DWORD PTR [esp+8]
  0001c	8d 42 88	 lea	 eax, DWORD PTR [edx-120]
  0001f	8b 4a 84	 mov	 ecx, DWORD PTR [edx-124]
  00022	33 c8		 xor	 ecx, eax
  00024	e8 00 00 00 00	 call	 @__security_check_cookie@4
  00029	83 c0 10	 add	 eax, 16			; 00000010H
  0002c	8b 4a f8	 mov	 ecx, DWORD PTR [edx-8]
  0002f	33 c8		 xor	 ecx, eax
  00031	e8 00 00 00 00	 call	 @__security_check_cookie@4
  00036	b8 00 00 00 00	 mov	 eax, OFFSET __ehfuncinfo$?_Fput@?$num_put@DV?$ostreambuf_iterator@DU?$char_traits@D@std@@@std@@@std@@ABA?AV?$ostreambuf_iterator@DU?$char_traits@D@std@@@2@V32@AAVios_base@2@DPBDIIII@Z
  0003b	e9 00 00 00 00	 jmp	 ___CxxFrameHandler3
text$x	ENDS
?_Fput@?$num_put@DV?$ostreambuf_iterator@DU?$char_traits@D@std@@@std@@@std@@ABA?AV?$ostreambuf_iterator@DU?$char_traits@D@std@@@2@V32@AAVios_base@2@DPBDIIII@Z ENDP ; std::num_put<char,std::ostreambuf_iterator<char,std::char_traits<char> > >::_Fput
PUBLIC	__$ArrayPad$
; Function compile flags: /Ogtpy
;	COMDAT ?do_put@?$num_put@DV?$ostreambuf_iterator@DU?$char_traits@D@std@@@std@@@std@@MBE?AV?$ostreambuf_iterator@DU?$char_traits@D@std@@@2@V32@AAVios_base@2@DPBX@Z
_TEXT	SEGMENT
__Buf$ = -72						; size = 64
__$ArrayPad$ = -4					; size = 4
___$ReturnUdt$ = 8					; size = 4
__Dest$ = 12						; size = 8
__Iosbase$ = 20						; size = 4
__Fill$ = 24						; size = 1
__Val$ = 28						; size = 4
?do_put@?$num_put@DV?$ostreambuf_iterator@DU?$char_traits@D@std@@@std@@@std@@MBE?AV?$ostreambuf_iterator@DU?$char_traits@D@std@@@2@V32@AAVios_base@2@DPBX@Z PROC ; std::num_put<char,std::ostreambuf_iterator<char,std::char_traits<char> > >::do_put, COMDAT
; _this$ = ecx

; 1281 : 		{	// put formatted void pointer to _Dest

  00000	55		 push	 ebp
  00001	8b ec		 mov	 ebp, esp
  00003	83 e4 f8	 and	 esp, -8			; fffffff8H
  00006	83 ec 4c	 sub	 esp, 76			; 0000004cH
  00009	a1 00 00 00 00	 mov	 eax, DWORD PTR ___security_cookie
  0000e	33 c4		 xor	 eax, esp
  00010	89 44 24 48	 mov	 DWORD PTR __$ArrayPad$[esp+76], eax

; 1282 : 		const size_t _Buf_size = 2 * _MAX_INT_DIG;
; 1283 : 		char _Buf[_Buf_size];
; 1284 : 		return (_Iput(_Dest, _Iosbase, _Fill, _Buf,
; 1285 : 			::sprintf_s(_Buf, _Buf_size, "%p", _Val)));

  00014	8b 4d 10	 mov	 ecx, DWORD PTR __Dest$[ebp+4]
  00017	8b 55 0c	 mov	 edx, DWORD PTR __Dest$[ebp]
  0001a	8b 45 1c	 mov	 eax, DWORD PTR __Val$[ebp]
  0001d	56		 push	 esi
  0001e	8b 75 08	 mov	 esi, DWORD PTR ___$ReturnUdt$[ebp]
  00021	51		 push	 ecx
  00022	52		 push	 edx
  00023	50		 push	 eax
  00024	68 00 00 00 00	 push	 OFFSET ??_C@_02BBAHNLBA@?$CFp?$AA@
  00029	8d 44 24 18	 lea	 eax, DWORD PTR __Buf$[esp+96]
  0002d	6a 40		 push	 64			; 00000040H
  0002f	50		 push	 eax
  00030	e8 00 00 00 00	 call	 _sprintf_s
  00035	8b 55 18	 mov	 edx, DWORD PTR __Fill$[ebp]
  00038	83 c4 10	 add	 esp, 16			; 00000010H
  0003b	50		 push	 eax
  0003c	8d 4c 24 14	 lea	 ecx, DWORD PTR __Buf$[esp+92]
  00040	51		 push	 ecx
  00041	8b 4d 14	 mov	 ecx, DWORD PTR __Iosbase$[ebp]
  00044	52		 push	 edx
  00045	56		 push	 esi
  00046	e8 00 00 00 00	 call	 ?_Iput@?$num_put@DV?$ostreambuf_iterator@DU?$char_traits@D@std@@@std@@@std@@ABA?AV?$ostreambuf_iterator@DU?$char_traits@D@std@@@2@V32@AAVios_base@2@DPADI@Z ; std::num_put<char,std::ostreambuf_iterator<char,std::char_traits<char> > >::_Iput

; 1286 : 		}

  0004b	8b 4c 24 64	 mov	 ecx, DWORD PTR __$ArrayPad$[esp+104]
  0004f	83 c4 18	 add	 esp, 24			; 00000018H
  00052	8b c6		 mov	 eax, esi
  00054	5e		 pop	 esi
  00055	33 cc		 xor	 ecx, esp
  00057	e8 00 00 00 00	 call	 @__security_check_cookie@4
  0005c	8b e5		 mov	 esp, ebp
  0005e	5d		 pop	 ebp
  0005f	c2 18 00	 ret	 24			; 00000018H
?do_put@?$num_put@DV?$ostreambuf_iterator@DU?$char_traits@D@std@@@std@@@std@@MBE?AV?$ostreambuf_iterator@DU?$char_traits@D@std@@@2@V32@AAVios_base@2@DPBX@Z ENDP ; std::num_put<char,std::ostreambuf_iterator<char,std::char_traits<char> > >::do_put
_TEXT	ENDS
PUBLIC	__real@38aa95a5b7f87a0f
PUBLIC	__real@4202a05f20000000
PUBLIC	__real@4733426172c74d82
PUBLIC	__mask@@NegDouble@
PUBLIC	__Iosbase$GSCopy$
PUBLIC	___$ReturnUdt$GSCopy$
PUBLIC	__$ArrayPad$
EXTRN	__fltused:DWORD
;	COMDAT __real@38aa95a5b7f87a0f
CONST	SEGMENT
__real@38aa95a5b7f87a0f DQ 038aa95a5b7f87a0fr	; 1e-035
CONST	ENDS
;	COMDAT __real@4202a05f20000000
CONST	SEGMENT
__real@4202a05f20000000 DQ 04202a05f20000000r	; 1e+010
CONST	ENDS
;	COMDAT __real@4733426172c74d82
CONST	SEGMENT
__real@4733426172c74d82 DQ 04733426172c74d82r	; 1e+035
CONST	ENDS
;	COMDAT __mask@@NegDouble@
CONST	SEGMENT
__mask@@NegDouble@ DB 00H, 00H, 00H, 00H, 00H, 00H, 00H, 080H, 00H, 00H, 00H
	DB	00H, 00H, 00H, 00H, 080H
; Function compile flags: /Ogtpy
CONST	ENDS
;	COMDAT ?do_put@?$num_put@DV?$ostreambuf_iterator@DU?$char_traits@D@std@@@std@@@std@@MBE?AV?$ostreambuf_iterator@DU?$char_traits@D@std@@@2@V32@AAVios_base@2@DO@Z
_TEXT	SEGMENT
__Iosbase$GSCopy$ = -136				; size = 4
___$ReturnUdt$GSCopy$ = -132				; size = 4
__Fmt$ = -128						; size = 8
__Buf$ = -120						; size = 108
__$ArrayPad$ = -4					; size = 4
___$ReturnUdt$ = 8					; size = 4
__Dest$ = 12						; size = 8
__Iosbase$ = 20						; size = 4
__Fill$ = 24						; size = 1
__Val$ = 28						; size = 8
?do_put@?$num_put@DV?$ostreambuf_iterator@DU?$char_traits@D@std@@@std@@@std@@MBE?AV?$ostreambuf_iterator@DU?$char_traits@D@std@@@2@V32@AAVios_base@2@DO@Z PROC ; std::num_put<char,std::ostreambuf_iterator<char,std::char_traits<char> > >::do_put, COMDAT
; _this$ = ecx

; 1240 : 		{	// put formatted long double to _Dest

  00000	55		 push	 ebp
  00001	8b ec		 mov	 ebp, esp
  00003	83 e4 c0	 and	 esp, -64		; ffffffc0H
  00006	81 ec b4 00 00
	00		 sub	 esp, 180		; 000000b4H
  0000c	a1 00 00 00 00	 mov	 eax, DWORD PTR ___security_cookie
  00011	33 c4		 xor	 eax, esp
  00013	89 84 24 b0 00
	00 00		 mov	 DWORD PTR __$ArrayPad$[esp+180], eax
  0001a	8b 45 08	 mov	 eax, DWORD PTR ___$ReturnUdt$[ebp]
  0001d	8b 4d 14	 mov	 ecx, DWORD PTR __Iosbase$[ebp]
  00020	53		 push	 ebx

; 1271 : 			}
; 1272 : 
; 1273 : 		return (_Fput(_Dest, _Iosbase, _Fill, _Buf,
; 1274 : 			_Beforepoint, _Afterpoint, _Precision,
; 1275 : 				::sprintf_s(_Buf, _Buf_size, _Ffmt(_Fmt, 'L', _Iosbase.flags()),
; 1276 : 					_Significance, _Val)));	// convert and put

  00021	89 44 24 34	 mov	 DWORD PTR ___$ReturnUdt$GSCopy$[esp+184], eax
  00025	8b 41 14	 mov	 eax, DWORD PTR [ecx+20]
  00028	56		 push	 esi
  00029	57		 push	 edi
  0002a	89 4c 24 38	 mov	 DWORD PTR __Iosbase$GSCopy$[esp+192], ecx
  0002e	85 c0		 test	 eax, eax
  00030	7f 0e		 jg	 SHORT $LN13@do_put

; 1241 : 		const size_t _Buf_size = _MAX_EXP_DIG + _MAX_SIG_DIG + 64;
; 1242 : 		char _Buf[_Buf_size], _Fmt[8];
; 1243 : 		streamsize _Precision = _Iosbase.precision() <= 0
; 1244 : 			&& !(_Iosbase.flags() & ios_base::fixed)
; 1245 : 				? 6 : _Iosbase.precision();	// desired precision

  00032	f7 41 10 00 20
	00 00		 test	 DWORD PTR [ecx+16], 8192 ; 00002000H
  00039	75 05		 jne	 SHORT $LN13@do_put
  0003b	b8 06 00 00 00	 mov	 eax, 6
$LN13@do_put:
  00040	8b f0		 mov	 esi, eax

; 1246 : 		int _Significance = _MAX_SIG_DIG < _Precision
; 1247 : 			? _MAX_SIG_DIG : (int)_Precision;	// actual sprintf precision

  00042	83 fe 24	 cmp	 esi, 36			; 00000024H
  00045	ba 24 00 00 00	 mov	 edx, 36			; 00000024H
  0004a	7f 02		 jg	 SHORT $LN16@do_put
  0004c	8b d6		 mov	 edx, esi
$LN16@do_put:

; 1248 : 		_Precision -= _Significance;
; 1249 : 		size_t _Beforepoint = 0;	// zeros to add before decimal point
; 1250 : 		size_t _Afterpoint = 0;	// zeros to add after decimal point
; 1251 : 
; 1252 : 		if ((_Iosbase.flags() & ios_base::floatfield) == ios_base::fixed)

  0004e	8b 49 10	 mov	 ecx, DWORD PTR [ecx+16]
  00051	8b c1		 mov	 eax, ecx
  00053	25 00 30 00 00	 and	 eax, 12288		; 00003000H
  00058	2b f2		 sub	 esi, edx
  0005a	33 db		 xor	 ebx, ebx
  0005c	33 ff		 xor	 edi, edi
  0005e	3d 00 20 00 00	 cmp	 eax, 8192		; 00002000H
  00063	0f 85 97 00 00
	00		 jne	 $LN1@do_put

; 1253 : 			{	// scale silly fixed-point value
; 1254 : 			bool _Signed = _Val < 0;

  00069	0f 57 db	 xorps	 xmm3, xmm3
  0006c	f2 0f 10 45 1c	 movsd	 xmm0, QWORD PTR __Val$[ebp]
  00071	66 0f 2f d8	 comisd	 xmm3, xmm0
  00075	f2 0f 10 25 00
	00 00 00	 movsd	 xmm4, QWORD PTR __mask@@NegDouble@
  0007d	0f 86 bb 00 00
	00		 jbe	 $LN17@do_put

; 1256 : 				_Val = -_Val;

  00083	66 0f 57 c4	 xorpd	 xmm0, xmm4
  00087	b0 01		 mov	 al, 1
  00089	f2 0f 11 45 1c	 movsd	 QWORD PTR __Val$[ebp], xmm0
$LN9@do_put:

; 1257 : 
; 1258 : 			for (; 1e35 <= _Val && _Beforepoint < 5000; _Beforepoint += 10)

  0008e	f2 0f 10 0d 00
	00 00 00	 movsd	 xmm1, QWORD PTR __real@4733426172c74d82
  00096	66 0f 2f c1	 comisd	 xmm0, xmm1
  0009a	f2 0f 10 15 00
	00 00 00	 movsd	 xmm2, QWORD PTR __real@4202a05f20000000
  000a2	72 1a		 jb	 SHORT $LN6@do_put
$LL8@do_put:
  000a4	81 fb 88 13 00
	00		 cmp	 ebx, 5000		; 00001388H
  000aa	73 0d		 jae	 SHORT $LN43@do_put

; 1259 : 				_Val /= 1e10;	// drop 10 zeros before decimal point

  000ac	f2 0f 5e c2	 divsd	 xmm0, xmm2
  000b0	83 c3 0a	 add	 ebx, 10			; 0000000aH
  000b3	66 0f 2f c1	 comisd	 xmm0, xmm1
  000b7	73 eb		 jae	 SHORT $LL8@do_put
$LN43@do_put:
  000b9	f2 0f 11 45 1c	 movsd	 QWORD PTR __Val$[ebp], xmm0
$LN6@do_put:

; 1260 : 
; 1261 : 			if (0 < _Val)

  000be	66 0f 2f c3	 comisd	 xmm0, xmm3
  000c2	76 2f		 jbe	 SHORT $LN2@do_put

; 1262 : 				for (; 10 <= _Precision && _Val <= 1e-35
; 1263 : 					&& _Afterpoint < 5000; _Afterpoint += 10)

  000c4	83 fe 0a	 cmp	 esi, 10			; 0000000aH
  000c7	7c 2a		 jl	 SHORT $LN2@do_put
  000c9	f2 0f 10 0d 00
	00 00 00	 movsd	 xmm1, QWORD PTR __real@38aa95a5b7f87a0f
$LL4@do_put:
  000d1	66 0f 2f c8	 comisd	 xmm1, xmm0
  000d5	72 17		 jb	 SHORT $LN45@do_put
  000d7	81 ff 88 13 00
	00		 cmp	 edi, 5000		; 00001388H
  000dd	73 0f		 jae	 SHORT $LN45@do_put

; 1266 : 					_Precision -= 10;

  000df	83 ee 0a	 sub	 esi, 10			; 0000000aH
  000e2	83 c7 0a	 add	 edi, 10			; 0000000aH
  000e5	83 fe 0a	 cmp	 esi, 10			; 0000000aH
  000e8	f2 0f 59 c2	 mulsd	 xmm0, xmm2
  000ec	7d e3		 jge	 SHORT $LL4@do_put
$LN45@do_put:

; 1264 : 					{	// drop 10 zeros after decimal point
; 1265 : 					_Val *= 1e10;

  000ee	f2 0f 11 45 1c	 movsd	 QWORD PTR __Val$[ebp], xmm0
$LN2@do_put:

; 1267 : 					}
; 1268 : 
; 1269 : 			if (_Signed)

  000f3	84 c0		 test	 al, al
  000f5	74 09		 je	 SHORT $LN1@do_put

; 1270 : 				_Val = -_Val;

  000f7	66 0f 57 c4	 xorpd	 xmm0, xmm4
  000fb	f2 0f 11 45 1c	 movsd	 QWORD PTR __Val$[ebp], xmm0
$LN1@do_put:

; 1271 : 			}
; 1272 : 
; 1273 : 		return (_Fput(_Dest, _Iosbase, _Fill, _Buf,
; 1274 : 			_Beforepoint, _Afterpoint, _Precision,
; 1275 : 				::sprintf_s(_Buf, _Buf_size, _Ffmt(_Fmt, 'L', _Iosbase.flags()),
; 1276 : 					_Significance, _Val)));	// convert and put

  00100	c6 44 24 40 25	 mov	 BYTE PTR __Fmt$[esp+192], 37 ; 00000025H
  00105	8d 44 24 41	 lea	 eax, DWORD PTR __Fmt$[esp+193]
  00109	f6 c1 20	 test	 cl, 32			; 00000020H
  0010c	74 09		 je	 SHORT $LN31@do_put
  0010e	c6 44 24 41 2b	 mov	 BYTE PTR __Fmt$[esp+193], 43 ; 0000002bH
  00113	8d 44 24 42	 lea	 eax, DWORD PTR __Fmt$[esp+194]
$LN31@do_put:
  00117	f6 c1 10	 test	 cl, 16			; 00000010H
  0011a	74 04		 je	 SHORT $LN30@do_put
  0011c	c6 00 23	 mov	 BYTE PTR [eax], 35	; 00000023H
  0011f	40		 inc	 eax
$LN30@do_put:
  00120	c6 00 2e	 mov	 BYTE PTR [eax], 46	; 0000002eH
  00123	40		 inc	 eax
  00124	c6 00 2a	 mov	 BYTE PTR [eax], 42	; 0000002aH
  00127	40		 inc	 eax
  00128	c6 00 4c	 mov	 BYTE PTR [eax], 76	; 0000004cH
  0012b	81 e1 00 30 00
	00		 and	 ecx, 12288		; 00003000H
  00131	40		 inc	 eax
  00132	81 f9 00 20 00
	00		 cmp	 ecx, 8192		; 00002000H
  00138	75 0b		 jne	 SHORT $LN36@do_put
  0013a	b1 66		 mov	 cl, 102			; 00000066H
  0013c	eb 20		 jmp	 SHORT $LN35@do_put
$LN17@do_put:

; 1253 : 			{	// scale silly fixed-point value
; 1254 : 			bool _Signed = _Val < 0;

  0013e	32 c0		 xor	 al, al

; 1255 : 			if (_Signed)

  00140	e9 49 ff ff ff	 jmp	 $LN9@do_put

; 1271 : 			}
; 1272 : 
; 1273 : 		return (_Fput(_Dest, _Iosbase, _Fill, _Buf,
; 1274 : 			_Beforepoint, _Afterpoint, _Precision,
; 1275 : 				::sprintf_s(_Buf, _Buf_size, _Ffmt(_Fmt, 'L', _Iosbase.flags()),
; 1276 : 					_Significance, _Val)));	// convert and put

$LN36@do_put:
  00145	81 f9 00 30 00
	00		 cmp	 ecx, 12288		; 00003000H
  0014b	75 04		 jne	 SHORT $LN34@do_put
  0014d	b1 61		 mov	 cl, 97			; 00000061H
  0014f	eb 0d		 jmp	 SHORT $LN35@do_put
$LN34@do_put:
  00151	81 f9 00 10 00
	00		 cmp	 ecx, 4096		; 00001000H
  00157	0f 95 c1	 setne	 cl
  0015a	8d 4c 09 65	 lea	 ecx, DWORD PTR [ecx+ecx+101]
$LN35@do_put:
  0015e	dd 45 1c	 fld	 QWORD PTR __Val$[ebp]
  00161	88 08		 mov	 BYTE PTR [eax], cl
  00163	8b 4d 10	 mov	 ecx, DWORD PTR __Dest$[ebp+4]
  00166	51		 push	 ecx
  00167	c6 40 01 00	 mov	 BYTE PTR [eax+1], 0
  0016b	8b 45 0c	 mov	 eax, DWORD PTR __Dest$[ebp]
  0016e	50		 push	 eax
  0016f	83 ec 08	 sub	 esp, 8
  00172	dd 1c 24	 fstp	 QWORD PTR [esp]
  00175	52		 push	 edx
  00176	8d 4c 24 54	 lea	 ecx, DWORD PTR __Fmt$[esp+212]
  0017a	51		 push	 ecx
  0017b	8d 54 24 60	 lea	 edx, DWORD PTR __Buf$[esp+216]
  0017f	6a 6c		 push	 108			; 0000006cH
  00181	52		 push	 edx
  00182	e8 00 00 00 00	 call	 _sprintf_s
  00187	8b 4d 18	 mov	 ecx, DWORD PTR __Fill$[ebp]
  0018a	83 c4 18	 add	 esp, 24			; 00000018H
  0018d	50		 push	 eax
  0018e	56		 push	 esi
  0018f	8b 74 24 4c	 mov	 esi, DWORD PTR ___$ReturnUdt$GSCopy$[esp+208]
  00193	57		 push	 edi
  00194	53		 push	 ebx
  00195	8d 44 24 60	 lea	 eax, DWORD PTR __Buf$[esp+216]
  00199	50		 push	 eax
  0019a	51		 push	 ecx
  0019b	8b 4c 24 58	 mov	 ecx, DWORD PTR __Iosbase$GSCopy$[esp+224]
  0019f	56		 push	 esi
  001a0	e8 00 00 00 00	 call	 ?_Fput@?$num_put@DV?$ostreambuf_iterator@DU?$char_traits@D@std@@@std@@@std@@ABA?AV?$ostreambuf_iterator@DU?$char_traits@D@std@@@2@V32@AAVios_base@2@DPBDIIII@Z ; std::num_put<char,std::ostreambuf_iterator<char,std::char_traits<char> > >::_Fput

; 1277 : 		}

  001a5	8b 8c 24 e0 00
	00 00		 mov	 ecx, DWORD PTR __$ArrayPad$[esp+228]
  001ac	83 c4 24	 add	 esp, 36			; 00000024H
  001af	5f		 pop	 edi
  001b0	8b c6		 mov	 eax, esi
  001b2	5e		 pop	 esi
  001b3	5b		 pop	 ebx
  001b4	33 cc		 xor	 ecx, esp
  001b6	e8 00 00 00 00	 call	 @__security_check_cookie@4
  001bb	8b e5		 mov	 esp, ebp
  001bd	5d		 pop	 ebp
  001be	c2 1c 00	 ret	 28			; 0000001cH
?do_put@?$num_put@DV?$ostreambuf_iterator@DU?$char_traits@D@std@@@std@@@std@@MBE?AV?$ostreambuf_iterator@DU?$char_traits@D@std@@@2@V32@AAVios_base@2@DO@Z ENDP ; std::num_put<char,std::ostreambuf_iterator<char,std::char_traits<char> > >::do_put
_TEXT	ENDS
PUBLIC	__real@3fe0000000000000
PUBLIC	__Iosbase$GSCopy$
PUBLIC	___$ReturnUdt$GSCopy$
PUBLIC	__$ArrayPad$
;	COMDAT __real@3fe0000000000000
CONST	SEGMENT
__real@3fe0000000000000 DQ 03fe0000000000000r	; 0.5
; Function compile flags: /Ogtpy
CONST	ENDS
;	COMDAT ?do_put@?$num_put@DV?$ostreambuf_iterator@DU?$char_traits@D@std@@@std@@@std@@MBE?AV?$ostreambuf_iterator@DU?$char_traits@D@std@@@2@V32@AAVios_base@2@DN@Z
_TEXT	SEGMENT
__Iosbase$GSCopy$ = -136				; size = 4
___$ReturnUdt$GSCopy$ = -132				; size = 4
__Fmt$ = -128						; size = 8
__Buf$ = -120						; size = 108
__$ArrayPad$ = -4					; size = 4
___$ReturnUdt$ = 8					; size = 4
__Dest$ = 12						; size = 8
__Iosbase$ = 20						; size = 4
__Fill$ = 24						; size = 1
__Val$ = 28						; size = 8
?do_put@?$num_put@DV?$ostreambuf_iterator@DU?$char_traits@D@std@@@std@@@std@@MBE?AV?$ostreambuf_iterator@DU?$char_traits@D@std@@@2@V32@AAVios_base@2@DN@Z PROC ; std::num_put<char,std::ostreambuf_iterator<char,std::char_traits<char> > >::do_put, COMDAT
; _this$ = ecx

; 1198 : 		{	// put formatted double to _Dest

  00000	55		 push	 ebp
  00001	8b ec		 mov	 ebp, esp
  00003	83 e4 c0	 and	 esp, -64		; ffffffc0H
  00006	81 ec b4 00 00
	00		 sub	 esp, 180		; 000000b4H
  0000c	a1 00 00 00 00	 mov	 eax, DWORD PTR ___security_cookie
  00011	33 c4		 xor	 eax, esp
  00013	89 84 24 b0 00
	00 00		 mov	 DWORD PTR __$ArrayPad$[esp+180], eax
  0001a	8b 45 08	 mov	 eax, DWORD PTR ___$ReturnUdt$[ebp]
  0001d	8b 4d 14	 mov	 ecx, DWORD PTR __Iosbase$[ebp]
  00020	53		 push	 ebx

; 1230 : 			}
; 1231 : 
; 1232 : 		return (_Fput(_Dest, _Iosbase, _Fill, _Buf,
; 1233 : 			_Beforepoint, _Afterpoint, _Precision,
; 1234 : 				::sprintf_s(_Buf, _Buf_size, _Ffmt(_Fmt, 0, _Iosbase.flags()),
; 1235 : 					_Significance, _Val)));	// convert and put

  00021	89 44 24 34	 mov	 DWORD PTR ___$ReturnUdt$GSCopy$[esp+184], eax
  00025	8b 41 14	 mov	 eax, DWORD PTR [ecx+20]
  00028	56		 push	 esi
  00029	57		 push	 edi
  0002a	89 4c 24 38	 mov	 DWORD PTR __Iosbase$GSCopy$[esp+192], ecx
  0002e	85 c0		 test	 eax, eax
  00030	7f 0e		 jg	 SHORT $LN13@do_put@2

; 1199 : 		const size_t _Buf_size = _MAX_EXP_DIG + _MAX_SIG_DIG + 64;
; 1200 : 		char _Buf[_Buf_size], _Fmt[8];
; 1201 : 		streamsize _Precision = _Iosbase.precision() <= 0
; 1202 : 			&& !(_Iosbase.flags() & ios_base::fixed)
; 1203 : 				? 6 : _Iosbase.precision();	// desired precision

  00032	f7 41 10 00 20
	00 00		 test	 DWORD PTR [ecx+16], 8192 ; 00002000H
  00039	75 05		 jne	 SHORT $LN13@do_put@2
  0003b	b8 06 00 00 00	 mov	 eax, 6
$LN13@do_put@2:
  00040	8b f0		 mov	 esi, eax

; 1204 : 		int _Significance = _MAX_SIG_DIG < _Precision
; 1205 : 			? _MAX_SIG_DIG : (int)_Precision;	// actual sprintf precision

  00042	83 fe 24	 cmp	 esi, 36			; 00000024H
  00045	ba 24 00 00 00	 mov	 edx, 36			; 00000024H
  0004a	7f 02		 jg	 SHORT $LN16@do_put@2
  0004c	8b d6		 mov	 edx, esi
$LN16@do_put@2:

; 1206 : 		_Precision -= _Significance;
; 1207 : 		size_t _Beforepoint = 0;	// zeros to add before decimal point
; 1208 : 		size_t _Afterpoint = 0;	// zeros to add after decimal point
; 1209 : 
; 1210 : 		if ((_Iosbase.flags() & ios_base::floatfield) == ios_base::fixed
; 1211 : 			&& _Val * 0.5 != _Val)	// skip -Inf, 0, Inf

  0004e	8b 49 10	 mov	 ecx, DWORD PTR [ecx+16]
  00051	8b c1		 mov	 eax, ecx
  00053	25 00 30 00 00	 and	 eax, 12288		; 00003000H
  00058	2b f2		 sub	 esi, edx
  0005a	33 db		 xor	 ebx, ebx
  0005c	33 ff		 xor	 edi, edi
  0005e	3d 00 20 00 00	 cmp	 eax, 8192		; 00002000H
  00063	0f 85 b6 00 00
	00		 jne	 $LN1@do_put@2
  00069	f2 0f 10 45 1c	 movsd	 xmm0, QWORD PTR __Val$[ebp]
  0006e	66 0f 28 c8	 movapd	 xmm1, xmm0
  00072	f2 0f 59 0d 00
	00 00 00	 mulsd	 xmm1, QWORD PTR __real@3fe0000000000000
  0007a	66 0f 2e c8	 ucomisd xmm1, xmm0
  0007e	9f		 lahf
  0007f	f6 c4 44	 test	 ah, 68			; 00000044H
  00082	0f 8b 97 00 00
	00		 jnp	 $LN1@do_put@2

; 1212 : 			{	// scale silly fixed-point value
; 1213 : 			bool _Signed = _Val < 0;

  00088	0f 57 db	 xorps	 xmm3, xmm3
  0008b	66 0f 2f d8	 comisd	 xmm3, xmm0
  0008f	f2 0f 10 25 00
	00 00 00	 movsd	 xmm4, QWORD PTR __mask@@NegDouble@
  00097	0f 86 bc 00 00
	00		 jbe	 $LN17@do_put@2

; 1215 : 				_Val = -_Val;

  0009d	66 0f 57 c4	 xorpd	 xmm0, xmm4
  000a1	b0 01		 mov	 al, 1
  000a3	f2 0f 11 45 1c	 movsd	 QWORD PTR __Val$[ebp], xmm0
$LN9@do_put@2:

; 1216 : 
; 1217 : 			for (; 1e35 <= _Val && _Beforepoint < 5000; _Beforepoint += 10)

  000a8	f2 0f 10 0d 00
	00 00 00	 movsd	 xmm1, QWORD PTR __real@4733426172c74d82
  000b0	66 0f 2f c1	 comisd	 xmm0, xmm1
  000b4	f2 0f 10 15 00
	00 00 00	 movsd	 xmm2, QWORD PTR __real@4202a05f20000000
  000bc	72 1c		 jb	 SHORT $LN6@do_put@2
  000be	8b ff		 npad	 2
$LL8@do_put@2:
  000c0	81 fb 88 13 00
	00		 cmp	 ebx, 5000		; 00001388H
  000c6	73 0d		 jae	 SHORT $LN43@do_put@2

; 1218 : 				_Val /= 1e10;	// drop 10 zeros before decimal point

  000c8	f2 0f 5e c2	 divsd	 xmm0, xmm2
  000cc	83 c3 0a	 add	 ebx, 10			; 0000000aH
  000cf	66 0f 2f c1	 comisd	 xmm0, xmm1
  000d3	73 eb		 jae	 SHORT $LL8@do_put@2
$LN43@do_put@2:
  000d5	f2 0f 11 45 1c	 movsd	 QWORD PTR __Val$[ebp], xmm0
$LN6@do_put@2:

; 1219 : 
; 1220 : 			if (0 < _Val)

  000da	66 0f 2f c3	 comisd	 xmm0, xmm3
  000de	76 32		 jbe	 SHORT $LN2@do_put@2

; 1221 : 				for (; 10 <= _Precision && _Val <= 1e-35
; 1222 : 					&& _Afterpoint < 5000; _Afterpoint += 10)

  000e0	83 fe 0a	 cmp	 esi, 10			; 0000000aH
  000e3	7c 2d		 jl	 SHORT $LN2@do_put@2
  000e5	f2 0f 10 0d 00
	00 00 00	 movsd	 xmm1, QWORD PTR __real@38aa95a5b7f87a0f
  000ed	8d 49 00	 npad	 3
$LL4@do_put@2:
  000f0	66 0f 2f c8	 comisd	 xmm1, xmm0
  000f4	72 17		 jb	 SHORT $LN45@do_put@2
  000f6	81 ff 88 13 00
	00		 cmp	 edi, 5000		; 00001388H
  000fc	73 0f		 jae	 SHORT $LN45@do_put@2

; 1225 : 					_Precision -= 10;

  000fe	83 ee 0a	 sub	 esi, 10			; 0000000aH
  00101	83 c7 0a	 add	 edi, 10			; 0000000aH
  00104	83 fe 0a	 cmp	 esi, 10			; 0000000aH
  00107	f2 0f 59 c2	 mulsd	 xmm0, xmm2
  0010b	7d e3		 jge	 SHORT $LL4@do_put@2
$LN45@do_put@2:

; 1223 : 					{	// drop 10 zeros after decimal point
; 1224 : 					_Val *= 1e10;

  0010d	f2 0f 11 45 1c	 movsd	 QWORD PTR __Val$[ebp], xmm0
$LN2@do_put@2:

; 1226 : 					}
; 1227 : 
; 1228 : 			if (_Signed)

  00112	84 c0		 test	 al, al
  00114	74 09		 je	 SHORT $LN1@do_put@2

; 1229 : 				_Val = -_Val;

  00116	66 0f 57 c4	 xorpd	 xmm0, xmm4
  0011a	f2 0f 11 45 1c	 movsd	 QWORD PTR __Val$[ebp], xmm0
$LN1@do_put@2:

; 1230 : 			}
; 1231 : 
; 1232 : 		return (_Fput(_Dest, _Iosbase, _Fill, _Buf,
; 1233 : 			_Beforepoint, _Afterpoint, _Precision,
; 1234 : 				::sprintf_s(_Buf, _Buf_size, _Ffmt(_Fmt, 0, _Iosbase.flags()),
; 1235 : 					_Significance, _Val)));	// convert and put

  0011f	c6 44 24 40 25	 mov	 BYTE PTR __Fmt$[esp+192], 37 ; 00000025H
  00124	8d 44 24 41	 lea	 eax, DWORD PTR __Fmt$[esp+193]
  00128	f6 c1 20	 test	 cl, 32			; 00000020H
  0012b	74 09		 je	 SHORT $LN31@do_put@2
  0012d	c6 44 24 41 2b	 mov	 BYTE PTR __Fmt$[esp+193], 43 ; 0000002bH
  00132	8d 44 24 42	 lea	 eax, DWORD PTR __Fmt$[esp+194]
$LN31@do_put@2:
  00136	f6 c1 10	 test	 cl, 16			; 00000010H
  00139	74 04		 je	 SHORT $LN30@do_put@2
  0013b	c6 00 23	 mov	 BYTE PTR [eax], 35	; 00000023H
  0013e	40		 inc	 eax
$LN30@do_put@2:
  0013f	c6 00 2e	 mov	 BYTE PTR [eax], 46	; 0000002eH
  00142	40		 inc	 eax
  00143	c6 00 2a	 mov	 BYTE PTR [eax], 42	; 0000002aH
  00146	81 e1 00 30 00
	00		 and	 ecx, 12288		; 00003000H
  0014c	40		 inc	 eax
  0014d	81 f9 00 20 00
	00		 cmp	 ecx, 8192		; 00002000H
  00153	75 0b		 jne	 SHORT $LN36@do_put@2
  00155	b1 66		 mov	 cl, 102			; 00000066H
  00157	eb 20		 jmp	 SHORT $LN35@do_put@2
$LN17@do_put@2:

; 1212 : 			{	// scale silly fixed-point value
; 1213 : 			bool _Signed = _Val < 0;

  00159	32 c0		 xor	 al, al

; 1214 : 			if (_Signed)

  0015b	e9 48 ff ff ff	 jmp	 $LN9@do_put@2

; 1230 : 			}
; 1231 : 
; 1232 : 		return (_Fput(_Dest, _Iosbase, _Fill, _Buf,
; 1233 : 			_Beforepoint, _Afterpoint, _Precision,
; 1234 : 				::sprintf_s(_Buf, _Buf_size, _Ffmt(_Fmt, 0, _Iosbase.flags()),
; 1235 : 					_Significance, _Val)));	// convert and put

$LN36@do_put@2:
  00160	81 f9 00 30 00
	00		 cmp	 ecx, 12288		; 00003000H
  00166	75 04		 jne	 SHORT $LN34@do_put@2
  00168	b1 61		 mov	 cl, 97			; 00000061H
  0016a	eb 0d		 jmp	 SHORT $LN35@do_put@2
$LN34@do_put@2:
  0016c	81 f9 00 10 00
	00		 cmp	 ecx, 4096		; 00001000H
  00172	0f 95 c1	 setne	 cl
  00175	8d 4c 09 65	 lea	 ecx, DWORD PTR [ecx+ecx+101]
$LN35@do_put@2:
  00179	dd 45 1c	 fld	 QWORD PTR __Val$[ebp]
  0017c	88 08		 mov	 BYTE PTR [eax], cl
  0017e	8b 4d 10	 mov	 ecx, DWORD PTR __Dest$[ebp+4]
  00181	51		 push	 ecx
  00182	c6 40 01 00	 mov	 BYTE PTR [eax+1], 0
  00186	8b 45 0c	 mov	 eax, DWORD PTR __Dest$[ebp]
  00189	50		 push	 eax
  0018a	83 ec 08	 sub	 esp, 8
  0018d	dd 1c 24	 fstp	 QWORD PTR [esp]
  00190	52		 push	 edx
  00191	8d 4c 24 54	 lea	 ecx, DWORD PTR __Fmt$[esp+212]
  00195	51		 push	 ecx
  00196	8d 54 24 60	 lea	 edx, DWORD PTR __Buf$[esp+216]
  0019a	6a 6c		 push	 108			; 0000006cH
  0019c	52		 push	 edx
  0019d	e8 00 00 00 00	 call	 _sprintf_s
  001a2	8b 4d 18	 mov	 ecx, DWORD PTR __Fill$[ebp]
  001a5	83 c4 18	 add	 esp, 24			; 00000018H
  001a8	50		 push	 eax
  001a9	56		 push	 esi
  001aa	8b 74 24 4c	 mov	 esi, DWORD PTR ___$ReturnUdt$GSCopy$[esp+208]
  001ae	57		 push	 edi
  001af	53		 push	 ebx
  001b0	8d 44 24 60	 lea	 eax, DWORD PTR __Buf$[esp+216]
  001b4	50		 push	 eax
  001b5	51		 push	 ecx
  001b6	8b 4c 24 58	 mov	 ecx, DWORD PTR __Iosbase$GSCopy$[esp+224]
  001ba	56		 push	 esi
  001bb	e8 00 00 00 00	 call	 ?_Fput@?$num_put@DV?$ostreambuf_iterator@DU?$char_traits@D@std@@@std@@@std@@ABA?AV?$ostreambuf_iterator@DU?$char_traits@D@std@@@2@V32@AAVios_base@2@DPBDIIII@Z ; std::num_put<char,std::ostreambuf_iterator<char,std::char_traits<char> > >::_Fput

; 1236 : 		}

  001c0	8b 8c 24 e0 00
	00 00		 mov	 ecx, DWORD PTR __$ArrayPad$[esp+228]
  001c7	83 c4 24	 add	 esp, 36			; 00000024H
  001ca	5f		 pop	 edi
  001cb	8b c6		 mov	 eax, esi
  001cd	5e		 pop	 esi
  001ce	5b		 pop	 ebx
  001cf	33 cc		 xor	 ecx, esp
  001d1	e8 00 00 00 00	 call	 @__security_check_cookie@4
  001d6	8b e5		 mov	 esp, ebp
  001d8	5d		 pop	 ebp
  001d9	c2 1c 00	 ret	 28			; 0000001cH
?do_put@?$num_put@DV?$ostreambuf_iterator@DU?$char_traits@D@std@@@std@@@std@@MBE?AV?$ostreambuf_iterator@DU?$char_traits@D@std@@@2@V32@AAVios_base@2@DN@Z ENDP ; std::num_put<char,std::ostreambuf_iterator<char,std::char_traits<char> > >::do_put
_TEXT	ENDS
PUBLIC	__$ArrayPad$
; Function compile flags: /Ogtpy
;	COMDAT ?do_put@?$num_put@DV?$ostreambuf_iterator@DU?$char_traits@D@std@@@std@@@std@@MBE?AV?$ostreambuf_iterator@DU?$char_traits@D@std@@@2@V32@AAVios_base@2@D_K@Z
_TEXT	SEGMENT
__Fmt$ = -80						; size = 8
__Buf$ = -72						; size = 64
__$ArrayPad$ = -4					; size = 4
___$ReturnUdt$ = 8					; size = 4
__Dest$ = 12						; size = 8
__Iosbase$ = 20						; size = 4
__Fill$ = 24						; size = 1
__Val$ = 28						; size = 8
?do_put@?$num_put@DV?$ostreambuf_iterator@DU?$char_traits@D@std@@@std@@@std@@MBE?AV?$ostreambuf_iterator@DU?$char_traits@D@std@@@2@V32@AAVios_base@2@D_K@Z PROC ; std::num_put<char,std::ostreambuf_iterator<char,std::char_traits<char> > >::do_put, COMDAT
; _this$ = ecx

; 1187 : 		{	// put formatted unsigned long long to _Dest

  00000	55		 push	 ebp
  00001	8b ec		 mov	 ebp, esp
  00003	83 e4 f8	 and	 esp, -8			; fffffff8H
  00006	83 ec 54	 sub	 esp, 84			; 00000054H
  00009	a1 00 00 00 00	 mov	 eax, DWORD PTR ___security_cookie
  0000e	33 c4		 xor	 eax, esp
  00010	89 44 24 50	 mov	 DWORD PTR __$ArrayPad$[esp+84], eax

; 1188 : 		const size_t _Buf_size = 2 * _MAX_INT_DIG;
; 1189 : 		char _Buf[_Buf_size], _Fmt[8];
; 1190 : 		return (_Iput(_Dest, _Iosbase, _Fill, _Buf,
; 1191 : 			::sprintf_s(_Buf, _Buf_size, _Ifmt(_Fmt, "Lu",
; 1192 : 				_Iosbase.flags()), _Val)));

  00014	8b 45 10	 mov	 eax, DWORD PTR __Dest$[ebp+4]
  00017	8b 4d 0c	 mov	 ecx, DWORD PTR __Dest$[ebp]
  0001a	53		 push	 ebx
  0001b	8b 5d 14	 mov	 ebx, DWORD PTR __Iosbase$[ebp]
  0001e	8b 53 10	 mov	 edx, DWORD PTR [ebx+16]
  00021	56		 push	 esi
  00022	8b 75 08	 mov	 esi, DWORD PTR ___$ReturnUdt$[ebp]
  00025	57		 push	 edi
  00026	50		 push	 eax
  00027	8b 45 20	 mov	 eax, DWORD PTR __Val$[ebp+4]
  0002a	51		 push	 ecx
  0002b	8b 4d 1c	 mov	 ecx, DWORD PTR __Val$[ebp]
  0002e	50		 push	 eax
  0002f	51		 push	 ecx
  00030	bf 00 00 00 00	 mov	 edi, OFFSET ??_C@_02CLHGNPPK@Lu?$AA@
  00035	8d 44 24 20	 lea	 eax, DWORD PTR __Fmt$[esp+112]
  00039	e8 00 00 00 00	 call	 ?_Ifmt@?$num_put@DV?$ostreambuf_iterator@DU?$char_traits@D@std@@@std@@@std@@ABAPADPADPBDH@Z ; std::num_put<char,std::ostreambuf_iterator<char,std::char_traits<char> > >::_Ifmt
  0003e	50		 push	 eax
  0003f	8d 54 24 2c	 lea	 edx, DWORD PTR __Buf$[esp+116]
  00043	6a 40		 push	 64			; 00000040H
  00045	52		 push	 edx
  00046	e8 00 00 00 00	 call	 _sprintf_s
  0004b	8b 4d 18	 mov	 ecx, DWORD PTR __Fill$[ebp]
  0004e	83 c4 14	 add	 esp, 20			; 00000014H
  00051	50		 push	 eax
  00052	8d 44 24 24	 lea	 eax, DWORD PTR __Buf$[esp+108]
  00056	50		 push	 eax
  00057	51		 push	 ecx
  00058	56		 push	 esi
  00059	8b cb		 mov	 ecx, ebx
  0005b	e8 00 00 00 00	 call	 ?_Iput@?$num_put@DV?$ostreambuf_iterator@DU?$char_traits@D@std@@@std@@@std@@ABA?AV?$ostreambuf_iterator@DU?$char_traits@D@std@@@2@V32@AAVios_base@2@DPADI@Z ; std::num_put<char,std::ostreambuf_iterator<char,std::char_traits<char> > >::_Iput

; 1193 : 		}

  00060	8b 4c 24 74	 mov	 ecx, DWORD PTR __$ArrayPad$[esp+120]
  00064	83 c4 18	 add	 esp, 24			; 00000018H
  00067	5f		 pop	 edi
  00068	8b c6		 mov	 eax, esi
  0006a	5e		 pop	 esi
  0006b	5b		 pop	 ebx
  0006c	33 cc		 xor	 ecx, esp
  0006e	e8 00 00 00 00	 call	 @__security_check_cookie@4
  00073	8b e5		 mov	 esp, ebp
  00075	5d		 pop	 ebp
  00076	c2 1c 00	 ret	 28			; 0000001cH
?do_put@?$num_put@DV?$ostreambuf_iterator@DU?$char_traits@D@std@@@std@@@std@@MBE?AV?$ostreambuf_iterator@DU?$char_traits@D@std@@@2@V32@AAVios_base@2@D_K@Z ENDP ; std::num_put<char,std::ostreambuf_iterator<char,std::char_traits<char> > >::do_put
_TEXT	ENDS
PUBLIC	__$ArrayPad$
; Function compile flags: /Ogtpy
;	COMDAT ?do_put@?$num_put@DV?$ostreambuf_iterator@DU?$char_traits@D@std@@@std@@@std@@MBE?AV?$ostreambuf_iterator@DU?$char_traits@D@std@@@2@V32@AAVios_base@2@D_J@Z
_TEXT	SEGMENT
__Fmt$ = -80						; size = 8
__Buf$ = -72						; size = 64
__$ArrayPad$ = -4					; size = 4
___$ReturnUdt$ = 8					; size = 4
__Dest$ = 12						; size = 8
__Iosbase$ = 20						; size = 4
__Fill$ = 24						; size = 1
__Val$ = 28						; size = 8
?do_put@?$num_put@DV?$ostreambuf_iterator@DU?$char_traits@D@std@@@std@@@std@@MBE?AV?$ostreambuf_iterator@DU?$char_traits@D@std@@@2@V32@AAVios_base@2@D_J@Z PROC ; std::num_put<char,std::ostreambuf_iterator<char,std::char_traits<char> > >::do_put, COMDAT
; _this$ = ecx

; 1177 : 		{	// put formatted long long to _Dest

  00000	55		 push	 ebp
  00001	8b ec		 mov	 ebp, esp
  00003	83 e4 f8	 and	 esp, -8			; fffffff8H
  00006	83 ec 54	 sub	 esp, 84			; 00000054H
  00009	a1 00 00 00 00	 mov	 eax, DWORD PTR ___security_cookie
  0000e	33 c4		 xor	 eax, esp
  00010	89 44 24 50	 mov	 DWORD PTR __$ArrayPad$[esp+84], eax

; 1178 : 		const size_t _Buf_size = 2 * _MAX_INT_DIG;
; 1179 : 		char _Buf[_Buf_size], _Fmt[8];
; 1180 : 		return (_Iput(_Dest, _Iosbase, _Fill, _Buf,
; 1181 : 			::sprintf_s(_Buf, _Buf_size, _Ifmt(_Fmt, "Ld",
; 1182 : 				_Iosbase.flags()), _Val)));

  00014	8b 45 10	 mov	 eax, DWORD PTR __Dest$[ebp+4]
  00017	8b 4d 0c	 mov	 ecx, DWORD PTR __Dest$[ebp]
  0001a	53		 push	 ebx
  0001b	8b 5d 14	 mov	 ebx, DWORD PTR __Iosbase$[ebp]
  0001e	8b 53 10	 mov	 edx, DWORD PTR [ebx+16]
  00021	56		 push	 esi
  00022	8b 75 08	 mov	 esi, DWORD PTR ___$ReturnUdt$[ebp]
  00025	57		 push	 edi
  00026	50		 push	 eax
  00027	8b 45 20	 mov	 eax, DWORD PTR __Val$[ebp+4]
  0002a	51		 push	 ecx
  0002b	8b 4d 1c	 mov	 ecx, DWORD PTR __Val$[ebp]
  0002e	50		 push	 eax
  0002f	51		 push	 ecx
  00030	bf 00 00 00 00	 mov	 edi, OFFSET ??_C@_02HIKPPMOK@Ld?$AA@
  00035	8d 44 24 20	 lea	 eax, DWORD PTR __Fmt$[esp+112]
  00039	e8 00 00 00 00	 call	 ?_Ifmt@?$num_put@DV?$ostreambuf_iterator@DU?$char_traits@D@std@@@std@@@std@@ABAPADPADPBDH@Z ; std::num_put<char,std::ostreambuf_iterator<char,std::char_traits<char> > >::_Ifmt
  0003e	50		 push	 eax
  0003f	8d 54 24 2c	 lea	 edx, DWORD PTR __Buf$[esp+116]
  00043	6a 40		 push	 64			; 00000040H
  00045	52		 push	 edx
  00046	e8 00 00 00 00	 call	 _sprintf_s
  0004b	8b 4d 18	 mov	 ecx, DWORD PTR __Fill$[ebp]
  0004e	83 c4 14	 add	 esp, 20			; 00000014H
  00051	50		 push	 eax
  00052	8d 44 24 24	 lea	 eax, DWORD PTR __Buf$[esp+108]
  00056	50		 push	 eax
  00057	51		 push	 ecx
  00058	56		 push	 esi
  00059	8b cb		 mov	 ecx, ebx
  0005b	e8 00 00 00 00	 call	 ?_Iput@?$num_put@DV?$ostreambuf_iterator@DU?$char_traits@D@std@@@std@@@std@@ABA?AV?$ostreambuf_iterator@DU?$char_traits@D@std@@@2@V32@AAVios_base@2@DPADI@Z ; std::num_put<char,std::ostreambuf_iterator<char,std::char_traits<char> > >::_Iput

; 1183 : 		}

  00060	8b 4c 24 74	 mov	 ecx, DWORD PTR __$ArrayPad$[esp+120]
  00064	83 c4 18	 add	 esp, 24			; 00000018H
  00067	5f		 pop	 edi
  00068	8b c6		 mov	 eax, esi
  0006a	5e		 pop	 esi
  0006b	5b		 pop	 ebx
  0006c	33 cc		 xor	 ecx, esp
  0006e	e8 00 00 00 00	 call	 @__security_check_cookie@4
  00073	8b e5		 mov	 esp, ebp
  00075	5d		 pop	 ebp
  00076	c2 1c 00	 ret	 28			; 0000001cH
?do_put@?$num_put@DV?$ostreambuf_iterator@DU?$char_traits@D@std@@@std@@@std@@MBE?AV?$ostreambuf_iterator@DU?$char_traits@D@std@@@2@V32@AAVios_base@2@D_J@Z ENDP ; std::num_put<char,std::ostreambuf_iterator<char,std::char_traits<char> > >::do_put
_TEXT	ENDS
PUBLIC	__$ArrayPad$
; Function compile flags: /Ogtpy
;	COMDAT ?do_put@?$num_put@DV?$ostreambuf_iterator@DU?$char_traits@D@std@@@std@@@std@@MBE?AV?$ostreambuf_iterator@DU?$char_traits@D@std@@@2@V32@AAVios_base@2@DK@Z
_TEXT	SEGMENT
__Fmt$ = -80						; size = 6
__Buf$ = -72						; size = 64
__$ArrayPad$ = -4					; size = 4
___$ReturnUdt$ = 8					; size = 4
__Dest$ = 12						; size = 8
__Iosbase$ = 20						; size = 4
__Fill$ = 24						; size = 1
__Val$ = 28						; size = 4
?do_put@?$num_put@DV?$ostreambuf_iterator@DU?$char_traits@D@std@@@std@@@std@@MBE?AV?$ostreambuf_iterator@DU?$char_traits@D@std@@@2@V32@AAVios_base@2@DK@Z PROC ; std::num_put<char,std::ostreambuf_iterator<char,std::char_traits<char> > >::do_put, COMDAT
; _this$ = ecx

; 1166 : 		{	// put formatted unsigned long to _Dest

  00000	55		 push	 ebp
  00001	8b ec		 mov	 ebp, esp
  00003	83 e4 f8	 and	 esp, -8			; fffffff8H
  00006	83 ec 54	 sub	 esp, 84			; 00000054H
  00009	a1 00 00 00 00	 mov	 eax, DWORD PTR ___security_cookie
  0000e	33 c4		 xor	 eax, esp
  00010	89 44 24 50	 mov	 DWORD PTR __$ArrayPad$[esp+84], eax

; 1167 : 		const size_t _Buf_size = 2 * _MAX_INT_DIG;
; 1168 : 		char _Buf[_Buf_size], _Fmt[6];
; 1169 : 		return (_Iput(_Dest, _Iosbase, _Fill, _Buf,
; 1170 : 			::sprintf_s(_Buf, _Buf_size, _Ifmt(_Fmt, "lu",
; 1171 : 				_Iosbase.flags()), _Val)));

  00014	8b 45 10	 mov	 eax, DWORD PTR __Dest$[ebp+4]
  00017	8b 4d 0c	 mov	 ecx, DWORD PTR __Dest$[ebp]
  0001a	53		 push	 ebx
  0001b	8b 5d 14	 mov	 ebx, DWORD PTR __Iosbase$[ebp]
  0001e	8b 53 10	 mov	 edx, DWORD PTR [ebx+16]
  00021	56		 push	 esi
  00022	8b 75 08	 mov	 esi, DWORD PTR ___$ReturnUdt$[ebp]
  00025	57		 push	 edi
  00026	50		 push	 eax
  00027	8b 45 1c	 mov	 eax, DWORD PTR __Val$[ebp]
  0002a	51		 push	 ecx
  0002b	50		 push	 eax
  0002c	bf 00 00 00 00	 mov	 edi, OFFSET ??_C@_02BDDLJJBK@lu?$AA@
  00031	8d 44 24 1c	 lea	 eax, DWORD PTR __Fmt$[esp+108]
  00035	e8 00 00 00 00	 call	 ?_Ifmt@?$num_put@DV?$ostreambuf_iterator@DU?$char_traits@D@std@@@std@@@std@@ABAPADPADPBDH@Z ; std::num_put<char,std::ostreambuf_iterator<char,std::char_traits<char> > >::_Ifmt
  0003a	50		 push	 eax
  0003b	8d 4c 24 28	 lea	 ecx, DWORD PTR __Buf$[esp+112]
  0003f	6a 40		 push	 64			; 00000040H
  00041	51		 push	 ecx
  00042	e8 00 00 00 00	 call	 _sprintf_s
  00047	83 c4 10	 add	 esp, 16			; 00000010H
  0004a	50		 push	 eax
  0004b	8b 45 18	 mov	 eax, DWORD PTR __Fill$[ebp]
  0004e	8d 54 24 24	 lea	 edx, DWORD PTR __Buf$[esp+108]
  00052	52		 push	 edx
  00053	50		 push	 eax
  00054	56		 push	 esi
  00055	8b cb		 mov	 ecx, ebx
  00057	e8 00 00 00 00	 call	 ?_Iput@?$num_put@DV?$ostreambuf_iterator@DU?$char_traits@D@std@@@std@@@std@@ABA?AV?$ostreambuf_iterator@DU?$char_traits@D@std@@@2@V32@AAVios_base@2@DPADI@Z ; std::num_put<char,std::ostreambuf_iterator<char,std::char_traits<char> > >::_Iput

; 1172 : 		}

  0005c	8b 4c 24 74	 mov	 ecx, DWORD PTR __$ArrayPad$[esp+120]
  00060	83 c4 18	 add	 esp, 24			; 00000018H
  00063	5f		 pop	 edi
  00064	8b c6		 mov	 eax, esi
  00066	5e		 pop	 esi
  00067	5b		 pop	 ebx
  00068	33 cc		 xor	 ecx, esp
  0006a	e8 00 00 00 00	 call	 @__security_check_cookie@4
  0006f	8b e5		 mov	 esp, ebp
  00071	5d		 pop	 ebp
  00072	c2 18 00	 ret	 24			; 00000018H
?do_put@?$num_put@DV?$ostreambuf_iterator@DU?$char_traits@D@std@@@std@@@std@@MBE?AV?$ostreambuf_iterator@DU?$char_traits@D@std@@@2@V32@AAVios_base@2@DK@Z ENDP ; std::num_put<char,std::ostreambuf_iterator<char,std::char_traits<char> > >::do_put
_TEXT	ENDS
PUBLIC	__$ArrayPad$
; Function compile flags: /Ogtpy
;	COMDAT ?do_put@?$num_put@DV?$ostreambuf_iterator@DU?$char_traits@D@std@@@std@@@std@@MBE?AV?$ostreambuf_iterator@DU?$char_traits@D@std@@@2@V32@AAVios_base@2@DJ@Z
_TEXT	SEGMENT
__Fmt$ = -80						; size = 6
__Buf$ = -72						; size = 64
__$ArrayPad$ = -4					; size = 4
___$ReturnUdt$ = 8					; size = 4
__Dest$ = 12						; size = 8
__Iosbase$ = 20						; size = 4
__Fill$ = 24						; size = 1
__Val$ = 28						; size = 4
?do_put@?$num_put@DV?$ostreambuf_iterator@DU?$char_traits@D@std@@@std@@@std@@MBE?AV?$ostreambuf_iterator@DU?$char_traits@D@std@@@2@V32@AAVios_base@2@DJ@Z PROC ; std::num_put<char,std::ostreambuf_iterator<char,std::char_traits<char> > >::do_put, COMDAT
; _this$ = ecx

; 1156 : 		{	// put formatted long to _Dest

  00000	55		 push	 ebp
  00001	8b ec		 mov	 ebp, esp
  00003	83 e4 f8	 and	 esp, -8			; fffffff8H
  00006	83 ec 54	 sub	 esp, 84			; 00000054H
  00009	a1 00 00 00 00	 mov	 eax, DWORD PTR ___security_cookie
  0000e	33 c4		 xor	 eax, esp
  00010	89 44 24 50	 mov	 DWORD PTR __$ArrayPad$[esp+84], eax

; 1157 : 		const size_t _Buf_size = 2 * _MAX_INT_DIG;
; 1158 : 		char _Buf[_Buf_size], _Fmt[6];
; 1159 : 		return (_Iput(_Dest, _Iosbase, _Fill, _Buf,
; 1160 : 			::sprintf_s(_Buf, _Buf_size, _Ifmt(_Fmt, "ld",
; 1161 : 				_Iosbase.flags()), _Val)));

  00014	8b 45 10	 mov	 eax, DWORD PTR __Dest$[ebp+4]
  00017	8b 4d 0c	 mov	 ecx, DWORD PTR __Dest$[ebp]
  0001a	53		 push	 ebx
  0001b	8b 5d 14	 mov	 ebx, DWORD PTR __Iosbase$[ebp]
  0001e	8b 53 10	 mov	 edx, DWORD PTR [ebx+16]
  00021	56		 push	 esi
  00022	8b 75 08	 mov	 esi, DWORD PTR ___$ReturnUdt$[ebp]
  00025	57		 push	 edi
  00026	50		 push	 eax
  00027	8b 45 1c	 mov	 eax, DWORD PTR __Val$[ebp]
  0002a	51		 push	 ecx
  0002b	50		 push	 eax
  0002c	bf 00 00 00 00	 mov	 edi, OFFSET ??_C@_02EAOCLKAK@ld?$AA@
  00031	8d 44 24 1c	 lea	 eax, DWORD PTR __Fmt$[esp+108]
  00035	e8 00 00 00 00	 call	 ?_Ifmt@?$num_put@DV?$ostreambuf_iterator@DU?$char_traits@D@std@@@std@@@std@@ABAPADPADPBDH@Z ; std::num_put<char,std::ostreambuf_iterator<char,std::char_traits<char> > >::_Ifmt
  0003a	50		 push	 eax
  0003b	8d 4c 24 28	 lea	 ecx, DWORD PTR __Buf$[esp+112]
  0003f	6a 40		 push	 64			; 00000040H
  00041	51		 push	 ecx
  00042	e8 00 00 00 00	 call	 _sprintf_s
  00047	83 c4 10	 add	 esp, 16			; 00000010H
  0004a	50		 push	 eax
  0004b	8b 45 18	 mov	 eax, DWORD PTR __Fill$[ebp]
  0004e	8d 54 24 24	 lea	 edx, DWORD PTR __Buf$[esp+108]
  00052	52		 push	 edx
  00053	50		 push	 eax
  00054	56		 push	 esi
  00055	8b cb		 mov	 ecx, ebx
  00057	e8 00 00 00 00	 call	 ?_Iput@?$num_put@DV?$ostreambuf_iterator@DU?$char_traits@D@std@@@std@@@std@@ABA?AV?$ostreambuf_iterator@DU?$char_traits@D@std@@@2@V32@AAVios_base@2@DPADI@Z ; std::num_put<char,std::ostreambuf_iterator<char,std::char_traits<char> > >::_Iput

; 1162 : 		}

  0005c	8b 4c 24 74	 mov	 ecx, DWORD PTR __$ArrayPad$[esp+120]
  00060	83 c4 18	 add	 esp, 24			; 00000018H
  00063	5f		 pop	 edi
  00064	8b c6		 mov	 eax, esi
  00066	5e		 pop	 esi
  00067	5b		 pop	 ebx
  00068	33 cc		 xor	 ecx, esp
  0006a	e8 00 00 00 00	 call	 @__security_check_cookie@4
  0006f	8b e5		 mov	 esp, ebp
  00071	5d		 pop	 ebp
  00072	c2 18 00	 ret	 24			; 00000018H
?do_put@?$num_put@DV?$ostreambuf_iterator@DU?$char_traits@D@std@@@std@@@std@@MBE?AV?$ostreambuf_iterator@DU?$char_traits@D@std@@@2@V32@AAVios_base@2@DJ@Z ENDP ; std::num_put<char,std::ostreambuf_iterator<char,std::char_traits<char> > >::do_put
_TEXT	ENDS
PUBLIC	__Iosbase$GSCopy$
PUBLIC	___$ReturnUdt$GSCopy$
PUBLIC	__$ArrayPad$
;	COMDAT xdata$x
; File c:\program files\microsoft visual studio 9.0\vc\include\iosfwd
xdata$x	SEGMENT
__unwindtable$?do_put@?$num_put@DV?$ostreambuf_iterator@DU?$char_traits@D@std@@@std@@@std@@MBE?AV?$ostreambuf_iterator@DU?$char_traits@D@std@@@2@V32@AAVios_base@2@D_N@Z DD 0ffffffffH
	DD	FLAT:__unwindfunclet$?do_put@?$num_put@DV?$ostreambuf_iterator@DU?$char_traits@D@std@@@std@@@std@@MBE?AV?$ostreambuf_iterator@DU?$char_traits@D@std@@@2@V32@AAVios_base@2@D_N@Z$0
	DD	0ffffffffH
	DD	FLAT:__unwindfunclet$?do_put@?$num_put@DV?$ostreambuf_iterator@DU?$char_traits@D@std@@@std@@@std@@MBE?AV?$ostreambuf_iterator@DU?$char_traits@D@std@@@2@V32@AAVios_base@2@D_N@Z$1
	DD	01H
	DD	FLAT:__unwindfunclet$?do_put@?$num_put@DV?$ostreambuf_iterator@DU?$char_traits@D@std@@@std@@@std@@MBE?AV?$ostreambuf_iterator@DU?$char_traits@D@std@@@2@V32@AAVios_base@2@D_N@Z$2
	DD	01H
	DD	FLAT:__unwindfunclet$?do_put@?$num_put@DV?$ostreambuf_iterator@DU?$char_traits@D@std@@@std@@@std@@MBE?AV?$ostreambuf_iterator@DU?$char_traits@D@std@@@2@V32@AAVios_base@2@D_N@Z$3
__ehfuncinfo$?do_put@?$num_put@DV?$ostreambuf_iterator@DU?$char_traits@D@std@@@std@@@std@@MBE?AV?$ostreambuf_iterator@DU?$char_traits@D@std@@@2@V32@AAVios_base@2@D_N@Z DD 019930522H
	DD	04H
	DD	FLAT:__unwindtable$?do_put@?$num_put@DV?$ostreambuf_iterator@DU?$char_traits@D@std@@@std@@@std@@MBE?AV?$ostreambuf_iterator@DU?$char_traits@D@std@@@2@V32@AAVios_base@2@D_N@Z
	DD	2 DUP(00H)
	DD	2 DUP(00H)
	DD	00H
	DD	01H
; Function compile flags: /Ogtpy
; File c:\program files\microsoft visual studio 9.0\vc\include\xlocnum
xdata$x	ENDS
;	COMDAT ?do_put@?$num_put@DV?$ostreambuf_iterator@DU?$char_traits@D@std@@@std@@@std@@MBE?AV?$ostreambuf_iterator@DU?$char_traits@D@std@@@2@V32@AAVios_base@2@D_N@Z
_TEXT	SEGMENT
___$ReturnUdt$GSCopy$ = -104				; size = 4
__Punct_fac$39688 = -100				; size = 4
$T70504 = -96						; size = 4
__Lock$70541 = -92					; size = 4
$T70509 = -92						; size = 8
__Iosbase$GSCopy$ = -84					; size = 4
$T70510 = -84						; size = 8
$T70506 = -76						; size = 28
$T70505 = -76						; size = 28
__Str$39695 = -48					; size = 28
__$ArrayPad$ = -20					; size = 4
__$EHRec$ = -12						; size = 12
___$ReturnUdt$ = 8					; size = 4
__Dest$ = 12						; size = 8
__Iosbase$ = 20						; size = 4
__Fill$ = 24						; size = 1
__Val$ = 28						; size = 1
?do_put@?$num_put@DV?$ostreambuf_iterator@DU?$char_traits@D@std@@@std@@@std@@MBE?AV?$ostreambuf_iterator@DU?$char_traits@D@std@@@2@V32@AAVios_base@2@D_N@Z PROC ; std::num_put<char,std::ostreambuf_iterator<char,std::char_traits<char> > >::do_put, COMDAT
; _this$ = ecx

; 1126 : 		{	// put formatted bool to _Dest

  00000	55		 push	 ebp
  00001	8b ec		 mov	 ebp, esp
  00003	83 e4 f8	 and	 esp, -8			; fffffff8H
  00006	6a ff		 push	 -1
  00008	68 00 00 00 00	 push	 __ehhandler$?do_put@?$num_put@DV?$ostreambuf_iterator@DU?$char_traits@D@std@@@std@@@std@@MBE?AV?$ostreambuf_iterator@DU?$char_traits@D@std@@@2@V32@AAVios_base@2@D_N@Z
  0000d	64 a1 00 00 00
	00		 mov	 eax, DWORD PTR fs:0
  00013	50		 push	 eax
  00014	83 ec 60	 sub	 esp, 96			; 00000060H
  00017	a1 00 00 00 00	 mov	 eax, DWORD PTR ___security_cookie
  0001c	33 c4		 xor	 eax, esp
  0001e	89 44 24 58	 mov	 DWORD PTR __$ArrayPad$[esp+108], eax
  00022	53		 push	 ebx
  00023	56		 push	 esi
  00024	57		 push	 edi
  00025	a1 00 00 00 00	 mov	 eax, DWORD PTR ___security_cookie
  0002a	33 c4		 xor	 eax, esp
  0002c	50		 push	 eax
  0002d	8d 44 24 70	 lea	 eax, DWORD PTR __$EHRec$[esp+124]
  00031	64 a3 00 00 00
	00		 mov	 DWORD PTR fs:0, eax
  00037	8b 7d 14	 mov	 edi, DWORD PTR __Iosbase$[ebp]

; 1127 : 		_DEBUG_POINTER(_Dest);
; 1128 : 		if (!(_Iosbase.flags() & ios_base::boolalpha))

  0003a	f7 47 10 00 40
	00 00		 test	 DWORD PTR [edi+16], 16384 ; 00004000H
  00041	8b 75 08	 mov	 esi, DWORD PTR ___$ReturnUdt$[ebp]

; 1147 : 				}
; 1148 : 			_Dest = _Put(_Dest, _Str.c_str(), _Str.size());	// put field

  00044	89 74 24 14	 mov	 DWORD PTR ___$ReturnUdt$GSCopy$[esp+124], esi
  00048	89 7c 24 28	 mov	 DWORD PTR __Iosbase$GSCopy$[esp+124], edi
  0004c	75 21		 jne	 SHORT $LN5@do_put@3
  0004e	0f b6 55 1c	 movzx	 edx, BYTE PTR __Val$[ebp]
  00052	8b 01		 mov	 eax, DWORD PTR [ecx]
  00054	8b 40 1c	 mov	 eax, DWORD PTR [eax+28]
  00057	52		 push	 edx
  00058	8b 55 18	 mov	 edx, DWORD PTR __Fill$[ebp]
  0005b	52		 push	 edx
  0005c	8b 55 10	 mov	 edx, DWORD PTR __Dest$[ebp+4]
  0005f	57		 push	 edi
  00060	52		 push	 edx
  00061	8b 55 0c	 mov	 edx, DWORD PTR __Dest$[ebp]
  00064	52		 push	 edx
  00065	56		 push	 esi
  00066	ff d0		 call	 eax
  00068	8b c6		 mov	 eax, esi
  0006a	e9 a5 01 00 00	 jmp	 $LN4@do_put@3
$LN5@do_put@3:

; 1129 : 			return (do_put(_Dest, _Iosbase, _Fill, (long)_Val));
; 1130 : 		else
; 1131 : 			{	// put "false" or "true"
; 1132 : 			const _Mypunct& _Punct_fac = _USE(_Iosbase.getloc(), _Mypunct);

  0006f	8d 4c 24 1c	 lea	 ecx, DWORD PTR $T70504[esp+124]
  00073	51		 push	 ecx
  00074	8b cf		 mov	 ecx, edi
  00076	e8 00 00 00 00	 call	 ?getloc@ios_base@std@@QBE?AVlocale@2@XZ ; std::ios_base::getloc
  0007b	8b c8		 mov	 ecx, eax
  0007d	c7 44 24 78 00
	00 00 00	 mov	 DWORD PTR __$EHRec$[esp+132], 0
  00085	e8 00 00 00 00	 call	 ??$use_facet@V?$numpunct@D@std@@@std@@YAABV?$numpunct@D@0@ABVlocale@0@@Z ; std::use_facet<std::numpunct<char> >
  0008a	c7 44 24 78 ff
	ff ff ff	 mov	 DWORD PTR __$EHRec$[esp+132], -1
  00092	8b 5c 24 1c	 mov	 ebx, DWORD PTR $T70504[esp+124]
  00096	89 44 24 18	 mov	 DWORD PTR __Punct_fac$39688[esp+124], eax
  0009a	85 db		 test	 ebx, ebx
  0009c	74 3d		 je	 SHORT $LN19@do_put@3
  0009e	6a 00		 push	 0
  000a0	8d 4c 24 24	 lea	 ecx, DWORD PTR __Lock$70541[esp+128]
  000a4	e8 00 00 00 00	 call	 ??0_Lockit@std@@QAE@H@Z	; std::_Lockit::_Lockit
  000a9	8b 43 04	 mov	 eax, DWORD PTR [ebx+4]
  000ac	85 c0		 test	 eax, eax
  000ae	76 09		 jbe	 SHORT $LN21@do_put@3
  000b0	83 f8 ff	 cmp	 eax, -1
  000b3	73 04		 jae	 SHORT $LN21@do_put@3
  000b5	48		 dec	 eax
  000b6	89 43 04	 mov	 DWORD PTR [ebx+4], eax
$LN21@do_put@3:
  000b9	8b 73 04	 mov	 esi, DWORD PTR [ebx+4]
  000bc	f7 de		 neg	 esi
  000be	1b f6		 sbb	 esi, esi
  000c0	f7 d6		 not	 esi
  000c2	8d 4c 24 20	 lea	 ecx, DWORD PTR __Lock$70541[esp+124]
  000c6	23 f3		 and	 esi, ebx
  000c8	e8 00 00 00 00	 call	 ??1_Lockit@std@@QAE@XZ	; std::_Lockit::~_Lockit
  000cd	85 f6		 test	 esi, esi
  000cf	74 0a		 je	 SHORT $LN19@do_put@3
  000d1	8b 16		 mov	 edx, DWORD PTR [esi]
  000d3	8b 02		 mov	 eax, DWORD PTR [edx]
  000d5	6a 01		 push	 1
  000d7	8b ce		 mov	 ecx, esi
  000d9	ff d0		 call	 eax
$LN19@do_put@3:

; 1133 : 			_Mystr _Str;

  000db	c7 44 24 64 0f
	00 00 00	 mov	 DWORD PTR __Str$39695[esp+148], 15 ; 0000000fH
  000e3	c7 44 24 60 00
	00 00 00	 mov	 DWORD PTR __Str$39695[esp+144], 0
  000eb	c6 44 24 50 00	 mov	 BYTE PTR __Str$39695[esp+128], 0

; 1134 : 			if (_Val)

  000f0	80 7d 1c 00	 cmp	 BYTE PTR __Val$[ebp], 0

; 1135 : 				_Str.assign(_Punct_fac.truename());

  000f4	8b 4c 24 18	 mov	 ecx, DWORD PTR __Punct_fac$39688[esp+124]
  000f8	c7 44 24 78 01
	00 00 00	 mov	 DWORD PTR __$EHRec$[esp+132], 1
  00100	8d 74 24 30	 lea	 esi, DWORD PTR $T70505[esp+124]
  00104	74 2e		 je	 SHORT $LN3@do_put@3
  00106	e8 00 00 00 00	 call	 ?truename@?$numpunct@D@std@@QBE?AV?$basic_string@DU?$char_traits@D@std@@V?$allocator@D@2@@2@XZ ; std::numpunct<char>::truename
  0010b	6a ff		 push	 -1
  0010d	6a 00		 push	 0
  0010f	50		 push	 eax
  00110	8d 4c 24 58	 lea	 ecx, DWORD PTR __Str$39695[esp+136]
  00114	c6 84 24 84 00
	00 00 02	 mov	 BYTE PTR __$EHRec$[esp+144], 2
  0011c	e8 00 00 00 00	 call	 ?assign@?$basic_string@DU?$char_traits@D@std@@V?$allocator@D@2@@std@@QAEAAV12@ABV12@II@Z ; std::basic_string<char,std::char_traits<char>,std::allocator<char> >::assign
  00121	c6 44 24 78 01	 mov	 BYTE PTR __$EHRec$[esp+132], 1
  00126	83 7c 24 48 10	 cmp	 DWORD PTR $T70505[esp+148], 16 ; 00000010H
  0012b	72 3b		 jb	 SHORT $LN103@do_put@3
  0012d	8b 4c 24 34	 mov	 ecx, DWORD PTR $T70505[esp+128]
  00131	51		 push	 ecx

; 1136 : 			else

  00132	eb 2c		 jmp	 SHORT $LN166@do_put@3
$LN3@do_put@3:

; 1137 : 				_Str.assign(_Punct_fac.falsename());

  00134	e8 00 00 00 00	 call	 ?falsename@?$numpunct@D@std@@QBE?AV?$basic_string@DU?$char_traits@D@std@@V?$allocator@D@2@@2@XZ ; std::numpunct<char>::falsename
  00139	6a ff		 push	 -1
  0013b	6a 00		 push	 0
  0013d	50		 push	 eax
  0013e	8d 4c 24 58	 lea	 ecx, DWORD PTR __Str$39695[esp+136]
  00142	c6 84 24 84 00
	00 00 03	 mov	 BYTE PTR __$EHRec$[esp+144], 3
  0014a	e8 00 00 00 00	 call	 ?assign@?$basic_string@DU?$char_traits@D@std@@V?$allocator@D@2@@std@@QAEAAV12@ABV12@II@Z ; std::basic_string<char,std::char_traits<char>,std::allocator<char> >::assign
  0014f	c6 44 24 78 01	 mov	 BYTE PTR __$EHRec$[esp+132], 1
  00154	83 7c 24 48 10	 cmp	 DWORD PTR $T70506[esp+148], 16 ; 00000010H
  00159	72 0d		 jb	 SHORT $LN103@do_put@3
  0015b	8b 54 24 34	 mov	 edx, DWORD PTR $T70506[esp+128]
  0015f	52		 push	 edx
$LN166@do_put@3:
  00160	e8 00 00 00 00	 call	 ??3@YAXPAX@Z		; operator delete
  00165	83 c4 04	 add	 esp, 4
$LN103@do_put@3:

; 1138 : 
; 1139 : 			size_t _Fillcount = _Iosbase.width() <= 0
; 1140 : 				|| (size_t)_Iosbase.width() <= _Str.size()
; 1141 : 					? 0 : (size_t)_Iosbase.width() - _Str.size();

  00168	8b 77 18	 mov	 esi, DWORD PTR [edi+24]
  0016b	8b 4c 24 60	 mov	 ecx, DWORD PTR __Str$39695[esp+144]
  0016f	85 f6		 test	 esi, esi
  00171	7e 08		 jle	 SHORT $LN8@do_put@3
  00173	3b f1		 cmp	 esi, ecx
  00175	76 04		 jbe	 SHORT $LN8@do_put@3
  00177	2b f1		 sub	 esi, ecx
  00179	eb 02		 jmp	 SHORT $LN9@do_put@3
$LN8@do_put@3:
  0017b	33 f6		 xor	 esi, esi
$LN9@do_put@3:

; 1142 : 
; 1143 : 			if ((_Iosbase.flags() & ios_base::adjustfield) != ios_base::left)

  0017d	8b 47 10	 mov	 eax, DWORD PTR [edi+16]
  00180	8b 5d 18	 mov	 ebx, DWORD PTR __Fill$[ebp]
  00183	25 c0 01 00 00	 and	 eax, 448		; 000001c0H
  00188	83 f8 40	 cmp	 eax, 64			; 00000040H
  0018b	74 2c		 je	 SHORT $LN1@do_put@3

; 1144 : 				{	// put leading fill
; 1145 : 				_Dest = _Rep(_Dest, _Fill, _Fillcount);

  0018d	8b 4d 10	 mov	 ecx, DWORD PTR __Dest$[ebp+4]
  00190	8b 55 0c	 mov	 edx, DWORD PTR __Dest$[ebp]
  00193	53		 push	 ebx
  00194	51		 push	 ecx
  00195	52		 push	 edx
  00196	8b c6		 mov	 eax, esi
  00198	8d 7c 24 2c	 lea	 edi, DWORD PTR $T70509[esp+136]
  0019c	e8 00 00 00 00	 call	 ?_Rep@?$num_put@DV?$ostreambuf_iterator@DU?$char_traits@D@std@@@std@@@std@@ABA?AV?$ostreambuf_iterator@DU?$char_traits@D@std@@@2@V32@DI@Z ; std::num_put<char,std::ostreambuf_iterator<char,std::char_traits<char> > >::_Rep
  001a1	8b 08		 mov	 ecx, DWORD PTR [eax]

; 1146 : 				_Fillcount = 0;

  001a3	8b 7c 24 34	 mov	 edi, DWORD PTR __Iosbase$GSCopy$[esp+136]
  001a7	89 4d 0c	 mov	 DWORD PTR __Dest$[ebp], ecx
  001aa	8b 50 04	 mov	 edx, DWORD PTR [eax+4]
  001ad	8b 4c 24 6c	 mov	 ecx, DWORD PTR __Str$39695[esp+156]
  001b1	83 c4 0c	 add	 esp, 12			; 0000000cH
  001b4	89 55 10	 mov	 DWORD PTR __Dest$[ebp+4], edx
  001b7	33 f6		 xor	 esi, esi
$LN1@do_put@3:

; 1147 : 				}
; 1148 : 			_Dest = _Put(_Dest, _Str.c_str(), _Str.size());	// put field

  001b9	83 7c 24 64 10	 cmp	 DWORD PTR __Str$39695[esp+148], 16 ; 00000010H
  001be	8b 44 24 50	 mov	 eax, DWORD PTR __Str$39695[esp+128]
  001c2	73 04		 jae	 SHORT $LN132@do_put@3
  001c4	8d 44 24 50	 lea	 eax, DWORD PTR __Str$39695[esp+128]
$LN132@do_put@3:
  001c8	8b 55 0c	 mov	 edx, DWORD PTR __Dest$[ebp]
  001cb	51		 push	 ecx
  001cc	8b 4d 10	 mov	 ecx, DWORD PTR __Dest$[ebp+4]
  001cf	51		 push	 ecx
  001d0	52		 push	 edx
  001d1	8d 4c 24 34	 lea	 ecx, DWORD PTR $T70510[esp+136]
  001d5	51		 push	 ecx
  001d6	e8 00 00 00 00	 call	 ?_Put@?$num_put@DV?$ostreambuf_iterator@DU?$char_traits@D@std@@@std@@@std@@ABA?AV?$ostreambuf_iterator@DU?$char_traits@D@std@@@2@V32@PBDI@Z ; std::num_put<char,std::ostreambuf_iterator<char,std::char_traits<char> > >::_Put
  001db	8b 08		 mov	 ecx, DWORD PTR [eax]
  001dd	89 4d 0c	 mov	 DWORD PTR __Dest$[ebp], ecx
  001e0	8b 40 04	 mov	 eax, DWORD PTR [eax+4]

; 1149 : 			_Iosbase.width(0);
; 1150 : 			return (_Rep(_Dest, _Fill, _Fillcount));	// put trailing fill

  001e3	53		 push	 ebx
  001e4	50		 push	 eax
  001e5	89 45 10	 mov	 DWORD PTR __Dest$[ebp+4], eax
  001e8	c7 47 18 00 00
	00 00		 mov	 DWORD PTR [edi+24], 0
  001ef	8b 7c 24 2c	 mov	 edi, DWORD PTR ___$ReturnUdt$GSCopy$[esp+148]
  001f3	51		 push	 ecx
  001f4	8b c6		 mov	 eax, esi
  001f6	e8 00 00 00 00	 call	 ?_Rep@?$num_put@DV?$ostreambuf_iterator@DU?$char_traits@D@std@@@std@@@std@@ABA?AV?$ostreambuf_iterator@DU?$char_traits@D@std@@@2@V32@DI@Z ; std::num_put<char,std::ostreambuf_iterator<char,std::char_traits<char> > >::_Rep
  001fb	83 c4 1c	 add	 esp, 28			; 0000001cH
  001fe	83 7c 24 64 10	 cmp	 DWORD PTR __Str$39695[esp+148], 16 ; 00000010H
  00203	72 0d		 jb	 SHORT $LN151@do_put@3
  00205	8b 54 24 50	 mov	 edx, DWORD PTR __Str$39695[esp+128]
  00209	52		 push	 edx
  0020a	e8 00 00 00 00	 call	 ??3@YAXPAX@Z		; operator delete
  0020f	83 c4 04	 add	 esp, 4
$LN151@do_put@3:
  00212	8b c7		 mov	 eax, edi
$LN4@do_put@3:

; 1151 : 			}
; 1152 : 		}

  00214	8b 4c 24 70	 mov	 ecx, DWORD PTR __$EHRec$[esp+124]
  00218	64 89 0d 00 00
	00 00		 mov	 DWORD PTR fs:0, ecx
  0021f	59		 pop	 ecx
  00220	5f		 pop	 edi
  00221	5e		 pop	 esi
  00222	5b		 pop	 ebx
  00223	8b 4c 24 58	 mov	 ecx, DWORD PTR __$ArrayPad$[esp+108]
  00227	33 cc		 xor	 ecx, esp
  00229	e8 00 00 00 00	 call	 @__security_check_cookie@4
  0022e	8b e5		 mov	 esp, ebp
  00230	5d		 pop	 ebp
  00231	c2 18 00	 ret	 24			; 00000018H
_TEXT	ENDS
;	COMDAT text$x
text$x	SEGMENT
__unwindfunclet$?do_put@?$num_put@DV?$ostreambuf_iterator@DU?$char_traits@D@std@@@std@@@std@@MBE?AV?$ostreambuf_iterator@DU?$char_traits@D@std@@@2@V32@AAVios_base@2@D_N@Z$0:
  00000	8d 4d a0	 lea	 ecx, DWORD PTR $T70504[ebp]
  00003	e9 00 00 00 00	 jmp	 ??1locale@std@@QAE@XZ	; std::locale::~locale
__unwindfunclet$?do_put@?$num_put@DV?$ostreambuf_iterator@DU?$char_traits@D@std@@@std@@@std@@MBE?AV?$ostreambuf_iterator@DU?$char_traits@D@std@@@2@V32@AAVios_base@2@D_N@Z$1:
  00008	8d 4d d0	 lea	 ecx, DWORD PTR __Str$39695[ebp]
  0000b	e9 00 00 00 00	 jmp	 ??1?$basic_string@DU?$char_traits@D@std@@V?$allocator@D@2@@std@@QAE@XZ ; std::basic_string<char,std::char_traits<char>,std::allocator<char> >::~basic_string<char,std::char_traits<char>,std::allocator<char> >
__unwindfunclet$?do_put@?$num_put@DV?$ostreambuf_iterator@DU?$char_traits@D@std@@@std@@@std@@MBE?AV?$ostreambuf_iterator@DU?$char_traits@D@std@@@2@V32@AAVios_base@2@D_N@Z$2:
  00010	8d 4d b4	 lea	 ecx, DWORD PTR $T70505[ebp]
  00013	e9 00 00 00 00	 jmp	 ??1?$basic_string@DU?$char_traits@D@std@@V?$allocator@D@2@@std@@QAE@XZ ; std::basic_string<char,std::char_traits<char>,std::allocator<char> >::~basic_string<char,std::char_traits<char>,std::allocator<char> >
__unwindfunclet$?do_put@?$num_put@DV?$ostreambuf_iterator@DU?$char_traits@D@std@@@std@@@std@@MBE?AV?$ostreambuf_iterator@DU?$char_traits@D@std@@@2@V32@AAVios_base@2@D_N@Z$3:
  00018	8d 4d b4	 lea	 ecx, DWORD PTR $T70506[ebp]
  0001b	e9 00 00 00 00	 jmp	 ??1?$basic_string@DU?$char_traits@D@std@@V?$allocator@D@2@@std@@QAE@XZ ; std::basic_string<char,std::char_traits<char>,std::allocator<char> >::~basic_string<char,std::char_traits<char>,std::allocator<char> >
__ehhandler$?do_put@?$num_put@DV?$ostreambuf_iterator@DU?$char_traits@D@std@@@std@@@std@@MBE?AV?$ostreambuf_iterator@DU?$char_traits@D@std@@@2@V32@AAVios_base@2@D_N@Z:
  00020	8b 54 24 08	 mov	 edx, DWORD PTR [esp+8]
  00024	8d 42 94	 lea	 eax, DWORD PTR [edx-108]
  00027	8b 4a 90	 mov	 ecx, DWORD PTR [edx-112]
  0002a	33 c8		 xor	 ecx, eax
  0002c	e8 00 00 00 00	 call	 @__security_check_cookie@4
  00031	83 c0 0c	 add	 eax, 12			; 0000000cH
  00034	8b 4a f8	 mov	 ecx, DWORD PTR [edx-8]
  00037	33 c8		 xor	 ecx, eax
  00039	e8 00 00 00 00	 call	 @__security_check_cookie@4
  0003e	b8 00 00 00 00	 mov	 eax, OFFSET __ehfuncinfo$?do_put@?$num_put@DV?$ostreambuf_iterator@DU?$char_traits@D@std@@@std@@@std@@MBE?AV?$ostreambuf_iterator@DU?$char_traits@D@std@@@2@V32@AAVios_base@2@D_N@Z
  00043	e9 00 00 00 00	 jmp	 ___CxxFrameHandler3
text$x	ENDS
?do_put@?$num_put@DV?$ostreambuf_iterator@DU?$char_traits@D@std@@@std@@@std@@MBE?AV?$ostreambuf_iterator@DU?$char_traits@D@std@@@2@V32@AAVios_base@2@D_N@Z ENDP ; std::num_put<char,std::ostreambuf_iterator<char,std::char_traits<char> > >::do_put
;	COMDAT xdata$x
xdata$x	SEGMENT
__unwindtable$??0runtime_error@std@@QAE@ABV01@@Z DD 0ffffffffH
	DD	FLAT:__unwindfunclet$??0runtime_error@std@@QAE@ABV01@@Z$0
__ehfuncinfo$??0runtime_error@std@@QAE@ABV01@@Z DD 019930522H
	DD	01H
	DD	FLAT:__unwindtable$??0runtime_error@std@@QAE@ABV01@@Z
	DD	2 DUP(00H)
	DD	2 DUP(00H)
	DD	00H
	DD	01H
; Function compile flags: /Ogtpy
xdata$x	ENDS
;	COMDAT ??0runtime_error@std@@QAE@ABV01@@Z
_TEXT	SEGMENT
_this$ = -16						; size = 4
__$EHRec$ = -12						; size = 12
___that$ = 8						; size = 4
??0runtime_error@std@@QAE@ABV01@@Z PROC			; std::runtime_error::runtime_error, COMDAT
; _this$ = ecx
  00000	6a ff		 push	 -1
  00002	68 00 00 00 00	 push	 __ehhandler$??0runtime_error@std@@QAE@ABV01@@Z
  00007	64 a1 00 00 00
	00		 mov	 eax, DWORD PTR fs:0
  0000d	50		 push	 eax
  0000e	51		 push	 ecx
  0000f	56		 push	 esi
  00010	57		 push	 edi
  00011	a1 00 00 00 00	 mov	 eax, DWORD PTR ___security_cookie
  00016	33 c4		 xor	 eax, esp
  00018	50		 push	 eax
  00019	8d 44 24 10	 lea	 eax, DWORD PTR __$EHRec$[esp+28]
  0001d	64 a3 00 00 00
	00		 mov	 DWORD PTR fs:0, eax
  00023	8b f1		 mov	 esi, ecx
  00025	89 74 24 0c	 mov	 DWORD PTR _this$[esp+28], esi
  00029	8b 7c 24 20	 mov	 edi, DWORD PTR ___that$[esp+24]
  0002d	57		 push	 edi
  0002e	e8 00 00 00 00	 call	 ??0exception@std@@QAE@ABV01@@Z ; std::exception::exception
  00033	33 d2		 xor	 edx, edx
  00035	89 54 24 18	 mov	 DWORD PTR __$EHRec$[esp+36], edx
  00039	6a ff		 push	 -1
  0003b	8d 4e 0c	 lea	 ecx, DWORD PTR [esi+12]
  0003e	c7 06 00 00 00
	00		 mov	 DWORD PTR [esi], OFFSET ??_7runtime_error@std@@6B@
  00044	8d 47 0c	 lea	 eax, DWORD PTR [edi+12]
  00047	52		 push	 edx
  00048	c7 41 18 0f 00
	00 00		 mov	 DWORD PTR [ecx+24], 15	; 0000000fH
  0004f	89 51 14	 mov	 DWORD PTR [ecx+20], edx
  00052	50		 push	 eax
  00053	88 51 04	 mov	 BYTE PTR [ecx+4], dl
  00056	e8 00 00 00 00	 call	 ?assign@?$basic_string@DU?$char_traits@D@std@@V?$allocator@D@2@@std@@QAEAAV12@ABV12@II@Z ; std::basic_string<char,std::char_traits<char>,std::allocator<char> >::assign
  0005b	8b c6		 mov	 eax, esi
  0005d	8b 4c 24 10	 mov	 ecx, DWORD PTR __$EHRec$[esp+28]
  00061	64 89 0d 00 00
	00 00		 mov	 DWORD PTR fs:0, ecx
  00068	59		 pop	 ecx
  00069	5f		 pop	 edi
  0006a	5e		 pop	 esi
  0006b	83 c4 10	 add	 esp, 16			; 00000010H
  0006e	c2 04 00	 ret	 4
_TEXT	ENDS
;	COMDAT text$x
text$x	SEGMENT
__unwindfunclet$??0runtime_error@std@@QAE@ABV01@@Z$0:
  00000	8b 4d f0	 mov	 ecx, DWORD PTR _this$[ebp]
  00003	e9 00 00 00 00	 jmp	 ??1exception@std@@UAE@XZ ; std::exception::~exception
__ehhandler$??0runtime_error@std@@QAE@ABV01@@Z:
  00008	8b 54 24 08	 mov	 edx, DWORD PTR [esp+8]
  0000c	8d 42 f4	 lea	 eax, DWORD PTR [edx-12]
  0000f	8b 4a f0	 mov	 ecx, DWORD PTR [edx-16]
  00012	33 c8		 xor	 ecx, eax
  00014	e8 00 00 00 00	 call	 @__security_check_cookie@4
  00019	b8 00 00 00 00	 mov	 eax, OFFSET __ehfuncinfo$??0runtime_error@std@@QAE@ABV01@@Z
  0001e	e9 00 00 00 00	 jmp	 ___CxxFrameHandler3
text$x	ENDS
??0runtime_error@std@@QAE@ABV01@@Z ENDP			; std::runtime_error::runtime_error
; Function compile flags: /Ogtpy
;	COMDAT ??0failure@ios_base@std@@QAE@ABV012@@Z
_TEXT	SEGMENT
___that$ = 8						; size = 4
??0failure@ios_base@std@@QAE@ABV012@@Z PROC		; std::ios_base::failure::failure, COMDAT
; _this$ = ecx
  00000	8b 44 24 04	 mov	 eax, DWORD PTR ___that$[esp-4]
  00004	56		 push	 esi
  00005	50		 push	 eax
  00006	8b f1		 mov	 esi, ecx
  00008	e8 00 00 00 00	 call	 ??0runtime_error@std@@QAE@ABV01@@Z
  0000d	c7 06 00 00 00
	00		 mov	 DWORD PTR [esi], OFFSET ??_7failure@ios_base@std@@6B@
  00013	8b c6		 mov	 eax, esi
  00015	5e		 pop	 esi
  00016	c2 04 00	 ret	 4
??0failure@ios_base@std@@QAE@ABV012@@Z ENDP		; std::ios_base::failure::failure
; Function compile flags: /Ogtpy
; File c:\program files\microsoft visual studio 9.0\vc\include\xstring
_TEXT	ENDS
;	COMDAT ??0?$basic_string@DU?$char_traits@D@std@@V?$allocator@D@2@@std@@QAE@PBD@Z
_TEXT	SEGMENT
__Ptr$ = 8						; size = 4
??0?$basic_string@DU?$char_traits@D@std@@V?$allocator@D@2@@std@@QAE@PBD@Z PROC ; std::basic_string<char,std::char_traits<char>,std::allocator<char> >::basic_string<char,std::char_traits<char>,std::allocator<char> >, COMDAT
; _this$ = ecx

; 652  : 		_Tidy();
; 653  : 		assign(_Ptr);

  00000	8b 54 24 04	 mov	 edx, DWORD PTR __Ptr$[esp-4]
  00004	56		 push	 esi
  00005	8b f1		 mov	 esi, ecx
  00007	8b c2		 mov	 eax, edx
  00009	57		 push	 edi
  0000a	c7 46 18 0f 00
	00 00		 mov	 DWORD PTR [esi+24], 15	; 0000000fH
  00011	c7 46 14 00 00
	00 00		 mov	 DWORD PTR [esi+20], 0
  00018	c6 46 04 00	 mov	 BYTE PTR [esi+4], 0
  0001c	8d 78 01	 lea	 edi, DWORD PTR [eax+1]
  0001f	90		 npad	 1
$LL37@basic_stri@2:
  00020	8a 08		 mov	 cl, BYTE PTR [eax]
  00022	40		 inc	 eax
  00023	84 c9		 test	 cl, cl
  00025	75 f9		 jne	 SHORT $LL37@basic_stri@2
  00027	2b c7		 sub	 eax, edi
  00029	50		 push	 eax
  0002a	52		 push	 edx
  0002b	8b ce		 mov	 ecx, esi
  0002d	e8 00 00 00 00	 call	 ?assign@?$basic_string@DU?$char_traits@D@std@@V?$allocator@D@2@@std@@QAEAAV12@PBDI@Z ; std::basic_string<char,std::char_traits<char>,std::allocator<char> >::assign
  00032	5f		 pop	 edi

; 654  : 		}

  00033	8b c6		 mov	 eax, esi
  00035	5e		 pop	 esi
  00036	c2 04 00	 ret	 4
??0?$basic_string@DU?$char_traits@D@std@@V?$allocator@D@2@@std@@QAE@PBD@Z ENDP ; std::basic_string<char,std::char_traits<char>,std::allocator<char> >::basic_string<char,std::char_traits<char>,std::allocator<char> >
; Function compile flags: /Ogtpy
; File c:\program files\microsoft visual studio 9.0\vc\include\xiosbase
_TEXT	ENDS
;	COMDAT ??0failure@ios_base@std@@QAE@ABV?$basic_string@DU?$char_traits@D@std@@V?$allocator@D@2@@2@@Z
_TEXT	SEGMENT
__Message$ = 8						; size = 4
??0failure@ios_base@std@@QAE@ABV?$basic_string@DU?$char_traits@D@std@@V?$allocator@D@2@@2@@Z PROC ; std::ios_base::failure::failure, COMDAT
; _this$ = ecx

; 220  : 			{	// construct with message

  00000	8b 44 24 04	 mov	 eax, DWORD PTR __Message$[esp-4]
  00004	56		 push	 esi
  00005	50		 push	 eax
  00006	8b f1		 mov	 esi, ecx
  00008	e8 00 00 00 00	 call	 ??0runtime_error@std@@QAE@ABV?$basic_string@DU?$char_traits@D@std@@V?$allocator@D@2@@1@@Z ; std::runtime_error::runtime_error
  0000d	c7 06 00 00 00
	00		 mov	 DWORD PTR [esi], OFFSET ??_7failure@ios_base@std@@6B@

; 221  : 			}

  00013	8b c6		 mov	 eax, esi
  00015	5e		 pop	 esi
  00016	c2 04 00	 ret	 4
??0failure@ios_base@std@@QAE@ABV?$basic_string@DU?$char_traits@D@std@@V?$allocator@D@2@@2@@Z ENDP ; std::ios_base::failure::failure
; Function compile flags: /Ogtpy
; File c:\program files\microsoft visual studio 9.0\vc\include\xlocnum
_TEXT	ENDS
;	COMDAT ?do_truename@?$numpunct@D@std@@MBE?AV?$basic_string@DU?$char_traits@D@std@@V?$allocator@D@2@@2@XZ
_TEXT	SEGMENT
$T75898 = -4						; size = 4
___$ReturnUdt$ = 8					; size = 4
?do_truename@?$numpunct@D@std@@MBE?AV?$basic_string@DU?$char_traits@D@std@@V?$allocator@D@2@@2@XZ PROC ; std::numpunct<char>::do_truename, COMDAT
; _this$ = ecx

; 184  : 		{	// return name for true

  00000	51		 push	 ecx

; 185  : 		return (string_type(_Truename));

  00001	8b 49 14	 mov	 ecx, DWORD PTR [ecx+20]
  00004	56		 push	 esi
  00005	8b 74 24 0c	 mov	 esi, DWORD PTR ___$ReturnUdt$[esp+4]
  00009	8b c1		 mov	 eax, ecx
  0000b	57		 push	 edi
  0000c	c7 46 18 0f 00
	00 00		 mov	 DWORD PTR [esi+24], 15	; 0000000fH
  00013	c7 46 14 00 00
	00 00		 mov	 DWORD PTR [esi+20], 0
  0001a	c7 44 24 08 00
	00 00 00	 mov	 DWORD PTR $T75898[esp+12], 0
  00022	c6 46 04 00	 mov	 BYTE PTR [esi+4], 0
  00026	8d 78 01	 lea	 edi, DWORD PTR [eax+1]
  00029	8d a4 24 00 00
	00 00		 npad	 7
$LL41@do_truenam:
  00030	8a 10		 mov	 dl, BYTE PTR [eax]
  00032	40		 inc	 eax
  00033	84 d2		 test	 dl, dl
  00035	75 f9		 jne	 SHORT $LL41@do_truenam
  00037	2b c7		 sub	 eax, edi
  00039	50		 push	 eax
  0003a	51		 push	 ecx
  0003b	8b ce		 mov	 ecx, esi
  0003d	e8 00 00 00 00	 call	 ?assign@?$basic_string@DU?$char_traits@D@std@@V?$allocator@D@2@@std@@QAEAAV12@PBDI@Z ; std::basic_string<char,std::char_traits<char>,std::allocator<char> >::assign
  00042	5f		 pop	 edi
  00043	8b c6		 mov	 eax, esi
  00045	5e		 pop	 esi

; 186  : 		}

  00046	59		 pop	 ecx
  00047	c2 04 00	 ret	 4
?do_truename@?$numpunct@D@std@@MBE?AV?$basic_string@DU?$char_traits@D@std@@V?$allocator@D@2@@2@XZ ENDP ; std::numpunct<char>::do_truename
; Function compile flags: /Ogtpy
_TEXT	ENDS
;	COMDAT ?do_falsename@?$numpunct@D@std@@MBE?AV?$basic_string@DU?$char_traits@D@std@@V?$allocator@D@2@@2@XZ
_TEXT	SEGMENT
$T76049 = -4						; size = 4
___$ReturnUdt$ = 8					; size = 4
?do_falsename@?$numpunct@D@std@@MBE?AV?$basic_string@DU?$char_traits@D@std@@V?$allocator@D@2@@2@XZ PROC ; std::numpunct<char>::do_falsename, COMDAT
; _this$ = ecx

; 179  : 		{	// return name for false

  00000	51		 push	 ecx

; 180  : 		return (string_type(_Falsename));

  00001	8b 49 10	 mov	 ecx, DWORD PTR [ecx+16]
  00004	56		 push	 esi
  00005	8b 74 24 0c	 mov	 esi, DWORD PTR ___$ReturnUdt$[esp+4]
  00009	8b c1		 mov	 eax, ecx
  0000b	57		 push	 edi
  0000c	c7 46 18 0f 00
	00 00		 mov	 DWORD PTR [esi+24], 15	; 0000000fH
  00013	c7 46 14 00 00
	00 00		 mov	 DWORD PTR [esi+20], 0
  0001a	c7 44 24 08 00
	00 00 00	 mov	 DWORD PTR $T76049[esp+12], 0
  00022	c6 46 04 00	 mov	 BYTE PTR [esi+4], 0
  00026	8d 78 01	 lea	 edi, DWORD PTR [eax+1]
  00029	8d a4 24 00 00
	00 00		 npad	 7
$LL41@do_falsena:
  00030	8a 10		 mov	 dl, BYTE PTR [eax]
  00032	40		 inc	 eax
  00033	84 d2		 test	 dl, dl
  00035	75 f9		 jne	 SHORT $LL41@do_falsena
  00037	2b c7		 sub	 eax, edi
  00039	50		 push	 eax
  0003a	51		 push	 ecx
  0003b	8b ce		 mov	 ecx, esi
  0003d	e8 00 00 00 00	 call	 ?assign@?$basic_string@DU?$char_traits@D@std@@V?$allocator@D@2@@std@@QAEAAV12@PBDI@Z ; std::basic_string<char,std::char_traits<char>,std::allocator<char> >::assign
  00042	5f		 pop	 edi
  00043	8b c6		 mov	 eax, esi
  00045	5e		 pop	 esi

; 181  : 		}

  00046	59		 pop	 ecx
  00047	c2 04 00	 ret	 4
?do_falsename@?$numpunct@D@std@@MBE?AV?$basic_string@DU?$char_traits@D@std@@V?$allocator@D@2@@2@XZ ENDP ; std::numpunct<char>::do_falsename
; Function compile flags: /Ogtpy
_TEXT	ENDS
;	COMDAT ?do_grouping@?$numpunct@D@std@@MBE?AV?$basic_string@DU?$char_traits@D@std@@V?$allocator@D@2@@2@XZ
_TEXT	SEGMENT
$T76200 = -4						; size = 4
___$ReturnUdt$ = 8					; size = 4
?do_grouping@?$numpunct@D@std@@MBE?AV?$basic_string@DU?$char_traits@D@std@@V?$allocator@D@2@@2@XZ PROC ; std::numpunct<char>::do_grouping, COMDAT
; _this$ = ecx

; 174  : 		{	// return grouping string

  00000	51		 push	 ecx

; 175  : 		return (string(_Grouping));

  00001	8b 49 08	 mov	 ecx, DWORD PTR [ecx+8]
  00004	56		 push	 esi
  00005	8b 74 24 0c	 mov	 esi, DWORD PTR ___$ReturnUdt$[esp+4]
  00009	8b c1		 mov	 eax, ecx
  0000b	57		 push	 edi
  0000c	c7 46 18 0f 00
	00 00		 mov	 DWORD PTR [esi+24], 15	; 0000000fH
  00013	c7 46 14 00 00
	00 00		 mov	 DWORD PTR [esi+20], 0
  0001a	c7 44 24 08 00
	00 00 00	 mov	 DWORD PTR $T76200[esp+12], 0
  00022	c6 46 04 00	 mov	 BYTE PTR [esi+4], 0
  00026	8d 78 01	 lea	 edi, DWORD PTR [eax+1]
  00029	8d a4 24 00 00
	00 00		 npad	 7
$LL41@do_groupin:
  00030	8a 10		 mov	 dl, BYTE PTR [eax]
  00032	40		 inc	 eax
  00033	84 d2		 test	 dl, dl
  00035	75 f9		 jne	 SHORT $LL41@do_groupin
  00037	2b c7		 sub	 eax, edi
  00039	50		 push	 eax
  0003a	51		 push	 ecx
  0003b	8b ce		 mov	 ecx, esi
  0003d	e8 00 00 00 00	 call	 ?assign@?$basic_string@DU?$char_traits@D@std@@V?$allocator@D@2@@std@@QAEAAV12@PBDI@Z ; std::basic_string<char,std::char_traits<char>,std::allocator<char> >::assign
  00042	5f		 pop	 edi
  00043	8b c6		 mov	 eax, esi
  00045	5e		 pop	 esi

; 176  : 		}

  00046	59		 pop	 ecx
  00047	c2 04 00	 ret	 4
?do_grouping@?$numpunct@D@std@@MBE?AV?$basic_string@DU?$char_traits@D@std@@V?$allocator@D@2@@2@XZ ENDP ; std::numpunct<char>::do_grouping
;	COMDAT xdata$x
; File c:\program files\microsoft visual studio 9.0\vc\include\xiosbase
xdata$x	SEGMENT
__unwindtable$?clear@ios_base@std@@QAEXH_N@Z DD 0ffffffffH
	DD	FLAT:__unwindfunclet$?clear@ios_base@std@@QAEXH_N@Z$0
	DD	0ffffffffH
	DD	FLAT:__unwindfunclet$?clear@ios_base@std@@QAEXH_N@Z$1
	DD	0ffffffffH
	DD	FLAT:__unwindfunclet$?clear@ios_base@std@@QAEXH_N@Z$2
__ehfuncinfo$?clear@ios_base@std@@QAEXH_N@Z DD 019930522H
	DD	03H
	DD	FLAT:__unwindtable$?clear@ios_base@std@@QAEXH_N@Z
	DD	2 DUP(00H)
	DD	2 DUP(00H)
	DD	00H
	DD	01H
; Function compile flags: /Ogtpy
xdata$x	ENDS
;	COMDAT ?clear@ios_base@std@@QAEXH_N@Z
_TEXT	SEGMENT
$T79532 = -152						; size = 40
$T79530 = -152						; size = 40
$T79533 = -112						; size = 28
$T79531 = -112						; size = 28
$T79534 = -84						; size = 40
$T79535 = -44						; size = 28
__$EHRec$ = -12						; size = 12
__State$ = 8						; size = 4
__Reraise$ = 12						; size = 1
?clear@ios_base@std@@QAEXH_N@Z PROC			; std::ios_base::clear, COMDAT
; _this$ = ecx

; 285  :         {	// set state, possibly reraise exception

  00000	55		 push	 ebp
  00001	8b ec		 mov	 ebp, esp
  00003	83 e4 f8	 and	 esp, -8			; fffffff8H
  00006	6a ff		 push	 -1
  00008	68 00 00 00 00	 push	 __ehhandler$?clear@ios_base@std@@QAEXH_N@Z
  0000d	64 a1 00 00 00
	00		 mov	 eax, DWORD PTR fs:0
  00013	50		 push	 eax
  00014	81 ec 8c 00 00
	00		 sub	 esp, 140		; 0000008cH
  0001a	a1 00 00 00 00	 mov	 eax, DWORD PTR ___security_cookie
  0001f	33 c4		 xor	 eax, esp
  00021	50		 push	 eax
  00022	8d 84 24 90 00
	00 00		 lea	 eax, DWORD PTR __$EHRec$[esp+156]
  00029	64 a3 00 00 00
	00		 mov	 DWORD PTR fs:0, eax

; 286  :         _Mystate = (iostate)(_State & _Statmask);

  0002f	8b 45 08	 mov	 eax, DWORD PTR __State$[ebp]
  00032	83 e0 17	 and	 eax, 23			; 00000017H
  00035	89 41 08	 mov	 DWORD PTR [ecx+8], eax

; 287  :         if ((_Mystate & _Except) == 0)

  00038	8b 49 0c	 mov	 ecx, DWORD PTR [ecx+12]
  0003b	23 c8		 and	 ecx, eax
  0003d	0f 84 d3 00 00
	00		 je	 $LN1@clear@2

; 288  :             ;
; 289  :         else if (_Reraise)

  00043	80 7d 0c 00	 cmp	 BYTE PTR __Reraise$[ebp], 0
  00047	74 09		 je	 SHORT $LN6@clear@2

; 290  :             _RERAISE;

  00049	6a 00		 push	 0
  0004b	6a 00		 push	 0
  0004d	e8 00 00 00 00	 call	 __CxxThrowException@8
$LN25@clear@2:
$LN6@clear@2:

; 291  :         else if (_Mystate & _Except & badbit)

  00052	f6 c1 04	 test	 cl, 4
  00055	74 3e		 je	 SHORT $LN4@clear@2

; 292  :             _THROW_NCEE(failure, "ios_base::badbit set");

  00057	68 00 00 00 00	 push	 OFFSET ??_C@_0BF@PHHKMMFD@ios_base?3?3badbit?5set?$AA@
  0005c	8d 4c 24 30	 lea	 ecx, DWORD PTR $T79531[esp+160]
  00060	e8 00 00 00 00	 call	 ??0?$basic_string@DU?$char_traits@D@std@@V?$allocator@D@2@@std@@QAE@PBD@Z ; std::basic_string<char,std::char_traits<char>,std::allocator<char> >::basic_string<char,std::char_traits<char>,std::allocator<char> >
  00065	8d 44 24 2c	 lea	 eax, DWORD PTR $T79531[esp+156]
  00069	50		 push	 eax
  0006a	8d 4c 24 08	 lea	 ecx, DWORD PTR $T79530[esp+160]
  0006e	c7 84 24 9c 00
	00 00 00 00 00
	00		 mov	 DWORD PTR __$EHRec$[esp+168], 0
  00079	e8 00 00 00 00	 call	 ??0runtime_error@std@@QAE@ABV?$basic_string@DU?$char_traits@D@std@@V?$allocator@D@2@@1@@Z ; std::runtime_error::runtime_error
  0007e	68 00 00 00 00	 push	 OFFSET __TI3?AVfailure@ios_base@std@@
  00083	8d 4c 24 08	 lea	 ecx, DWORD PTR $T79530[esp+160]
  00087	51		 push	 ecx
  00088	c7 44 24 0c 00
	00 00 00	 mov	 DWORD PTR $T79530[esp+164], OFFSET ??_7failure@ios_base@std@@6B@
  00090	e8 00 00 00 00	 call	 __CxxThrowException@8
$LN26@clear@2:
$LN4@clear@2:

; 293  :         else if (_Mystate & _Except & failbit)

  00095	f6 c1 02	 test	 cl, 2
  00098	74 3e		 je	 SHORT $LN2@clear@2

; 294  :             _THROW_NCEE(failure, "ios_base::failbit set");

  0009a	68 00 00 00 00	 push	 OFFSET ??_C@_0BG@FMKFHCIL@ios_base?3?3failbit?5set?$AA@
  0009f	8d 4c 24 30	 lea	 ecx, DWORD PTR $T79533[esp+160]
  000a3	e8 00 00 00 00	 call	 ??0?$basic_string@DU?$char_traits@D@std@@V?$allocator@D@2@@std@@QAE@PBD@Z ; std::basic_string<char,std::char_traits<char>,std::allocator<char> >::basic_string<char,std::char_traits<char>,std::allocator<char> >
  000a8	8d 54 24 2c	 lea	 edx, DWORD PTR $T79533[esp+156]
  000ac	52		 push	 edx
  000ad	8d 4c 24 08	 lea	 ecx, DWORD PTR $T79532[esp+160]
  000b1	c7 84 24 9c 00
	00 00 01 00 00
	00		 mov	 DWORD PTR __$EHRec$[esp+168], 1
  000bc	e8 00 00 00 00	 call	 ??0runtime_error@std@@QAE@ABV?$basic_string@DU?$char_traits@D@std@@V?$allocator@D@2@@1@@Z ; std::runtime_error::runtime_error
  000c1	68 00 00 00 00	 push	 OFFSET __TI3?AVfailure@ios_base@std@@
  000c6	8d 44 24 08	 lea	 eax, DWORD PTR $T79532[esp+160]
  000ca	50		 push	 eax
  000cb	c7 44 24 0c 00
	00 00 00	 mov	 DWORD PTR $T79532[esp+164], OFFSET ??_7failure@ios_base@std@@6B@
  000d3	e8 00 00 00 00	 call	 __CxxThrowException@8
$LN27@clear@2:
$LN2@clear@2:

; 295  :         else
; 296  :             _THROW_NCEE(failure, "ios_base::eofbit set");

  000d8	68 00 00 00 00	 push	 OFFSET ??_C@_0BF@OOHOMBOF@ios_base?3?3eofbit?5set?$AA@
  000dd	8d 4c 24 74	 lea	 ecx, DWORD PTR $T79535[esp+160]
  000e1	e8 00 00 00 00	 call	 ??0?$basic_string@DU?$char_traits@D@std@@V?$allocator@D@2@@std@@QAE@PBD@Z ; std::basic_string<char,std::char_traits<char>,std::allocator<char> >::basic_string<char,std::char_traits<char>,std::allocator<char> >
  000e6	8d 4c 24 70	 lea	 ecx, DWORD PTR $T79535[esp+156]
  000ea	51		 push	 ecx
  000eb	8d 4c 24 4c	 lea	 ecx, DWORD PTR $T79534[esp+160]
  000ef	c7 84 24 9c 00
	00 00 02 00 00
	00		 mov	 DWORD PTR __$EHRec$[esp+168], 2
  000fa	e8 00 00 00 00	 call	 ??0runtime_error@std@@QAE@ABV?$basic_string@DU?$char_traits@D@std@@V?$allocator@D@2@@1@@Z ; std::runtime_error::runtime_error
  000ff	68 00 00 00 00	 push	 OFFSET __TI3?AVfailure@ios_base@std@@
  00104	8d 54 24 4c	 lea	 edx, DWORD PTR $T79534[esp+160]
  00108	52		 push	 edx
  00109	c7 44 24 50 00
	00 00 00	 mov	 DWORD PTR $T79534[esp+164], OFFSET ??_7failure@ios_base@std@@6B@
  00111	e8 00 00 00 00	 call	 __CxxThrowException@8
$LN28@clear@2:
$LN1@clear@2:

; 297  :         }

  00116	8b 8c 24 90 00
	00 00		 mov	 ecx, DWORD PTR __$EHRec$[esp+156]
  0011d	64 89 0d 00 00
	00 00		 mov	 DWORD PTR fs:0, ecx
  00124	59		 pop	 ecx
  00125	8b e5		 mov	 esp, ebp
  00127	5d		 pop	 ebp
  00128	c2 08 00	 ret	 8
$LN24@clear@2:
_TEXT	ENDS
;	COMDAT text$x
text$x	SEGMENT
__unwindfunclet$?clear@ios_base@std@@QAEXH_N@Z$0:
  00000	8d 4d 90	 lea	 ecx, DWORD PTR $T79531[ebp]
  00003	e9 00 00 00 00	 jmp	 ??1?$basic_string@DU?$char_traits@D@std@@V?$allocator@D@2@@std@@QAE@XZ ; std::basic_string<char,std::char_traits<char>,std::allocator<char> >::~basic_string<char,std::char_traits<char>,std::allocator<char> >
__unwindfunclet$?clear@ios_base@std@@QAEXH_N@Z$1:
  00008	8d 4d 90	 lea	 ecx, DWORD PTR $T79533[ebp]
  0000b	e9 00 00 00 00	 jmp	 ??1?$basic_string@DU?$char_traits@D@std@@V?$allocator@D@2@@std@@QAE@XZ ; std::basic_string<char,std::char_traits<char>,std::allocator<char> >::~basic_string<char,std::char_traits<char>,std::allocator<char> >
__unwindfunclet$?clear@ios_base@std@@QAEXH_N@Z$2:
  00010	8d 4d d4	 lea	 ecx, DWORD PTR $T79535[ebp]
  00013	e9 00 00 00 00	 jmp	 ??1?$basic_string@DU?$char_traits@D@std@@V?$allocator@D@2@@std@@QAE@XZ ; std::basic_string<char,std::char_traits<char>,std::allocator<char> >::~basic_string<char,std::char_traits<char>,std::allocator<char> >
__ehhandler$?clear@ios_base@std@@QAEXH_N@Z:
  00018	8b 54 24 08	 mov	 edx, DWORD PTR [esp+8]
  0001c	8d 82 74 ff ff
	ff		 lea	 eax, DWORD PTR [edx-140]
  00022	8b 8a 70 ff ff
	ff		 mov	 ecx, DWORD PTR [edx-144]
  00028	33 c8		 xor	 ecx, eax
  0002a	e8 00 00 00 00	 call	 @__security_check_cookie@4
  0002f	b8 00 00 00 00	 mov	 eax, OFFSET __ehfuncinfo$?clear@ios_base@std@@QAEXH_N@Z
  00034	e9 00 00 00 00	 jmp	 ___CxxFrameHandler3
text$x	ENDS
?clear@ios_base@std@@QAEXH_N@Z ENDP			; std::ios_base::clear
; Function compile flags: /Ogtpy
; File c:\program files\microsoft visual studio 9.0\vc\include\ios
;	COMDAT ?clear@?$basic_ios@DU?$char_traits@D@std@@@std@@QAEXH_N@Z
_TEXT	SEGMENT
__State$ = 8						; size = 4
__Reraise$ = 12						; size = 1
?clear@?$basic_ios@DU?$char_traits@D@std@@@std@@QAEXH_N@Z PROC ; std::basic_ios<char,std::char_traits<char> >::clear, COMDAT
; _this$ = ecx

; 43   : 		ios_base::clear((iostate)(_Mystrbuf == 0
; 44   : 			? (int)_State | (int)badbit : (int)_State), _Reraise);

  00000	83 79 28 00	 cmp	 DWORD PTR [ecx+40], 0
  00004	8b 44 24 04	 mov	 eax, DWORD PTR __State$[esp-4]
  00008	75 03		 jne	 SHORT $LN4@clear@3
  0000a	83 c8 04	 or	 eax, 4
$LN4@clear@3:
  0000d	89 44 24 04	 mov	 DWORD PTR __State$[esp-4], eax
  00011	e9 00 00 00 00	 jmp	 ?clear@ios_base@std@@QAEXH_N@Z ; std::ios_base::clear
?clear@?$basic_ios@DU?$char_traits@D@std@@@std@@QAEXH_N@Z ENDP ; std::basic_ios<char,std::char_traits<char> >::clear
;	COMDAT ?contentType@?1??encrypt@@YAXXZ@4VObjectIdentifier@@A
; File i:\nj\my project\cms\cms\asn1\asn1.cpp
_BSS	SEGMENT
?contentType@?1??encrypt@@YAXXZ@4VObjectIdentifier@@A DB 05cH DUP (?) ; `encrypt'::`2'::contentType
; Function compile flags: /Ogtpy
; File c:\program files\microsoft visual studio 9.0\vc\include\ios
;	COMDAT ?setstate@?$basic_ios@DU?$char_traits@D@std@@@std@@QAEXH_N@Z
_TEXT	SEGMENT
__State$ = 8						; size = 4
__Reraise$ = 12						; size = 1
?setstate@?$basic_ios@DU?$char_traits@D@std@@@std@@QAEXH_N@Z PROC ; std::basic_ios<char,std::char_traits<char> >::setstate, COMDAT
; _this$ = ecx

; 53   : 		{	// merge _State into state, possible reraise exception

  00000	51		 push	 ecx

; 54   : 		if (_State != goodbit)

  00001	8b 54 24 08	 mov	 edx, DWORD PTR __State$[esp]
  00005	85 d2		 test	 edx, edx
  00007	74 19		 je	 SHORT $LN6@setstate

; 55   : 			clear((iostate)((int)rdstate() | (int)_State), _Reraise);

  00009	8b 41 08	 mov	 eax, DWORD PTR [ecx+8]
  0000c	0b c2		 or	 eax, edx
  0000e	83 79 28 00	 cmp	 DWORD PTR [ecx+40], 0
  00012	75 03		 jne	 SHORT $LN8@setstate
  00014	83 c8 04	 or	 eax, 4
$LN8@setstate:
  00017	8b 54 24 0c	 mov	 edx, DWORD PTR __Reraise$[esp]
  0001b	52		 push	 edx
  0001c	50		 push	 eax
  0001d	e8 00 00 00 00	 call	 ?clear@ios_base@std@@QAEXH_N@Z ; std::ios_base::clear
$LN6@setstate:
  00022	59		 pop	 ecx

; 56   : 		}

  00023	c2 08 00	 ret	 8
?setstate@?$basic_ios@DU?$char_traits@D@std@@@std@@QAEXH_N@Z ENDP ; std::basic_ios<char,std::char_traits<char> >::setstate
; Function compile flags: /Ogtpy
_TEXT	ENDS
;	COMDAT ??_GMT_SHA@@QAEPAXI@Z
_TEXT	SEGMENT
??_GMT_SHA@@QAEPAXI@Z PROC				; MT_SHA::`scalar deleting destructor', COMDAT
; _this$ = edi
  00000	56		 push	 esi
  00001	8d b7 c4 09 00
	00		 lea	 esi, DWORD PTR [edi+2500]
  00007	c7 06 00 00 00
	00		 mov	 DWORD PTR [esi], OFFSET ??_7SHA256@@6B@
  0000d	e8 00 00 00 00	 call	 ??1SHA@@QAE@XZ		; SHA::~SHA
  00012	57		 push	 edi
  00013	e8 00 00 00 00	 call	 ??3@YAXPAX@Z		; operator delete
  00018	83 c4 04	 add	 esp, 4
  0001b	8b c7		 mov	 eax, edi
  0001d	5e		 pop	 esi
  0001e	c3		 ret	 0
??_GMT_SHA@@QAEPAXI@Z ENDP				; MT_SHA::`scalar deleting destructor'
; Function compile flags: /Ogtpy
; File c:\program files\microsoft visual studio 9.0\vc\include\ostream
;	COMDAT ?flush@?$basic_ostream@DU?$char_traits@D@std@@@std@@QAEAAV12@XZ
_TEXT	SEGMENT
?flush@?$basic_ostream@DU?$char_traits@D@std@@@std@@QAEAAV12@XZ PROC ; std::basic_ostream<char,std::char_traits<char> >::flush, COMDAT
; _this$ = ecx

; 550  : 		{	// flush output stream

  00000	51		 push	 ecx
  00001	56		 push	 esi
  00002	8b f1		 mov	 esi, ecx

; 551  : 		ios_base::iostate _State = ios_base::goodbit;
; 552  : 		if (!ios_base::fail() && _Myios::rdbuf()->pubsync() == -1)

  00004	8b 06		 mov	 eax, DWORD PTR [esi]
  00006	8b 48 04	 mov	 ecx, DWORD PTR [eax+4]
  00009	57		 push	 edi
  0000a	8d 04 31	 lea	 eax, DWORD PTR [ecx+esi]
  0000d	33 ff		 xor	 edi, edi
  0000f	f6 40 08 06	 test	 BYTE PTR [eax+8], 6
  00013	75 16		 jne	 SHORT $LN1@flush
  00015	8b 40 28	 mov	 eax, DWORD PTR [eax+40]
  00018	8b 10		 mov	 edx, DWORD PTR [eax]
  0001a	8b c8		 mov	 ecx, eax
  0001c	8b 42 30	 mov	 eax, DWORD PTR [edx+48]
  0001f	ff d0		 call	 eax
  00021	83 f8 ff	 cmp	 eax, -1
  00024	75 05		 jne	 SHORT $LN1@flush

; 553  : 			_State |= ios_base::badbit;	// sync failed

  00026	bf 04 00 00 00	 mov	 edi, 4
$LN1@flush:

; 554  : 		_Myios::setstate(_State);

  0002b	8b 0e		 mov	 ecx, DWORD PTR [esi]
  0002d	8b 49 04	 mov	 ecx, DWORD PTR [ecx+4]
  00030	03 ce		 add	 ecx, esi
  00032	85 ff		 test	 edi, edi
  00034	74 16		 je	 SHORT $LN21@flush
  00036	8b 41 08	 mov	 eax, DWORD PTR [ecx+8]
  00039	0b c7		 or	 eax, edi
  0003b	83 79 28 00	 cmp	 DWORD PTR [ecx+40], 0
  0003f	75 03		 jne	 SHORT $LN19@flush
  00041	83 c8 04	 or	 eax, 4
$LN19@flush:
  00044	6a 00		 push	 0
  00046	50		 push	 eax
  00047	e8 00 00 00 00	 call	 ?clear@ios_base@std@@QAEXH_N@Z ; std::ios_base::clear
$LN21@flush:

; 555  : 		return (*this);
; 556  : 		}

  0004c	5f		 pop	 edi
  0004d	8b c6		 mov	 eax, esi
  0004f	5e		 pop	 esi
  00050	59		 pop	 ecx
  00051	c3		 ret	 0
?flush@?$basic_ostream@DU?$char_traits@D@std@@@std@@QAEAAV12@XZ ENDP ; std::basic_ostream<char,std::char_traits<char> >::flush
_TEXT	ENDS
;	COMDAT xdata$x
; File c:\program files\microsoft visual studio 9.0\vc\include\xiosbase
xdata$x	SEGMENT
__unwindtable$?_Osfx@?$basic_ostream@DU?$char_traits@D@std@@@std@@QAEXXZ DD 0ffffffffH
	DD	00H
	DD	0ffffffffH
	DD	00H
__catchsym$?_Osfx@?$basic_ostream@DU?$char_traits@D@std@@@std@@QAEXXZ$2 DD 040H
	DD	00H
	DD	00H
	DD	FLAT:__catch$?_Osfx@?$basic_ostream@DU?$char_traits@D@std@@@std@@QAEXXZ$0
__tryblocktable$?_Osfx@?$basic_ostream@DU?$char_traits@D@std@@@std@@QAEXXZ DD 00H
	DD	00H
	DD	01H
	DD	01H
	DD	FLAT:__catchsym$?_Osfx@?$basic_ostream@DU?$char_traits@D@std@@@std@@QAEXXZ$2
__ehfuncinfo$?_Osfx@?$basic_ostream@DU?$char_traits@D@std@@@std@@QAEXXZ DD 019930522H
	DD	02H
	DD	FLAT:__unwindtable$?_Osfx@?$basic_ostream@DU?$char_traits@D@std@@@std@@QAEXXZ
	DD	01H
	DD	FLAT:__tryblocktable$?_Osfx@?$basic_ostream@DU?$char_traits@D@std@@@std@@QAEXXZ
	DD	2 DUP(00H)
	DD	00H
	DD	01H
; Function compile flags: /Ogtpy
; File c:\program files\microsoft visual studio 9.0\vc\include\ostream
xdata$x	ENDS
;	COMDAT ?_Osfx@?$basic_ostream@DU?$char_traits@D@std@@@std@@QAEXXZ
_TEXT	SEGMENT
__$EHRec$ = -16						; size = 16
?_Osfx@?$basic_ostream@DU?$char_traits@D@std@@@std@@QAEXXZ PROC ; std::basic_ostream<char,std::char_traits<char> >::_Osfx, COMDAT
; _this$ = ecx

; 139  : 		{	// perform any wrapup

  00000	55		 push	 ebp
  00001	8b ec		 mov	 ebp, esp
  00003	6a ff		 push	 -1
  00005	68 00 00 00 00	 push	 __ehhandler$?_Osfx@?$basic_ostream@DU?$char_traits@D@std@@@std@@QAEXXZ
  0000a	64 a1 00 00 00
	00		 mov	 eax, DWORD PTR fs:0
  00010	50		 push	 eax
  00011	51		 push	 ecx
  00012	53		 push	 ebx
  00013	56		 push	 esi
  00014	57		 push	 edi
  00015	a1 00 00 00 00	 mov	 eax, DWORD PTR ___security_cookie
  0001a	33 c5		 xor	 eax, ebp
  0001c	50		 push	 eax
  0001d	8d 45 f4	 lea	 eax, DWORD PTR __$EHRec$[ebp+4]
  00020	64 a3 00 00 00
	00		 mov	 DWORD PTR fs:0, eax
  00026	89 65 f0	 mov	 DWORD PTR __$EHRec$[ebp], esp

; 140  : 		_TRY_BEGIN

  00029	c7 45 fc 00 00
	00 00		 mov	 DWORD PTR __$EHRec$[ebp+12], 0

; 141  : 		if (ios_base::flags() & ios_base::unitbuf)

  00030	8b 01		 mov	 eax, DWORD PTR [ecx]
  00032	8b 50 04	 mov	 edx, DWORD PTR [eax+4]
  00035	f6 44 0a 10 02	 test	 BYTE PTR [edx+ecx+16], 2
  0003a	74 05		 je	 SHORT $LN8@Osfx

; 142  : 			flush();	// flush stream as needed

  0003c	e8 00 00 00 00	 call	 ?flush@?$basic_ostream@DU?$char_traits@D@std@@@std@@QAEAAV12@XZ ; std::basic_ostream<char,std::char_traits<char> >::flush
$LN8@Osfx:

; 145  : 		}

  00041	8b 4d f4	 mov	 ecx, DWORD PTR __$EHRec$[ebp+4]
  00044	64 89 0d 00 00
	00 00		 mov	 DWORD PTR fs:0, ecx
  0004b	59		 pop	 ecx
  0004c	5f		 pop	 edi
  0004d	5e		 pop	 esi
  0004e	5b		 pop	 ebx
  0004f	8b e5		 mov	 esp, ebp
  00051	5d		 pop	 ebp
  00052	c3		 ret	 0
__catch$?_Osfx@?$basic_ostream@DU?$char_traits@D@std@@@std@@QAEXXZ$0:

; 143  : 		_CATCH_ALL
; 144  : 		_CATCH_END

  00053	b8 00 00 00 00	 mov	 eax, $LN8@Osfx
  00058	c3		 ret	 0
_TEXT	ENDS
;	COMDAT text$x
text$x	SEGMENT
__ehhandler$?_Osfx@?$basic_ostream@DU?$char_traits@D@std@@@std@@QAEXXZ:
  00000	8b 54 24 08	 mov	 edx, DWORD PTR [esp+8]
  00004	8d 42 0c	 lea	 eax, DWORD PTR [edx+12]
  00007	8b 4a ec	 mov	 ecx, DWORD PTR [edx-20]
  0000a	33 c8		 xor	 ecx, eax
  0000c	e8 00 00 00 00	 call	 @__security_check_cookie@4
  00011	b8 00 00 00 00	 mov	 eax, OFFSET __ehfuncinfo$?_Osfx@?$basic_ostream@DU?$char_traits@D@std@@@std@@QAEXXZ
  00016	e9 00 00 00 00	 jmp	 ___CxxFrameHandler3
text$x	ENDS
?_Osfx@?$basic_ostream@DU?$char_traits@D@std@@@std@@QAEXXZ ENDP ; std::basic_ostream<char,std::char_traits<char> >::_Osfx
;	COMDAT xdata$x
; File c:\program files\microsoft visual studio 9.0\vc\include\xiosbase
xdata$x	SEGMENT
__unwindtable$??0sentry@?$basic_ostream@DU?$char_traits@D@std@@@std@@QAE@AAV12@@Z DD 0ffffffffH
	DD	FLAT:__unwindfunclet$??0sentry@?$basic_ostream@DU?$char_traits@D@std@@@std@@QAE@AAV12@@Z$0
__ehfuncinfo$??0sentry@?$basic_ostream@DU?$char_traits@D@std@@@std@@QAE@AAV12@@Z DD 019930522H
	DD	01H
	DD	FLAT:__unwindtable$??0sentry@?$basic_ostream@DU?$char_traits@D@std@@@std@@QAE@AAV12@@Z
	DD	2 DUP(00H)
	DD	2 DUP(00H)
	DD	00H
	DD	01H
; Function compile flags: /Ogtpy
; File c:\program files\microsoft visual studio 9.0\vc\include\ostream
xdata$x	ENDS
;	COMDAT ??0sentry@?$basic_ostream@DU?$char_traits@D@std@@@std@@QAE@AAV12@@Z
_TEXT	SEGMENT
__$EHRec$ = -12						; size = 12
_this$ = 8						; size = 4
??0sentry@?$basic_ostream@DU?$char_traits@D@std@@@std@@QAE@AAV12@@Z PROC ; std::basic_ostream<char,std::char_traits<char> >::sentry::sentry, COMDAT
; __Ostr$ = esi

; 95   : 			{	// construct locking and testing stream

  00000	6a ff		 push	 -1
  00002	68 00 00 00 00	 push	 __ehhandler$??0sentry@?$basic_ostream@DU?$char_traits@D@std@@@std@@QAE@AAV12@@Z
  00007	64 a1 00 00 00
	00		 mov	 eax, DWORD PTR fs:0
  0000d	50		 push	 eax
  0000e	51		 push	 ecx
  0000f	57		 push	 edi
  00010	a1 00 00 00 00	 mov	 eax, DWORD PTR ___security_cookie
  00015	33 c4		 xor	 eax, esp
  00017	50		 push	 eax
  00018	8d 44 24 0c	 lea	 eax, DWORD PTR __$EHRec$[esp+24]
  0001c	64 a3 00 00 00
	00		 mov	 DWORD PTR fs:0, eax
  00022	8b 7c 24 1c	 mov	 edi, DWORD PTR _this$[esp+20]
  00026	89 37		 mov	 DWORD PTR [edi], esi
  00028	8b 06		 mov	 eax, DWORD PTR [esi]
  0002a	8b 48 04	 mov	 ecx, DWORD PTR [eax+4]
  0002d	8b 44 31 28	 mov	 eax, DWORD PTR [ecx+esi+40]
  00031	85 c0		 test	 eax, eax
  00033	74 08		 je	 SHORT $LN12@sentry@2
  00035	8d 48 04	 lea	 ecx, DWORD PTR [eax+4]
  00038	e8 00 00 00 00	 call	 ?_Lock@_Mutex@std@@QAEXXZ ; std::_Mutex::_Lock
$LN12@sentry@2:
  0003d	c7 44 24 14 00
	00 00 00	 mov	 DWORD PTR __$EHRec$[esp+32], 0

; 96   : 			if (_Ostr.good() && _Ostr.tie() != 0)

  00045	8b 16		 mov	 edx, DWORD PTR [esi]
  00047	8b 42 04	 mov	 eax, DWORD PTR [edx+4]
  0004a	03 c6		 add	 eax, esi
  0004c	83 78 08 00	 cmp	 DWORD PTR [eax+8], 0
  00050	75 0e		 jne	 SHORT $LN1@sentry@2
  00052	8b 40 2c	 mov	 eax, DWORD PTR [eax+44]
  00055	85 c0		 test	 eax, eax
  00057	74 07		 je	 SHORT $LN1@sentry@2

; 97   : 				_Ostr.tie()->flush();

  00059	8b c8		 mov	 ecx, eax
  0005b	e8 00 00 00 00	 call	 ?flush@?$basic_ostream@DU?$char_traits@D@std@@@std@@QAEAAV12@XZ ; std::basic_ostream<char,std::char_traits<char> >::flush
$LN1@sentry@2:

; 98   : 			_Ok = _Ostr.good();	// store test only after flushing tie

  00060	8b 0e		 mov	 ecx, DWORD PTR [esi]
  00062	8b 51 04	 mov	 edx, DWORD PTR [ecx+4]
  00065	83 7c 32 08 00	 cmp	 DWORD PTR [edx+esi+8], 0
  0006a	0f 94 c0	 sete	 al
  0006d	88 47 04	 mov	 BYTE PTR [edi+4], al

; 99   : 			}

  00070	8b c7		 mov	 eax, edi
  00072	8b 4c 24 0c	 mov	 ecx, DWORD PTR __$EHRec$[esp+24]
  00076	64 89 0d 00 00
	00 00		 mov	 DWORD PTR fs:0, ecx
  0007d	59		 pop	 ecx
  0007e	5f		 pop	 edi
  0007f	83 c4 10	 add	 esp, 16			; 00000010H
  00082	c2 04 00	 ret	 4
_TEXT	ENDS
;	COMDAT text$x
text$x	SEGMENT
__unwindfunclet$??0sentry@?$basic_ostream@DU?$char_traits@D@std@@@std@@QAE@AAV12@@Z$0:
  00000	8b 45 04	 mov	 eax, DWORD PTR _this$[ebp-4]
  00003	e9 00 00 00 00	 jmp	 ??1_Sentry_base@?$basic_ostream@DU?$char_traits@D@std@@@std@@QAE@XZ ; std::basic_ostream<char,std::char_traits<char> >::_Sentry_base::~_Sentry_base
__ehhandler$??0sentry@?$basic_ostream@DU?$char_traits@D@std@@@std@@QAE@AAV12@@Z:
  00008	8b 54 24 08	 mov	 edx, DWORD PTR [esp+8]
  0000c	8d 42 f8	 lea	 eax, DWORD PTR [edx-8]
  0000f	8b 4a f4	 mov	 ecx, DWORD PTR [edx-12]
  00012	33 c8		 xor	 ecx, eax
  00014	e8 00 00 00 00	 call	 @__security_check_cookie@4
  00019	b8 00 00 00 00	 mov	 eax, OFFSET __ehfuncinfo$??0sentry@?$basic_ostream@DU?$char_traits@D@std@@@std@@QAE@AAV12@@Z
  0001e	e9 00 00 00 00	 jmp	 ___CxxFrameHandler3
text$x	ENDS
??0sentry@?$basic_ostream@DU?$char_traits@D@std@@@std@@QAE@AAV12@@Z ENDP ; std::basic_ostream<char,std::char_traits<char> >::sentry::sentry
; Function compile flags: /Ogtpy
;	COMDAT ??_DFileOutput@@QAEXXZ
_TEXT	SEGMENT
??_DFileOutput@@QAEXXZ PROC				; FileOutput::`vbase destructor', COMDAT
; _this$ = eax
  00000	56		 push	 esi
  00001	8b f0		 mov	 esi, eax
  00003	83 c6 54	 add	 esi, 84			; 00000054H
  00006	56		 push	 esi
  00007	e8 00 00 00 00	 call	 ??1FileOutput@@UAE@XZ	; FileOutput::~FileOutput
  0000c	56		 push	 esi
  0000d	c7 06 00 00 00
	00		 mov	 DWORD PTR [esi], OFFSET ??_7ios_base@std@@6B@
  00013	e8 00 00 00 00	 call	 ?_Ios_base_dtor@ios_base@std@@CAXPAV12@@Z ; std::ios_base::_Ios_base_dtor
  00018	83 c4 04	 add	 esp, 4
  0001b	5e		 pop	 esi
  0001c	c3		 ret	 0
??_DFileOutput@@QAEXXZ ENDP				; FileOutput::`vbase destructor'
; Function compile flags: /Ogtpy
_TEXT	ENDS
;	COMDAT ??_DFileInput@@QAEXXZ
_TEXT	SEGMENT
??_DFileInput@@QAEXXZ PROC				; FileInput::`vbase destructor', COMDAT
; _this$ = eax
  00000	56		 push	 esi
  00001	8b f0		 mov	 esi, eax
  00003	83 c6 58	 add	 esi, 88			; 00000058H
  00006	56		 push	 esi
  00007	e8 00 00 00 00	 call	 ??1FileInput@@UAE@XZ	; FileInput::~FileInput
  0000c	56		 push	 esi
  0000d	c7 06 00 00 00
	00		 mov	 DWORD PTR [esi], OFFSET ??_7ios_base@std@@6B@
  00013	e8 00 00 00 00	 call	 ?_Ios_base_dtor@ios_base@std@@CAXPAV12@@Z ; std::ios_base::_Ios_base_dtor
  00018	83 c4 04	 add	 esp, 4
  0001b	5e		 pop	 esi
  0001c	c3		 ret	 0
??_DFileInput@@QAEXXZ ENDP				; FileInput::`vbase destructor'
;	COMDAT xdata$x
; File c:\program files\microsoft visual studio 9.0\vc\include\streambuf
xdata$x	SEGMENT
__unwindtable$??1sentry@?$basic_ostream@DU?$char_traits@D@std@@@std@@QAE@XZ DD 0ffffffffH
	DD	FLAT:__unwindfunclet$??1sentry@?$basic_ostream@DU?$char_traits@D@std@@@std@@QAE@XZ$0
__ehfuncinfo$??1sentry@?$basic_ostream@DU?$char_traits@D@std@@@std@@QAE@XZ DD 019930522H
	DD	01H
	DD	FLAT:__unwindtable$??1sentry@?$basic_ostream@DU?$char_traits@D@std@@@std@@QAE@XZ
	DD	2 DUP(00H)
	DD	2 DUP(00H)
	DD	00H
	DD	01H
; Function compile flags: /Ogtpy
; File c:\program files\microsoft visual studio 9.0\vc\include\ostream
xdata$x	ENDS
;	COMDAT ??1sentry@?$basic_ostream@DU?$char_traits@D@std@@@std@@QAE@XZ
_TEXT	SEGMENT
__$EHRec$ = -12						; size = 12
_this$ = 8						; size = 4
??1sentry@?$basic_ostream@DU?$char_traits@D@std@@@std@@QAE@XZ PROC ; std::basic_ostream<char,std::char_traits<char> >::sentry::~sentry, COMDAT

; 102  : 			{	// destroy the object

  00000	6a ff		 push	 -1
  00002	68 00 00 00 00	 push	 __ehhandler$??1sentry@?$basic_ostream@DU?$char_traits@D@std@@@std@@QAE@XZ
  00007	64 a1 00 00 00
	00		 mov	 eax, DWORD PTR fs:0
  0000d	50		 push	 eax
  0000e	51		 push	 ecx
  0000f	56		 push	 esi
  00010	a1 00 00 00 00	 mov	 eax, DWORD PTR ___security_cookie
  00015	33 c4		 xor	 eax, esp
  00017	50		 push	 eax
  00018	8d 44 24 0c	 lea	 eax, DWORD PTR __$EHRec$[esp+24]
  0001c	64 a3 00 00 00
	00		 mov	 DWORD PTR fs:0, eax
  00022	8b 74 24 1c	 mov	 esi, DWORD PTR _this$[esp+20]
  00026	c7 44 24 14 00
	00 00 00	 mov	 DWORD PTR __$EHRec$[esp+32], 0

; 103  : 
; 104  :  #if _HAS_EXCEPTIONS
; 105  : 			if (!_XSTD uncaught_exception())

  0002e	e8 00 00 00 00	 call	 ?uncaught_exception@std@@YA_NXZ ; std::uncaught_exception
  00033	84 c0		 test	 al, al
  00035	75 07		 jne	 SHORT $LN1@sentry@3

; 106  : 				this->_Myostr._Osfx();

  00037	8b 0e		 mov	 ecx, DWORD PTR [esi]
  00039	e8 00 00 00 00	 call	 ?_Osfx@?$basic_ostream@DU?$char_traits@D@std@@@std@@QAEXXZ ; std::basic_ostream<char,std::char_traits<char> >::_Osfx
$LN1@sentry@3:

; 107  : 			}

  0003e	c7 44 24 14 ff
	ff ff ff	 mov	 DWORD PTR __$EHRec$[esp+32], -1
  00046	8b 06		 mov	 eax, DWORD PTR [esi]
  00048	8b 08		 mov	 ecx, DWORD PTR [eax]
  0004a	8b 51 04	 mov	 edx, DWORD PTR [ecx+4]
  0004d	8b 44 02 28	 mov	 eax, DWORD PTR [edx+eax+40]
  00051	85 c0		 test	 eax, eax
  00053	74 08		 je	 SHORT $LN12@sentry@3
  00055	8d 48 04	 lea	 ecx, DWORD PTR [eax+4]
  00058	e8 00 00 00 00	 call	 ?_Unlock@_Mutex@std@@QAEXXZ ; std::_Mutex::_Unlock
$LN12@sentry@3:
  0005d	8b 4c 24 0c	 mov	 ecx, DWORD PTR __$EHRec$[esp+24]
  00061	64 89 0d 00 00
	00 00		 mov	 DWORD PTR fs:0, ecx
  00068	59		 pop	 ecx
  00069	5e		 pop	 esi
  0006a	83 c4 10	 add	 esp, 16			; 00000010H
  0006d	c2 04 00	 ret	 4
_TEXT	ENDS
;	COMDAT text$x
text$x	SEGMENT
__unwindfunclet$??1sentry@?$basic_ostream@DU?$char_traits@D@std@@@std@@QAE@XZ$0:
  00000	8b 45 04	 mov	 eax, DWORD PTR _this$[ebp-4]
  00003	e9 00 00 00 00	 jmp	 ??1_Sentry_base@?$basic_ostream@DU?$char_traits@D@std@@@std@@QAE@XZ ; std::basic_ostream<char,std::char_traits<char> >::_Sentry_base::~_Sentry_base
__ehhandler$??1sentry@?$basic_ostream@DU?$char_traits@D@std@@@std@@QAE@XZ:
  00008	8b 54 24 08	 mov	 edx, DWORD PTR [esp+8]
  0000c	8d 42 f8	 lea	 eax, DWORD PTR [edx-8]
  0000f	8b 4a f4	 mov	 ecx, DWORD PTR [edx-12]
  00012	33 c8		 xor	 ecx, eax
  00014	e8 00 00 00 00	 call	 @__security_check_cookie@4
  00019	b8 00 00 00 00	 mov	 eax, OFFSET __ehfuncinfo$??1sentry@?$basic_ostream@DU?$char_traits@D@std@@@std@@QAE@XZ
  0001e	e9 00 00 00 00	 jmp	 ___CxxFrameHandler3
text$x	ENDS
??1sentry@?$basic_ostream@DU?$char_traits@D@std@@@std@@QAE@XZ ENDP ; std::basic_ostream<char,std::char_traits<char> >::sentry::~sentry
;	COMDAT xdata$x
; File c:\program files\microsoft visual studio 9.0\vc\include\streambuf
xdata$x	SEGMENT
__unwindtable$??$?6U?$char_traits@D@std@@@std@@YAAAV?$basic_ostream@DU?$char_traits@D@std@@@0@AAV10@PBD@Z DD 0ffffffffH
	DD	FLAT:__unwindfunclet$??$?6U?$char_traits@D@std@@@std@@YAAAV?$basic_ostream@DU?$char_traits@D@std@@@0@AAV10@PBD@Z$2
	DD	00H
	DD	00H
	DD	00H
	DD	00H
	DD	0ffffffffH
	DD	FLAT:__unwindfunclet$??$?6U?$char_traits@D@std@@@std@@YAAAV?$basic_ostream@DU?$char_traits@D@std@@@0@AAV10@PBD@Z$9
__catchsym$??$?6U?$char_traits@D@std@@@std@@YAAAV?$basic_ostream@DU?$char_traits@D@std@@@0@AAV10@PBD@Z$10 DD 040H
	DD	00H
	DD	00H
	DD	FLAT:__catch$??$?6U?$char_traits@D@std@@@std@@YAAAV?$basic_ostream@DU?$char_traits@D@std@@@0@AAV10@PBD@Z$0
__tryblocktable$??$?6U?$char_traits@D@std@@@std@@YAAAV?$basic_ostream@DU?$char_traits@D@std@@@0@AAV10@PBD@Z DD 01H
	DD	01H
	DD	02H
	DD	01H
	DD	FLAT:__catchsym$??$?6U?$char_traits@D@std@@@std@@YAAAV?$basic_ostream@DU?$char_traits@D@std@@@0@AAV10@PBD@Z$10
__ehfuncinfo$??$?6U?$char_traits@D@std@@@std@@YAAAV?$basic_ostream@DU?$char_traits@D@std@@@0@AAV10@PBD@Z DD 019930522H
	DD	04H
	DD	FLAT:__unwindtable$??$?6U?$char_traits@D@std@@@std@@YAAAV?$basic_ostream@DU?$char_traits@D@std@@@0@AAV10@PBD@Z
	DD	01H
	DD	FLAT:__tryblocktable$??$?6U?$char_traits@D@std@@@std@@YAAAV?$basic_ostream@DU?$char_traits@D@std@@@0@AAV10@PBD@Z
	DD	2 DUP(00H)
	DD	00H
	DD	01H
; Function compile flags: /Ogtpy
; File c:\program files\microsoft visual studio 9.0\vc\include\ostream
xdata$x	ENDS
;	COMDAT ??$?6U?$char_traits@D@std@@@std@@YAAAV?$basic_ostream@DU?$char_traits@D@std@@@0@AAV10@PBD@Z
_TEXT	SEGMENT
__Ok$ = -32						; size = 8
__Pad$ = -24						; size = 4
__State$ = -20						; size = 4
__$EHRec$ = -16						; size = 16
__Ostr$ = 8						; size = 4
__Val$ = 12						; size = 4
??$?6U?$char_traits@D@std@@@std@@YAAAV?$basic_ostream@DU?$char_traits@D@std@@@0@AAV10@PBD@Z PROC ; std::operator<<<std::char_traits<char> >, COMDAT

; 741  : 	{	// insert NTBS into char stream

  00000	55		 push	 ebp
  00001	8b ec		 mov	 ebp, esp
  00003	6a ff		 push	 -1
  00005	68 00 00 00 00	 push	 __ehhandler$??$?6U?$char_traits@D@std@@@std@@YAAAV?$basic_ostream@DU?$char_traits@D@std@@@0@AAV10@PBD@Z
  0000a	64 a1 00 00 00
	00		 mov	 eax, DWORD PTR fs:0
  00010	50		 push	 eax
  00011	83 ec 14	 sub	 esp, 20			; 00000014H
  00014	53		 push	 ebx
  00015	56		 push	 esi
  00016	57		 push	 edi
  00017	a1 00 00 00 00	 mov	 eax, DWORD PTR ___security_cookie
  0001c	33 c5		 xor	 eax, ebp
  0001e	50		 push	 eax
  0001f	8d 45 f4	 lea	 eax, DWORD PTR __$EHRec$[ebp+4]
  00022	64 a3 00 00 00
	00		 mov	 DWORD PTR fs:0, eax
  00028	89 65 f0	 mov	 DWORD PTR __$EHRec$[ebp], esp
  0002b	8b 75 08	 mov	 esi, DWORD PTR __Ostr$[ebp]

; 742  : 	typedef char _Elem;
; 743  : 	typedef basic_ostream<_Elem, _Traits> _Myos;
; 744  : 	ios_base::iostate _State = ios_base::goodbit;
; 745  : 	streamsize _Count = (streamsize)_Traits::length(_Val);	// may overflow

  0002e	8b 45 0c	 mov	 eax, DWORD PTR __Val$[ebp]
  00031	33 db		 xor	 ebx, ebx
  00033	89 5d ec	 mov	 DWORD PTR __State$[ebp], ebx
  00036	8d 50 01	 lea	 edx, DWORD PTR [eax+1]
  00039	8d a4 24 00 00
	00 00		 npad	 7
$LL144@operator@33:
  00040	8a 08		 mov	 cl, BYTE PTR [eax]
  00042	40		 inc	 eax
  00043	84 c9		 test	 cl, cl
  00045	75 f9		 jne	 SHORT $LL144@operator@33
  00047	2b c2		 sub	 eax, edx
  00049	8b f8		 mov	 edi, eax

; 746  : 	streamsize _Pad = _Ostr.width() <= 0 || _Ostr.width() <= _Count
; 747  : 		? 0 : _Ostr.width() - _Count;

  0004b	8b 06		 mov	 eax, DWORD PTR [esi]
  0004d	8b 48 04	 mov	 ecx, DWORD PTR [eax+4]
  00050	8b 44 31 18	 mov	 eax, DWORD PTR [ecx+esi+24]
  00054	3b c3		 cmp	 eax, ebx
  00056	7e 0d		 jle	 SHORT $LN17@operator@33
  00058	3b c7		 cmp	 eax, edi
  0005a	7e 09		 jle	 SHORT $LN17@operator@33
  0005c	2b c7		 sub	 eax, edi
  0005e	8b d8		 mov	 ebx, eax
  00060	89 45 e8	 mov	 DWORD PTR __Pad$[ebp], eax
  00063	eb 03		 jmp	 SHORT $LN18@operator@33
$LN17@operator@33:
  00065	89 5d e8	 mov	 DWORD PTR __Pad$[ebp], ebx
$LN18@operator@33:

; 748  : 	const typename _Myos::sentry _Ok(_Ostr);

  00068	8d 55 e0	 lea	 edx, DWORD PTR __Ok$[ebp]
  0006b	52		 push	 edx
  0006c	e8 00 00 00 00	 call	 ??0sentry@?$basic_ostream@DU?$char_traits@D@std@@@std@@QAE@AAV12@@Z ; std::basic_ostream<char,std::char_traits<char> >::sentry::sentry
  00071	c7 45 fc 00 00
	00 00		 mov	 DWORD PTR __$EHRec$[ebp+12], 0

; 749  : 
; 750  : 	if (!_Ok)

  00078	80 7d e4 00	 cmp	 BYTE PTR __Ok$[ebp+4], 0
  0007c	75 0a		 jne	 SHORT $LN14@operator@33

; 751  : 		_State |= ios_base::badbit;

  0007e	ba 04 00 00 00	 mov	 edx, 4

; 752  : 	else

  00083	e9 a3 00 00 00	 jmp	 $LN22@operator@33
$LN14@operator@33:

; 753  : 		{	// state okay, insert
; 754  : 		_TRY_IO_BEGIN

  00088	c6 45 fc 01	 mov	 BYTE PTR __$EHRec$[ebp+12], 1

; 755  : 		if ((_Ostr.flags() & ios_base::adjustfield) != ios_base::left)

  0008c	8b 06		 mov	 eax, DWORD PTR [esi]
  0008e	8b 48 04	 mov	 ecx, DWORD PTR [eax+4]
  00091	8b 44 31 10	 mov	 eax, DWORD PTR [ecx+esi+16]
  00095	25 c0 01 00 00	 and	 eax, 448		; 000001c0H
  0009a	83 f8 40	 cmp	 eax, 64			; 00000040H
  0009d	74 57		 je	 SHORT $LN142@operator@33
  0009f	90		 npad	 1
$LL10@operator@33:

; 756  : 			for (; 0 < _Pad; --_Pad)	// pad on left

  000a0	85 db		 test	 ebx, ebx
  000a2	7e 4c		 jle	 SHORT $LN8@operator@33

; 757  : 				if (_Traits::eq_int_type(_Traits::eof(),
; 758  : 					_Ostr.rdbuf()->sputc(_Ostr.fill())))

  000a4	8b 16		 mov	 edx, DWORD PTR [esi]
  000a6	8b 42 04	 mov	 eax, DWORD PTR [edx+4]
  000a9	8d 0c 30	 lea	 ecx, DWORD PTR [eax+esi]
  000ac	8a 41 30	 mov	 al, BYTE PTR [ecx+48]
  000af	8b 49 28	 mov	 ecx, DWORD PTR [ecx+40]
  000b2	8b 51 24	 mov	 edx, DWORD PTR [ecx+36]
  000b5	83 3a 00	 cmp	 DWORD PTR [edx], 0
  000b8	74 1e		 je	 SHORT $LN42@operator@33
  000ba	8b 51 34	 mov	 edx, DWORD PTR [ecx+52]
  000bd	83 3a 00	 cmp	 DWORD PTR [edx], 0
  000c0	7e 16		 jle	 SHORT $LN42@operator@33
  000c2	ff 0a		 dec	 DWORD PTR [edx]
  000c4	8b 49 24	 mov	 ecx, DWORD PTR [ecx+36]
  000c7	8b 11		 mov	 edx, DWORD PTR [ecx]
  000c9	8d 5a 01	 lea	 ebx, DWORD PTR [edx+1]
  000cc	89 19		 mov	 DWORD PTR [ecx], ebx
  000ce	8b 5d e8	 mov	 ebx, DWORD PTR __Pad$[ebp]
  000d1	88 02		 mov	 BYTE PTR [edx], al
  000d3	0f b6 c0	 movzx	 eax, al
  000d6	eb 0b		 jmp	 SHORT $LN43@operator@33
$LN42@operator@33:
  000d8	8b 11		 mov	 edx, DWORD PTR [ecx]
  000da	0f b6 c0	 movzx	 eax, al
  000dd	50		 push	 eax
  000de	8b 42 04	 mov	 eax, DWORD PTR [edx+4]
  000e1	ff d0		 call	 eax
$LN43@operator@33:
  000e3	83 f8 ff	 cmp	 eax, -1
  000e6	0f 85 ab 00 00
	00		 jne	 $LN9@operator@33

; 759  : 					{	// insertion failed, quit
; 760  : 					_State |= ios_base::badbit;

  000ec	83 4d ec 04	 or	 DWORD PTR __State$[ebp], 4
$LN8@operator@33:

; 761  : 					break;
; 762  : 					}
; 763  : 
; 764  : 		if (_State == ios_base::goodbit
; 765  : 			&& _Ostr.rdbuf()->sputn(_Val, _Count) != _Count)

  000f0	83 7d ec 00	 cmp	 DWORD PTR __State$[ebp], 0
  000f4	75 23		 jne	 SHORT $LN2@operator@33
$LN142@operator@33:
  000f6	8b 0e		 mov	 ecx, DWORD PTR [esi]
  000f8	8b 51 04	 mov	 edx, DWORD PTR [ecx+4]
  000fb	8b 4c 32 28	 mov	 ecx, DWORD PTR [edx+esi+40]
  000ff	8b 01		 mov	 eax, DWORD PTR [ecx]
  00101	8b 50 20	 mov	 edx, DWORD PTR [eax+32]
  00104	57		 push	 edi
  00105	ff 75 0c	 push	 DWORD PTR __Val$[ebp]
  00108	ff d2		 call	 edx
  0010a	3b c7		 cmp	 eax, edi
  0010c	0f 84 8e 00 00
	00		 je	 $LL143@operator@33

; 766  : 			_State |= ios_base::badbit;

  00112	c7 45 ec 04 00
	00 00		 mov	 DWORD PTR __State$[ebp], 4
$LN2@operator@33:

; 775  : 					}
; 776  : 		_Ostr.width(0);

  00119	8b 16		 mov	 edx, DWORD PTR [esi]
  0011b	8b 42 04	 mov	 eax, DWORD PTR [edx+4]
  0011e	03 c6		 add	 eax, esi
  00120	33 c9		 xor	 ecx, ecx
  00122	89 48 18	 mov	 DWORD PTR [eax+24], ecx
  00125	89 4d fc	 mov	 DWORD PTR __$EHRec$[ebp+12], ecx
$LN151@operator@33:
  00128	8b 55 ec	 mov	 edx, DWORD PTR __State$[ebp]
$LN22@operator@33:

; 778  : 		}
; 779  : 
; 780  : 	_Ostr.setstate(_State);

  0012b	8b 06		 mov	 eax, DWORD PTR [esi]
  0012d	8b 48 04	 mov	 ecx, DWORD PTR [eax+4]
  00130	03 ce		 add	 ecx, esi
  00132	85 d2		 test	 edx, edx
  00134	74 16		 je	 SHORT $LN122@operator@33
  00136	8b 41 08	 mov	 eax, DWORD PTR [ecx+8]
  00139	0b c2		 or	 eax, edx
  0013b	83 79 28 00	 cmp	 DWORD PTR [ecx+40], 0
  0013f	75 03		 jne	 SHORT $LN124@operator@33
  00141	83 c8 04	 or	 eax, 4
$LN124@operator@33:
  00144	6a 00		 push	 0
  00146	50		 push	 eax
  00147	e8 00 00 00 00	 call	 ?clear@ios_base@std@@QAEXH_N@Z ; std::ios_base::clear
$LN122@operator@33:

; 781  : 	return (_Ostr);

  0014c	c7 45 fc 03 00
	00 00		 mov	 DWORD PTR __$EHRec$[ebp+12], 3
  00153	e8 00 00 00 00	 call	 ?uncaught_exception@std@@YA_NXZ ; std::uncaught_exception
  00158	84 c0		 test	 al, al
  0015a	75 08		 jne	 SHORT $LN126@operator@33
  0015c	8b 4d e0	 mov	 ecx, DWORD PTR __Ok$[ebp]
  0015f	e8 00 00 00 00	 call	 ?_Osfx@?$basic_ostream@DU?$char_traits@D@std@@@std@@QAEXXZ ; std::basic_ostream<char,std::char_traits<char> >::_Osfx
$LN126@operator@33:
  00164	c7 45 fc ff ff
	ff ff		 mov	 DWORD PTR __$EHRec$[ebp+12], -1
  0016b	8b 45 e0	 mov	 eax, DWORD PTR __Ok$[ebp]
  0016e	8b 08		 mov	 ecx, DWORD PTR [eax]
  00170	8b 51 04	 mov	 edx, DWORD PTR [ecx+4]
  00173	8b 44 02 28	 mov	 eax, DWORD PTR [edx+eax+40]
  00177	85 c0		 test	 eax, eax
  00179	74 08		 je	 SHORT $LN146@operator@33
  0017b	8d 48 04	 lea	 ecx, DWORD PTR [eax+4]
  0017e	e8 00 00 00 00	 call	 ?_Unlock@_Mutex@std@@QAEXXZ ; std::_Mutex::_Unlock
$LN146@operator@33:
  00183	8b c6		 mov	 eax, esi

; 782  : 	}

  00185	8b 4d f4	 mov	 ecx, DWORD PTR __$EHRec$[ebp+4]
  00188	64 89 0d 00 00
	00 00		 mov	 DWORD PTR fs:0, ecx
  0018f	59		 pop	 ecx
  00190	5f		 pop	 edi
  00191	5e		 pop	 esi
  00192	5b		 pop	 ebx
  00193	8b e5		 mov	 esp, ebp
  00195	5d		 pop	 ebp
  00196	c3		 ret	 0
$LN9@operator@33:

; 756  : 			for (; 0 < _Pad; --_Pad)	// pad on left

  00197	4b		 dec	 ebx
  00198	89 5d e8	 mov	 DWORD PTR __Pad$[ebp], ebx
  0019b	e9 00 ff ff ff	 jmp	 $LL10@operator@33
$LL143@operator@33:

; 767  : 
; 768  : 		if (_State == ios_base::goodbit)
; 769  : 			for (; 0 < _Pad; --_Pad)	// pad on right

  001a0	85 db		 test	 ebx, ebx
  001a2	0f 8e 71 ff ff
	ff		 jle	 $LN2@operator@33

; 770  : 				if (_Traits::eq_int_type(_Traits::eof(),
; 771  : 					_Ostr.rdbuf()->sputc(_Ostr.fill())))

  001a8	8b 06		 mov	 eax, DWORD PTR [esi]
  001aa	8b 48 04	 mov	 ecx, DWORD PTR [eax+4]
  001ad	8a 44 31 30	 mov	 al, BYTE PTR [ecx+esi+48]
  001b1	03 ce		 add	 ecx, esi
  001b3	8b 49 28	 mov	 ecx, DWORD PTR [ecx+40]
  001b6	8b 51 24	 mov	 edx, DWORD PTR [ecx+36]
  001b9	83 3a 00	 cmp	 DWORD PTR [edx], 0
  001bc	74 1b		 je	 SHORT $LN68@operator@33
  001be	8b 51 34	 mov	 edx, DWORD PTR [ecx+52]
  001c1	83 3a 00	 cmp	 DWORD PTR [edx], 0
  001c4	7e 13		 jle	 SHORT $LN68@operator@33
  001c6	ff 0a		 dec	 DWORD PTR [edx]
  001c8	8b 49 24	 mov	 ecx, DWORD PTR [ecx+36]
  001cb	8b 11		 mov	 edx, DWORD PTR [ecx]
  001cd	8d 7a 01	 lea	 edi, DWORD PTR [edx+1]
  001d0	89 39		 mov	 DWORD PTR [ecx], edi
  001d2	88 02		 mov	 BYTE PTR [edx], al
  001d4	0f b6 c0	 movzx	 eax, al
  001d7	eb 0b		 jmp	 SHORT $LN69@operator@33
$LN68@operator@33:
  001d9	8b 11		 mov	 edx, DWORD PTR [ecx]
  001db	0f b6 c0	 movzx	 eax, al
  001de	50		 push	 eax
  001df	8b 42 04	 mov	 eax, DWORD PTR [edx+4]
  001e2	ff d0		 call	 eax
$LN69@operator@33:
  001e4	83 f8 ff	 cmp	 eax, -1
  001e7	75 09		 jne	 SHORT $LN3@operator@33

; 772  : 					{	// insertion failed, quit
; 773  : 					_State |= ios_base::badbit;

  001e9	83 4d ec 04	 or	 DWORD PTR __State$[ebp], 4

; 774  : 					break;

  001ed	e9 27 ff ff ff	 jmp	 $LN2@operator@33
$LN3@operator@33:

; 767  : 
; 768  : 		if (_State == ios_base::goodbit)
; 769  : 			for (; 0 < _Pad; --_Pad)	// pad on right

  001f2	4b		 dec	 ebx
  001f3	eb ab		 jmp	 SHORT $LL143@operator@33
__catch$??$?6U?$char_traits@D@std@@@std@@YAAAV?$basic_ostream@DU?$char_traits@D@std@@@0@AAV10@PBD@Z$0:

; 777  : 		_CATCH_IO_(_Ostr)

  001f5	8b 45 08	 mov	 eax, DWORD PTR __Ostr$[ebp]
  001f8	8b 08		 mov	 ecx, DWORD PTR [eax]
  001fa	8b 49 04	 mov	 ecx, DWORD PTR [ecx+4]
  001fd	03 c8		 add	 ecx, eax
  001ff	8b 41 08	 mov	 eax, DWORD PTR [ecx+8]
  00202	83 c8 04	 or	 eax, 4
  00205	83 79 28 00	 cmp	 DWORD PTR [ecx+40], 0
  00209	75 03		 jne	 SHORT $LN93@operator@33
  0020b	83 c8 04	 or	 eax, 4
$LN93@operator@33:
  0020e	6a 01		 push	 1
  00210	50		 push	 eax
  00211	e8 00 00 00 00	 call	 ?clear@ios_base@std@@QAEXH_N@Z ; std::ios_base::clear
  00216	c7 45 fc 00 00
	00 00		 mov	 DWORD PTR __$EHRec$[ebp+12], 0
  0021d	b8 00 00 00 00	 mov	 eax, $LN23@operator@33
  00222	c3		 ret	 0
$LN23@operator@33:
  00223	8b 75 08	 mov	 esi, DWORD PTR __Ostr$[ebp]
  00226	e9 fd fe ff ff	 jmp	 $LN151@operator@33
_TEXT	ENDS
;	COMDAT text$x
text$x	SEGMENT
__unwindfunclet$??$?6U?$char_traits@D@std@@@std@@YAAAV?$basic_ostream@DU?$char_traits@D@std@@@0@AAV10@PBD@Z$2:
  00000	8d 45 e0	 lea	 eax, DWORD PTR __Ok$[ebp]
  00003	50		 push	 eax
  00004	e8 00 00 00 00	 call	 ??1sentry@?$basic_ostream@DU?$char_traits@D@std@@@std@@QAE@XZ ; std::basic_ostream<char,std::char_traits<char> >::sentry::~sentry
  00009	c3		 ret	 0
__unwindfunclet$??$?6U?$char_traits@D@std@@@std@@YAAAV?$basic_ostream@DU?$char_traits@D@std@@@0@AAV10@PBD@Z$9:
  0000a	8d 45 e0	 lea	 eax, DWORD PTR __Ok$[ebp]
  0000d	e9 00 00 00 00	 jmp	 ??1_Sentry_base@?$basic_ostream@DU?$char_traits@D@std@@@std@@QAE@XZ ; std::basic_ostream<char,std::char_traits<char> >::_Sentry_base::~_Sentry_base
__ehhandler$??$?6U?$char_traits@D@std@@@std@@YAAAV?$basic_ostream@DU?$char_traits@D@std@@@0@AAV10@PBD@Z:
  00012	8b 54 24 08	 mov	 edx, DWORD PTR [esp+8]
  00016	8d 42 0c	 lea	 eax, DWORD PTR [edx+12]
  00019	8b 4a dc	 mov	 ecx, DWORD PTR [edx-36]
  0001c	33 c8		 xor	 ecx, eax
  0001e	e8 00 00 00 00	 call	 @__security_check_cookie@4
  00023	b8 00 00 00 00	 mov	 eax, OFFSET __ehfuncinfo$??$?6U?$char_traits@D@std@@@std@@YAAAV?$basic_ostream@DU?$char_traits@D@std@@@0@AAV10@PBD@Z
  00028	e9 00 00 00 00	 jmp	 ___CxxFrameHandler3
text$x	ENDS
??$?6U?$char_traits@D@std@@@std@@YAAAV?$basic_ostream@DU?$char_traits@D@std@@@0@AAV10@PBD@Z ENDP ; std::operator<<<std::char_traits<char> >
;	COMDAT xdata$x
; File c:\program files\microsoft visual studio 9.0\vc\include\ios
xdata$x	SEGMENT
__unwindtable$??6?$basic_ostream@DU?$char_traits@D@std@@@std@@QAEAAV01@_K@Z DD 0ffffffffH
	DD	FLAT:__unwindfunclet$??6?$basic_ostream@DU?$char_traits@D@std@@@std@@QAEAAV01@_K@Z$2
	DD	00H
	DD	FLAT:__unwindfunclet$??6?$basic_ostream@DU?$char_traits@D@std@@@std@@QAEAAV01@_K@Z$3
	DD	00H
	DD	00H
	DD	00H
	DD	00H
__catchsym$??6?$basic_ostream@DU?$char_traits@D@std@@@std@@QAEAAV01@_K@Z$11 DD 040H
	DD	00H
	DD	00H
	DD	FLAT:__catch$??6?$basic_ostream@DU?$char_traits@D@std@@@std@@QAEAAV01@_K@Z$0
__tryblocktable$??6?$basic_ostream@DU?$char_traits@D@std@@@std@@QAEAAV01@_K@Z DD 02H
	DD	02H
	DD	03H
	DD	01H
	DD	FLAT:__catchsym$??6?$basic_ostream@DU?$char_traits@D@std@@@std@@QAEAAV01@_K@Z$11
__ehfuncinfo$??6?$basic_ostream@DU?$char_traits@D@std@@@std@@QAEAAV01@_K@Z DD 019930522H
	DD	04H
	DD	FLAT:__unwindtable$??6?$basic_ostream@DU?$char_traits@D@std@@@std@@QAEAAV01@_K@Z
	DD	01H
	DD	FLAT:__tryblocktable$??6?$basic_ostream@DU?$char_traits@D@std@@@std@@QAEAAV01@_K@Z
	DD	2 DUP(00H)
	DD	00H
	DD	01H
; Function compile flags: /Ogtpy
; File c:\program files\microsoft visual studio 9.0\vc\include\ostream
xdata$x	ENDS
;	COMDAT ??6?$basic_ostream@DU?$char_traits@D@std@@@std@@QAEAAV01@_K@Z
_TEXT	SEGMENT
$T97853 = -52						; size = 8
__Ok$ = -44						; size = 8
__Nput_fac$39657 = -36					; size = 4
$T97902 = -32						; size = 1
__Lock$97888 = -32					; size = 4
$T97850 = -28						; size = 4
__State$ = -24						; size = 4
__$EHRec$ = -16						; size = 16
_this$ = 8						; size = 4
$T97854 = 12						; size = 8
__Val$ = 12						; size = 8
??6?$basic_ostream@DU?$char_traits@D@std@@@std@@QAEAAV01@_K@Z PROC ; std::basic_ostream<char,std::char_traits<char> >::operator<<, COMDAT

; 370  : 		{	// insert an unsigned long long

  00000	55		 push	 ebp
  00001	8b ec		 mov	 ebp, esp
  00003	6a ff		 push	 -1
  00005	68 00 00 00 00	 push	 __ehhandler$??6?$basic_ostream@DU?$char_traits@D@std@@@std@@QAEAAV01@_K@Z
  0000a	64 a1 00 00 00
	00		 mov	 eax, DWORD PTR fs:0
  00010	50		 push	 eax
  00011	83 ec 28	 sub	 esp, 40			; 00000028H
  00014	53		 push	 ebx
  00015	56		 push	 esi
  00016	57		 push	 edi
  00017	a1 00 00 00 00	 mov	 eax, DWORD PTR ___security_cookie
  0001c	33 c5		 xor	 eax, ebp
  0001e	50		 push	 eax
  0001f	8d 45 f4	 lea	 eax, DWORD PTR __$EHRec$[ebp+4]
  00022	64 a3 00 00 00
	00		 mov	 DWORD PTR fs:0, eax
  00028	89 65 f0	 mov	 DWORD PTR __$EHRec$[ebp], esp
  0002b	8b 75 08	 mov	 esi, DWORD PTR _this$[ebp]

; 371  : 		ios_base::iostate _State = ios_base::goodbit;
; 372  : 		const sentry _Ok(*this);

  0002e	8d 45 d4	 lea	 eax, DWORD PTR __Ok$[ebp]
  00031	33 ff		 xor	 edi, edi
  00033	50		 push	 eax
  00034	89 7d e8	 mov	 DWORD PTR __State$[ebp], edi
  00037	e8 00 00 00 00	 call	 ??0sentry@?$basic_ostream@DU?$char_traits@D@std@@@std@@QAE@AAV12@@Z ; std::basic_ostream<char,std::char_traits<char> >::sentry::sentry
  0003c	89 7d fc	 mov	 DWORD PTR __$EHRec$[ebp+12], edi

; 373  : 
; 374  : 		if (_Ok)

  0003f	80 7d d8 00	 cmp	 BYTE PTR __Ok$[ebp+4], 0
  00043	0f 84 e9 00 00
	00		 je	 $LN13@operator@34

; 375  : 			{	// state okay, use facet to insert
; 376  : 			const _Nput& _Nput_fac = _USE(ios_base::getloc(), _Nput);

  00049	8b 16		 mov	 edx, DWORD PTR [esi]
  0004b	8d 4d e4	 lea	 ecx, DWORD PTR $T97850[ebp]
  0004e	51		 push	 ecx
  0004f	8b 4a 04	 mov	 ecx, DWORD PTR [edx+4]
  00052	03 ce		 add	 ecx, esi
  00054	e8 00 00 00 00	 call	 ?getloc@ios_base@std@@QBE?AVlocale@2@XZ ; std::ios_base::getloc
  00059	8b f8		 mov	 edi, eax
  0005b	c6 45 fc 01	 mov	 BYTE PTR __$EHRec$[ebp+12], 1
  0005f	e8 00 00 00 00	 call	 ??$use_facet@V?$num_put@DV?$ostreambuf_iterator@DU?$char_traits@D@std@@@std@@@std@@@std@@YAABV?$num_put@DV?$ostreambuf_iterator@DU?$char_traits@D@std@@@std@@@0@ABVlocale@0@@Z ; std::use_facet<std::num_put<char,std::ostreambuf_iterator<char,std::char_traits<char> > > >
  00064	c6 45 fc 00	 mov	 BYTE PTR __$EHRec$[ebp+12], 0
  00068	8b 5d e4	 mov	 ebx, DWORD PTR $T97850[ebp]
  0006b	89 45 dc	 mov	 DWORD PTR __Nput_fac$39657[ebp], eax
  0006e	85 db		 test	 ebx, ebx
  00070	74 3b		 je	 SHORT $LN19@operator@34
  00072	6a 00		 push	 0
  00074	8d 4d e0	 lea	 ecx, DWORD PTR __Lock$97888[ebp]
  00077	e8 00 00 00 00	 call	 ??0_Lockit@std@@QAE@H@Z	; std::_Lockit::_Lockit
  0007c	8b 43 04	 mov	 eax, DWORD PTR [ebx+4]
  0007f	85 c0		 test	 eax, eax
  00081	76 09		 jbe	 SHORT $LN21@operator@34
  00083	83 f8 ff	 cmp	 eax, -1
  00086	73 04		 jae	 SHORT $LN21@operator@34
  00088	48		 dec	 eax
  00089	89 43 04	 mov	 DWORD PTR [ebx+4], eax
$LN21@operator@34:
  0008c	8b 7b 04	 mov	 edi, DWORD PTR [ebx+4]
  0008f	f7 df		 neg	 edi
  00091	1b ff		 sbb	 edi, edi
  00093	f7 d7		 not	 edi
  00095	8d 4d e0	 lea	 ecx, DWORD PTR __Lock$97888[ebp]
  00098	23 fb		 and	 edi, ebx
  0009a	e8 00 00 00 00	 call	 ??1_Lockit@std@@QAE@XZ	; std::_Lockit::~_Lockit
  0009f	85 ff		 test	 edi, edi
  000a1	74 0a		 je	 SHORT $LN19@operator@34
  000a3	8b 07		 mov	 eax, DWORD PTR [edi]
  000a5	8b 10		 mov	 edx, DWORD PTR [eax]
  000a7	6a 01		 push	 1
  000a9	8b cf		 mov	 ecx, edi
  000ab	ff d2		 call	 edx
$LN19@operator@34:

; 377  : 
; 378  : 			_TRY_IO_BEGIN

  000ad	c6 45 fc 02	 mov	 BYTE PTR __$EHRec$[ebp+12], 2

; 379  : 			if (_Nput_fac.put(_Iter(_Myios::rdbuf()), *this,
; 380  : 				_Myios::fill(), _Val).failed())

  000b1	8b 0e		 mov	 ecx, DWORD PTR [esi]
  000b3	8b 41 04	 mov	 eax, DWORD PTR [ecx+4]
  000b6	8b 49 04	 mov	 ecx, DWORD PTR [ecx+4]
  000b9	8b 54 31 28	 mov	 edx, DWORD PTR [ecx+esi+40]
  000bd	8b 5d 10	 mov	 ebx, DWORD PTR __Val$[ebp+4]
  000c0	53		 push	 ebx
  000c1	8b 5d 0c	 mov	 ebx, DWORD PTR __Val$[ebp]
  000c4	03 ce		 add	 ecx, esi
  000c6	8a 49 30	 mov	 cl, BYTE PTR [ecx+48]
  000c9	53		 push	 ebx
  000ca	88 4d e0	 mov	 BYTE PTR $T97902[ebp], cl
  000cd	8b 5d e0	 mov	 ebx, DWORD PTR $T97902[ebp]
  000d0	8b 4d dc	 mov	 ecx, DWORD PTR __Nput_fac$39657[ebp]
  000d3	8b 39		 mov	 edi, DWORD PTR [ecx]
  000d5	53		 push	 ebx
  000d6	03 c6		 add	 eax, esi
  000d8	50		 push	 eax
  000d9	52		 push	 edx
  000da	c6 45 cc 00	 mov	 BYTE PTR $T97853[ebp], 0
  000de	8b 55 cc	 mov	 edx, DWORD PTR $T97853[ebp]
  000e1	52		 push	 edx
  000e2	8b 57 10	 mov	 edx, DWORD PTR [edi+16]
  000e5	8d 45 0c	 lea	 eax, DWORD PTR $T97854[ebp]
  000e8	50		 push	 eax
  000e9	ff d2		 call	 edx
  000eb	80 7d 0c 00	 cmp	 BYTE PTR $T97854[ebp], 0
  000ef	74 07		 je	 SHORT $LN1@operator@34

; 381  : 				_State |= ios_base::badbit;

  000f1	c7 45 e8 04 00
	00 00		 mov	 DWORD PTR __State$[ebp], 4
$LN1@operator@34:
  000f8	c7 45 fc 00 00
	00 00		 mov	 DWORD PTR __$EHRec$[ebp+12], 0
  000ff	eb 31		 jmp	 SHORT $LN13@operator@34
__catch$??6?$basic_ostream@DU?$char_traits@D@std@@@std@@QAEAAV01@_K@Z$0:

; 382  : 			_CATCH_IO_END

  00101	8b 45 08	 mov	 eax, DWORD PTR _this$[ebp]
  00104	8b 08		 mov	 ecx, DWORD PTR [eax]
  00106	8b 49 04	 mov	 ecx, DWORD PTR [ecx+4]
  00109	03 c8		 add	 ecx, eax
  0010b	8b 41 08	 mov	 eax, DWORD PTR [ecx+8]
  0010e	83 c8 04	 or	 eax, 4
  00111	83 79 28 00	 cmp	 DWORD PTR [ecx+40], 0
  00115	75 03		 jne	 SHORT $LN42@operator@34
  00117	83 c8 04	 or	 eax, 4
$LN42@operator@34:
  0011a	6a 01		 push	 1
  0011c	50		 push	 eax
  0011d	e8 00 00 00 00	 call	 ?clear@ios_base@std@@QAEXH_N@Z ; std::ios_base::clear
  00122	c7 45 fc 00 00
	00 00		 mov	 DWORD PTR __$EHRec$[ebp+12], 0
  00129	b8 00 00 00 00	 mov	 eax, $LN79@operator@34
  0012e	c3		 ret	 0
$LN79@operator@34:
  0012f	8b 75 08	 mov	 esi, DWORD PTR _this$[ebp]
$LN13@operator@34:

; 383  : 			}
; 384  : 
; 385  : 		_Myios::setstate(_State);

  00132	8b 16		 mov	 edx, DWORD PTR [esi]
  00134	8b 4a 04	 mov	 ecx, DWORD PTR [edx+4]
  00137	8b 55 e8	 mov	 edx, DWORD PTR __State$[ebp]
  0013a	03 ce		 add	 ecx, esi
  0013c	85 d2		 test	 edx, edx
  0013e	74 16		 je	 SHORT $LN71@operator@34
  00140	8b 41 08	 mov	 eax, DWORD PTR [ecx+8]
  00143	0b c2		 or	 eax, edx
  00145	83 79 28 00	 cmp	 DWORD PTR [ecx+40], 0
  00149	75 03		 jne	 SHORT $LN73@operator@34
  0014b	83 c8 04	 or	 eax, 4
$LN73@operator@34:
  0014e	6a 00		 push	 0
  00150	50		 push	 eax
  00151	e8 00 00 00 00	 call	 ?clear@ios_base@std@@QAEXH_N@Z ; std::ios_base::clear
$LN71@operator@34:

; 386  : 		return (*this);

  00156	8d 45 d4	 lea	 eax, DWORD PTR __Ok$[ebp]
  00159	50		 push	 eax
  0015a	c7 45 fc ff ff
	ff ff		 mov	 DWORD PTR __$EHRec$[ebp+12], -1
  00161	e8 00 00 00 00	 call	 ??1sentry@?$basic_ostream@DU?$char_traits@D@std@@@std@@QAE@XZ ; std::basic_ostream<char,std::char_traits<char> >::sentry::~sentry
  00166	8b c6		 mov	 eax, esi

; 387  : 		}

  00168	8b 4d f4	 mov	 ecx, DWORD PTR __$EHRec$[ebp+4]
  0016b	64 89 0d 00 00
	00 00		 mov	 DWORD PTR fs:0, ecx
  00172	59		 pop	 ecx
  00173	5f		 pop	 edi
  00174	5e		 pop	 esi
  00175	5b		 pop	 ebx
  00176	8b e5		 mov	 esp, ebp
  00178	5d		 pop	 ebp
  00179	c2 0c 00	 ret	 12			; 0000000cH
_TEXT	ENDS
;	COMDAT text$x
text$x	SEGMENT
__unwindfunclet$??6?$basic_ostream@DU?$char_traits@D@std@@@std@@QAEAAV01@_K@Z$2:
  00000	8d 45 d4	 lea	 eax, DWORD PTR __Ok$[ebp]
  00003	50		 push	 eax
  00004	e8 00 00 00 00	 call	 ??1sentry@?$basic_ostream@DU?$char_traits@D@std@@@std@@QAE@XZ ; std::basic_ostream<char,std::char_traits<char> >::sentry::~sentry
  00009	c3		 ret	 0
__unwindfunclet$??6?$basic_ostream@DU?$char_traits@D@std@@@std@@QAEAAV01@_K@Z$3:
  0000a	8d 4d e4	 lea	 ecx, DWORD PTR $T97850[ebp]
  0000d	e9 00 00 00 00	 jmp	 ??1locale@std@@QAE@XZ	; std::locale::~locale
__ehhandler$??6?$basic_ostream@DU?$char_traits@D@std@@@std@@QAEAAV01@_K@Z:
  00012	8b 54 24 08	 mov	 edx, DWORD PTR [esp+8]
  00016	8d 42 0c	 lea	 eax, DWORD PTR [edx+12]
  00019	8b 4a c8	 mov	 ecx, DWORD PTR [edx-56]
  0001c	33 c8		 xor	 ecx, eax
  0001e	e8 00 00 00 00	 call	 @__security_check_cookie@4
  00023	b8 00 00 00 00	 mov	 eax, OFFSET __ehfuncinfo$??6?$basic_ostream@DU?$char_traits@D@std@@@std@@QAEAAV01@_K@Z
  00028	e9 00 00 00 00	 jmp	 ___CxxFrameHandler3
text$x	ENDS
??6?$basic_ostream@DU?$char_traits@D@std@@@std@@QAEAAV01@_K@Z ENDP ; std::basic_ostream<char,std::char_traits<char> >::operator<<
;	COMDAT xdata$x
; File c:\program files\microsoft visual studio 9.0\vc\include\ios
xdata$x	SEGMENT
__unwindtable$?put@?$basic_ostream@DU?$char_traits@D@std@@@std@@QAEAAV12@D@Z DD 0ffffffffH
	DD	FLAT:__unwindfunclet$?put@?$basic_ostream@DU?$char_traits@D@std@@@std@@QAEAAV12@D@Z$2
	DD	00H
	DD	00H
	DD	00H
	DD	00H
__catchsym$?put@?$basic_ostream@DU?$char_traits@D@std@@@std@@QAEAAV12@D@Z$9 DD 040H
	DD	00H
	DD	00H
	DD	FLAT:__catch$?put@?$basic_ostream@DU?$char_traits@D@std@@@std@@QAEAAV12@D@Z$0
__tryblocktable$?put@?$basic_ostream@DU?$char_traits@D@std@@@std@@QAEAAV12@D@Z DD 01H
	DD	01H
	DD	02H
	DD	01H
	DD	FLAT:__catchsym$?put@?$basic_ostream@DU?$char_traits@D@std@@@std@@QAEAAV12@D@Z$9
__ehfuncinfo$?put@?$basic_ostream@DU?$char_traits@D@std@@@std@@QAEAAV12@D@Z DD 019930522H
	DD	03H
	DD	FLAT:__unwindtable$?put@?$basic_ostream@DU?$char_traits@D@std@@@std@@QAEAAV12@D@Z
	DD	01H
	DD	FLAT:__tryblocktable$?put@?$basic_ostream@DU?$char_traits@D@std@@@std@@QAEAAV12@D@Z
	DD	2 DUP(00H)
	DD	00H
	DD	01H
; Function compile flags: /Ogtpy
; File c:\program files\microsoft visual studio 9.0\vc\include\ostream
xdata$x	ENDS
;	COMDAT ?put@?$basic_ostream@DU?$char_traits@D@std@@@std@@QAEAAV12@D@Z
_TEXT	SEGMENT
__Ok$ = -36						; size = 8
__State$ = -28						; size = 4
_this$ = -24						; size = 4
__$EHRec$ = -16						; size = 16
__Ch$ = 8						; size = 1
?put@?$basic_ostream@DU?$char_traits@D@std@@@std@@QAEAAV12@D@Z PROC ; std::basic_ostream<char,std::char_traits<char> >::put, COMDAT
; _this$ = ecx

; 508  : 		{	// insert a character

  00000	55		 push	 ebp
  00001	8b ec		 mov	 ebp, esp
  00003	6a ff		 push	 -1
  00005	68 00 00 00 00	 push	 __ehhandler$?put@?$basic_ostream@DU?$char_traits@D@std@@@std@@QAEAAV12@D@Z
  0000a	64 a1 00 00 00
	00		 mov	 eax, DWORD PTR fs:0
  00010	50		 push	 eax
  00011	83 ec 18	 sub	 esp, 24			; 00000018H
  00014	53		 push	 ebx
  00015	56		 push	 esi
  00016	57		 push	 edi
  00017	a1 00 00 00 00	 mov	 eax, DWORD PTR ___security_cookie
  0001c	33 c5		 xor	 eax, ebp
  0001e	50		 push	 eax
  0001f	8d 45 f4	 lea	 eax, DWORD PTR __$EHRec$[ebp+4]
  00022	64 a3 00 00 00
	00		 mov	 DWORD PTR fs:0, eax
  00028	89 65 f0	 mov	 DWORD PTR __$EHRec$[ebp], esp
  0002b	8b f1		 mov	 esi, ecx
  0002d	89 75 e8	 mov	 DWORD PTR _this$[ebp], esi

; 509  : 		ios_base::iostate _State = ios_base::goodbit;
; 510  : 		const sentry _Ok(*this);

  00030	8d 45 dc	 lea	 eax, DWORD PTR __Ok$[ebp]
  00033	33 ff		 xor	 edi, edi
  00035	50		 push	 eax
  00036	33 db		 xor	 ebx, ebx
  00038	89 7d e4	 mov	 DWORD PTR __State$[ebp], edi
  0003b	e8 00 00 00 00	 call	 ??0sentry@?$basic_ostream@DU?$char_traits@D@std@@@std@@QAE@AAV12@@Z ; std::basic_ostream<char,std::char_traits<char> >::sentry::sentry
  00040	89 5d fc	 mov	 DWORD PTR __$EHRec$[ebp+12], ebx

; 511  : 
; 512  : 		if (!_Ok)

  00043	38 5d e0	 cmp	 BYTE PTR __Ok$[ebp+4], bl
  00046	75 08		 jne	 SHORT $LN4@put

; 513  : 			_State |= ios_base::badbit;

  00048	8d 7b 04	 lea	 edi, DWORD PTR [ebx+4]

; 514  : 		else

  0004b	e9 80 00 00 00	 jmp	 $LN11@put
$LN4@put:

; 515  : 			{	// state okay, insert character
; 516  : 			_TRY_IO_BEGIN

  00050	c6 45 fc 01	 mov	 BYTE PTR __$EHRec$[ebp+12], 1

; 517  : 			if (_Traits::eq_int_type(_Traits::eof(),
; 518  : 				_Myios::rdbuf()->sputc(_Ch)))

  00054	8b 0e		 mov	 ecx, DWORD PTR [esi]
  00056	8b 51 04	 mov	 edx, DWORD PTR [ecx+4]
  00059	8b 4c 32 28	 mov	 ecx, DWORD PTR [edx+esi+40]
  0005d	8b 41 24	 mov	 eax, DWORD PTR [ecx+36]
  00060	39 18		 cmp	 DWORD PTR [eax], ebx
  00062	74 1f		 je	 SHORT $LN18@put
  00064	8b 51 34	 mov	 edx, DWORD PTR [ecx+52]
  00067	39 1a		 cmp	 DWORD PTR [edx], ebx
  00069	7e 18		 jle	 SHORT $LN18@put
  0006b	8b c2		 mov	 eax, edx
  0006d	ff 08		 dec	 DWORD PTR [eax]
  0006f	8b 49 24	 mov	 ecx, DWORD PTR [ecx+36]
  00072	8b 01		 mov	 eax, DWORD PTR [ecx]
  00074	8d 50 01	 lea	 edx, DWORD PTR [eax+1]
  00077	89 11		 mov	 DWORD PTR [ecx], edx
  00079	8a 4d 08	 mov	 cl, BYTE PTR __Ch$[ebp]
  0007c	88 08		 mov	 BYTE PTR [eax], cl
  0007e	0f b6 c1	 movzx	 eax, cl
  00081	eb 0c		 jmp	 SHORT $LN19@put
$LN18@put:
  00083	0f b6 45 08	 movzx	 eax, BYTE PTR __Ch$[ebp]
  00087	8b 11		 mov	 edx, DWORD PTR [ecx]
  00089	50		 push	 eax
  0008a	8b 42 04	 mov	 eax, DWORD PTR [edx+4]
  0008d	ff d0		 call	 eax
$LN19@put:
  0008f	83 f8 ff	 cmp	 eax, -1
  00092	75 03		 jne	 SHORT $LN1@put

; 519  : 				_State |= ios_base::badbit;

  00094	8d 78 05	 lea	 edi, DWORD PTR [eax+5]
$LN1@put:
  00097	89 5d fc	 mov	 DWORD PTR __$EHRec$[ebp+12], ebx
  0009a	eb 34		 jmp	 SHORT $LN11@put
__catch$?put@?$basic_ostream@DU?$char_traits@D@std@@@std@@QAEAAV12@D@Z$0:

; 520  : 			_CATCH_IO_END

  0009c	8b 45 e8	 mov	 eax, DWORD PTR _this$[ebp]
  0009f	8b 08		 mov	 ecx, DWORD PTR [eax]
  000a1	8b 49 04	 mov	 ecx, DWORD PTR [ecx+4]
  000a4	03 c8		 add	 ecx, eax
  000a6	8b 41 08	 mov	 eax, DWORD PTR [ecx+8]
  000a9	83 c8 04	 or	 eax, 4
  000ac	83 79 28 00	 cmp	 DWORD PTR [ecx+40], 0
  000b0	75 03		 jne	 SHORT $LN41@put
  000b2	83 c8 04	 or	 eax, 4
$LN41@put:
  000b5	6a 01		 push	 1
  000b7	50		 push	 eax
  000b8	e8 00 00 00 00	 call	 ?clear@ios_base@std@@QAEXH_N@Z ; std::ios_base::clear
  000bd	c7 45 fc 00 00
	00 00		 mov	 DWORD PTR __$EHRec$[ebp+12], 0
  000c4	b8 00 00 00 00	 mov	 eax, $LN76@put
  000c9	c3		 ret	 0
$LN76@put:
  000ca	8b 75 e8	 mov	 esi, DWORD PTR _this$[ebp]
  000cd	8b 7d e4	 mov	 edi, DWORD PTR __State$[ebp]
$LN11@put:

; 521  : 			}
; 522  : 
; 523  : 		_Myios::setstate(_State);

  000d0	8b 16		 mov	 edx, DWORD PTR [esi]
  000d2	8b 4a 04	 mov	 ecx, DWORD PTR [edx+4]
  000d5	03 ce		 add	 ecx, esi
  000d7	85 ff		 test	 edi, edi
  000d9	74 16		 je	 SHORT $LN70@put
  000db	8b 41 08	 mov	 eax, DWORD PTR [ecx+8]
  000de	0b c7		 or	 eax, edi
  000e0	83 79 28 00	 cmp	 DWORD PTR [ecx+40], 0
  000e4	75 03		 jne	 SHORT $LN72@put
  000e6	83 c8 04	 or	 eax, 4
$LN72@put:
  000e9	6a 00		 push	 0
  000eb	50		 push	 eax
  000ec	e8 00 00 00 00	 call	 ?clear@ios_base@std@@QAEXH_N@Z ; std::ios_base::clear
$LN70@put:

; 524  : 		return (*this);

  000f1	8d 45 dc	 lea	 eax, DWORD PTR __Ok$[ebp]
  000f4	50		 push	 eax
  000f5	c7 45 fc ff ff
	ff ff		 mov	 DWORD PTR __$EHRec$[ebp+12], -1
  000fc	e8 00 00 00 00	 call	 ??1sentry@?$basic_ostream@DU?$char_traits@D@std@@@std@@QAE@XZ ; std::basic_ostream<char,std::char_traits<char> >::sentry::~sentry
  00101	8b c6		 mov	 eax, esi

; 525  : 		}

  00103	8b 4d f4	 mov	 ecx, DWORD PTR __$EHRec$[ebp+4]
  00106	64 89 0d 00 00
	00 00		 mov	 DWORD PTR fs:0, ecx
  0010d	59		 pop	 ecx
  0010e	5f		 pop	 edi
  0010f	5e		 pop	 esi
  00110	5b		 pop	 ebx
  00111	8b e5		 mov	 esp, ebp
  00113	5d		 pop	 ebp
  00114	c2 04 00	 ret	 4
_TEXT	ENDS
;	COMDAT text$x
text$x	SEGMENT
__unwindfunclet$?put@?$basic_ostream@DU?$char_traits@D@std@@@std@@QAEAAV12@D@Z$2:
  00000	8d 45 dc	 lea	 eax, DWORD PTR __Ok$[ebp]
  00003	50		 push	 eax
  00004	e8 00 00 00 00	 call	 ??1sentry@?$basic_ostream@DU?$char_traits@D@std@@@std@@QAE@XZ ; std::basic_ostream<char,std::char_traits<char> >::sentry::~sentry
  00009	c3		 ret	 0
__ehhandler$?put@?$basic_ostream@DU?$char_traits@D@std@@@std@@QAEAAV12@D@Z:
  0000a	8b 54 24 08	 mov	 edx, DWORD PTR [esp+8]
  0000e	8d 42 0c	 lea	 eax, DWORD PTR [edx+12]
  00011	8b 4a d8	 mov	 ecx, DWORD PTR [edx-40]
  00014	33 c8		 xor	 ecx, eax
  00016	e8 00 00 00 00	 call	 @__security_check_cookie@4
  0001b	b8 00 00 00 00	 mov	 eax, OFFSET __ehfuncinfo$?put@?$basic_ostream@DU?$char_traits@D@std@@@std@@QAEAAV12@D@Z
  00020	e9 00 00 00 00	 jmp	 ___CxxFrameHandler3
text$x	ENDS
?put@?$basic_ostream@DU?$char_traits@D@std@@@std@@QAEAAV12@D@Z ENDP ; std::basic_ostream<char,std::char_traits<char> >::put
; Function compile flags: /Ogtpy
;	COMDAT ?endl@std@@YAAAV?$basic_ostream@DU?$char_traits@D@std@@@1@AAV21@@Z
_TEXT	SEGMENT
__Ostr$ = 8						; size = 4
?endl@std@@YAAAV?$basic_ostream@DU?$char_traits@D@std@@@1@AAV21@@Z PROC ; std::endl, COMDAT

; 967  : 	{	// insert newline and flush byte stream

  00000	56		 push	 esi

; 968  : 	_Ostr.put('\n');

  00001	8b 74 24 08	 mov	 esi, DWORD PTR __Ostr$[esp]
  00005	57		 push	 edi
  00006	6a 0a		 push	 10			; 0000000aH
  00008	8b ce		 mov	 ecx, esi
  0000a	e8 00 00 00 00	 call	 ?put@?$basic_ostream@DU?$char_traits@D@std@@@std@@QAEAAV12@D@Z ; std::basic_ostream<char,std::char_traits<char> >::put

; 969  : 	_Ostr.flush();

  0000f	8b 06		 mov	 eax, DWORD PTR [esi]
  00011	8b 48 04	 mov	 ecx, DWORD PTR [eax+4]
  00014	8d 04 31	 lea	 eax, DWORD PTR [ecx+esi]
  00017	33 ff		 xor	 edi, edi
  00019	f6 40 08 06	 test	 BYTE PTR [eax+8], 6
  0001d	75 16		 jne	 SHORT $LN3@endl
  0001f	8b 40 28	 mov	 eax, DWORD PTR [eax+40]
  00022	8b 10		 mov	 edx, DWORD PTR [eax]
  00024	8b c8		 mov	 ecx, eax
  00026	8b 42 30	 mov	 eax, DWORD PTR [edx+48]
  00029	ff d0		 call	 eax
  0002b	83 f8 ff	 cmp	 eax, -1
  0002e	75 05		 jne	 SHORT $LN3@endl
  00030	bf 04 00 00 00	 mov	 edi, 4
$LN3@endl:
  00035	8b 0e		 mov	 ecx, DWORD PTR [esi]
  00037	8b 49 04	 mov	 ecx, DWORD PTR [ecx+4]
  0003a	03 ce		 add	 ecx, esi
  0003c	85 ff		 test	 edi, edi
  0003e	74 16		 je	 SHORT $LN23@endl
  00040	8b 41 08	 mov	 eax, DWORD PTR [ecx+8]
  00043	0b c7		 or	 eax, edi
  00045	83 79 28 00	 cmp	 DWORD PTR [ecx+40], 0
  00049	75 03		 jne	 SHORT $LN21@endl
  0004b	83 c8 04	 or	 eax, 4
$LN21@endl:
  0004e	6a 00		 push	 0
  00050	50		 push	 eax
  00051	e8 00 00 00 00	 call	 ?clear@ios_base@std@@QAEXH_N@Z ; std::ios_base::clear
$LN23@endl:

; 970  : 	return (_Ostr);
; 971  : 	}

  00056	5f		 pop	 edi
  00057	8b c6		 mov	 eax, esi
  00059	5e		 pop	 esi
  0005a	c3		 ret	 0
?endl@std@@YAAAV?$basic_ostream@DU?$char_traits@D@std@@@1@AAV21@@Z ENDP ; std::endl
_TEXT	ENDS
PUBLIC	?errPrint@@YAXPBD0@Z				; errPrint
; Function compile flags: /Ogtpy
; File i:\nj\my project\cms\cms\main.cpp
;	COMDAT ?errPrint@@YAXPBD0@Z
_TEXT	SEGMENT
?errPrint@@YAXPBD0@Z PROC				; errPrint, COMDAT
; _strFile$ = ecx
; _strMSG$ = eax

; 34   : {

  00000	55		 push	 ebp
  00001	8b ec		 mov	 ebp, esp
  00003	83 e4 f8	 and	 esp, -8			; fffffff8H

; 35   : 	cout	<<	strFile	<<	strMSG	<<	endl;

  00006	50		 push	 eax
  00007	51		 push	 ecx
  00008	51		 push	 ecx
  00009	68 00 00 00 00	 push	 OFFSET ?cout@std@@3V?$basic_ostream@DU?$char_traits@D@std@@@1@A ; std::cout
  0000e	e8 00 00 00 00	 call	 ??$?6U?$char_traits@D@std@@@std@@YAAAV?$basic_ostream@DU?$char_traits@D@std@@@0@AAV10@PBD@Z ; std::operator<<<std::char_traits<char> >
  00013	83 c4 0c	 add	 esp, 12			; 0000000cH
  00016	50		 push	 eax
  00017	e8 00 00 00 00	 call	 ??$?6U?$char_traits@D@std@@@std@@YAAAV?$basic_ostream@DU?$char_traits@D@std@@@0@AAV10@PBD@Z ; std::operator<<<std::char_traits<char> >
  0001c	50		 push	 eax
  0001d	e8 00 00 00 00	 call	 ?endl@std@@YAAAV?$basic_ostream@DU?$char_traits@D@std@@@1@AAV21@@Z ; std::endl
  00022	83 c4 0c	 add	 esp, 12			; 0000000cH

; 36   : 	exit(EXIT_FAILURE);

  00025	6a 01		 push	 1
  00027	e8 00 00 00 00	 call	 _exit
$LN6@errPrint:
$LN5@errPrint:
  0002c	cc		 int	 3
?errPrint@@YAXPBD0@Z ENDP				; errPrint
PUBLIC	?encrypt@@YAXXZ					; encrypt
;	COMDAT ?f_IN@?1??encrypt@@YAXXZ@4VFileInput@@A
; File c:\program files\microsoft visual studio 9.0\vc\include\xiosbase
_BSS	SEGMENT
?f_IN@?1??encrypt@@YAXXZ@4VFileInput@@A DB 08cH DUP (?)	; `encrypt'::`2'::f_IN
_BSS	ENDS
;	COMDAT ?$S1@?1??encrypt@@YAXXZ@4IA
_BSS	SEGMENT
?$S1@?1??encrypt@@YAXXZ@4IA DD 01H DUP (?)		; `encrypt'::`2'::$S1
_BSS	ENDS
;	COMDAT xdata$x
xdata$x	SEGMENT
__unwindtable$?encrypt@@YAXXZ DD 0ffffffffH
	DD	FLAT:__unwindfunclet$?encrypt@@YAXXZ$0
	DD	0ffffffffH
	DD	FLAT:__unwindfunclet$?encrypt@@YAXXZ$1
	DD	0ffffffffH
	DD	FLAT:__unwindfunclet$?encrypt@@YAXXZ$2
	DD	0ffffffffH
	DD	FLAT:__unwindfunclet$?encrypt@@YAXXZ$3
	DD	0ffffffffH
	DD	FLAT:__unwindfunclet$?encrypt@@YAXXZ$4
	DD	0ffffffffH
	DD	FLAT:__unwindfunclet$?encrypt@@YAXXZ$5
__ehfuncinfo$?encrypt@@YAXXZ DD 019930522H
	DD	06H
	DD	FLAT:__unwindtable$?encrypt@@YAXXZ
	DD	2 DUP(00H)
	DD	2 DUP(00H)
	DD	00H
	DD	01H
; Function compile flags: /Ogtpy
; File i:\nj\my project\cms\cms\main.cpp
xdata$x	ENDS
;	COMDAT ?encrypt@@YAXXZ
_TEXT	SEGMENT
$T107866 = -16						; size = 4
$T107858 = -16						; size = 4
$T107854 = -16						; size = 4
$T107846 = -16						; size = 4
__$EHRec$ = -12						; size = 12
?encrypt@@YAXXZ PROC					; encrypt, COMDAT

; 141  : {

  00000	6a ff		 push	 -1
  00002	68 00 00 00 00	 push	 __ehhandler$?encrypt@@YAXXZ
  00007	64 a1 00 00 00
	00		 mov	 eax, DWORD PTR fs:0
  0000d	50		 push	 eax
  0000e	83 ec 08	 sub	 esp, 8
  00011	53		 push	 ebx
  00012	56		 push	 esi
  00013	57		 push	 edi
  00014	a1 00 00 00 00	 mov	 eax, DWORD PTR ___security_cookie
  00019	33 c4		 xor	 eax, esp
  0001b	50		 push	 eax
  0001c	8d 44 24 18	 lea	 eax, DWORD PTR __$EHRec$[esp+36]
  00020	64 a3 00 00 00
	00		 mov	 DWORD PTR fs:0, eax

; 142  : 	//PKCS#7 \`
; 143  : 	static	const	unsigned	int		oid_PKCS7_1[]	= {1,2,840,113549,1,7,1};
; 144  : 	static	ObjectIdentifier			contentType	= ObjectIdentifier((unsigned int*)oid_PKCS7_1, sizeof(oid_PKCS7_1)/sizeof(unsigned int));

  00026	83 cb ff	 or	 ebx, -1
  00029	f6 05 00 00 00
	00 01		 test	 BYTE PTR ?$S1@?1??encrypt@@YAXXZ@4IA, 1
  00030	75 31		 jne	 SHORT $LN11@encrypt@5
  00032	83 0d 00 00 00
	00 01		 or	 DWORD PTR ?$S1@?1??encrypt@@YAXXZ@4IA, 1
  00039	6a 07		 push	 7
  0003b	68 00 00 00 00	 push	 OFFSET ?oid_PKCS7_1@?1??encrypt@@YAXXZ@4QBIB
  00040	68 00 00 00 00	 push	 OFFSET ?contentType@?1??encrypt@@YAXXZ@4VObjectIdentifier@@A
  00045	c7 44 24 2c 00
	00 00 00	 mov	 DWORD PTR __$EHRec$[esp+56], 0
  0004d	e8 00 00 00 00	 call	 ??0ObjectIdentifier@@QAE@QAIIQBD@Z ; ObjectIdentifier::ObjectIdentifier
  00052	68 00 00 00 00	 push	 OFFSET ??__FcontentType@?1??encrypt@@YAXXZ@YAXXZ ; `encrypt'::`2'::`dynamic atexit destructor for 'contentType''
  00057	e8 00 00 00 00	 call	 _atexit
  0005c	83 c4 04	 add	 esp, 4
  0005f	89 5c 24 20	 mov	 DWORD PTR __$EHRec$[esp+44], ebx
$LN11@encrypt@5:

; 145  : 
; 146  : 	//
; 147  : 	static	FileInput			f_IN	= FileInput(cOpsw->strBINname.c_str());				//t@Cp

  00063	f6 05 00 00 00
	00 02		 test	 BYTE PTR ?$S1@?1??encrypt@@YAXXZ@4IA, 2
  0006a	be 10 00 00 00	 mov	 esi, 16			; 00000010H
  0006f	75 3f		 jne	 SHORT $LN10@encrypt@5
  00071	83 0d 00 00 00
	00 02		 or	 DWORD PTR ?$S1@?1??encrypt@@YAXXZ@4IA, 2
  00078	c7 44 24 20 01
	00 00 00	 mov	 DWORD PTR __$EHRec$[esp+44], 1
  00080	a1 00 00 00 00	 mov	 eax, DWORD PTR ?cOpsw@@3PAVOPSW@@A ; cOpsw
  00085	39 70 2c	 cmp	 DWORD PTR [eax+44], esi
  00088	72 05		 jb	 SHORT $LN40@encrypt@5
  0008a	8b 40 18	 mov	 eax, DWORD PTR [eax+24]
  0008d	eb 03		 jmp	 SHORT $LN41@encrypt@5
$LN40@encrypt@5:
  0008f	83 c0 18	 add	 eax, 24			; 00000018H
$LN41@encrypt@5:
  00092	6a 01		 push	 1
  00094	50		 push	 eax
  00095	68 00 00 00 00	 push	 OFFSET ?f_IN@?1??encrypt@@YAXXZ@4VFileInput@@A
  0009a	e8 00 00 00 00	 call	 ??0FileInput@@QAE@PBD@Z	; FileInput::FileInput
  0009f	68 00 00 00 00	 push	 OFFSET ??__Ff_IN@?1??encrypt@@YAXXZ@YAXXZ ; `encrypt'::`2'::`dynamic atexit destructor for 'f_IN''
  000a4	e8 00 00 00 00	 call	 _atexit
  000a9	83 c4 04	 add	 esp, 4
  000ac	89 5c 24 20	 mov	 DWORD PTR __$EHRec$[esp+44], ebx
$LN10@encrypt@5:

; 148  : 
; 149  : 	union{
; 150  : 		PKCS7_3_Output*	t3;
; 151  : 		PKCS7_6_Output*	t6;
; 152  : 	} f_OUT;
; 153  : 
; 154  : 	union{
; 155  : 		PKCS8_Input*	i;
; 156  : 		PKCS8_Output*	o;
; 157  : 	} f_KEY;
; 158  : 
; 159  : 	//==========================
; 160  : 	//Jn
; 161  : 	cout	<<	"Now enciphering..."	<<	endl;

  000b0	68 00 00 00 00	 push	 OFFSET ??_C@_0BD@DEHKJKGA@Now?5enciphering?4?4?4?$AA@
  000b5	68 00 00 00 00	 push	 OFFSET ?cout@std@@3V?$basic_ostream@DU?$char_traits@D@std@@@1@A ; std::cout
  000ba	e8 00 00 00 00	 call	 ??$?6U?$char_traits@D@std@@@std@@YAAAV?$basic_ostream@DU?$char_traits@D@std@@@0@AAV10@PBD@Z ; std::operator<<<std::char_traits<char> >
  000bf	50		 push	 eax
  000c0	e8 00 00 00 00	 call	 ?endl@std@@YAAAV?$basic_ostream@DU?$char_traits@D@std@@@1@AAV21@@Z ; std::endl

; 162  : 
; 163  : 	//------------------
; 164  : 	//t@C
; 165  : 	switch(cOpsw->iType){

  000c5	a1 00 00 00 00	 mov	 eax, DWORD PTR ?cOpsw@@3PAVOPSW@@A ; cOpsw
  000ca	8b 40 08	 mov	 eax, DWORD PTR [eax+8]
  000cd	83 c4 0c	 add	 esp, 12			; 0000000cH
  000d0	83 f8 03	 cmp	 eax, 3
  000d3	0f 84 89 01 00
	00		 je	 $LN7@encrypt@5
  000d9	83 f8 06	 cmp	 eax, 6
  000dc	74 0f		 je	 SHORT $LN6@encrypt@5

; 210  : 		//------------------
; 211  : 		//
; 212  : 		default:
; 213  : 			errPrint("","undefined type.");

  000de	b8 00 00 00 00	 mov	 eax, OFFSET ??_C@_0BA@HLPOIFPO@undefined?5type?4?$AA@
  000e3	b9 00 00 00 00	 mov	 ecx, OFFSET ??_C@_00CNPNBAHC@?$AA@
  000e8	e8 00 00 00 00	 call	 ?errPrint@@YAXPBD0@Z	; errPrint
$LN85@encrypt@5:
$LN6@encrypt@5:

; 179  : 			break;
; 180  : 
; 181  : 		//------------------
; 182  : 		//Encrypted Data Type
; 183  : 		case(6):
; 184  : 			// t@CEIuWFNg
; 185  : 			f_OUT.t6 = new PKCS7_6_Output(cOpsw->strAESname.c_str());

  000ed	68 3c 06 00 00	 push	 1596			; 0000063cH
  000f2	e8 00 00 00 00	 call	 ??2@YAPAXI@Z		; operator new
  000f7	83 c4 04	 add	 esp, 4
  000fa	89 44 24 14	 mov	 DWORD PTR $T107854[esp+36], eax
  000fe	c7 44 24 20 03
	00 00 00	 mov	 DWORD PTR __$EHRec$[esp+44], 3
  00106	85 c0		 test	 eax, eax
  00108	74 27		 je	 SHORT $LN18@encrypt@5
  0010a	8b 0d 00 00 00
	00		 mov	 ecx, DWORD PTR ?cOpsw@@3PAVOPSW@@A ; cOpsw
  00110	39 71 48	 cmp	 DWORD PTR [ecx+72], esi
  00113	72 0e		 jb	 SHORT $LN56@encrypt@5
  00115	8b 49 34	 mov	 ecx, DWORD PTR [ecx+52]
  00118	51		 push	 ecx
  00119	50		 push	 eax
  0011a	e8 00 00 00 00	 call	 ??0PKCS7_6_Output@@QAE@PBD@Z ; PKCS7_6_Output::PKCS7_6_Output
  0011f	8b f8		 mov	 edi, eax
  00121	eb 10		 jmp	 SHORT $LN19@encrypt@5
$LN56@encrypt@5:
  00123	83 c1 34	 add	 ecx, 52			; 00000034H
  00126	51		 push	 ecx
  00127	50		 push	 eax
  00128	e8 00 00 00 00	 call	 ??0PKCS7_6_Output@@QAE@PBD@Z ; PKCS7_6_Output::PKCS7_6_Output
  0012d	8b f8		 mov	 edi, eax
  0012f	eb 02		 jmp	 SHORT $LN19@encrypt@5
$LN18@encrypt@5:
  00131	33 ff		 xor	 edi, edi
$LN19@encrypt@5:
  00133	89 5c 24 20	 mov	 DWORD PTR __$EHRec$[esp+44], ebx

; 186  : 			if(cOpsw->iMode == -1){

  00137	8b 0d 00 00 00
	00		 mov	 ecx, DWORD PTR ?cOpsw@@3PAVOPSW@@A ; cOpsw
  0013d	8b 41 04	 mov	 eax, DWORD PTR [ecx+4]
  00140	3b c3		 cmp	 eax, ebx
  00142	75 69		 jne	 SHORT $LN5@encrypt@5

; 187  : 					//----------
; 188  : 					//t@CAgpW[
; 189  : 					f_KEY.i = new PKCS8_Input(cOpsw->strKEYname.c_str());

  00144	68 d8 01 00 00	 push	 472			; 000001d8H
  00149	e8 00 00 00 00	 call	 ??2@YAPAXI@Z		; operator new
  0014e	83 c4 04	 add	 esp, 4
  00151	89 44 24 14	 mov	 DWORD PTR $T107858[esp+36], eax
  00155	c7 44 24 20 04
	00 00 00	 mov	 DWORD PTR __$EHRec$[esp+44], 4
  0015d	85 c0		 test	 eax, eax
  0015f	74 3e		 je	 SHORT $LN20@encrypt@5
  00161	8b 0d 00 00 00
	00		 mov	 ecx, DWORD PTR ?cOpsw@@3PAVOPSW@@A ; cOpsw
  00167	39 71 64	 cmp	 DWORD PTR [ecx+100], esi
  0016a	72 1b		 jb	 SHORT $LN62@encrypt@5
  0016c	8b 49 50	 mov	 ecx, DWORD PTR [ecx+80]
  0016f	51		 push	 ecx
  00170	50		 push	 eax
  00171	e8 00 00 00 00	 call	 ??0PKCS8_Input@@QAE@PBDQBD@Z ; PKCS8_Input::PKCS8_Input
  00176	8b f0		 mov	 esi, eax

; 190  : 					f_OUT.t6->Set_Encryption(f_KEY.i);

  00178	56		 push	 esi
  00179	89 5c 24 24	 mov	 DWORD PTR __$EHRec$[esp+48], ebx
  0017d	e8 00 00 00 00	 call	 ?Set_Encryption@PKCS7_6_Output@@QAEXPAVPKCS8_Input@@@Z ; PKCS7_6_Output::Set_Encryption

; 191  : 					delete f_KEY.i;
; 192  : 			} else {

  00182	e9 86 00 00 00	 jmp	 $LN83@encrypt@5

; 187  : 					//----------
; 188  : 					//t@CAgpW[
; 189  : 					f_KEY.i = new PKCS8_Input(cOpsw->strKEYname.c_str());

$LN62@encrypt@5:
  00187	83 c1 50	 add	 ecx, 80			; 00000050H
  0018a	51		 push	 ecx
  0018b	50		 push	 eax
  0018c	e8 00 00 00 00	 call	 ??0PKCS8_Input@@QAE@PBDQBD@Z ; PKCS8_Input::PKCS8_Input
  00191	8b f0		 mov	 esi, eax

; 190  : 					f_OUT.t6->Set_Encryption(f_KEY.i);

  00193	56		 push	 esi
  00194	89 5c 24 24	 mov	 DWORD PTR __$EHRec$[esp+48], ebx
  00198	e8 00 00 00 00	 call	 ?Set_Encryption@PKCS7_6_Output@@QAEXPAVPKCS8_Input@@@Z ; PKCS7_6_Output::Set_Encryption

; 191  : 					delete f_KEY.i;
; 192  : 			} else {

  0019d	eb 6e		 jmp	 SHORT $LN83@encrypt@5
$LN20@encrypt@5:

; 187  : 					//----------
; 188  : 					//t@CAgpW[
; 189  : 					f_KEY.i = new PKCS8_Input(cOpsw->strKEYname.c_str());

  0019f	33 f6		 xor	 esi, esi

; 190  : 					f_OUT.t6->Set_Encryption(f_KEY.i);

  001a1	56		 push	 esi
  001a2	89 5c 24 24	 mov	 DWORD PTR __$EHRec$[esp+48], ebx
  001a6	e8 00 00 00 00	 call	 ?Set_Encryption@PKCS7_6_Output@@QAEXPAVPKCS8_Input@@@Z ; PKCS7_6_Output::Set_Encryption

; 191  : 					delete f_KEY.i;
; 192  : 			} else {

  001ab	eb 60		 jmp	 SHORT $LN83@encrypt@5
$LN5@encrypt@5:

; 193  : 				if(cOpsw->strKeyWord.empty()==true){

  001ad	83 79 7c 00	 cmp	 DWORD PTR [ecx+124], 0
  001b1	75 7d		 jne	 SHORT $LN3@encrypt@5

; 194  : 					//----------
; 195  : 					//At@CB
; 196  : 					f_KEY.o = new PKCS8_Output(cOpsw->strKEYname.c_str());

  001b3	68 78 01 00 00	 push	 376			; 00000178H
  001b8	e8 00 00 00 00	 call	 ??2@YAPAXI@Z		; operator new
  001bd	83 c4 04	 add	 esp, 4
  001c0	89 44 24 14	 mov	 DWORD PTR $T107866[esp+36], eax
  001c4	c7 44 24 20 05
	00 00 00	 mov	 DWORD PTR __$EHRec$[esp+44], 5
  001cc	85 c0		 test	 eax, eax
  001ce	74 27		 je	 SHORT $LN24@encrypt@5
  001d0	8b 0d 00 00 00
	00		 mov	 ecx, DWORD PTR ?cOpsw@@3PAVOPSW@@A ; cOpsw
  001d6	39 71 64	 cmp	 DWORD PTR [ecx+100], esi
  001d9	72 0e		 jb	 SHORT $LN70@encrypt@5
  001db	8b 49 50	 mov	 ecx, DWORD PTR [ecx+80]
  001de	51		 push	 ecx
  001df	50		 push	 eax
  001e0	e8 00 00 00 00	 call	 ??0PKCS8_Output@@QAE@PBDQBD@Z ; PKCS8_Output::PKCS8_Output
  001e5	8b f0		 mov	 esi, eax
  001e7	eb 10		 jmp	 SHORT $LN25@encrypt@5
$LN70@encrypt@5:
  001e9	83 c1 50	 add	 ecx, 80			; 00000050H
  001ec	51		 push	 ecx
  001ed	50		 push	 eax
  001ee	e8 00 00 00 00	 call	 ??0PKCS8_Output@@QAE@PBDQBD@Z ; PKCS8_Output::PKCS8_Output
  001f3	8b f0		 mov	 esi, eax
  001f5	eb 02		 jmp	 SHORT $LN25@encrypt@5
$LN24@encrypt@5:
  001f7	33 f6		 xor	 esi, esi
$LN25@encrypt@5:
  001f9	89 5c 24 20	 mov	 DWORD PTR __$EHRec$[esp+44], ebx

; 197  : 					f_OUT.t6->Set_Encryption(f_KEY.o, cOpsw->iMode);

  001fd	a1 00 00 00 00	 mov	 eax, DWORD PTR ?cOpsw@@3PAVOPSW@@A ; cOpsw
  00202	8b 40 04	 mov	 eax, DWORD PTR [eax+4]
  00205	57		 push	 edi
  00206	8b ce		 mov	 ecx, esi
  00208	e8 00 00 00 00	 call	 ?Set_Encryption@PKCS7_6_Output@@QAEXPAVPKCS8_Output@@I@Z ; PKCS7_6_Output::Set_Encryption
$LN83@encrypt@5:

; 198  : 					delete f_KEY.o;

  0020d	85 f6		 test	 esi, esi
  0020f	74 28		 je	 SHORT $LN2@encrypt@5
  00211	8b 8e f0 00 00
	00		 mov	 ecx, DWORD PTR [esi+240]
  00217	8b 51 04	 mov	 edx, DWORD PTR [ecx+4]
  0021a	8b 84 32 f0 00
	00 00		 mov	 eax, DWORD PTR [edx+esi+240]
  00221	8d 8c 32 f0 00
	00 00		 lea	 ecx, DWORD PTR [edx+esi+240]
  00228	8b 10		 mov	 edx, DWORD PTR [eax]
  0022a	6a 01		 push	 1
  0022c	ff d2		 call	 edx

; 199  : 				} else {

  0022e	eb 09		 jmp	 SHORT $LN2@encrypt@5
$LN3@encrypt@5:

; 200  : 					//----------
; 201  : 					//pX[hSHA-256nbVlAB
; 202  : 					f_OUT.t6->Set_Encryption(&cOpsw->strKeyWord, cOpsw->iMode);

  00230	83 c1 68	 add	 ecx, 104		; 00000068H
  00233	57		 push	 edi
  00234	e8 00 00 00 00	 call	 ?Set_Encryption@PKCS7_6_Output@@QAEXPAV?$basic_string@DU?$char_traits@D@std@@V?$allocator@D@2@@std@@I@Z ; PKCS7_6_Output::Set_Encryption
$LN2@encrypt@5:

; 203  : 				}
; 204  : 			}
; 205  : 			// it@Coj
; 206  : 			f_OUT.t6->encrypt(&f_IN, &contentType);

  00239	68 00 00 00 00	 push	 OFFSET ?f_IN@?1??encrypt@@YAXXZ@4VFileInput@@A
  0023e	8b c7		 mov	 eax, edi
  00240	e8 00 00 00 00	 call	 ?encrypt@PKCS7_6_Output@@QAEXPAVFileInput@@PAVObjectIdentifier@@@Z ; PKCS7_6_Output::encrypt

; 207  : 			// t@CEIuWFNgJ
; 208  : 			delete f_OUT.t6;

  00245	85 ff		 test	 edi, edi
  00247	0f 84 c1 00 00
	00		 je	 $LN16@encrypt@5
  0024d	8b 87 d0 03 00
	00		 mov	 eax, DWORD PTR [edi+976]
  00253	8b 48 04	 mov	 ecx, DWORD PTR [eax+4]
  00256	8d 8c 39 d0 03
	00 00		 lea	 ecx, DWORD PTR [ecx+edi+976]

; 209  : 			break;

  0025d	e9 a4 00 00 00	 jmp	 $LN84@encrypt@5
$LN7@encrypt@5:

; 166  : 		//------------------
; 167  : 		//Enveloped Data Type
; 168  : 		case(3):
; 169  : 			// t@CEIuWFNg
; 170  : 			f_OUT.t3 = new PKCS7_3_Output(cOpsw->strAESname.c_str());

  00262	68 74 08 00 00	 push	 2164			; 00000874H
  00267	e8 00 00 00 00	 call	 ??2@YAPAXI@Z		; operator new
  0026c	83 c4 04	 add	 esp, 4
  0026f	89 44 24 14	 mov	 DWORD PTR $T107846[esp+36], eax
  00273	c7 44 24 20 02
	00 00 00	 mov	 DWORD PTR __$EHRec$[esp+44], 2
  0027b	85 c0		 test	 eax, eax
  0027d	74 27		 je	 SHORT $LN14@encrypt@5
  0027f	8b 0d 00 00 00
	00		 mov	 ecx, DWORD PTR ?cOpsw@@3PAVOPSW@@A ; cOpsw
  00285	39 71 48	 cmp	 DWORD PTR [ecx+72], esi
  00288	72 0e		 jb	 SHORT $LN48@encrypt@5
  0028a	8b 49 34	 mov	 ecx, DWORD PTR [ecx+52]
  0028d	51		 push	 ecx
  0028e	50		 push	 eax
  0028f	e8 00 00 00 00	 call	 ??0PKCS7_3_Output@@QAE@PBD@Z ; PKCS7_3_Output::PKCS7_3_Output
  00294	8b f0		 mov	 esi, eax
  00296	eb 10		 jmp	 SHORT $LN15@encrypt@5
$LN48@encrypt@5:
  00298	83 c1 34	 add	 ecx, 52			; 00000034H
  0029b	51		 push	 ecx
  0029c	50		 push	 eax
  0029d	e8 00 00 00 00	 call	 ??0PKCS7_3_Output@@QAE@PBD@Z ; PKCS7_3_Output::PKCS7_3_Output
  002a2	8b f0		 mov	 esi, eax
  002a4	eb 02		 jmp	 SHORT $LN15@encrypt@5
$LN14@encrypt@5:
  002a6	33 f6		 xor	 esi, esi
$LN15@encrypt@5:
  002a8	89 5c 24 20	 mov	 DWORD PTR __$EHRec$[esp+44], ebx

; 171  : 			// (1) W[  ZbVij
; 172  : 			f_OUT.t3->MakeEncryption(cOpsw->iMode);

  002ac	8b 0d 00 00 00
	00		 mov	 ecx, DWORD PTR ?cOpsw@@3PAVOPSW@@A ; cOpsw
  002b2	8b 41 04	 mov	 eax, DWORD PTR [ecx+4]
  002b5	8b fe		 mov	 edi, esi
  002b7	e8 00 00 00 00	 call	 ?MakeEncryption@PKCS7_3_Output@@QAEXI@Z ; PKCS7_3_Output::MakeEncryption

; 173  : 			// (2) MZbgiAoipX[hjj
; 174  : 			f_OUT.t3->AddRecipient(&cOpsw->strKeyWord, cOpsw->iCount, cOpsw->iMode);

  002bc	a1 00 00 00 00	 mov	 eax, DWORD PTR ?cOpsw@@3PAVOPSW@@A ; cOpsw
  002c1	8b 50 04	 mov	 edx, DWORD PTR [eax+4]
  002c4	8b 48 0c	 mov	 ecx, DWORD PTR [eax+12]
  002c7	52		 push	 edx
  002c8	51		 push	 ecx
  002c9	8d 96 e0 02 00
	00		 lea	 edx, DWORD PTR [esi+736]
  002cf	52		 push	 edx
  002d0	8d 8e e0 07 00
	00		 lea	 ecx, DWORD PTR [esi+2016]
  002d6	51		 push	 ecx
  002d7	83 c0 68	 add	 eax, 104		; 00000068H
  002da	50		 push	 eax
  002db	8d be 10 05 00
	00		 lea	 edi, DWORD PTR [esi+1296]
  002e1	e8 00 00 00 00	 call	 ?AddRecipient@RecipientInfos@@QAEXPAV?$basic_string@DU?$char_traits@D@std@@V?$allocator@D@2@@std@@PAVOctetString@@PAVHMAC@@II@Z ; RecipientInfos::AddRecipient

; 175  : 			// (3) it@Coj
; 176  : 			f_OUT.t3->encrypt(&f_IN, &contentType);

  002e6	68 00 00 00 00	 push	 OFFSET ?f_IN@?1??encrypt@@YAXXZ@4VFileInput@@A
  002eb	8b c6		 mov	 eax, esi
  002ed	e8 00 00 00 00	 call	 ?encrypt@PKCS7_3_Output@@QAEXPAVFileInput@@PAVObjectIdentifier@@@Z ; PKCS7_3_Output::encrypt

; 177  : 			// t@CEIuWFNgJ
; 178  : 			delete f_OUT.t3;

  002f2	85 f6		 test	 esi, esi
  002f4	74 18		 je	 SHORT $LN16@encrypt@5
  002f6	8b 96 d0 03 00
	00		 mov	 edx, DWORD PTR [esi+976]
  002fc	8b 42 04	 mov	 eax, DWORD PTR [edx+4]
  002ff	8d 8c 30 d0 03
	00 00		 lea	 ecx, DWORD PTR [eax+esi+976]
$LN84@encrypt@5:
  00306	8b 11		 mov	 edx, DWORD PTR [ecx]
  00308	8b 02		 mov	 eax, DWORD PTR [edx]
  0030a	6a 01		 push	 1
  0030c	ff d0		 call	 eax
$LN16@encrypt@5:

; 214  : 			break;
; 215  : 	}
; 216  : 
; 217  : 	//------------------
; 218  : 	//I
; 219  : 	delete	f_IN;

  0030e	8b 0d 00 00 00
	00		 mov	 ecx, DWORD PTR ?f_IN@?1??encrypt@@YAXXZ@4VFileInput@@A
  00314	8b 41 04	 mov	 eax, DWORD PTR [ecx+4]
  00317	05 00 00 00 00	 add	 eax, OFFSET ?f_IN@?1??encrypt@@YAXXZ@4VFileInput@@A
  0031c	8b 50 08	 mov	 edx, DWORD PTR [eax+8]
  0031f	80 e2 06	 and	 dl, 6
  00322	0f be ca	 movsx	 ecx, dl
  00325	f7 d9		 neg	 ecx
  00327	1b c9		 sbb	 ecx, ecx
  00329	f7 d1		 not	 ecx
  0032b	23 c8		 and	 ecx, eax
  0032d	51		 push	 ecx
  0032e	e8 00 00 00 00	 call	 ??3@YAXPAX@Z		; operator delete
  00333	83 c4 04	 add	 esp, 4

; 220  : 
; 221  : }

  00336	8b 4c 24 18	 mov	 ecx, DWORD PTR __$EHRec$[esp+36]
  0033a	64 89 0d 00 00
	00 00		 mov	 DWORD PTR fs:0, ecx
  00341	59		 pop	 ecx
  00342	5f		 pop	 edi
  00343	5e		 pop	 esi
  00344	5b		 pop	 ebx
  00345	83 c4 14	 add	 esp, 20			; 00000014H
  00348	c3		 ret	 0
$LN82@encrypt@5:
_TEXT	ENDS
;	COMDAT text$x
text$x	SEGMENT
__unwindfunclet$?encrypt@@YAXXZ$0:
  00000	a1 00 00 00 00	 mov	 eax, DWORD PTR ?$S1@?1??encrypt@@YAXXZ@4IA
  00005	83 e0 fe	 and	 eax, -2			; fffffffeH
  00008	a3 00 00 00 00	 mov	 DWORD PTR ?$S1@?1??encrypt@@YAXXZ@4IA, eax
  0000d	c3		 ret	 0
__unwindfunclet$?encrypt@@YAXXZ$1:
  0000e	a1 00 00 00 00	 mov	 eax, DWORD PTR ?$S1@?1??encrypt@@YAXXZ@4IA
  00013	83 e0 fd	 and	 eax, -3			; fffffffdH
  00016	a3 00 00 00 00	 mov	 DWORD PTR ?$S1@?1??encrypt@@YAXXZ@4IA, eax
  0001b	c3		 ret	 0
__unwindfunclet$?encrypt@@YAXXZ$3:
  0001c	8b 45 f0	 mov	 eax, DWORD PTR $T107854[ebp]
  0001f	50		 push	 eax
  00020	e8 00 00 00 00	 call	 ??3@YAXPAX@Z		; operator delete
  00025	59		 pop	 ecx
  00026	c3		 ret	 0
__unwindfunclet$?encrypt@@YAXXZ$4:
  00027	8b 45 f0	 mov	 eax, DWORD PTR $T107858[ebp]
  0002a	50		 push	 eax
  0002b	e8 00 00 00 00	 call	 ??3@YAXPAX@Z		; operator delete
  00030	59		 pop	 ecx
  00031	c3		 ret	 0
__unwindfunclet$?encrypt@@YAXXZ$5:
  00032	8b 45 f0	 mov	 eax, DWORD PTR $T107866[ebp]
  00035	50		 push	 eax
  00036	e8 00 00 00 00	 call	 ??3@YAXPAX@Z		; operator delete
  0003b	59		 pop	 ecx
  0003c	c3		 ret	 0
__unwindfunclet$?encrypt@@YAXXZ$2:
  0003d	8b 45 f0	 mov	 eax, DWORD PTR $T107846[ebp]
  00040	50		 push	 eax
  00041	e8 00 00 00 00	 call	 ??3@YAXPAX@Z		; operator delete
  00046	59		 pop	 ecx
  00047	c3		 ret	 0
__ehhandler$?encrypt@@YAXXZ:
  00048	8b 54 24 08	 mov	 edx, DWORD PTR [esp+8]
  0004c	8d 42 ec	 lea	 eax, DWORD PTR [edx-20]
  0004f	8b 4a e8	 mov	 ecx, DWORD PTR [edx-24]
  00052	33 c8		 xor	 ecx, eax
  00054	e8 00 00 00 00	 call	 @__security_check_cookie@4
  00059	b8 00 00 00 00	 mov	 eax, OFFSET __ehfuncinfo$?encrypt@@YAXXZ
  0005e	e9 00 00 00 00	 jmp	 ___CxxFrameHandler3
text$x	ENDS
?encrypt@@YAXXZ ENDP					; encrypt
PUBLIC	?decrypt@@YAXXZ					; decrypt
;	COMDAT ?f_OUT@?1??decrypt@@YAXXZ@4VFileOutput@@A
; File c:\program files\microsoft visual studio 9.0\vc\include\xiosbase
_BSS	SEGMENT
?f_OUT@?1??decrypt@@YAXXZ@4VFileOutput@@A DB 088H DUP (?) ; `decrypt'::`2'::f_OUT
_BSS	ENDS
;	COMDAT ?$S2@?1??decrypt@@YAXXZ@4IA
_BSS	SEGMENT
?$S2@?1??decrypt@@YAXXZ@4IA DD 01H DUP (?)		; `decrypt'::`2'::$S2
_BSS	ENDS
;	COMDAT xdata$x
xdata$x	SEGMENT
__unwindtable$?decrypt@@YAXXZ DD 0ffffffffH
	DD	FLAT:__unwindfunclet$?decrypt@@YAXXZ$0
	DD	0ffffffffH
	DD	FLAT:__unwindfunclet$?decrypt@@YAXXZ$1
	DD	0ffffffffH
	DD	FLAT:__unwindfunclet$?decrypt@@YAXXZ$2
	DD	0ffffffffH
	DD	FLAT:__unwindfunclet$?decrypt@@YAXXZ$3
__ehfuncinfo$?decrypt@@YAXXZ DD 019930522H
	DD	04H
	DD	FLAT:__unwindtable$?decrypt@@YAXXZ
	DD	2 DUP(00H)
	DD	2 DUP(00H)
	DD	00H
	DD	01H
; Function compile flags: /Ogtpy
; File i:\nj\my project\cms\cms\main.cpp
xdata$x	ENDS
;	COMDAT ?decrypt@@YAXXZ
_TEXT	SEGMENT
$T108027 = -16						; size = 4
$T108023 = -16						; size = 4
$T108015 = -16						; size = 4
__$EHRec$ = -12						; size = 12
?decrypt@@YAXXZ PROC					; decrypt, COMDAT

; 231  : {

  00000	6a ff		 push	 -1
  00002	68 00 00 00 00	 push	 __ehhandler$?decrypt@@YAXXZ
  00007	64 a1 00 00 00
	00		 mov	 eax, DWORD PTR fs:0
  0000d	50		 push	 eax
  0000e	83 ec 08	 sub	 esp, 8
  00011	53		 push	 ebx
  00012	56		 push	 esi
  00013	57		 push	 edi
  00014	a1 00 00 00 00	 mov	 eax, DWORD PTR ___security_cookie
  00019	33 c4		 xor	 eax, esp
  0001b	50		 push	 eax
  0001c	8d 44 24 18	 lea	 eax, DWORD PTR __$EHRec$[esp+36]
  00020	64 a3 00 00 00
	00		 mov	 DWORD PTR fs:0, eax

; 232  : 	//
; 233  : //	unsigned	int	iType	= 6;		//PKCS#7^Cv
; 234  : 
; 235  : 	static	FileOutput			f_OUT	= FileOutput(cOpsw->strBINname.c_str());		//t@Cop

  00026	83 cb ff	 or	 ebx, -1
  00029	f6 05 00 00 00
	00 01		 test	 BYTE PTR ?$S2@?1??decrypt@@YAXXZ@4IA, 1
  00030	bf 10 00 00 00	 mov	 edi, 16			; 00000010H
  00035	75 3f		 jne	 SHORT $LN8@decrypt@5
  00037	83 0d 00 00 00
	00 01		 or	 DWORD PTR ?$S2@?1??decrypt@@YAXXZ@4IA, 1
  0003e	c7 44 24 20 00
	00 00 00	 mov	 DWORD PTR __$EHRec$[esp+44], 0
  00046	a1 00 00 00 00	 mov	 eax, DWORD PTR ?cOpsw@@3PAVOPSW@@A ; cOpsw
  0004b	39 78 2c	 cmp	 DWORD PTR [eax+44], edi
  0004e	72 05		 jb	 SHORT $LN31@decrypt@5
  00050	8b 40 18	 mov	 eax, DWORD PTR [eax+24]
  00053	eb 03		 jmp	 SHORT $LN32@decrypt@5
$LN31@decrypt@5:
  00055	83 c0 18	 add	 eax, 24			; 00000018H
$LN32@decrypt@5:
  00058	6a 01		 push	 1
  0005a	50		 push	 eax
  0005b	68 00 00 00 00	 push	 OFFSET ?f_OUT@?1??decrypt@@YAXXZ@4VFileOutput@@A
  00060	e8 00 00 00 00	 call	 ??0FileOutput@@QAE@PBD@Z ; FileOutput::FileOutput
  00065	68 00 00 00 00	 push	 OFFSET ??__Ff_OUT@?1??decrypt@@YAXXZ@YAXXZ ; `decrypt'::`2'::`dynamic atexit destructor for 'f_OUT''
  0006a	e8 00 00 00 00	 call	 _atexit
  0006f	83 c4 04	 add	 esp, 4
  00072	89 5c 24 20	 mov	 DWORD PTR __$EHRec$[esp+44], ebx
$LN8@decrypt@5:

; 236  : 
; 237  : 	union{
; 238  : 		PKCS7_3_Input*	t3;
; 239  : 		PKCS7_6_Input*	t6;
; 240  : 	} f_IN;
; 241  : 
; 242  : 	PKCS8_Input*	f_KEY;
; 243  : 
; 244  : 	//==========================
; 245  : 	//Jn
; 246  : 	cout	<<	"Now deciphering..."	<<	endl;

  00076	68 00 00 00 00	 push	 OFFSET ??_C@_0BD@MCLJHKGF@Now?5deciphering?4?4?4?$AA@
  0007b	68 00 00 00 00	 push	 OFFSET ?cout@std@@3V?$basic_ostream@DU?$char_traits@D@std@@@1@A ; std::cout
  00080	e8 00 00 00 00	 call	 ??$?6U?$char_traits@D@std@@@std@@YAAAV?$basic_ostream@DU?$char_traits@D@std@@@0@AAV10@PBD@Z ; std::operator<<<std::char_traits<char> >
  00085	50		 push	 eax
  00086	e8 00 00 00 00	 call	 ?endl@std@@YAAAV?$basic_ostream@DU?$char_traits@D@std@@@1@AAV21@@Z ; std::endl

; 247  : 
; 248  : 	//------------------
; 249  : 	//^Cv
; 250  : 
; 251  : 	// to do	PKCS#7  ^Cv`FbN
; 252  : 
; 253  : 	switch(cOpsw->iType){

  0008b	a1 00 00 00 00	 mov	 eax, DWORD PTR ?cOpsw@@3PAVOPSW@@A ; cOpsw
  00090	8b 40 08	 mov	 eax, DWORD PTR [eax+8]
  00093	83 c4 0c	 add	 esp, 12			; 0000000cH
  00096	83 f8 03	 cmp	 eax, 3
  00099	0f 84 26 01 00
	00		 je	 $LN5@decrypt@5
  0009f	83 f8 06	 cmp	 eax, 6
  000a2	74 0f		 je	 SHORT $LN4@decrypt@5

; 289  : 		//------------------
; 290  : 		//
; 291  : 		default:
; 292  : 			errPrint("","undefined type.");

  000a4	b8 00 00 00 00	 mov	 eax, OFFSET ??_C@_0BA@HLPOIFPO@undefined?5type?4?$AA@
  000a9	b9 00 00 00 00	 mov	 ecx, OFFSET ??_C@_00CNPNBAHC@?$AA@
  000ae	e8 00 00 00 00	 call	 ?errPrint@@YAXPBD0@Z	; errPrint
$LN70@decrypt@5:
$LN4@decrypt@5:

; 266  : 			break;
; 267  : 		//------------------
; 268  : 		//Encrypted Data Type
; 269  : 		case(6):
; 270  : 			//t@C  ASN.1\
; 271  : 			f_IN.t6	= new PKCS7_6_Input(cOpsw->strAESname.c_str());

  000b3	68 40 06 00 00	 push	 1600			; 00000640H
  000b8	e8 00 00 00 00	 call	 ??2@YAPAXI@Z		; operator new
  000bd	83 c4 04	 add	 esp, 4
  000c0	89 44 24 14	 mov	 DWORD PTR $T108023[esp+36], eax
  000c4	c7 44 24 20 02
	00 00 00	 mov	 DWORD PTR __$EHRec$[esp+44], 2
  000cc	85 c0		 test	 eax, eax
  000ce	74 27		 je	 SHORT $LN15@decrypt@5
  000d0	8b 0d 00 00 00
	00		 mov	 ecx, DWORD PTR ?cOpsw@@3PAVOPSW@@A ; cOpsw
  000d6	39 79 48	 cmp	 DWORD PTR [ecx+72], edi
  000d9	72 0e		 jb	 SHORT $LN47@decrypt@5
  000db	8b 49 34	 mov	 ecx, DWORD PTR [ecx+52]
  000de	51		 push	 ecx
  000df	50		 push	 eax
  000e0	e8 00 00 00 00	 call	 ??0PKCS7_6_Input@@QAE@PBD@Z ; PKCS7_6_Input::PKCS7_6_Input
  000e5	8b f0		 mov	 esi, eax
  000e7	eb 10		 jmp	 SHORT $LN16@decrypt@5
$LN47@decrypt@5:
  000e9	83 c1 34	 add	 ecx, 52			; 00000034H
  000ec	51		 push	 ecx
  000ed	50		 push	 eax
  000ee	e8 00 00 00 00	 call	 ??0PKCS7_6_Input@@QAE@PBD@Z ; PKCS7_6_Input::PKCS7_6_Input
  000f3	8b f0		 mov	 esi, eax
  000f5	eb 02		 jmp	 SHORT $LN16@decrypt@5
$LN15@decrypt@5:
  000f7	33 f6		 xor	 esi, esi
$LN16@decrypt@5:

; 272  : 			f_IN.t6->Get_EncryptedData();

  000f9	56		 push	 esi
  000fa	b8 06 00 00 00	 mov	 eax, 6
  000ff	89 5c 24 24	 mov	 DWORD PTR __$EHRec$[esp+48], ebx
  00103	e8 00 00 00 00	 call	 ?read_ContentInfo@PKCS7_Input@@QAEII@Z ; PKCS7_Input::read_ContentInfo
  00108	8d 8e 28 04 00
	00		 lea	 ecx, DWORD PTR [esi+1064]
  0010e	51		 push	 ecx
  0010f	56		 push	 esi
  00110	e8 00 00 00 00	 call	 ?read_EncryptedData@PKCS7_Input@@QAEIPAVEncryptedData@@@Z ; PKCS7_Input::read_EncryptedData
  00115	89 86 08 06 00
	00		 mov	 DWORD PTR [esi+1544], eax

; 273  : 			if(cOpsw->strKeyWord.empty()==true){

  0011b	a1 00 00 00 00	 mov	 eax, DWORD PTR ?cOpsw@@3PAVOPSW@@A ; cOpsw
  00120	83 78 7c 00	 cmp	 DWORD PTR [eax+124], 0
  00124	0f 85 82 00 00
	00		 jne	 $LN3@decrypt@5

; 274  : 				//----------
; 275  : 				//t@CA
; 276  : 				f_KEY = new PKCS8_Input(cOpsw->strKEYname.c_str());

  0012a	68 d8 01 00 00	 push	 472			; 000001d8H
  0012f	e8 00 00 00 00	 call	 ??2@YAPAXI@Z		; operator new
  00134	83 c4 04	 add	 esp, 4
  00137	89 44 24 14	 mov	 DWORD PTR $T108027[esp+36], eax
  0013b	c7 44 24 20 03
	00 00 00	 mov	 DWORD PTR __$EHRec$[esp+44], 3
  00143	85 c0		 test	 eax, eax
  00145	74 27		 je	 SHORT $LN17@decrypt@5
  00147	8b 0d 00 00 00
	00		 mov	 ecx, DWORD PTR ?cOpsw@@3PAVOPSW@@A ; cOpsw
  0014d	39 79 64	 cmp	 DWORD PTR [ecx+100], edi
  00150	72 0e		 jb	 SHORT $LN57@decrypt@5
  00152	8b 49 50	 mov	 ecx, DWORD PTR [ecx+80]
  00155	51		 push	 ecx
  00156	50		 push	 eax
  00157	e8 00 00 00 00	 call	 ??0PKCS8_Input@@QAE@PBDQBD@Z ; PKCS8_Input::PKCS8_Input
  0015c	8b f8		 mov	 edi, eax
  0015e	eb 10		 jmp	 SHORT $LN18@decrypt@5
$LN57@decrypt@5:
  00160	83 c1 50	 add	 ecx, 80			; 00000050H
  00163	51		 push	 ecx
  00164	50		 push	 eax
  00165	e8 00 00 00 00	 call	 ??0PKCS8_Input@@QAE@PBDQBD@Z ; PKCS8_Input::PKCS8_Input
  0016a	8b f8		 mov	 edi, eax
  0016c	eb 02		 jmp	 SHORT $LN18@decrypt@5
$LN17@decrypt@5:
  0016e	33 ff		 xor	 edi, edi
$LN18@decrypt@5:

; 277  : 				f_IN.t6->Set_Encryption(f_KEY);

  00170	57		 push	 edi
  00171	56		 push	 esi
  00172	89 5c 24 28	 mov	 DWORD PTR __$EHRec$[esp+52], ebx
  00176	e8 00 00 00 00	 call	 ?Set_Encryption@PKCS7_6_Input@@QAEXPAVPKCS8_Input@@@Z ; PKCS7_6_Input::Set_Encryption

; 278  : 				delete f_KEY;

  0017b	85 ff		 test	 edi, edi
  0017d	74 36		 je	 SHORT $LN2@decrypt@5
  0017f	8b 97 f0 00 00
	00		 mov	 edx, DWORD PTR [edi+240]
  00185	8b 42 04	 mov	 eax, DWORD PTR [edx+4]
  00188	8b 94 38 f0 00
	00 00		 mov	 edx, DWORD PTR [eax+edi+240]
  0018f	8d 8c 38 f0 00
	00 00		 lea	 ecx, DWORD PTR [eax+edi+240]
  00196	8b 02		 mov	 eax, DWORD PTR [edx]
  00198	6a 01		 push	 1
  0019a	ff d0		 call	 eax

; 283  : 			}
; 284  : 			// it@Coj
; 285  : 			f_IN.t6->decrypt(&f_OUT);

  0019c	68 00 00 00 00	 push	 OFFSET ?f_OUT@?1??decrypt@@YAXXZ@4VFileOutput@@A
  001a1	56		 push	 esi
  001a2	e8 00 00 00 00	 call	 ?decrypt@PKCS7_6_Input@@QAEXPAVFileOutput@@@Z ; PKCS7_6_Input::decrypt

; 286  : 			// t@CEIuWFNgJ
; 287  : 			delete f_IN.t6;
; 288  : 			break;

  001a7	e9 9a 00 00 00	 jmp	 $LN69@decrypt@5
$LN3@decrypt@5:

; 279  : 			} else {
; 280  : 				//----------
; 281  : 				//pX[hSHA-256nbVlAB
; 282  : 				f_IN.t6->Set_Encryption(&cOpsw->strKeyWord);

  001ac	83 c0 68	 add	 eax, 104		; 00000068H
  001af	56		 push	 esi
  001b0	e8 00 00 00 00	 call	 ?Set_Encryption@PKCS7_6_Input@@QAEXPAV?$basic_string@DU?$char_traits@D@std@@V?$allocator@D@2@@std@@@Z ; PKCS7_6_Input::Set_Encryption
$LN2@decrypt@5:

; 283  : 			}
; 284  : 			// it@Coj
; 285  : 			f_IN.t6->decrypt(&f_OUT);

  001b5	68 00 00 00 00	 push	 OFFSET ?f_OUT@?1??decrypt@@YAXXZ@4VFileOutput@@A
  001ba	56		 push	 esi
  001bb	e8 00 00 00 00	 call	 ?decrypt@PKCS7_6_Input@@QAEXPAVFileOutput@@@Z ; PKCS7_6_Input::decrypt

; 286  : 			// t@CEIuWFNgJ
; 287  : 			delete f_IN.t6;
; 288  : 			break;

  001c0	e9 81 00 00 00	 jmp	 $LN69@decrypt@5
$LN5@decrypt@5:

; 254  : 		//------------------
; 255  : 		//Enveloped Data Type
; 256  : 		case(3):
; 257  : 			//t@C  ASN.1\
; 258  : 			f_IN.t3	= new PKCS7_3_Input(cOpsw->strAESname.c_str());

  001c5	68 78 08 00 00	 push	 2168			; 00000878H
  001ca	e8 00 00 00 00	 call	 ??2@YAPAXI@Z		; operator new
  001cf	83 c4 04	 add	 esp, 4
  001d2	89 44 24 14	 mov	 DWORD PTR $T108015[esp+36], eax
  001d6	c7 44 24 20 01
	00 00 00	 mov	 DWORD PTR __$EHRec$[esp+44], 1
  001de	85 c0		 test	 eax, eax
  001e0	74 27		 je	 SHORT $LN11@decrypt@5
  001e2	8b 0d 00 00 00
	00		 mov	 ecx, DWORD PTR ?cOpsw@@3PAVOPSW@@A ; cOpsw
  001e8	39 79 48	 cmp	 DWORD PTR [ecx+72], edi
  001eb	72 0e		 jb	 SHORT $LN39@decrypt@5
  001ed	8b 49 34	 mov	 ecx, DWORD PTR [ecx+52]
  001f0	51		 push	 ecx
  001f1	50		 push	 eax
  001f2	e8 00 00 00 00	 call	 ??0PKCS7_3_Input@@QAE@PBD@Z ; PKCS7_3_Input::PKCS7_3_Input
  001f7	8b f0		 mov	 esi, eax
  001f9	eb 10		 jmp	 SHORT $LN12@decrypt@5
$LN39@decrypt@5:
  001fb	83 c1 34	 add	 ecx, 52			; 00000034H
  001fe	51		 push	 ecx
  001ff	50		 push	 eax
  00200	e8 00 00 00 00	 call	 ??0PKCS7_3_Input@@QAE@PBD@Z ; PKCS7_3_Input::PKCS7_3_Input
  00205	8b f0		 mov	 esi, eax
  00207	eb 02		 jmp	 SHORT $LN12@decrypt@5
$LN11@decrypt@5:
  00209	33 f6		 xor	 esi, esi
$LN12@decrypt@5:

; 259  : 			f_IN.t3->Get_EnvelopedData();

  0020b	56		 push	 esi
  0020c	b8 03 00 00 00	 mov	 eax, 3
  00211	89 5c 24 24	 mov	 DWORD PTR __$EHRec$[esp+48], ebx
  00215	e8 00 00 00 00	 call	 ?read_ContentInfo@PKCS7_Input@@QAEII@Z ; PKCS7_Input::read_ContentInfo
  0021a	8d 86 28 04 00
	00		 lea	 eax, DWORD PTR [esi+1064]
  00220	50		 push	 eax
  00221	56		 push	 esi
  00222	e8 00 00 00 00	 call	 ?read_EnvelopedData@PKCS7_Input@@QAEIPAVEnvelopedData@@@Z ; PKCS7_Input::read_EnvelopedData
  00227	89 86 40 08 00
	00		 mov	 DWORD PTR [esi+2112], eax

; 260  : 			// M
; 261  : 			f_IN.t3->Receipt(&cOpsw->strKeyWord);

  0022d	a1 00 00 00 00	 mov	 eax, DWORD PTR ?cOpsw@@3PAVOPSW@@A ; cOpsw
  00232	83 c0 68	 add	 eax, 104		; 00000068H
  00235	56		 push	 esi
  00236	e8 00 00 00 00	 call	 ?Receipt@PKCS7_3_Input@@QAEXPAV?$basic_string@DU?$char_traits@D@std@@V?$allocator@D@2@@std@@@Z ; PKCS7_3_Input::Receipt

; 262  : 			// it@Coj
; 263  : 			f_IN.t3->decrypt(&f_OUT);

  0023b	68 00 00 00 00	 push	 OFFSET ?f_OUT@?1??decrypt@@YAXXZ@4VFileOutput@@A
  00240	56		 push	 esi
  00241	e8 00 00 00 00	 call	 ?decrypt@PKCS7_3_Input@@QAEXPAVFileOutput@@@Z ; PKCS7_3_Input::decrypt
$LN69@decrypt@5:

; 264  : 			// t@CEIuWFNgJ
; 265  : 			delete f_IN.t3;

  00246	8b 8e d0 03 00
	00		 mov	 ecx, DWORD PTR [esi+976]
  0024c	8b 51 04	 mov	 edx, DWORD PTR [ecx+4]
  0024f	8b 84 32 d0 03
	00 00		 mov	 eax, DWORD PTR [edx+esi+976]
  00256	8d 8c 32 d0 03
	00 00		 lea	 ecx, DWORD PTR [edx+esi+976]
  0025d	8b 10		 mov	 edx, DWORD PTR [eax]
  0025f	6a 01		 push	 1
  00261	ff d2		 call	 edx

; 293  : 			break;
; 294  : 	}
; 295  : 
; 296  : 	//------------------
; 297  : 	//I
; 298  : 	delete	f_OUT;

  00263	a1 00 00 00 00	 mov	 eax, DWORD PTR ?f_OUT@?1??decrypt@@YAXXZ@4VFileOutput@@A
  00268	8b 40 04	 mov	 eax, DWORD PTR [eax+4]
  0026b	05 00 00 00 00	 add	 eax, OFFSET ?f_OUT@?1??decrypt@@YAXXZ@4VFileOutput@@A
  00270	8b 48 08	 mov	 ecx, DWORD PTR [eax+8]
  00273	80 e1 06	 and	 cl, 6
  00276	0f be d1	 movsx	 edx, cl
  00279	f7 da		 neg	 edx
  0027b	1b d2		 sbb	 edx, edx
  0027d	f7 d2		 not	 edx
  0027f	23 d0		 and	 edx, eax
  00281	52		 push	 edx
  00282	e8 00 00 00 00	 call	 ??3@YAXPAX@Z		; operator delete
  00287	83 c4 04	 add	 esp, 4

; 299  : 
; 300  : }

  0028a	8b 4c 24 18	 mov	 ecx, DWORD PTR __$EHRec$[esp+36]
  0028e	64 89 0d 00 00
	00 00		 mov	 DWORD PTR fs:0, ecx
  00295	59		 pop	 ecx
  00296	5f		 pop	 edi
  00297	5e		 pop	 esi
  00298	5b		 pop	 ebx
  00299	83 c4 14	 add	 esp, 20			; 00000014H
  0029c	c3		 ret	 0
$LN68@decrypt@5:
_TEXT	ENDS
;	COMDAT text$x
text$x	SEGMENT
__unwindfunclet$?decrypt@@YAXXZ$0:
  00000	a1 00 00 00 00	 mov	 eax, DWORD PTR ?$S2@?1??decrypt@@YAXXZ@4IA
  00005	83 e0 fe	 and	 eax, -2			; fffffffeH
  00008	a3 00 00 00 00	 mov	 DWORD PTR ?$S2@?1??decrypt@@YAXXZ@4IA, eax
  0000d	c3		 ret	 0
__unwindfunclet$?decrypt@@YAXXZ$2:
  0000e	8b 45 f0	 mov	 eax, DWORD PTR $T108023[ebp]
  00011	50		 push	 eax
  00012	e8 00 00 00 00	 call	 ??3@YAXPAX@Z		; operator delete
  00017	59		 pop	 ecx
  00018	c3		 ret	 0
__unwindfunclet$?decrypt@@YAXXZ$3:
  00019	8b 45 f0	 mov	 eax, DWORD PTR $T108027[ebp]
  0001c	50		 push	 eax
  0001d	e8 00 00 00 00	 call	 ??3@YAXPAX@Z		; operator delete
  00022	59		 pop	 ecx
  00023	c3		 ret	 0
__unwindfunclet$?decrypt@@YAXXZ$1:
  00024	8b 45 f0	 mov	 eax, DWORD PTR $T108015[ebp]
  00027	50		 push	 eax
  00028	e8 00 00 00 00	 call	 ??3@YAXPAX@Z		; operator delete
  0002d	59		 pop	 ecx
  0002e	c3		 ret	 0
__ehhandler$?decrypt@@YAXXZ:
  0002f	8b 54 24 08	 mov	 edx, DWORD PTR [esp+8]
  00033	8d 42 ec	 lea	 eax, DWORD PTR [edx-20]
  00036	8b 4a e8	 mov	 ecx, DWORD PTR [edx-24]
  00039	33 c8		 xor	 ecx, eax
  0003b	e8 00 00 00 00	 call	 @__security_check_cookie@4
  00040	b8 00 00 00 00	 mov	 eax, OFFSET __ehfuncinfo$?decrypt@@YAXXZ
  00045	e9 00 00 00 00	 jmp	 ___CxxFrameHandler3
text$x	ENDS
?decrypt@@YAXXZ ENDP					; decrypt
PUBLIC	_main
;	COMDAT xdata$x
; File c:\program files\microsoft visual studio 9.0\vc\include\ostream
xdata$x	SEGMENT
__unwindtable$_main DD 0ffffffffH
	DD	FLAT:__unwindfunclet$_main$0
	DD	0ffffffffH
	DD	FLAT:__unwindfunclet$_main$1
__ehfuncinfo$_main DD 019930522H
	DD	02H
	DD	FLAT:__unwindtable$_main
	DD	2 DUP(00H)
	DD	2 DUP(00H)
	DD	00H
	DD	01H
; Function compile flags: /Ogtpy
; File i:\nj\my project\cms\cms\main.cpp
xdata$x	ENDS
;	COMDAT _main
_TEXT	SEGMENT
$T108152 = -44						; size = 4
$T108148 = -44						; size = 4
$T108168 = -40						; size = 8
_randSeed$ = -32					; size = 16
__$EHRec$ = -12						; size = 12
_argc$ = 8						; size = 4
_argv$ = 12						; size = 4
_main	PROC						; COMDAT

; 311  : {

  00000	55		 push	 ebp
  00001	8b ec		 mov	 ebp, esp
  00003	83 e4 f0	 and	 esp, -16		; fffffff0H
  00006	6a ff		 push	 -1
  00008	68 00 00 00 00	 push	 __ehhandler$_main
  0000d	64 a1 00 00 00
	00		 mov	 eax, DWORD PTR fs:0
  00013	50		 push	 eax
  00014	83 ec 28	 sub	 esp, 40			; 00000028H
  00017	53		 push	 ebx
  00018	56		 push	 esi
  00019	57		 push	 edi
  0001a	a1 00 00 00 00	 mov	 eax, DWORD PTR ___security_cookie
  0001f	33 c4		 xor	 eax, esp
  00021	50		 push	 eax
  00022	8d 44 24 38	 lea	 eax, DWORD PTR __$EHRec$[esp+68]
  00026	64 a3 00 00 00
	00		 mov	 DWORD PTR fs:0, eax

; 312  : 
; 313  : 	unsigned	__int64	cycles = ReadTSC();		//vONNbN

  0002c	0f 31		 rdtsc
  0002e	8b d8		 mov	 ebx, eax

; 314  : 
; 315  : #ifdef	_DEBUG
; 316  : 
; 317  : 	static	const	char	iKey128[]={	0x2b, 0x7e, 0x15, 0x16, 
; 318  : 										0x28, 0xae, 0xd2, 0xa6, 
; 319  : 										0xab, 0xf7, 0x15, 0x88, 
; 320  : 										0x09, 0xcf, 0x4f, 0x3c};
; 321  : 
; 322  : 	static	const	char	iKey192[]={	0x8e, 0x73, 0xb0, 0xf7, 
; 323  : 										0xda, 0x0e, 0x64, 0x52, 
; 324  : 										0xc8, 0x10, 0xf3, 0x2b, 
; 325  : 										0x80, 0x90, 0x79, 0xe5, 
; 326  : 										0x62, 0xf8, 0xea, 0xd2, 
; 327  : 										0x52, 0x2c, 0x6b, 0x7b};
; 328  : 
; 329  : 	static	const	char	iKey256[]={	0x60, 0x3d, 0xeb, 0x10,
; 330  : 										0x15, 0xca, 0x71, 0xbe,
; 331  : 										0x2b, 0x73, 0xae, 0xf0,
; 332  : 										0x85, 0x7d, 0x77, 0x81,
; 333  : 										0x1f, 0x35, 0x2c, 0x07,
; 334  : 										0x3b, 0x61, 0x08, 0xd7,
; 335  : 										0x2d, 0x98, 0x10, 0xa3,
; 336  : 										0x09, 0x14, 0xdf, 0xf4};
; 337  : 
; 338  : 	AES_CBC128	cENC128;
; 339  : 	AES_CBC192	cENC192;
; 340  : 	AES_CBC256	cENC256;
; 341  : 
; 342  : 	printf("----------------\n");
; 343  : 	printf("KeyExp 128\n");
; 344  : 	cENC128.Set_Key((void*)iKey128);
; 345  : 
; 346  : 	printf("----------------\n");
; 347  : 	printf("KeyExp 192\n");
; 348  : 	cENC192.Set_Key((void*)iKey192);
; 349  : 
; 350  : 	printf("----------------\n");
; 351  : 	printf("KeyExp 256\n");
; 352  : 	cENC256.Set_Key((void*)iKey256);
; 353  : 
; 354  : #else
; 355  : 	
; 356  : 	//p
; 357  : 	union {
; 358  : 		unsigned	int		i[4];
; 359  : 		unsigned	__int64	i64[2];
; 360  : 	} __declspec(align(16)) randSeed;
; 361  : 
; 362  : 	//------------------
; 363  : 	//
; 364  : 	time((time_t*)&randSeed.i64[0]);	//1970NAob

  00030	8d 44 24 24	 lea	 eax, DWORD PTR _randSeed$[esp+68]
  00034	8b f2		 mov	 esi, edx
  00036	50		 push	 eax
  00037	89 74 24 24	 mov	 DWORD PTR $T108168[esp+76], esi
  0003b	e8 00 00 00 00	 call	 __time64
  00040	83 c4 04	 add	 esp, 4

; 365  : 	randSeed.i64[1] = cycles;			//donANbN
; 366  : 	cRandom	= new MT_SHA((unsigned long *)randSeed.i, sizeof(randSeed)/sizeof(int));		//MT

  00043	68 e0 0a 00 00	 push	 2784			; 00000ae0H
  00048	89 5c 24 30	 mov	 DWORD PTR _randSeed$[esp+80], ebx
  0004c	89 74 24 34	 mov	 DWORD PTR _randSeed$[esp+84], esi
  00050	e8 00 00 00 00	 call	 ??2@YAPAXI@Z		; operator new
  00055	8b f0		 mov	 esi, eax
  00057	83 c4 04	 add	 esp, 4
  0005a	89 74 24 18	 mov	 DWORD PTR $T108148[esp+68], esi
  0005e	c7 44 24 40 00
	00 00 00	 mov	 DWORD PTR __$EHRec$[esp+76], 0
  00066	85 f6		 test	 esi, esi
  00068	74 27		 je	 SHORT $LN5@main
  0006a	8d 4c 24 24	 lea	 ecx, DWORD PTR _randSeed$[esp+68]
  0006e	51		 push	 ecx
  0006f	c7 86 c0 09 00
	00 71 02 00 00	 mov	 DWORD PTR [esi+2496], 625 ; 00000271H
  00079	e8 00 00 00 00	 call	 ?init_by_array@MT@@QAEXQAKI@Z ; MT::init_by_array
  0007e	68 00 00 00 00	 push	 OFFSET ??_C@_07DKFLFLPF@SHA?9256?$AA@
  00083	8d 96 c4 09 00
	00		 lea	 edx, DWORD PTR [esi+2500]
  00089	52		 push	 edx
  0008a	e8 00 00 00 00	 call	 ??0SHA256@@QAE@QBD@Z	; SHA256::SHA256
  0008f	eb 02		 jmp	 SHORT $LN6@main
$LN5@main:
  00091	33 f6		 xor	 esi, esi
$LN6@main:
  00093	83 cf ff	 or	 edi, -1
  00096	89 7c 24 40	 mov	 DWORD PTR __$EHRec$[esp+76], edi

; 367  : 
; 368  : 	//------------------
; 369  : 	//IvV
; 370  : 	cOpsw	= new OPSW(argc, argv);

  0009a	68 84 00 00 00	 push	 132			; 00000084H
  0009f	89 35 00 00 00
	00		 mov	 DWORD PTR ?cRandom@@3PAVMT_SHA@@A, esi ; cRandom
  000a5	e8 00 00 00 00	 call	 ??2@YAPAXI@Z		; operator new
  000aa	83 c4 04	 add	 esp, 4
  000ad	89 44 24 18	 mov	 DWORD PTR $T108152[esp+68], eax
  000b1	c7 44 24 40 01
	00 00 00	 mov	 DWORD PTR __$EHRec$[esp+76], 1
  000b9	85 c0		 test	 eax, eax
  000bb	74 10		 je	 SHORT $LN7@main
  000bd	8b 4d 0c	 mov	 ecx, DWORD PTR _argv$[ebp]
  000c0	8b 55 08	 mov	 edx, DWORD PTR _argc$[ebp]
  000c3	51		 push	 ecx
  000c4	52		 push	 edx
  000c5	50		 push	 eax
  000c6	e8 00 00 00 00	 call	 ??0OPSW@@QAE@HQAPAD@Z	; OPSW::OPSW
  000cb	eb 02		 jmp	 SHORT $LN8@main
$LN7@main:
  000cd	33 c0		 xor	 eax, eax
$LN8@main:
  000cf	89 7c 24 40	 mov	 DWORD PTR __$EHRec$[esp+76], edi

; 371  : 
; 372  : 
; 373  : 	//------------------
; 374  : 	//Jn
; 375  : 	if(cOpsw->cDecipher == 0){

  000d3	80 78 10 00	 cmp	 BYTE PTR [eax+16], 0
  000d7	a3 00 00 00 00	 mov	 DWORD PTR ?cOpsw@@3PAVOPSW@@A, eax ; cOpsw
  000dc	75 07		 jne	 SHORT $LN2@main

; 376  : 		encrypt();		//

  000de	e8 00 00 00 00	 call	 ?encrypt@@YAXXZ		; encrypt

; 377  : 	} else {

  000e3	eb 05		 jmp	 SHORT $LN1@main
$LN2@main:

; 378  : 		decrypt();		//	

  000e5	e8 00 00 00 00	 call	 ?decrypt@@YAXXZ		; decrypt
$LN1@main:

; 379  : 	}
; 380  : 
; 381  : 	delete	cOpsw;

  000ea	8b 35 00 00 00
	00		 mov	 esi, DWORD PTR ?cOpsw@@3PAVOPSW@@A ; cOpsw
  000f0	8b fe		 mov	 edi, esi
  000f2	85 f6		 test	 esi, esi
  000f4	74 0e		 je	 SHORT $LN9@main
  000f6	e8 00 00 00 00	 call	 ??1OPSW@@QAE@XZ		; OPSW::~OPSW
  000fb	57		 push	 edi
  000fc	e8 00 00 00 00	 call	 ??3@YAXPAX@Z		; operator delete
  00101	83 c4 04	 add	 esp, 4
$LN9@main:

; 382  : 	delete	cRandom;

  00104	a1 00 00 00 00	 mov	 eax, DWORD PTR ?cRandom@@3PAVMT_SHA@@A ; cRandom
  00109	8b f8		 mov	 edi, eax
  0010b	85 c0		 test	 eax, eax
  0010d	74 1a		 je	 SHORT $LN11@main
  0010f	8d b0 c4 09 00
	00		 lea	 esi, DWORD PTR [eax+2500]
  00115	c7 06 00 00 00
	00		 mov	 DWORD PTR [esi], OFFSET ??_7SHA256@@6B@
  0011b	e8 00 00 00 00	 call	 ??1SHA@@QAE@XZ		; SHA::~SHA
  00120	57		 push	 edi
  00121	e8 00 00 00 00	 call	 ??3@YAXPAX@Z		; operator delete
  00126	83 c4 04	 add	 esp, 4
$LN11@main:

; 383  : 
; 384  : 
; 385  : #endif
; 386  : 
; 387  : 	cout	<<	"Success.\n"
; 388  : 				"Process cycles = "	<<	ReadTSC() - cycles	<<	endl;

  00129	0f 31		 rdtsc
  0012b	2b c3		 sub	 eax, ebx
  0012d	1b 54 24 20	 sbb	 edx, DWORD PTR $T108168[esp+72]
  00131	52		 push	 edx
  00132	50		 push	 eax
  00133	68 00 00 00 00	 push	 OFFSET ??_C@_0BL@MKNOCKIC@Success?4?6Process?5cycles?5?$DN?5?$AA@
  00138	68 00 00 00 00	 push	 OFFSET ?cout@std@@3V?$basic_ostream@DU?$char_traits@D@std@@@1@A ; std::cout
  0013d	e8 00 00 00 00	 call	 ??$?6U?$char_traits@D@std@@@std@@YAAAV?$basic_ostream@DU?$char_traits@D@std@@@0@AAV10@PBD@Z ; std::operator<<<std::char_traits<char> >
  00142	83 c4 08	 add	 esp, 8
  00145	50		 push	 eax
  00146	e8 00 00 00 00	 call	 ??6?$basic_ostream@DU?$char_traits@D@std@@@std@@QAEAAV01@_K@Z ; std::basic_ostream<char,std::char_traits<char> >::operator<<
  0014b	50		 push	 eax
  0014c	e8 00 00 00 00	 call	 ?endl@std@@YAAAV?$basic_ostream@DU?$char_traits@D@std@@@1@AAV21@@Z ; std::endl
  00151	83 c4 04	 add	 esp, 4

; 389  : 
; 390  : 	return 0;

  00154	33 c0		 xor	 eax, eax

; 391  : }

  00156	8b 4c 24 38	 mov	 ecx, DWORD PTR __$EHRec$[esp+68]
  0015a	64 89 0d 00 00
	00 00		 mov	 DWORD PTR fs:0, ecx
  00161	59		 pop	 ecx
  00162	5f		 pop	 edi
  00163	5e		 pop	 esi
  00164	5b		 pop	 ebx
  00165	8b e5		 mov	 esp, ebp
  00167	5d		 pop	 ebp
  00168	c3		 ret	 0
_TEXT	ENDS
;	COMDAT text$x
text$x	SEGMENT
__unwindfunclet$_main$0:
  00000	8b 45 d4	 mov	 eax, DWORD PTR $T108148[ebp]
  00003	50		 push	 eax
  00004	e8 00 00 00 00	 call	 ??3@YAXPAX@Z		; operator delete
  00009	59		 pop	 ecx
  0000a	c3		 ret	 0
__unwindfunclet$_main$1:
  0000b	8b 45 d4	 mov	 eax, DWORD PTR $T108152[ebp]
  0000e	50		 push	 eax
  0000f	e8 00 00 00 00	 call	 ??3@YAXPAX@Z		; operator delete
  00014	59		 pop	 ecx
  00015	c3		 ret	 0
__ehhandler$_main:
  00016	8b 54 24 08	 mov	 edx, DWORD PTR [esp+8]
  0001a	8d 42 cc	 lea	 eax, DWORD PTR [edx-52]
  0001d	8b 4a c8	 mov	 ecx, DWORD PTR [edx-56]
  00020	33 c8		 xor	 ecx, eax
  00022	e8 00 00 00 00	 call	 @__security_check_cookie@4
  00027	b8 00 00 00 00	 mov	 eax, OFFSET __ehfuncinfo$_main
  0002c	e9 00 00 00 00	 jmp	 ___CxxFrameHandler3
text$x	ENDS
_main	ENDP
; Function compile flags: /Ogtpy
;	COMDAT ??__FcontentType@?1??encrypt@@YAXXZ@YAXXZ
text$yd	SEGMENT
??__FcontentType@?1??encrypt@@YAXXZ@YAXXZ PROC		; `encrypt'::`2'::`dynamic atexit destructor for 'contentType'', COMDAT
  00000	a1 50 00 00 00	 mov	 eax, DWORD PTR ?contentType@?1??encrypt@@YAXXZ@4VObjectIdentifier@@A+80
  00005	57		 push	 edi
  00006	c7 05 00 00 00
	00 00 00 00 00	 mov	 DWORD PTR ?contentType@?1??encrypt@@YAXXZ@4VObjectIdentifier@@A, OFFSET ??_7ObjectIdentifier@@6B@
  00010	85 c0		 test	 eax, eax
  00012	74 09		 je	 SHORT $LN10@dynamic
  00014	50		 push	 eax
  00015	e8 00 00 00 00	 call	 ??3@YAXPAX@Z		; operator delete
  0001a	83 c4 04	 add	 esp, 4
$LN10@dynamic:
  0001d	a1 44 00 00 00	 mov	 eax, DWORD PTR ?contentType@?1??encrypt@@YAXXZ@4VObjectIdentifier@@A+68
  00022	50		 push	 eax
  00023	c7 05 50 00 00
	00 00 00 00 00	 mov	 DWORD PTR ?contentType@?1??encrypt@@YAXXZ@4VObjectIdentifier@@A+80, 0
  0002d	c7 05 54 00 00
	00 00 00 00 00	 mov	 DWORD PTR ?contentType@?1??encrypt@@YAXXZ@4VObjectIdentifier@@A+84, 0
  00037	c7 05 58 00 00
	00 00 00 00 00	 mov	 DWORD PTR ?contentType@?1??encrypt@@YAXXZ@4VObjectIdentifier@@A+88, 0
  00041	e8 00 00 00 00	 call	 ??3@YAXPAX@Z		; operator delete
  00046	83 c4 04	 add	 esp, 4
  00049	bf 00 00 00 00	 mov	 edi, OFFSET ?contentType@?1??encrypt@@YAXXZ@4VObjectIdentifier@@A
  0004e	e8 00 00 00 00	 call	 ??1ASN1@@QAE@XZ		; ASN1::~ASN1
  00053	5f		 pop	 edi
  00054	c3		 ret	 0
??__FcontentType@?1??encrypt@@YAXXZ@YAXXZ ENDP		; `encrypt'::`2'::`dynamic atexit destructor for 'contentType''
; Function compile flags: /Ogtpy
;	COMDAT ??__Ff_OUT@?1??decrypt@@YAXXZ@YAXXZ
text$yd	SEGMENT
??__Ff_OUT@?1??decrypt@@YAXXZ@YAXXZ PROC		; `decrypt'::`2'::`dynamic atexit destructor for 'f_OUT'', COMDAT
  00000	51		 push	 ecx
  00001	68 54 00 00 00	 push	 OFFSET ?f_OUT@?1??decrypt@@YAXXZ@4VFileOutput@@A+84
  00006	e8 00 00 00 00	 call	 ??1FileOutput@@UAE@XZ	; FileOutput::~FileOutput
  0000b	68 54 00 00 00	 push	 OFFSET ?f_OUT@?1??decrypt@@YAXXZ@4VFileOutput@@A+84
  00010	c7 05 54 00 00
	00 00 00 00 00	 mov	 DWORD PTR ?f_OUT@?1??decrypt@@YAXXZ@4VFileOutput@@A+84, OFFSET ??_7ios_base@std@@6B@
  0001a	e8 00 00 00 00	 call	 ?_Ios_base_dtor@ios_base@std@@CAXPAV12@@Z ; std::ios_base::_Ios_base_dtor
  0001f	83 c4 04	 add	 esp, 4
  00022	59		 pop	 ecx
  00023	c3		 ret	 0
??__Ff_OUT@?1??decrypt@@YAXXZ@YAXXZ ENDP		; `decrypt'::`2'::`dynamic atexit destructor for 'f_OUT''
; Function compile flags: /Ogtpy
text$yd	ENDS
;	COMDAT ??__Ff_IN@?1??encrypt@@YAXXZ@YAXXZ
text$yd	SEGMENT
??__Ff_IN@?1??encrypt@@YAXXZ@YAXXZ PROC			; `encrypt'::`2'::`dynamic atexit destructor for 'f_IN'', COMDAT
  00000	51		 push	 ecx
  00001	68 58 00 00 00	 push	 OFFSET ?f_IN@?1??encrypt@@YAXXZ@4VFileInput@@A+88
  00006	e8 00 00 00 00	 call	 ??1FileInput@@UAE@XZ	; FileInput::~FileInput
  0000b	68 58 00 00 00	 push	 OFFSET ?f_IN@?1??encrypt@@YAXXZ@4VFileInput@@A+88
  00010	c7 05 58 00 00
	00 00 00 00 00	 mov	 DWORD PTR ?f_IN@?1??encrypt@@YAXXZ@4VFileInput@@A+88, OFFSET ??_7ios_base@std@@6B@
  0001a	e8 00 00 00 00	 call	 ?_Ios_base_dtor@ios_base@std@@CAXPAV12@@Z ; std::ios_base::_Ios_base_dtor
  0001f	83 c4 04	 add	 esp, 4
  00022	59		 pop	 ecx
  00023	c3		 ret	 0
??__Ff_IN@?1??encrypt@@YAXXZ@YAXXZ ENDP			; `encrypt'::`2'::`dynamic atexit destructor for 'f_IN''
text$yd	ENDS
PUBLIC	?id@?$numpunct@D@std@@2V0locale@2@A		; std::numpunct<char>::id
PUBLIC	?id@?$num_put@DV?$ostreambuf_iterator@DU?$char_traits@D@std@@@std@@@std@@2V0locale@2@A ; std::num_put<char,std::ostreambuf_iterator<char,std::char_traits<char> > >::id
;	COMDAT ?id@?$numpunct@D@std@@2V0locale@2@A
_BSS	SEGMENT
?id@?$numpunct@D@std@@2V0locale@2@A DD 01H DUP (?)	; std::numpunct<char>::id
_BSS	ENDS
;	COMDAT ?id@?$num_put@DV?$ostreambuf_iterator@DU?$char_traits@D@std@@@std@@@std@@2V0locale@2@A
_BSS	SEGMENT
?id@?$num_put@DV?$ostreambuf_iterator@DU?$char_traits@D@std@@@std@@@std@@2V0locale@2@A DD 01H DUP (?) ; std::num_put<char,std::ostreambuf_iterator<char,std::char_traits<char> > >::id
CRT$XCU	ENDS
END
