; Listing generated by Microsoft (R) Optimizing Compiler Version 15.00.30729.01 

	TITLE	i:\?n????j\My Project\CMS\CMS\main.cpp
	.686P
	.XMM
	include listing.inc
	.model	flat

INCLUDELIB OLDNAMES

PUBLIC	??_R4failure@ios_base@std@@6B@			; std::ios_base::failure::`RTTI Complete Object Locator'
PUBLIC	??_R3failure@ios_base@std@@8			; std::ios_base::failure::`RTTI Class Hierarchy Descriptor'
PUBLIC	??_R2failure@ios_base@std@@8			; std::ios_base::failure::`RTTI Base Class Array'
PUBLIC	??_R1A@?0A@EA@failure@ios_base@std@@8		; std::ios_base::failure::`RTTI Base Class Descriptor at (0,-1,0,64)'
PUBLIC	??_R4facet@locale@std@@6B@			; std::locale::facet::`RTTI Complete Object Locator'
PUBLIC	??_R4runtime_error@std@@6B@			; std::runtime_error::`RTTI Complete Object Locator'
PUBLIC	??_R3runtime_error@std@@8			; std::runtime_error::`RTTI Class Hierarchy Descriptor'
PUBLIC	??_R2runtime_error@std@@8			; std::runtime_error::`RTTI Base Class Array'
PUBLIC	??_R1A@?0A@EA@runtime_error@std@@8		; std::runtime_error::`RTTI Base Class Descriptor at (0,-1,0,64)'
PUBLIC	??_R4?$basic_ios@DU?$char_traits@D@std@@@std@@6B@ ; std::basic_ios<char,std::char_traits<char> >::`RTTI Complete Object Locator'
PUBLIC	??_R3?$basic_ios@DU?$char_traits@D@std@@@std@@8	; std::basic_ios<char,std::char_traits<char> >::`RTTI Class Hierarchy Descriptor'
PUBLIC	??_R2?$basic_ios@DU?$char_traits@D@std@@@std@@8	; std::basic_ios<char,std::char_traits<char> >::`RTTI Base Class Array'
PUBLIC	??_R1A@?0A@EA@?$basic_ios@DU?$char_traits@D@std@@@std@@8 ; std::basic_ios<char,std::char_traits<char> >::`RTTI Base Class Descriptor at (0,-1,0,64)'
PUBLIC	??_R0?AV?$basic_ios@DU?$char_traits@D@std@@@std@@@8 ; std::basic_ios<char,std::char_traits<char> > `RTTI Type Descriptor'
PUBLIC	??_R4ios_base@std@@6B@				; std::ios_base::`RTTI Complete Object Locator'
PUBLIC	??_R3ios_base@std@@8				; std::ios_base::`RTTI Class Hierarchy Descriptor'
PUBLIC	??_R2ios_base@std@@8				; std::ios_base::`RTTI Base Class Array'
PUBLIC	??_R13?0A@EA@?$_Iosb@H@std@@8			; std::_Iosb<int>::`RTTI Base Class Descriptor at (4,-1,0,64)'
PUBLIC	??_R3?$_Iosb@H@std@@8				; std::_Iosb<int>::`RTTI Class Hierarchy Descriptor'
PUBLIC	??_R2?$_Iosb@H@std@@8				; std::_Iosb<int>::`RTTI Base Class Array'
PUBLIC	??_R1A@?0A@EA@?$_Iosb@H@std@@8			; std::_Iosb<int>::`RTTI Base Class Descriptor at (0,-1,0,64)'
PUBLIC	??_R0?AV?$_Iosb@H@std@@@8			; std::_Iosb<int> `RTTI Type Descriptor'
PUBLIC	??_R1A@?0A@EA@ios_base@std@@8			; std::ios_base::`RTTI Base Class Descriptor at (0,-1,0,64)'
PUBLIC	??_R0?AVios_base@std@@@8			; std::ios_base `RTTI Type Descriptor'
PUBLIC	??_R4bad_alloc@std@@6B@				; std::bad_alloc::`RTTI Complete Object Locator'
PUBLIC	??_R3bad_alloc@std@@8				; std::bad_alloc::`RTTI Class Hierarchy Descriptor'
PUBLIC	??_R2bad_alloc@std@@8				; std::bad_alloc::`RTTI Base Class Array'
PUBLIC	??_R1A@?0A@EA@exception@std@@8			; std::exception::`RTTI Base Class Descriptor at (0,-1,0,64)'
PUBLIC	??_R3exception@std@@8				; std::exception::`RTTI Class Hierarchy Descriptor'
PUBLIC	??_R2exception@std@@8				; std::exception::`RTTI Base Class Array'
PUBLIC	??_R1A@?0A@EA@bad_alloc@std@@8			; std::bad_alloc::`RTTI Base Class Descriptor at (0,-1,0,64)'
PUBLIC	??_R4?$num_put@DV?$ostreambuf_iterator@DU?$char_traits@D@std@@@std@@@std@@6B@ ; std::num_put<char,std::ostreambuf_iterator<char,std::char_traits<char> > >::`RTTI Complete Object Locator'
PUBLIC	??_R3?$num_put@DV?$ostreambuf_iterator@DU?$char_traits@D@std@@@std@@@std@@8 ; std::num_put<char,std::ostreambuf_iterator<char,std::char_traits<char> > >::`RTTI Class Hierarchy Descriptor'
PUBLIC	??_R2?$num_put@DV?$ostreambuf_iterator@DU?$char_traits@D@std@@@std@@@std@@8 ; std::num_put<char,std::ostreambuf_iterator<char,std::char_traits<char> > >::`RTTI Base Class Array'
PUBLIC	??_R1A@?0A@EA@?$num_put@DV?$ostreambuf_iterator@DU?$char_traits@D@std@@@std@@@std@@8 ; std::num_put<char,std::ostreambuf_iterator<char,std::char_traits<char> > >::`RTTI Base Class Descriptor at (0,-1,0,64)'
PUBLIC	??_R0?AV?$num_put@DV?$ostreambuf_iterator@DU?$char_traits@D@std@@@std@@@std@@@8 ; std::num_put<char,std::ostreambuf_iterator<char,std::char_traits<char> > > `RTTI Type Descriptor'
PUBLIC	??_R4?$numpunct@D@std@@6B@			; std::numpunct<char>::`RTTI Complete Object Locator'
PUBLIC	??_R3?$numpunct@D@std@@8			; std::numpunct<char>::`RTTI Class Hierarchy Descriptor'
PUBLIC	??_R2?$numpunct@D@std@@8			; std::numpunct<char>::`RTTI Base Class Array'
PUBLIC	??_R1A@?0A@EA@facet@locale@std@@8		; std::locale::facet::`RTTI Base Class Descriptor at (0,-1,0,64)'
PUBLIC	??_R3facet@locale@std@@8			; std::locale::facet::`RTTI Class Hierarchy Descriptor'
PUBLIC	??_R2facet@locale@std@@8			; std::locale::facet::`RTTI Base Class Array'
PUBLIC	??_R0?AVfacet@locale@std@@@8			; std::locale::facet `RTTI Type Descriptor'
PUBLIC	??_R1A@?0A@EA@?$numpunct@D@std@@8		; std::numpunct<char>::`RTTI Base Class Descriptor at (0,-1,0,64)'
PUBLIC	??_R0?AV?$numpunct@D@std@@@8			; std::numpunct<char> `RTTI Type Descriptor'
PUBLIC	?put@?$num_put@DV?$ostreambuf_iterator@DU?$char_traits@D@std@@@std@@@std@@QBE?AV?$ostreambuf_iterator@DU?$char_traits@D@std@@@2@V32@AAVios_base@2@DJ@Z ; std::num_put<char,std::ostreambuf_iterator<char,std::char_traits<char> > >::put
PUBLIC	??6?$basic_ostream@DU?$char_traits@D@std@@@std@@QAEAAV01@H@Z ; std::basic_ostream<char,std::char_traits<char> >::operator<<
PUBLIC	?dec@std@@YAAAVios_base@1@AAV21@@Z		; std::dec
PUBLIC	?setf@ios_base@std@@QAEHHH@Z			; std::ios_base::setf
PUBLIC	?hex@std@@YAAAVios_base@1@AAV21@@Z		; std::hex
PUBLIC	??6?$basic_ostream@DU?$char_traits@D@std@@@std@@QAEAAV01@P6AAAVios_base@1@AAV21@@Z@Z ; std::basic_ostream<char,std::char_traits<char> >::operator<<
PUBLIC	?put@?$num_put@DV?$ostreambuf_iterator@DU?$char_traits@D@std@@@std@@@std@@QBE?AV?$ostreambuf_iterator@DU?$char_traits@D@std@@@2@V32@AAVios_base@2@DK@Z ; std::num_put<char,std::ostreambuf_iterator<char,std::char_traits<char> > >::put
PUBLIC	??6?$basic_ostream@DU?$char_traits@D@std@@@std@@QAEAAV01@I@Z ; std::basic_ostream<char,std::char_traits<char> >::operator<<
PUBLIC	??0?$_Fillobj@D@std@@QAE@D@Z			; std::_Fillobj<char>::_Fillobj<char>
PUBLIC	??$setfill@D@std@@YA?AU?$_Fillobj@D@0@D@Z	; std::setfill<char>
PUBLIC	?fill@?$basic_ios@DU?$char_traits@D@std@@@std@@QAEDD@Z ; std::basic_ios<char,std::char_traits<char> >::fill
PUBLIC	??$?6DU?$char_traits@D@std@@@std@@YAAAV?$basic_ostream@DU?$char_traits@D@std@@@0@AAV10@ABU?$_Fillobj@D@0@@Z ; std::operator<<<char,std::char_traits<char> >
PUBLIC	??$?6DU?$char_traits@D@std@@H@std@@YAAAV?$basic_ostream@DU?$char_traits@D@std@@@0@AAV10@ABU?$_Smanip@H@0@@Z ; std::operator<<<char,std::char_traits<char>,int>
PUBLIC	??_DFileInput@@QAEXXZ				; FileInput::`vbase destructor'
PUBLIC	?empty@?$basic_string@DU?$char_traits@D@std@@V?$allocator@D@2@@std@@QBE_NXZ ; std::basic_string<char,std::char_traits<char>,std::allocator<char> >::empty
PUBLIC	??Bios_base@std@@QBEPAXXZ			; std::ios_base::operator void *
PUBLIC	??_Gios_base@std@@UAEPAXI@Z			; std::ios_base::`scalar deleting destructor'
PUBLIC	??1ios_base@std@@UAE@XZ				; std::ios_base::~ios_base
PUBLIC	??_G?$basic_ios@DU?$char_traits@D@std@@@std@@UAEPAXI@Z ; std::basic_ios<char,std::char_traits<char> >::`scalar deleting destructor'
PUBLIC	??1?$basic_ios@DU?$char_traits@D@std@@@std@@UAE@XZ ; std::basic_ios<char,std::char_traits<char> >::~basic_ios<char,std::char_traits<char> >
PUBLIC	??_DFileOutput@@QAEXXZ				; FileOutput::`vbase destructor'
PUBLIC	?put@?$basic_ostream@DU?$char_traits@D@std@@@std@@QAEAAV12@D@Z ; std::basic_ostream<char,std::char_traits<char> >::put
PUBLIC	?endl@std@@YAAAV?$basic_ostream@DU?$char_traits@D@std@@@1@AAV21@@Z ; std::endl
PUBLIC	??6?$basic_ostream@DU?$char_traits@D@std@@@std@@QAEAAV01@P6AAAV01@AAV01@@Z@Z ; std::basic_ostream<char,std::char_traits<char> >::operator<<
PUBLIC	?_Init@?$num_put@DV?$ostreambuf_iterator@DU?$char_traits@D@std@@@std@@@std@@IAEXABV_Locinfo@2@@Z ; std::num_put<char,std::ostreambuf_iterator<char,std::char_traits<char> > >::_Init
PUBLIC	?assign@?$basic_string@DU?$char_traits@D@std@@V?$allocator@D@2@@std@@QAEAAV12@ABV12@@Z ; std::basic_string<char,std::char_traits<char>,std::allocator<char> >::assign
PUBLIC	?_Put@?$num_put@DV?$ostreambuf_iterator@DU?$char_traits@D@std@@@std@@@std@@ABA?AV?$ostreambuf_iterator@DU?$char_traits@D@std@@@2@V32@PBDI@Z ; std::num_put<char,std::ostreambuf_iterator<char,std::char_traits<char> > >::_Put
PUBLIC	?falsename@?$numpunct@D@std@@QBE?AV?$basic_string@DU?$char_traits@D@std@@V?$allocator@D@2@@2@XZ ; std::numpunct<char>::falsename
PUBLIC	?truename@?$numpunct@D@std@@QBE?AV?$basic_string@DU?$char_traits@D@std@@V?$allocator@D@2@@2@XZ ; std::numpunct<char>::truename
PUBLIC	?do_put@?$num_put@DV?$ostreambuf_iterator@DU?$char_traits@D@std@@@std@@@std@@MBE?AV?$ostreambuf_iterator@DU?$char_traits@D@std@@@2@V32@AAVios_base@2@D_N@Z ; std::num_put<char,std::ostreambuf_iterator<char,std::char_traits<char> > >::do_put
PUBLIC	?do_put@?$num_put@DV?$ostreambuf_iterator@DU?$char_traits@D@std@@@std@@@std@@MBE?AV?$ostreambuf_iterator@DU?$char_traits@D@std@@@2@V32@AAVios_base@2@DJ@Z ; std::num_put<char,std::ostreambuf_iterator<char,std::char_traits<char> > >::do_put
PUBLIC	?do_put@?$num_put@DV?$ostreambuf_iterator@DU?$char_traits@D@std@@@std@@@std@@MBE?AV?$ostreambuf_iterator@DU?$char_traits@D@std@@@2@V32@AAVios_base@2@DK@Z ; std::num_put<char,std::ostreambuf_iterator<char,std::char_traits<char> > >::do_put
PUBLIC	?do_put@?$num_put@DV?$ostreambuf_iterator@DU?$char_traits@D@std@@@std@@@std@@MBE?AV?$ostreambuf_iterator@DU?$char_traits@D@std@@@2@V32@AAVios_base@2@D_J@Z ; std::num_put<char,std::ostreambuf_iterator<char,std::char_traits<char> > >::do_put
PUBLIC	?_Ifmt@?$num_put@DV?$ostreambuf_iterator@DU?$char_traits@D@std@@@std@@@std@@ABAPADPADPBDH@Z ; std::num_put<char,std::ostreambuf_iterator<char,std::char_traits<char> > >::_Ifmt
PUBLIC	?do_put@?$num_put@DV?$ostreambuf_iterator@DU?$char_traits@D@std@@@std@@@std@@MBE?AV?$ostreambuf_iterator@DU?$char_traits@D@std@@@2@V32@AAVios_base@2@D_K@Z ; std::num_put<char,std::ostreambuf_iterator<char,std::char_traits<char> > >::do_put
PUBLIC	?do_put@?$num_put@DV?$ostreambuf_iterator@DU?$char_traits@D@std@@@std@@@std@@MBE?AV?$ostreambuf_iterator@DU?$char_traits@D@std@@@2@V32@AAVios_base@2@DN@Z ; std::num_put<char,std::ostreambuf_iterator<char,std::char_traits<char> > >::do_put
PUBLIC	?precision@ios_base@std@@QBEHXZ			; std::ios_base::precision
PUBLIC	?_Ffmt@?$num_put@DV?$ostreambuf_iterator@DU?$char_traits@D@std@@@std@@@std@@ABAPADPADDH@Z ; std::num_put<char,std::ostreambuf_iterator<char,std::char_traits<char> > >::_Ffmt
PUBLIC	?append@?$basic_string@DU?$char_traits@D@std@@V?$allocator@D@2@@std@@QAEAAV12@ABV12@II@Z ; std::basic_string<char,std::char_traits<char>,std::allocator<char> >::append
PUBLIC	?append@?$basic_string@DU?$char_traits@D@std@@V?$allocator@D@2@@std@@QAEAAV12@PBDI@Z ; std::basic_string<char,std::char_traits<char>,std::allocator<char> >::append
PUBLIC	?append@?$basic_string@DU?$char_traits@D@std@@V?$allocator@D@2@@std@@QAEAAV12@ID@Z ; std::basic_string<char,std::char_traits<char>,std::allocator<char> >::append
PUBLIC	?assign@?$char_traits@D@std@@SAPADPADID@Z	; std::char_traits<char>::assign
PUBLIC	?_Chassign@?$basic_string@DU?$char_traits@D@std@@V?$allocator@D@2@@std@@IAEXIID@Z ; std::basic_string<char,std::char_traits<char>,std::allocator<char> >::_Chassign
PUBLIC	?insert@?$basic_string@DU?$char_traits@D@std@@V?$allocator@D@2@@std@@QAEAAV12@IID@Z ; std::basic_string<char,std::char_traits<char>,std::allocator<char> >::insert
PUBLIC	??A?$basic_string@DU?$char_traits@D@std@@V?$allocator@D@2@@std@@QAEAADI@Z ; std::basic_string<char,std::char_traits<char>,std::allocator<char> >::operator[]
PUBLIC	?decimal_point@?$numpunct@D@std@@QBEDXZ		; std::numpunct<char>::decimal_point
PUBLIC	?_Fput@?$num_put@DV?$ostreambuf_iterator@DU?$char_traits@D@std@@@std@@@std@@ABA?AV?$ostreambuf_iterator@DU?$char_traits@D@std@@@2@V32@AAVios_base@2@DPBDIIII@Z ; std::num_put<char,std::ostreambuf_iterator<char,std::char_traits<char> > >::_Fput
PUBLIC	?do_put@?$num_put@DV?$ostreambuf_iterator@DU?$char_traits@D@std@@@std@@@std@@MBE?AV?$ostreambuf_iterator@DU?$char_traits@D@std@@@2@V32@AAVios_base@2@DO@Z ; std::num_put<char,std::ostreambuf_iterator<char,std::char_traits<char> > >::do_put
PUBLIC	??0locale@std@@QAE@ABV01@@Z			; std::locale::locale
PUBLIC	?_Decref@facet@locale@std@@QAEPAV123@XZ		; std::locale::facet::_Decref
PUBLIC	??1locale@std@@QAE@XZ				; std::locale::~locale
PUBLIC	?getloc@ios_base@std@@QBE?AVlocale@2@XZ		; std::ios_base::getloc
PUBLIC	?_Putc@?$num_put@DV?$ostreambuf_iterator@DU?$char_traits@D@std@@@std@@@std@@ABA?AV?$ostreambuf_iterator@DU?$char_traits@D@std@@@2@V32@PBDI@Z ; std::num_put<char,std::ostreambuf_iterator<char,std::char_traits<char> > >::_Putc
PUBLIC	?_Putgrouped@?$num_put@DV?$ostreambuf_iterator@DU?$char_traits@D@std@@@std@@@std@@ABA?AV?$ostreambuf_iterator@DU?$char_traits@D@std@@@2@V32@PBDID@Z ; std::num_put<char,std::ostreambuf_iterator<char,std::char_traits<char> > >::_Putgrouped
PUBLIC	??4?$ostreambuf_iterator@DU?$char_traits@D@std@@@std@@QAEAAV01@D@Z ; std::ostreambuf_iterator<char,std::char_traits<char> >::operator=
PUBLIC	??D?$ostreambuf_iterator@DU?$char_traits@D@std@@@std@@QAEAAV01@XZ ; std::ostreambuf_iterator<char,std::char_traits<char> >::operator*
PUBLIC	??E?$ostreambuf_iterator@DU?$char_traits@D@std@@@std@@QAEAAV01@XZ ; std::ostreambuf_iterator<char,std::char_traits<char> >::operator++
PUBLIC	?_Rep@?$num_put@DV?$ostreambuf_iterator@DU?$char_traits@D@std@@@std@@@std@@ABA?AV?$ostreambuf_iterator@DU?$char_traits@D@std@@@2@V32@DI@Z ; std::num_put<char,std::ostreambuf_iterator<char,std::char_traits<char> > >::_Rep
PUBLIC	??Bid@locale@std@@QAEIXZ			; std::locale::id::operator unsigned int
PUBLIC	?_Incref@facet@locale@std@@QAEXXZ		; std::locale::facet::_Incref
PUBLIC	?_Register@facet@locale@std@@QAEXXZ		; std::locale::facet::_Register
PUBLIC	?_Getfacet@locale@std@@QBEPBVfacet@12@I@Z	; std::locale::_Getfacet
PUBLIC	??0?$basic_string@DU?$char_traits@D@std@@V?$allocator@D@2@@std@@QAE@XZ ; std::basic_string<char,std::char_traits<char>,std::allocator<char> >::basic_string<char,std::char_traits<char>,std::allocator<char> >
PUBLIC	??0_Locinfo@std@@QAE@ABV?$basic_string@DU?$char_traits@D@std@@V?$allocator@D@2@@1@@Z ; std::_Locinfo::_Locinfo
PUBLIC	??1_Locinfo@std@@QAE@XZ				; std::_Locinfo::~_Locinfo
PUBLIC	?name@locale@std@@QBE?AV?$basic_string@DU?$char_traits@D@std@@V?$allocator@D@2@@2@XZ ; std::locale::name
PUBLIC	??0facet@locale@std@@IAE@I@Z			; std::locale::facet::facet
PUBLIC	?_Getcvt@_Locinfo@std@@QBE?AU_Cvtvec@@XZ	; std::_Locinfo::_Getcvt
PUBLIC	?_Getlconv@_Locinfo@std@@QBEPBUlconv@@XZ	; std::_Locinfo::_Getlconv
PUBLIC	?_Getfalse@_Locinfo@std@@QBEPBDXZ		; std::_Locinfo::_Getfalse
PUBLIC	?_Gettrue@_Locinfo@std@@QBEPBDXZ		; std::_Locinfo::_Gettrue
PUBLIC	??$_Maklocchr@D@std@@YADDPADABU_Cvtvec@@@Z	; std::_Maklocchr<char>
PUBLIC	??$_Maklocstr@D@std@@YAPADPBDPADABU_Cvtvec@@@Z	; std::_Maklocstr<char>
PUBLIC	?_Init@?$numpunct@D@std@@IAEXABV_Locinfo@2@_N@Z	; std::numpunct<char>::_Init
PUBLIC	?do_decimal_point@?$numpunct@D@std@@MBEDXZ	; std::numpunct<char>::do_decimal_point
PUBLIC	?do_thousands_sep@?$numpunct@D@std@@MBEDXZ	; std::numpunct<char>::do_thousands_sep
PUBLIC	?do_grouping@?$numpunct@D@std@@MBE?AV?$basic_string@DU?$char_traits@D@std@@V?$allocator@D@2@@2@XZ ; std::numpunct<char>::do_grouping
PUBLIC	?do_falsename@?$numpunct@D@std@@MBE?AV?$basic_string@DU?$char_traits@D@std@@V?$allocator@D@2@@2@XZ ; std::numpunct<char>::do_falsename
PUBLIC	?do_truename@?$numpunct@D@std@@MBE?AV?$basic_string@DU?$char_traits@D@std@@V?$allocator@D@2@@2@XZ ; std::numpunct<char>::do_truename
PUBLIC	?_Tidy@?$numpunct@D@std@@AAEXXZ			; std::numpunct<char>::_Tidy
PUBLIC	??1?$numpunct@D@std@@MAE@XZ			; std::numpunct<char>::~numpunct<char>
PUBLIC	??_G?$numpunct@D@std@@MAEPAXI@Z			; std::numpunct<char>::`scalar deleting destructor'
PUBLIC	??0?$numpunct@D@std@@QAE@ABV_Locinfo@1@I_N@Z	; std::numpunct<char>::numpunct<char>
PUBLIC	?_Getcat@?$numpunct@D@std@@SAIPAPBVfacet@locale@2@PBV42@@Z ; std::numpunct<char>::_Getcat
PUBLIC	??$use_facet@V?$numpunct@D@std@@@std@@YAABV?$numpunct@D@0@ABVlocale@0@@Z ; std::use_facet<std::numpunct<char> >
PUBLIC	?thousands_sep@?$numpunct@D@std@@QBEDXZ		; std::numpunct<char>::thousands_sep
PUBLIC	?grouping@?$numpunct@D@std@@QBE?AV?$basic_string@DU?$char_traits@D@std@@V?$allocator@D@2@@2@XZ ; std::numpunct<char>::grouping
PUBLIC	?_Iput@?$num_put@DV?$ostreambuf_iterator@DU?$char_traits@D@std@@@std@@@std@@ABA?AV?$ostreambuf_iterator@DU?$char_traits@D@std@@@2@V32@AAVios_base@2@DPADI@Z ; std::num_put<char,std::ostreambuf_iterator<char,std::char_traits<char> > >::_Iput
PUBLIC	?do_put@?$num_put@DV?$ostreambuf_iterator@DU?$char_traits@D@std@@@std@@@std@@MBE?AV?$ostreambuf_iterator@DU?$char_traits@D@std@@@2@V32@AAVios_base@2@DPBX@Z ; std::num_put<char,std::ostreambuf_iterator<char,std::char_traits<char> > >::do_put
PUBLIC	??_Gfacet@locale@std@@UAEPAXI@Z			; std::locale::facet::`scalar deleting destructor'
PUBLIC	??1facet@locale@std@@UAE@XZ			; std::locale::facet::~facet
PUBLIC	??1?$num_put@DV?$ostreambuf_iterator@DU?$char_traits@D@std@@@std@@@std@@MAE@XZ ; std::num_put<char,std::ostreambuf_iterator<char,std::char_traits<char> > >::~num_put<char,std::ostreambuf_iterator<char,std::char_traits<char> > >
PUBLIC	??_G?$num_put@DV?$ostreambuf_iterator@DU?$char_traits@D@std@@@std@@@std@@MAEPAXI@Z ; std::num_put<char,std::ostreambuf_iterator<char,std::char_traits<char> > >::`scalar deleting destructor'
PUBLIC	??0?$num_put@DV?$ostreambuf_iterator@DU?$char_traits@D@std@@@std@@@std@@QAE@ABV_Locinfo@1@I@Z ; std::num_put<char,std::ostreambuf_iterator<char,std::char_traits<char> > >::num_put<char,std::ostreambuf_iterator<char,std::char_traits<char> > >
PUBLIC	?_Getcat@?$num_put@DV?$ostreambuf_iterator@DU?$char_traits@D@std@@@std@@@std@@SAIPAPBVfacet@locale@2@PBV42@@Z ; std::num_put<char,std::ostreambuf_iterator<char,std::char_traits<char> > >::_Getcat
PUBLIC	??$use_facet@V?$num_put@DV?$ostreambuf_iterator@DU?$char_traits@D@std@@@std@@@std@@@std@@YAABV?$num_put@DV?$ostreambuf_iterator@DU?$char_traits@D@std@@@std@@@0@ABVlocale@0@@Z ; std::use_facet<std::num_put<char,std::ostreambuf_iterator<char,std::char_traits<char> > > >
PUBLIC	?put@?$num_put@DV?$ostreambuf_iterator@DU?$char_traits@D@std@@@std@@@std@@QBE?AV?$ostreambuf_iterator@DU?$char_traits@D@std@@@2@V32@AAVios_base@2@D_K@Z ; std::num_put<char,std::ostreambuf_iterator<char,std::char_traits<char> > >::put
PUBLIC	??0?$ostreambuf_iterator@DU?$char_traits@D@std@@@std@@QAE@PAV?$basic_streambuf@DU?$char_traits@D@std@@@1@@Z ; std::ostreambuf_iterator<char,std::char_traits<char> >::ostreambuf_iterator<char,std::char_traits<char> >
PUBLIC	?failed@?$ostreambuf_iterator@DU?$char_traits@D@std@@@std@@QBE_NXZ ; std::ostreambuf_iterator<char,std::char_traits<char> >::failed
PUBLIC	??6?$basic_ostream@DU?$char_traits@D@std@@@std@@QAEAAV01@_K@Z ; std::basic_ostream<char,std::char_traits<char> >::operator<<
PUBLIC	??_GOPSW@@QAEPAXI@Z				; OPSW::`scalar deleting destructor'
PUBLIC	??_GMT_SHA@@QAEPAXI@Z				; MT_SHA::`scalar deleting destructor'
PUBLIC	?eq_int_type@?$char_traits@D@std@@SA_NABH0@Z	; std::char_traits<char>::eq_int_type
PUBLIC	?eof@?$char_traits@D@std@@SAHXZ			; std::char_traits<char>::eof
PUBLIC	?width@ios_base@std@@QBEHXZ			; std::ios_base::width
PUBLIC	?width@ios_base@std@@QAEHH@Z			; std::ios_base::width
PUBLIC	?fill@?$basic_ios@DU?$char_traits@D@std@@@std@@QBEDXZ ; std::basic_ios<char,std::char_traits<char> >::fill
PUBLIC	?to_int_type@?$char_traits@D@std@@SAHABD@Z	; std::char_traits<char>::to_int_type
PUBLIC	?_Pninc@?$basic_streambuf@DU?$char_traits@D@std@@@std@@IAEPADXZ ; std::basic_streambuf<char,std::char_traits<char> >::_Pninc
PUBLIC	?_Pnavail@?$basic_streambuf@DU?$char_traits@D@std@@@std@@IBEHXZ ; std::basic_streambuf<char,std::char_traits<char> >::_Pnavail
PUBLIC	?sputc@?$basic_streambuf@DU?$char_traits@D@std@@@std@@QAEHD@Z ; std::basic_streambuf<char,std::char_traits<char> >::sputc
PUBLIC	?sputn@?$basic_streambuf@DU?$char_traits@D@std@@@std@@QAEHPBDH@Z ; std::basic_streambuf<char,std::char_traits<char> >::sputn
PUBLIC	?good@ios_base@std@@QBE_NXZ			; std::ios_base::good
PUBLIC	?tie@?$basic_ios@DU?$char_traits@D@std@@@std@@QBEPAV?$basic_ostream@DU?$char_traits@D@std@@@2@XZ ; std::basic_ios<char,std::char_traits<char> >::tie
PUBLIC	?_Lock@?$basic_streambuf@DU?$char_traits@D@std@@@std@@QAEXXZ ; std::basic_streambuf<char,std::char_traits<char> >::_Lock
PUBLIC	??0_Sentry_base@?$basic_ostream@DU?$char_traits@D@std@@@std@@QAE@AAV12@@Z ; std::basic_ostream<char,std::char_traits<char> >::_Sentry_base::_Sentry_base
PUBLIC	??0sentry@?$basic_ostream@DU?$char_traits@D@std@@@std@@QAE@AAV12@@Z ; std::basic_ostream<char,std::char_traits<char> >::sentry::sentry
PUBLIC	?flags@ios_base@std@@QBEHXZ			; std::ios_base::flags
PUBLIC	?fail@ios_base@std@@QBE_NXZ			; std::ios_base::fail
PUBLIC	?rdstate@ios_base@std@@QBEHXZ			; std::ios_base::rdstate
PUBLIC	??0?$allocator@D@std@@QAE@XZ			; std::allocator<char>::allocator<char>
PUBLIC	??0?$_String_val@DV?$allocator@D@std@@@std@@IAE@V?$allocator@D@1@@Z ; std::_String_val<char,std::allocator<char> >::_String_val<char,std::allocator<char> >
PUBLIC	?length@?$char_traits@D@std@@SAIPBD@Z		; std::char_traits<char>::length
PUBLIC	?_Inside@?$basic_string@DU?$char_traits@D@std@@V?$allocator@D@2@@std@@IAE_NPBD@Z ; std::basic_string<char,std::char_traits<char>,std::allocator<char> >::_Inside
PUBLIC	?assign@?$basic_string@DU?$char_traits@D@std@@V?$allocator@D@2@@std@@QAEAAV12@PBDI@Z ; std::basic_string<char,std::char_traits<char>,std::allocator<char> >::assign
PUBLIC	?assign@?$basic_string@DU?$char_traits@D@std@@V?$allocator@D@2@@std@@QAEAAV12@PBD@Z ; std::basic_string<char,std::char_traits<char>,std::allocator<char> >::assign
PUBLIC	??0?$basic_string@DU?$char_traits@D@std@@V?$allocator@D@2@@std@@QAE@PBD@Z ; std::basic_string<char,std::char_traits<char>,std::allocator<char> >::basic_string<char,std::char_traits<char>,std::allocator<char> >
PUBLIC	??0runtime_error@std@@QAE@ABV?$basic_string@DU?$char_traits@D@std@@V?$allocator@D@2@@1@@Z ; std::runtime_error::runtime_error
PUBLIC	??0failure@ios_base@std@@QAE@ABV?$basic_string@DU?$char_traits@D@std@@V?$allocator@D@2@@2@@Z ; std::ios_base::failure::failure
PUBLIC	??0?$allocator@D@std@@QAE@ABV01@@Z		; std::allocator<char>::allocator<char>
PUBLIC	??0?$_String_val@DV?$allocator@D@std@@@std@@QAE@ABV01@@Z ; std::_String_val<char,std::allocator<char> >::_String_val<char,std::allocator<char> >
PUBLIC	?_Move_s@?$char_traits@D@std@@SAPADPADIPBDI@Z	; std::char_traits<char>::_Move_s
PUBLIC	??$move_s@U?$char_traits@D@std@@@_Traits_helper@std@@YAPADPADIPBDIU_Secure_char_traits_tag@1@@Z ; std::_Traits_helper::move_s<std::char_traits<char> >
PUBLIC	??$move_s@U?$char_traits@D@std@@@_Traits_helper@std@@YAPADPADIPBDI@Z ; std::_Traits_helper::move_s<std::char_traits<char> >
PUBLIC	?erase@?$basic_string@DU?$char_traits@D@std@@V?$allocator@D@2@@std@@QAEAAV12@II@Z ; std::basic_string<char,std::char_traits<char>,std::allocator<char> >::erase
PUBLIC	?size@?$basic_string@DU?$char_traits@D@std@@V?$allocator@D@2@@std@@QBEIXZ ; std::basic_string<char,std::char_traits<char>,std::allocator<char> >::size
PUBLIC	??0bad_alloc@std@@QAE@PBD@Z			; std::bad_alloc::bad_alloc
PUBLIC	??1bad_alloc@std@@UAE@XZ			; std::bad_alloc::~bad_alloc
PUBLIC	??_Gbad_alloc@std@@UAEPAXI@Z			; std::bad_alloc::`scalar deleting destructor'
PUBLIC	??0bad_alloc@std@@QAE@ABV01@@Z			; std::bad_alloc::bad_alloc
PUBLIC	??$_Allocate@D@std@@YAPADIPAD@Z			; std::_Allocate<char>
PUBLIC	?allocate@?$allocator@D@std@@QAEPADI@Z		; std::allocator<char>::allocate
PUBLIC	?max_size@?$allocator@D@std@@QBEIXZ		; std::allocator<char>::max_size
PUBLIC	?max_size@?$basic_string@DU?$char_traits@D@std@@V?$allocator@D@2@@std@@QBEIXZ ; std::basic_string<char,std::char_traits<char>,std::allocator<char> >::max_size
PUBLIC	?_Copy@?$basic_string@DU?$char_traits@D@std@@V?$allocator@D@2@@std@@IAEXII@Z ; std::basic_string<char,std::char_traits<char>,std::allocator<char> >::_Copy
PUBLIC	?_Grow@?$basic_string@DU?$char_traits@D@std@@V?$allocator@D@2@@std@@IAE_NI_N@Z ; std::basic_string<char,std::char_traits<char>,std::allocator<char> >::_Grow
PUBLIC	?assign@?$basic_string@DU?$char_traits@D@std@@V?$allocator@D@2@@std@@QAEAAV12@ABV12@II@Z ; std::basic_string<char,std::char_traits<char>,std::allocator<char> >::assign
PUBLIC	??0?$basic_string@DU?$char_traits@D@std@@V?$allocator@D@2@@std@@QAE@ABV01@@Z ; std::basic_string<char,std::char_traits<char>,std::allocator<char> >::basic_string<char,std::char_traits<char>,std::allocator<char> >
PUBLIC	??0runtime_error@std@@QAE@ABV01@@Z		; std::runtime_error::runtime_error
PUBLIC	?deallocate@?$allocator@D@std@@QAEXPADI@Z	; std::allocator<char>::deallocate
PUBLIC	?assign@?$char_traits@D@std@@SAXAADABD@Z	; std::char_traits<char>::assign
PUBLIC	?_Myptr@?$basic_string@DU?$char_traits@D@std@@V?$allocator@D@2@@std@@IAEPADXZ ; std::basic_string<char,std::char_traits<char>,std::allocator<char> >::_Myptr
PUBLIC	?_Eos@?$basic_string@DU?$char_traits@D@std@@V?$allocator@D@2@@std@@IAEXI@Z ; std::basic_string<char,std::char_traits<char>,std::allocator<char> >::_Eos
PUBLIC	??$_Char_traits_cat@U?$char_traits@D@std@@@std@@YA?AU_Secure_char_traits_tag@0@XZ ; std::_Char_traits_cat<std::char_traits<char> >
PUBLIC	?_Copy_s@?$char_traits@D@std@@SAPADPADIPBDI@Z	; std::char_traits<char>::_Copy_s
PUBLIC	??$copy_s@U?$char_traits@D@std@@@_Traits_helper@std@@YAPADPADIPBDIU_Secure_char_traits_tag@1@@Z ; std::_Traits_helper::copy_s<std::char_traits<char> >
PUBLIC	??$copy_s@U?$char_traits@D@std@@@_Traits_helper@std@@YAPADPADIPBDI@Z ; std::_Traits_helper::copy_s<std::char_traits<char> >
PUBLIC	?_Tidy@?$basic_string@DU?$char_traits@D@std@@V?$allocator@D@2@@std@@IAEX_NI@Z ; std::basic_string<char,std::char_traits<char>,std::allocator<char> >::_Tidy
PUBLIC	??1?$basic_string@DU?$char_traits@D@std@@V?$allocator@D@2@@std@@QAE@XZ ; std::basic_string<char,std::char_traits<char>,std::allocator<char> >::~basic_string<char,std::char_traits<char>,std::allocator<char> >
PUBLIC	?_Myptr@?$basic_string@DU?$char_traits@D@std@@V?$allocator@D@2@@std@@IBEPBDXZ ; std::basic_string<char,std::char_traits<char>,std::allocator<char> >::_Myptr
PUBLIC	?c_str@?$basic_string@DU?$char_traits@D@std@@V?$allocator@D@2@@std@@QBEPBDXZ ; std::basic_string<char,std::char_traits<char>,std::allocator<char> >::c_str
PUBLIC	?what@runtime_error@std@@UBEPBDXZ		; std::runtime_error::what
PUBLIC	??_Gruntime_error@std@@UAEPAXI@Z		; std::runtime_error::`scalar deleting destructor'
PUBLIC	??1runtime_error@std@@UAE@XZ			; std::runtime_error::~runtime_error
PUBLIC	??1failure@ios_base@std@@UAE@XZ			; std::ios_base::failure::~failure
PUBLIC	??_Gfailure@ios_base@std@@UAEPAXI@Z		; std::ios_base::failure::`scalar deleting destructor'
PUBLIC	??0failure@ios_base@std@@QAE@ABV012@@Z		; std::ios_base::failure::failure
PUBLIC	?clear@ios_base@std@@QAEXH_N@Z			; std::ios_base::clear
PUBLIC	?clear@?$basic_ios@DU?$char_traits@D@std@@@std@@QAEXH_N@Z ; std::basic_ios<char,std::char_traits<char> >::clear
PUBLIC	?setstate@?$basic_ios@DU?$char_traits@D@std@@@std@@QAEXH_N@Z ; std::basic_ios<char,std::char_traits<char> >::setstate
PUBLIC	?pubsync@?$basic_streambuf@DU?$char_traits@D@std@@@std@@QAEHXZ ; std::basic_streambuf<char,std::char_traits<char> >::pubsync
PUBLIC	?flush@?$basic_ostream@DU?$char_traits@D@std@@@std@@QAEAAV12@XZ ; std::basic_ostream<char,std::char_traits<char> >::flush
PUBLIC	?_Osfx@?$basic_ostream@DU?$char_traits@D@std@@@std@@QAEXXZ ; std::basic_ostream<char,std::char_traits<char> >::_Osfx
PUBLIC	?rdbuf@?$basic_ios@DU?$char_traits@D@std@@@std@@QBEPAV?$basic_streambuf@DU?$char_traits@D@std@@@2@XZ ; std::basic_ios<char,std::char_traits<char> >::rdbuf
PUBLIC	?_Unlock@?$basic_streambuf@DU?$char_traits@D@std@@@std@@QAEXXZ ; std::basic_streambuf<char,std::char_traits<char> >::_Unlock
PUBLIC	??1_Sentry_base@?$basic_ostream@DU?$char_traits@D@std@@@std@@QAE@XZ ; std::basic_ostream<char,std::char_traits<char> >::_Sentry_base::~_Sentry_base
PUBLIC	??1sentry@?$basic_ostream@DU?$char_traits@D@std@@@std@@QAE@XZ ; std::basic_ostream<char,std::char_traits<char> >::sentry::~sentry
PUBLIC	??Bsentry@?$basic_ostream@DU?$char_traits@D@std@@@std@@QBE_NXZ ; std::basic_ostream<char,std::char_traits<char> >::sentry::operator bool
PUBLIC	??$?6U?$char_traits@D@std@@@std@@YAAAV?$basic_ostream@DU?$char_traits@D@std@@@0@AAV10@PBD@Z ; std::operator<<<std::char_traits<char> >
PUBLIC	??0id@locale@std@@QAE@I@Z			; std::locale::id::id
PUBLIC	?cOpsw@@3PAVOPSW@@A				; cOpsw
PUBLIC	?cRandom@@3PAVMT_SHA@@A				; cRandom
PUBLIC	??_C@_01CLKCMJKC@?5?$AA@			; `string'
PUBLIC	??_C@_0BC@MPENPPNL@Object?5Identifier?$AA@	; `string'
PUBLIC	??_C@_0BD@DEHKJKGA@Now?5enciphering?4?4?4?$AA@	; `string'
PUBLIC	??_C@_06MPKGPFAO@PKCS?$CD8?$AA@			; `string'
PUBLIC	??_C@_0BA@HLPOIFPO@undefined?5type?4?$AA@	; `string'
PUBLIC	??_C@_00CNPNBAHC@?$AA@				; `string'
PUBLIC	??_C@_0BD@MCLJHKGF@Now?5deciphering?4?4?4?$AA@	; `string'
PUBLIC	??_C@_0BL@MKNOCKIC@Success?4?6Process?5cycles?5?$DN?5?$AA@ ; `string'
PUBLIC	??_C@_02EAOCLKAK@ld?$AA@			; `string'
PUBLIC	??_C@_02BDDLJJBK@lu?$AA@			; `string'
PUBLIC	??_C@_02HIKPPMOK@Ld?$AA@			; `string'
PUBLIC	??_C@_02CLHGNPPK@Lu?$AA@			; `string'
PUBLIC	??_C@_02BBAHNLBA@?$CFp?$AA@			; `string'
PUBLIC	??_C@_01DDCIFGEA@E?$AA@				; `string'
PUBLIC	??_C@_01KGKMHCOC@e?$AA@				; `string'
PUBLIC	?_Psave@?$_Facetptr@V?$num_put@DV?$ostreambuf_iterator@DU?$char_traits@D@std@@@std@@@std@@@std@@2PBVfacet@locale@2@B ; std::_Facetptr<std::num_put<char,std::ostreambuf_iterator<char,std::char_traits<char> > > >::_Psave
PUBLIC	?_Psave@?$_Facetptr@V?$numpunct@D@std@@@std@@2PBVfacet@locale@2@B ; std::_Facetptr<std::numpunct<char> >::_Psave
PUBLIC	??_7?$numpunct@D@std@@6B@			; std::numpunct<char>::`vftable'
PUBLIC	??_7?$num_put@DV?$ostreambuf_iterator@DU?$char_traits@D@std@@@std@@@std@@6B@ ; std::num_put<char,std::ostreambuf_iterator<char,std::char_traits<char> > >::`vftable'
PUBLIC	??_R0?AVruntime_error@std@@@8			; std::runtime_error `RTTI Type Descriptor'
PUBLIC	??_R0?AVexception@std@@@8			; std::exception `RTTI Type Descriptor'
PUBLIC	__CT??_R0?AVruntime_error@std@@@8??0runtime_error@std@@QAE@ABV01@@Z40
PUBLIC	__CT??_R0?AVexception@std@@@8??0exception@std@@QAE@ABV01@@Z12
PUBLIC	??_C@_05LAPONLG@false?$AA@			; `string'
PUBLIC	??_C@_04LOAJBDKD@true?$AA@			; `string'
PUBLIC	??_C@_0BF@PHHKMMFD@ios_base?3?3badbit?5set?$AA@	; `string'
PUBLIC	??_C@_0BG@FMKFHCIL@ios_base?3?3failbit?5set?$AA@ ; `string'
PUBLIC	??_C@_0BF@OOHOMBOF@ios_base?3?3eofbit?5set?$AA@	; `string'
PUBLIC	??_R0?AVfailure@ios_base@std@@@8		; std::ios_base::failure `RTTI Type Descriptor'
PUBLIC	__CT??_R0?AVfailure@ios_base@std@@@8??0failure@ios_base@std@@QAE@ABV012@@Z40
PUBLIC	__CTA3?AVfailure@ios_base@std@@
PUBLIC	__TI3?AVfailure@ios_base@std@@
PUBLIC	?npos@?$basic_string@DU?$char_traits@D@std@@V?$allocator@D@2@@std@@2IB ; std::basic_string<char,std::char_traits<char>,std::allocator<char> >::npos
PUBLIC	??_C@_08EPJLHIJG@bad?5cast?$AA@			; `string'
PUBLIC	??_R0?AVbad_cast@std@@@8			; std::bad_cast `RTTI Type Descriptor'
PUBLIC	__CT??_R0?AVbad_cast@std@@@8??0bad_cast@std@@QAE@ABV01@@Z12
PUBLIC	__CTA2?AVbad_cast@std@@
PUBLIC	__TI2?AVbad_cast@std@@
PUBLIC	??_R0?AVbad_alloc@std@@@8			; std::bad_alloc `RTTI Type Descriptor'
PUBLIC	__CT??_R0?AVbad_alloc@std@@@8??0bad_alloc@std@@QAE@ABV01@@Z12
PUBLIC	__CTA2?AVbad_alloc@std@@
PUBLIC	__TI2?AVbad_alloc@std@@
PUBLIC	??_7bad_alloc@std@@6B@				; std::bad_alloc::`vftable'
PUBLIC	??_7ios_base@std@@6B@				; std::ios_base::`vftable'
PUBLIC	??_7?$basic_ios@DU?$char_traits@D@std@@@std@@6B@ ; std::basic_ios<char,std::char_traits<char> >::`vftable'
PUBLIC	??_7runtime_error@std@@6B@			; std::runtime_error::`vftable'
PUBLIC	??_7facet@locale@std@@6B@			; std::locale::facet::`vftable'
PUBLIC	??_7failure@ios_base@std@@6B@			; std::ios_base::failure::`vftable'
EXTRN	@__security_check_cookie@4:PROC
EXTRN	_exit:PROC
EXTRN	?setw@std@@YA?AU?$_Smanip@H@1@H@Z:PROC		; std::setw
EXTRN	_atexit:PROC
EXTRN	?_Ios_base_dtor@ios_base@std@@CAXPAV12@@Z:PROC	; std::ios_base::_Ios_base_dtor
EXTRN	??_Eios_base@std@@UAEPAXI@Z:PROC		; std::ios_base::`vector deleting destructor'
EXTRN	??_E?$basic_ios@DU?$char_traits@D@std@@@std@@UAEPAXI@Z:PROC ; std::basic_ios<char,std::char_traits<char> >::`vector deleting destructor'
EXTRN	__time64:PROC
EXTRN	_strcspn:PROC
EXTRN	__invalid_parameter_noinfo:PROC
EXTRN	_sprintf_s:PROC
EXTRN	_memchr:PROC
EXTRN	??0bad_cast@std@@QAE@PBD@Z:PROC			; std::bad_cast::bad_cast
EXTRN	?_Id_cnt@id@locale@std@@0HA:DWORD		; std::locale::id::_Id_cnt
EXTRN	?facet_Register@facet@locale@std@@CAXPAV123@@Z:PROC ; std::locale::facet::facet_Register
EXTRN	?_Getgloballocale@locale@std@@CAPAV_Locimp@12@XZ:PROC ; std::locale::_Getgloballocale
EXTRN	??1bad_cast@std@@UAE@XZ:PROC			; std::bad_cast::~bad_cast
EXTRN	??0bad_cast@std@@QAE@ABV01@@Z:PROC		; std::bad_cast::bad_cast
EXTRN	??0_Lockit@std@@QAE@H@Z:PROC			; std::_Lockit::_Lockit
EXTRN	?_Locinfo_ctor@_Locinfo@std@@SAXPAV12@ABV?$basic_string@DU?$char_traits@D@std@@V?$allocator@D@2@@2@@Z:PROC ; std::_Locinfo::_Locinfo_ctor
EXTRN	??1_Lockit@std@@QAE@XZ:PROC			; std::_Lockit::~_Lockit
EXTRN	?_Locinfo_dtor@_Locinfo@std@@SAXPAV12@@Z:PROC	; std::_Locinfo::_Locinfo_dtor
EXTRN	__Getcvt:PROC
EXTRN	_localeconv:PROC
EXTRN	??_U@YAPAXI@Z:PROC				; operator new[]
EXTRN	??_V@YAXPAX@Z:PROC				; operator delete[]
EXTRN	??_E?$numpunct@D@std@@MAEPAXI@Z:PROC		; std::numpunct<char>::`vector deleting destructor'
EXTRN	??_Efacet@locale@std@@UAEPAXI@Z:PROC		; std::locale::facet::`vector deleting destructor'
EXTRN	??_E?$num_put@DV?$ostreambuf_iterator@DU?$char_traits@D@std@@@std@@@std@@MAEPAXI@Z:PROC ; std::num_put<char,std::ostreambuf_iterator<char,std::char_traits<char> > >::`vector deleting destructor'
EXTRN	?cout@std@@3V?$basic_ostream@DU?$char_traits@D@std@@@1@A:BYTE ; std::cout
EXTRN	?_Lock@_Mutex@std@@QAEXXZ:PROC			; std::_Mutex::_Lock
EXTRN	?uncaught_exception@std@@YA_NXZ:PROC		; std::uncaught_exception
EXTRN	??0exception@std@@QAE@XZ:PROC			; std::exception::exception
EXTRN	?_Xran@_String_base@std@@SAXXZ:PROC		; std::_String_base::_Xran
EXTRN	_memmove_s:PROC
EXTRN	?_Xlen@_String_base@std@@SAXXZ:PROC		; std::_String_base::_Xlen
EXTRN	??2@YAPAXI@Z:PROC				; operator new
EXTRN	??0exception@std@@QAE@ABQBD@Z:PROC		; std::exception::exception
EXTRN	??0exception@std@@QAE@ABV01@@Z:PROC		; std::exception::exception
EXTRN	?what@exception@std@@UBEPBDXZ:PROC		; std::exception::what
EXTRN	??_Ebad_alloc@std@@UAEPAXI@Z:PROC		; std::bad_alloc::`vector deleting destructor'
EXTRN	??1exception@std@@UAE@XZ:PROC			; std::exception::~exception
EXTRN	_memcpy_s:PROC
EXTRN	??3@YAXPAX@Z:PROC				; operator delete
EXTRN	??_Eruntime_error@std@@UAEPAXI@Z:PROC		; std::runtime_error::`vector deleting destructor'
EXTRN	??_Efailure@ios_base@std@@UAEPAXI@Z:PROC	; std::ios_base::failure::`vector deleting destructor'
EXTRN	??_7type_info@@6B@:QWORD			; type_info::`vftable'
EXTRN	?_Unlock@_Mutex@std@@QAEXXZ:PROC		; std::_Mutex::_Unlock
?cOpsw@@3PAVOPSW@@A DD 01H DUP (?)			; cOpsw
?cRandom@@3PAVMT_SHA@@A DD 01H DUP (?)			; cRandom
;	COMDAT ?_Psave@?$_Facetptr@V?$num_put@DV?$ostreambuf_iterator@DU?$char_traits@D@std@@@std@@@std@@@std@@2PBVfacet@locale@2@B
_BSS	SEGMENT
?_Psave@?$_Facetptr@V?$num_put@DV?$ostreambuf_iterator@DU?$char_traits@D@std@@@std@@@std@@@std@@2PBVfacet@locale@2@B DD 01H DUP (?) ; std::_Facetptr<std::num_put<char,std::ostreambuf_iterator<char,std::char_traits<char> > > >::_Psave
_BSS	ENDS
;	COMDAT ?_Psave@?$_Facetptr@V?$numpunct@D@std@@@std@@2PBVfacet@locale@2@B
_BSS	SEGMENT
?_Psave@?$_Facetptr@V?$numpunct@D@std@@@std@@2PBVfacet@locale@2@B DD 01H DUP (?) ; std::_Facetptr<std::numpunct<char> >::_Psave
;	COMDAT ??_7failure@ios_base@std@@6B@
CONST	SEGMENT
??_7failure@ios_base@std@@6B@ DD FLAT:??_R4failure@ios_base@std@@6B@ ; std::ios_base::failure::`vftable'
	DD	FLAT:??_Efailure@ios_base@std@@UAEPAXI@Z
	DD	FLAT:?what@runtime_error@std@@UBEPBDXZ
CONST	ENDS
;	COMDAT ??_R4failure@ios_base@std@@6B@
rdata$r	SEGMENT
??_R4failure@ios_base@std@@6B@ DD 00H			; std::ios_base::failure::`RTTI Complete Object Locator'
	DD	00H
	DD	00H
	DD	FLAT:??_R0?AVfailure@ios_base@std@@@8
	DD	FLAT:??_R3failure@ios_base@std@@8
rdata$r	ENDS
;	COMDAT ??_R3failure@ios_base@std@@8
rdata$r	SEGMENT
??_R3failure@ios_base@std@@8 DD 00H			; std::ios_base::failure::`RTTI Class Hierarchy Descriptor'
	DD	00H
	DD	03H
	DD	FLAT:??_R2failure@ios_base@std@@8
rdata$r	ENDS
;	COMDAT ??_R2failure@ios_base@std@@8
rdata$r	SEGMENT
??_R2failure@ios_base@std@@8 DD FLAT:??_R1A@?0A@EA@failure@ios_base@std@@8 ; std::ios_base::failure::`RTTI Base Class Array'
	DD	FLAT:??_R1A@?0A@EA@runtime_error@std@@8
	DD	FLAT:??_R1A@?0A@EA@exception@std@@8
rdata$r	ENDS
;	COMDAT ??_R1A@?0A@EA@failure@ios_base@std@@8
rdata$r	SEGMENT
??_R1A@?0A@EA@failure@ios_base@std@@8 DD FLAT:??_R0?AVfailure@ios_base@std@@@8 ; std::ios_base::failure::`RTTI Base Class Descriptor at (0,-1,0,64)'
	DD	02H
	DD	00H
	DD	0ffffffffH
	DD	00H
	DD	040H
	DD	FLAT:??_R3failure@ios_base@std@@8
rdata$r	ENDS
;	COMDAT ??_7facet@locale@std@@6B@
CONST	SEGMENT
??_7facet@locale@std@@6B@ DD FLAT:??_R4facet@locale@std@@6B@ ; std::locale::facet::`vftable'
	DD	FLAT:??_Efacet@locale@std@@UAEPAXI@Z
CONST	ENDS
;	COMDAT ??_R4facet@locale@std@@6B@
rdata$r	SEGMENT
??_R4facet@locale@std@@6B@ DD 00H			; std::locale::facet::`RTTI Complete Object Locator'
	DD	00H
	DD	00H
	DD	FLAT:??_R0?AVfacet@locale@std@@@8
	DD	FLAT:??_R3facet@locale@std@@8
rdata$r	ENDS
;	COMDAT ??_7runtime_error@std@@6B@
CONST	SEGMENT
??_7runtime_error@std@@6B@ DD FLAT:??_R4runtime_error@std@@6B@ ; std::runtime_error::`vftable'
	DD	FLAT:??_Eruntime_error@std@@UAEPAXI@Z
	DD	FLAT:?what@runtime_error@std@@UBEPBDXZ
CONST	ENDS
;	COMDAT ??_R4runtime_error@std@@6B@
rdata$r	SEGMENT
??_R4runtime_error@std@@6B@ DD 00H			; std::runtime_error::`RTTI Complete Object Locator'
	DD	00H
	DD	00H
	DD	FLAT:??_R0?AVruntime_error@std@@@8
	DD	FLAT:??_R3runtime_error@std@@8
rdata$r	ENDS
;	COMDAT ??_R3runtime_error@std@@8
rdata$r	SEGMENT
??_R3runtime_error@std@@8 DD 00H			; std::runtime_error::`RTTI Class Hierarchy Descriptor'
	DD	00H
	DD	02H
	DD	FLAT:??_R2runtime_error@std@@8
rdata$r	ENDS
;	COMDAT ??_R2runtime_error@std@@8
rdata$r	SEGMENT
??_R2runtime_error@std@@8 DD FLAT:??_R1A@?0A@EA@runtime_error@std@@8 ; std::runtime_error::`RTTI Base Class Array'
	DD	FLAT:??_R1A@?0A@EA@exception@std@@8
rdata$r	ENDS
;	COMDAT ??_R1A@?0A@EA@runtime_error@std@@8
rdata$r	SEGMENT
??_R1A@?0A@EA@runtime_error@std@@8 DD FLAT:??_R0?AVruntime_error@std@@@8 ; std::runtime_error::`RTTI Base Class Descriptor at (0,-1,0,64)'
	DD	01H
	DD	00H
	DD	0ffffffffH
	DD	00H
	DD	040H
	DD	FLAT:??_R3runtime_error@std@@8
rdata$r	ENDS
;	COMDAT ??_7?$basic_ios@DU?$char_traits@D@std@@@std@@6B@
CONST	SEGMENT
??_7?$basic_ios@DU?$char_traits@D@std@@@std@@6B@ DD FLAT:??_R4?$basic_ios@DU?$char_traits@D@std@@@std@@6B@ ; std::basic_ios<char,std::char_traits<char> >::`vftable'
	DD	FLAT:??_E?$basic_ios@DU?$char_traits@D@std@@@std@@UAEPAXI@Z
CONST	ENDS
;	COMDAT ??_R4?$basic_ios@DU?$char_traits@D@std@@@std@@6B@
rdata$r	SEGMENT
??_R4?$basic_ios@DU?$char_traits@D@std@@@std@@6B@ DD 00H ; std::basic_ios<char,std::char_traits<char> >::`RTTI Complete Object Locator'
	DD	00H
	DD	00H
	DD	FLAT:??_R0?AV?$basic_ios@DU?$char_traits@D@std@@@std@@@8
	DD	FLAT:??_R3?$basic_ios@DU?$char_traits@D@std@@@std@@8
rdata$r	ENDS
;	COMDAT ??_R3?$basic_ios@DU?$char_traits@D@std@@@std@@8
rdata$r	SEGMENT
??_R3?$basic_ios@DU?$char_traits@D@std@@@std@@8 DD 00H	; std::basic_ios<char,std::char_traits<char> >::`RTTI Class Hierarchy Descriptor'
	DD	00H
	DD	03H
	DD	FLAT:??_R2?$basic_ios@DU?$char_traits@D@std@@@std@@8
rdata$r	ENDS
;	COMDAT ??_R2?$basic_ios@DU?$char_traits@D@std@@@std@@8
rdata$r	SEGMENT
??_R2?$basic_ios@DU?$char_traits@D@std@@@std@@8 DD FLAT:??_R1A@?0A@EA@?$basic_ios@DU?$char_traits@D@std@@@std@@8 ; std::basic_ios<char,std::char_traits<char> >::`RTTI Base Class Array'
	DD	FLAT:??_R1A@?0A@EA@ios_base@std@@8
	DD	FLAT:??_R13?0A@EA@?$_Iosb@H@std@@8
rdata$r	ENDS
;	COMDAT ??_R1A@?0A@EA@?$basic_ios@DU?$char_traits@D@std@@@std@@8
rdata$r	SEGMENT
??_R1A@?0A@EA@?$basic_ios@DU?$char_traits@D@std@@@std@@8 DD FLAT:??_R0?AV?$basic_ios@DU?$char_traits@D@std@@@std@@@8 ; std::basic_ios<char,std::char_traits<char> >::`RTTI Base Class Descriptor at (0,-1,0,64)'
	DD	02H
	DD	00H
	DD	0ffffffffH
	DD	00H
	DD	040H
	DD	FLAT:??_R3?$basic_ios@DU?$char_traits@D@std@@@std@@8
rdata$r	ENDS
;	COMDAT ??_R0?AV?$basic_ios@DU?$char_traits@D@std@@@std@@@8
_DATA	SEGMENT
??_R0?AV?$basic_ios@DU?$char_traits@D@std@@@std@@@8 DD FLAT:??_7type_info@@6B@ ; std::basic_ios<char,std::char_traits<char> > `RTTI Type Descriptor'
	DD	00H
	DB	'.?AV?$basic_ios@DU?$char_traits@D@std@@@std@@', 00H
_DATA	ENDS
;	COMDAT ??_7ios_base@std@@6B@
CONST	SEGMENT
??_7ios_base@std@@6B@ DD FLAT:??_R4ios_base@std@@6B@	; std::ios_base::`vftable'
	DD	FLAT:??_Eios_base@std@@UAEPAXI@Z
CONST	ENDS
;	COMDAT ??_R4ios_base@std@@6B@
rdata$r	SEGMENT
??_R4ios_base@std@@6B@ DD 00H				; std::ios_base::`RTTI Complete Object Locator'
	DD	00H
	DD	00H
	DD	FLAT:??_R0?AVios_base@std@@@8
	DD	FLAT:??_R3ios_base@std@@8
rdata$r	ENDS
;	COMDAT ??_R3ios_base@std@@8
rdata$r	SEGMENT
??_R3ios_base@std@@8 DD 00H				; std::ios_base::`RTTI Class Hierarchy Descriptor'
	DD	00H
	DD	02H
	DD	FLAT:??_R2ios_base@std@@8
rdata$r	ENDS
;	COMDAT ??_R2ios_base@std@@8
rdata$r	SEGMENT
??_R2ios_base@std@@8 DD FLAT:??_R1A@?0A@EA@ios_base@std@@8 ; std::ios_base::`RTTI Base Class Array'
	DD	FLAT:??_R13?0A@EA@?$_Iosb@H@std@@8
rdata$r	ENDS
;	COMDAT ??_R13?0A@EA@?$_Iosb@H@std@@8
rdata$r	SEGMENT
??_R13?0A@EA@?$_Iosb@H@std@@8 DD FLAT:??_R0?AV?$_Iosb@H@std@@@8 ; std::_Iosb<int>::`RTTI Base Class Descriptor at (4,-1,0,64)'
	DD	00H
	DD	04H
	DD	0ffffffffH
	DD	00H
	DD	040H
	DD	FLAT:??_R3?$_Iosb@H@std@@8
rdata$r	ENDS
;	COMDAT ??_R3?$_Iosb@H@std@@8
rdata$r	SEGMENT
??_R3?$_Iosb@H@std@@8 DD 00H				; std::_Iosb<int>::`RTTI Class Hierarchy Descriptor'
	DD	00H
	DD	01H
	DD	FLAT:??_R2?$_Iosb@H@std@@8
rdata$r	ENDS
;	COMDAT ??_R2?$_Iosb@H@std@@8
rdata$r	SEGMENT
??_R2?$_Iosb@H@std@@8 DD FLAT:??_R1A@?0A@EA@?$_Iosb@H@std@@8 ; std::_Iosb<int>::`RTTI Base Class Array'
rdata$r	ENDS
;	COMDAT ??_R1A@?0A@EA@?$_Iosb@H@std@@8
rdata$r	SEGMENT
??_R1A@?0A@EA@?$_Iosb@H@std@@8 DD FLAT:??_R0?AV?$_Iosb@H@std@@@8 ; std::_Iosb<int>::`RTTI Base Class Descriptor at (0,-1,0,64)'
	DD	00H
	DD	00H
	DD	0ffffffffH
	DD	00H
	DD	040H
	DD	FLAT:??_R3?$_Iosb@H@std@@8
rdata$r	ENDS
;	COMDAT ??_R0?AV?$_Iosb@H@std@@@8
_DATA	SEGMENT
??_R0?AV?$_Iosb@H@std@@@8 DD FLAT:??_7type_info@@6B@	; std::_Iosb<int> `RTTI Type Descriptor'
	DD	00H
	DB	'.?AV?$_Iosb@H@std@@', 00H
_DATA	ENDS
;	COMDAT ??_R1A@?0A@EA@ios_base@std@@8
rdata$r	SEGMENT
??_R1A@?0A@EA@ios_base@std@@8 DD FLAT:??_R0?AVios_base@std@@@8 ; std::ios_base::`RTTI Base Class Descriptor at (0,-1,0,64)'
	DD	01H
	DD	00H
	DD	0ffffffffH
	DD	00H
	DD	040H
	DD	FLAT:??_R3ios_base@std@@8
rdata$r	ENDS
;	COMDAT ??_R0?AVios_base@std@@@8
_DATA	SEGMENT
??_R0?AVios_base@std@@@8 DD FLAT:??_7type_info@@6B@	; std::ios_base `RTTI Type Descriptor'
	DD	00H
	DB	'.?AVios_base@std@@', 00H
_DATA	ENDS
;	COMDAT ??_7bad_alloc@std@@6B@
CONST	SEGMENT
??_7bad_alloc@std@@6B@ DD FLAT:??_R4bad_alloc@std@@6B@	; std::bad_alloc::`vftable'
	DD	FLAT:??_Ebad_alloc@std@@UAEPAXI@Z
	DD	FLAT:?what@exception@std@@UBEPBDXZ
CONST	ENDS
;	COMDAT ??_R4bad_alloc@std@@6B@
rdata$r	SEGMENT
??_R4bad_alloc@std@@6B@ DD 00H				; std::bad_alloc::`RTTI Complete Object Locator'
	DD	00H
	DD	00H
	DD	FLAT:??_R0?AVbad_alloc@std@@@8
	DD	FLAT:??_R3bad_alloc@std@@8
rdata$r	ENDS
;	COMDAT ??_R3bad_alloc@std@@8
rdata$r	SEGMENT
??_R3bad_alloc@std@@8 DD 00H				; std::bad_alloc::`RTTI Class Hierarchy Descriptor'
	DD	00H
	DD	02H
	DD	FLAT:??_R2bad_alloc@std@@8
rdata$r	ENDS
;	COMDAT ??_R2bad_alloc@std@@8
rdata$r	SEGMENT
??_R2bad_alloc@std@@8 DD FLAT:??_R1A@?0A@EA@bad_alloc@std@@8 ; std::bad_alloc::`RTTI Base Class Array'
	DD	FLAT:??_R1A@?0A@EA@exception@std@@8
rdata$r	ENDS
;	COMDAT ??_R1A@?0A@EA@exception@std@@8
rdata$r	SEGMENT
??_R1A@?0A@EA@exception@std@@8 DD FLAT:??_R0?AVexception@std@@@8 ; std::exception::`RTTI Base Class Descriptor at (0,-1,0,64)'
	DD	00H
	DD	00H
	DD	0ffffffffH
	DD	00H
	DD	040H
	DD	FLAT:??_R3exception@std@@8
rdata$r	ENDS
;	COMDAT ??_R3exception@std@@8
rdata$r	SEGMENT
??_R3exception@std@@8 DD 00H				; std::exception::`RTTI Class Hierarchy Descriptor'
	DD	00H
	DD	01H
	DD	FLAT:??_R2exception@std@@8
rdata$r	ENDS
;	COMDAT ??_R2exception@std@@8
rdata$r	SEGMENT
??_R2exception@std@@8 DD FLAT:??_R1A@?0A@EA@exception@std@@8 ; std::exception::`RTTI Base Class Array'
rdata$r	ENDS
;	COMDAT ??_R1A@?0A@EA@bad_alloc@std@@8
rdata$r	SEGMENT
??_R1A@?0A@EA@bad_alloc@std@@8 DD FLAT:??_R0?AVbad_alloc@std@@@8 ; std::bad_alloc::`RTTI Base Class Descriptor at (0,-1,0,64)'
	DD	01H
	DD	00H
	DD	0ffffffffH
	DD	00H
	DD	040H
	DD	FLAT:??_R3bad_alloc@std@@8
rdata$r	ENDS
;	COMDAT __TI2?AVbad_alloc@std@@
xdata$x	SEGMENT
__TI2?AVbad_alloc@std@@ DD 00H
	DD	FLAT:??1bad_alloc@std@@UAE@XZ
	DD	00H
	DD	FLAT:__CTA2?AVbad_alloc@std@@
xdata$x	ENDS
;	COMDAT __CTA2?AVbad_alloc@std@@
xdata$x	SEGMENT
__CTA2?AVbad_alloc@std@@ DD 02H
	DD	FLAT:__CT??_R0?AVbad_alloc@std@@@8??0bad_alloc@std@@QAE@ABV01@@Z12
	DD	FLAT:__CT??_R0?AVexception@std@@@8??0exception@std@@QAE@ABV01@@Z12
xdata$x	ENDS
;	COMDAT __CT??_R0?AVbad_alloc@std@@@8??0bad_alloc@std@@QAE@ABV01@@Z12
xdata$x	SEGMENT
__CT??_R0?AVbad_alloc@std@@@8??0bad_alloc@std@@QAE@ABV01@@Z12 DD 00H
	DD	FLAT:??_R0?AVbad_alloc@std@@@8
	DD	00H
	DD	0ffffffffH
	ORG $+4
	DD	0cH
	DD	FLAT:??0bad_alloc@std@@QAE@ABV01@@Z
xdata$x	ENDS
;	COMDAT ??_R0?AVbad_alloc@std@@@8
_DATA	SEGMENT
??_R0?AVbad_alloc@std@@@8 DD FLAT:??_7type_info@@6B@	; std::bad_alloc `RTTI Type Descriptor'
	DD	00H
	DB	'.?AVbad_alloc@std@@', 00H
_DATA	ENDS
;	COMDAT __TI2?AVbad_cast@std@@
xdata$x	SEGMENT
__TI2?AVbad_cast@std@@ DD 00H
	DD	FLAT:??1bad_cast@std@@UAE@XZ
	DD	00H
	DD	FLAT:__CTA2?AVbad_cast@std@@
xdata$x	ENDS
;	COMDAT __CTA2?AVbad_cast@std@@
xdata$x	SEGMENT
__CTA2?AVbad_cast@std@@ DD 02H
	DD	FLAT:__CT??_R0?AVbad_cast@std@@@8??0bad_cast@std@@QAE@ABV01@@Z12
	DD	FLAT:__CT??_R0?AVexception@std@@@8??0exception@std@@QAE@ABV01@@Z12
xdata$x	ENDS
;	COMDAT __CT??_R0?AVbad_cast@std@@@8??0bad_cast@std@@QAE@ABV01@@Z12
xdata$x	SEGMENT
__CT??_R0?AVbad_cast@std@@@8??0bad_cast@std@@QAE@ABV01@@Z12 DD 00H
	DD	FLAT:??_R0?AVbad_cast@std@@@8
	DD	00H
	DD	0ffffffffH
	ORG $+4
	DD	0cH
	DD	FLAT:??0bad_cast@std@@QAE@ABV01@@Z
xdata$x	ENDS
;	COMDAT ??_R0?AVbad_cast@std@@@8
_DATA	SEGMENT
??_R0?AVbad_cast@std@@@8 DD FLAT:??_7type_info@@6B@	; std::bad_cast `RTTI Type Descriptor'
	DD	00H
	DB	'.?AVbad_cast@std@@', 00H
_DATA	ENDS
;	COMDAT ??_C@_08EPJLHIJG@bad?5cast?$AA@
CONST	SEGMENT
??_C@_08EPJLHIJG@bad?5cast?$AA@ DB 'bad cast', 00H	; `string'
CONST	ENDS
;	COMDAT ?npos@?$basic_string@DU?$char_traits@D@std@@V?$allocator@D@2@@std@@2IB
CONST	SEGMENT
?npos@?$basic_string@DU?$char_traits@D@std@@V?$allocator@D@2@@std@@2IB DD 0ffffffffH ; std::basic_string<char,std::char_traits<char>,std::allocator<char> >::npos
CONST	ENDS
;	COMDAT __TI3?AVfailure@ios_base@std@@
xdata$x	SEGMENT
__TI3?AVfailure@ios_base@std@@ DD 00H
	DD	FLAT:??1failure@ios_base@std@@UAE@XZ
	DD	00H
	DD	FLAT:__CTA3?AVfailure@ios_base@std@@
xdata$x	ENDS
;	COMDAT __CTA3?AVfailure@ios_base@std@@
xdata$x	SEGMENT
__CTA3?AVfailure@ios_base@std@@ DD 03H
	DD	FLAT:__CT??_R0?AVfailure@ios_base@std@@@8??0failure@ios_base@std@@QAE@ABV012@@Z40
	DD	FLAT:__CT??_R0?AVruntime_error@std@@@8??0runtime_error@std@@QAE@ABV01@@Z40
	DD	FLAT:__CT??_R0?AVexception@std@@@8??0exception@std@@QAE@ABV01@@Z12
xdata$x	ENDS
;	COMDAT __CT??_R0?AVfailure@ios_base@std@@@8??0failure@ios_base@std@@QAE@ABV012@@Z40
xdata$x	SEGMENT
__CT??_R0?AVfailure@ios_base@std@@@8??0failure@ios_base@std@@QAE@ABV012@@Z40 DD 00H
	DD	FLAT:??_R0?AVfailure@ios_base@std@@@8
	DD	00H
	DD	0ffffffffH
	ORG $+4
	DD	028H
	DD	FLAT:??0failure@ios_base@std@@QAE@ABV012@@Z
xdata$x	ENDS
;	COMDAT ??_R0?AVfailure@ios_base@std@@@8
_DATA	SEGMENT
??_R0?AVfailure@ios_base@std@@@8 DD FLAT:??_7type_info@@6B@ ; std::ios_base::failure `RTTI Type Descriptor'
	DD	00H
	DB	'.?AVfailure@ios_base@std@@', 00H
_DATA	ENDS
;	COMDAT ??_C@_0BF@OOHOMBOF@ios_base?3?3eofbit?5set?$AA@
CONST	SEGMENT
??_C@_0BF@OOHOMBOF@ios_base?3?3eofbit?5set?$AA@ DB 'ios_base::eofbit set', 00H ; `string'
CONST	ENDS
;	COMDAT ??_C@_0BG@FMKFHCIL@ios_base?3?3failbit?5set?$AA@
CONST	SEGMENT
??_C@_0BG@FMKFHCIL@ios_base?3?3failbit?5set?$AA@ DB 'ios_base::failbit se'
	DB	't', 00H					; `string'
CONST	ENDS
;	COMDAT ??_C@_0BF@PHHKMMFD@ios_base?3?3badbit?5set?$AA@
CONST	SEGMENT
??_C@_0BF@PHHKMMFD@ios_base?3?3badbit?5set?$AA@ DB 'ios_base::badbit set', 00H ; `string'
CONST	ENDS
;	COMDAT ??_C@_04LOAJBDKD@true?$AA@
CONST	SEGMENT
??_C@_04LOAJBDKD@true?$AA@ DB 'true', 00H		; `string'
CONST	ENDS
;	COMDAT ??_C@_05LAPONLG@false?$AA@
CONST	SEGMENT
??_C@_05LAPONLG@false?$AA@ DB 'false', 00H		; `string'
CONST	ENDS
;	COMDAT __CT??_R0?AVexception@std@@@8??0exception@std@@QAE@ABV01@@Z12
xdata$x	SEGMENT
__CT??_R0?AVexception@std@@@8??0exception@std@@QAE@ABV01@@Z12 DD 00H
	DD	FLAT:??_R0?AVexception@std@@@8
	DD	00H
	DD	0ffffffffH
	ORG $+4
	DD	0cH
	DD	FLAT:??0exception@std@@QAE@ABV01@@Z
xdata$x	ENDS
;	COMDAT __CT??_R0?AVruntime_error@std@@@8??0runtime_error@std@@QAE@ABV01@@Z40
xdata$x	SEGMENT
__CT??_R0?AVruntime_error@std@@@8??0runtime_error@std@@QAE@ABV01@@Z40 DD 00H
	DD	FLAT:??_R0?AVruntime_error@std@@@8
	DD	00H
	DD	0ffffffffH
	ORG $+4
	DD	028H
	DD	FLAT:??0runtime_error@std@@QAE@ABV01@@Z
xdata$x	ENDS
;	COMDAT ??_R0?AVexception@std@@@8
_DATA	SEGMENT
??_R0?AVexception@std@@@8 DD FLAT:??_7type_info@@6B@	; std::exception `RTTI Type Descriptor'
	DD	00H
	DB	'.?AVexception@std@@', 00H
_DATA	ENDS
;	COMDAT ??_R0?AVruntime_error@std@@@8
_DATA	SEGMENT
??_R0?AVruntime_error@std@@@8 DD FLAT:??_7type_info@@6B@ ; std::runtime_error `RTTI Type Descriptor'
	DD	00H
	DB	'.?AVruntime_error@std@@', 00H
_DATA	ENDS
;	COMDAT ??_7?$num_put@DV?$ostreambuf_iterator@DU?$char_traits@D@std@@@std@@@std@@6B@
CONST	SEGMENT
??_7?$num_put@DV?$ostreambuf_iterator@DU?$char_traits@D@std@@@std@@@std@@6B@ DD FLAT:??_R4?$num_put@DV?$ostreambuf_iterator@DU?$char_traits@D@std@@@std@@@std@@6B@ ; std::num_put<char,std::ostreambuf_iterator<char,std::char_traits<char> > >::`vftable'
	DD	FLAT:??_E?$num_put@DV?$ostreambuf_iterator@DU?$char_traits@D@std@@@std@@@std@@MAEPAXI@Z
	DD	FLAT:?do_put@?$num_put@DV?$ostreambuf_iterator@DU?$char_traits@D@std@@@std@@@std@@MBE?AV?$ostreambuf_iterator@DU?$char_traits@D@std@@@2@V32@AAVios_base@2@DPBX@Z
	DD	FLAT:?do_put@?$num_put@DV?$ostreambuf_iterator@DU?$char_traits@D@std@@@std@@@std@@MBE?AV?$ostreambuf_iterator@DU?$char_traits@D@std@@@2@V32@AAVios_base@2@DO@Z
	DD	FLAT:?do_put@?$num_put@DV?$ostreambuf_iterator@DU?$char_traits@D@std@@@std@@@std@@MBE?AV?$ostreambuf_iterator@DU?$char_traits@D@std@@@2@V32@AAVios_base@2@DN@Z
	DD	FLAT:?do_put@?$num_put@DV?$ostreambuf_iterator@DU?$char_traits@D@std@@@std@@@std@@MBE?AV?$ostreambuf_iterator@DU?$char_traits@D@std@@@2@V32@AAVios_base@2@D_K@Z
	DD	FLAT:?do_put@?$num_put@DV?$ostreambuf_iterator@DU?$char_traits@D@std@@@std@@@std@@MBE?AV?$ostreambuf_iterator@DU?$char_traits@D@std@@@2@V32@AAVios_base@2@D_J@Z
	DD	FLAT:?do_put@?$num_put@DV?$ostreambuf_iterator@DU?$char_traits@D@std@@@std@@@std@@MBE?AV?$ostreambuf_iterator@DU?$char_traits@D@std@@@2@V32@AAVios_base@2@DK@Z
	DD	FLAT:?do_put@?$num_put@DV?$ostreambuf_iterator@DU?$char_traits@D@std@@@std@@@std@@MBE?AV?$ostreambuf_iterator@DU?$char_traits@D@std@@@2@V32@AAVios_base@2@DJ@Z
	DD	FLAT:?do_put@?$num_put@DV?$ostreambuf_iterator@DU?$char_traits@D@std@@@std@@@std@@MBE?AV?$ostreambuf_iterator@DU?$char_traits@D@std@@@2@V32@AAVios_base@2@D_N@Z
CONST	ENDS
;	COMDAT ??_R4?$num_put@DV?$ostreambuf_iterator@DU?$char_traits@D@std@@@std@@@std@@6B@
rdata$r	SEGMENT
??_R4?$num_put@DV?$ostreambuf_iterator@DU?$char_traits@D@std@@@std@@@std@@6B@ DD 00H ; std::num_put<char,std::ostreambuf_iterator<char,std::char_traits<char> > >::`RTTI Complete Object Locator'
	DD	00H
	DD	00H
	DD	FLAT:??_R0?AV?$num_put@DV?$ostreambuf_iterator@DU?$char_traits@D@std@@@std@@@std@@@8
	DD	FLAT:??_R3?$num_put@DV?$ostreambuf_iterator@DU?$char_traits@D@std@@@std@@@std@@8
rdata$r	ENDS
;	COMDAT ??_R3?$num_put@DV?$ostreambuf_iterator@DU?$char_traits@D@std@@@std@@@std@@8
rdata$r	SEGMENT
??_R3?$num_put@DV?$ostreambuf_iterator@DU?$char_traits@D@std@@@std@@@std@@8 DD 00H ; std::num_put<char,std::ostreambuf_iterator<char,std::char_traits<char> > >::`RTTI Class Hierarchy Descriptor'
	DD	00H
	DD	02H
	DD	FLAT:??_R2?$num_put@DV?$ostreambuf_iterator@DU?$char_traits@D@std@@@std@@@std@@8
rdata$r	ENDS
;	COMDAT ??_R2?$num_put@DV?$ostreambuf_iterator@DU?$char_traits@D@std@@@std@@@std@@8
rdata$r	SEGMENT
??_R2?$num_put@DV?$ostreambuf_iterator@DU?$char_traits@D@std@@@std@@@std@@8 DD FLAT:??_R1A@?0A@EA@?$num_put@DV?$ostreambuf_iterator@DU?$char_traits@D@std@@@std@@@std@@8 ; std::num_put<char,std::ostreambuf_iterator<char,std::char_traits<char> > >::`RTTI Base Class Array'
	DD	FLAT:??_R1A@?0A@EA@facet@locale@std@@8
rdata$r	ENDS
;	COMDAT ??_R1A@?0A@EA@?$num_put@DV?$ostreambuf_iterator@DU?$char_traits@D@std@@@std@@@std@@8
rdata$r	SEGMENT
??_R1A@?0A@EA@?$num_put@DV?$ostreambuf_iterator@DU?$char_traits@D@std@@@std@@@std@@8 DD FLAT:??_R0?AV?$num_put@DV?$ostreambuf_iterator@DU?$char_traits@D@std@@@std@@@std@@@8 ; std::num_put<char,std::ostreambuf_iterator<char,std::char_traits<char> > >::`RTTI Base Class Descriptor at (0,-1,0,64)'
	DD	01H
	DD	00H
	DD	0ffffffffH
	DD	00H
	DD	040H
	DD	FLAT:??_R3?$num_put@DV?$ostreambuf_iterator@DU?$char_traits@D@std@@@std@@@std@@8
rdata$r	ENDS
;	COMDAT ??_R0?AV?$num_put@DV?$ostreambuf_iterator@DU?$char_traits@D@std@@@std@@@std@@@8
_DATA	SEGMENT
??_R0?AV?$num_put@DV?$ostreambuf_iterator@DU?$char_traits@D@std@@@std@@@std@@@8 DD FLAT:??_7type_info@@6B@ ; std::num_put<char,std::ostreambuf_iterator<char,std::char_traits<char> > > `RTTI Type Descriptor'
	DD	00H
	DB	'.?AV?$num_put@DV?$ostreambuf_iterator@DU?$char_traits@D@'
	DB	'std@@@std@@@std@@', 00H
_DATA	ENDS
;	COMDAT ??_7?$numpunct@D@std@@6B@
CONST	SEGMENT
??_7?$numpunct@D@std@@6B@ DD FLAT:??_R4?$numpunct@D@std@@6B@ ; std::numpunct<char>::`vftable'
	DD	FLAT:??_E?$numpunct@D@std@@MAEPAXI@Z
	DD	FLAT:?do_decimal_point@?$numpunct@D@std@@MBEDXZ
	DD	FLAT:?do_thousands_sep@?$numpunct@D@std@@MBEDXZ
	DD	FLAT:?do_grouping@?$numpunct@D@std@@MBE?AV?$basic_string@DU?$char_traits@D@std@@V?$allocator@D@2@@2@XZ
	DD	FLAT:?do_falsename@?$numpunct@D@std@@MBE?AV?$basic_string@DU?$char_traits@D@std@@V?$allocator@D@2@@2@XZ
	DD	FLAT:?do_truename@?$numpunct@D@std@@MBE?AV?$basic_string@DU?$char_traits@D@std@@V?$allocator@D@2@@2@XZ
CONST	ENDS
;	COMDAT ??_R4?$numpunct@D@std@@6B@
rdata$r	SEGMENT
??_R4?$numpunct@D@std@@6B@ DD 00H			; std::numpunct<char>::`RTTI Complete Object Locator'
	DD	00H
	DD	00H
	DD	FLAT:??_R0?AV?$numpunct@D@std@@@8
	DD	FLAT:??_R3?$numpunct@D@std@@8
rdata$r	ENDS
;	COMDAT ??_R3?$numpunct@D@std@@8
rdata$r	SEGMENT
??_R3?$numpunct@D@std@@8 DD 00H				; std::numpunct<char>::`RTTI Class Hierarchy Descriptor'
	DD	00H
	DD	02H
	DD	FLAT:??_R2?$numpunct@D@std@@8
rdata$r	ENDS
;	COMDAT ??_R2?$numpunct@D@std@@8
rdata$r	SEGMENT
??_R2?$numpunct@D@std@@8 DD FLAT:??_R1A@?0A@EA@?$numpunct@D@std@@8 ; std::numpunct<char>::`RTTI Base Class Array'
	DD	FLAT:??_R1A@?0A@EA@facet@locale@std@@8
rdata$r	ENDS
;	COMDAT ??_R1A@?0A@EA@facet@locale@std@@8
rdata$r	SEGMENT
??_R1A@?0A@EA@facet@locale@std@@8 DD FLAT:??_R0?AVfacet@locale@std@@@8 ; std::locale::facet::`RTTI Base Class Descriptor at (0,-1,0,64)'
	DD	00H
	DD	00H
	DD	0ffffffffH
	DD	00H
	DD	040H
	DD	FLAT:??_R3facet@locale@std@@8
rdata$r	ENDS
;	COMDAT ??_R3facet@locale@std@@8
rdata$r	SEGMENT
??_R3facet@locale@std@@8 DD 00H				; std::locale::facet::`RTTI Class Hierarchy Descriptor'
	DD	00H
	DD	01H
	DD	FLAT:??_R2facet@locale@std@@8
rdata$r	ENDS
;	COMDAT ??_R2facet@locale@std@@8
rdata$r	SEGMENT
??_R2facet@locale@std@@8 DD FLAT:??_R1A@?0A@EA@facet@locale@std@@8 ; std::locale::facet::`RTTI Base Class Array'
rdata$r	ENDS
;	COMDAT ??_R0?AVfacet@locale@std@@@8
_DATA	SEGMENT
??_R0?AVfacet@locale@std@@@8 DD FLAT:??_7type_info@@6B@	; std::locale::facet `RTTI Type Descriptor'
	DD	00H
	DB	'.?AVfacet@locale@std@@', 00H
_DATA	ENDS
;	COMDAT ??_R1A@?0A@EA@?$numpunct@D@std@@8
rdata$r	SEGMENT
??_R1A@?0A@EA@?$numpunct@D@std@@8 DD FLAT:??_R0?AV?$numpunct@D@std@@@8 ; std::numpunct<char>::`RTTI Base Class Descriptor at (0,-1,0,64)'
	DD	01H
	DD	00H
	DD	0ffffffffH
	DD	00H
	DD	040H
	DD	FLAT:??_R3?$numpunct@D@std@@8
rdata$r	ENDS
;	COMDAT ??_R0?AV?$numpunct@D@std@@@8
_DATA	SEGMENT
??_R0?AV?$numpunct@D@std@@@8 DD FLAT:??_7type_info@@6B@	; std::numpunct<char> `RTTI Type Descriptor'
	DD	00H
	DB	'.?AV?$numpunct@D@std@@', 00H
_DATA	ENDS
;	COMDAT ??_C@_01KGKMHCOC@e?$AA@
CONST	SEGMENT
??_C@_01KGKMHCOC@e?$AA@ DB 'e', 00H			; `string'
CONST	ENDS
;	COMDAT ??_C@_01DDCIFGEA@E?$AA@
CONST	SEGMENT
??_C@_01DDCIFGEA@E?$AA@ DB 'E', 00H			; `string'
CONST	ENDS
;	COMDAT ??_C@_02BBAHNLBA@?$CFp?$AA@
CONST	SEGMENT
??_C@_02BBAHNLBA@?$CFp?$AA@ DB '%p', 00H		; `string'
CONST	ENDS
;	COMDAT ??_C@_02CLHGNPPK@Lu?$AA@
CONST	SEGMENT
??_C@_02CLHGNPPK@Lu?$AA@ DB 'Lu', 00H			; `string'
CONST	ENDS
;	COMDAT ??_C@_02HIKPPMOK@Ld?$AA@
CONST	SEGMENT
??_C@_02HIKPPMOK@Ld?$AA@ DB 'Ld', 00H			; `string'
CONST	ENDS
;	COMDAT ??_C@_02BDDLJJBK@lu?$AA@
CONST	SEGMENT
??_C@_02BDDLJJBK@lu?$AA@ DB 'lu', 00H			; `string'
CONST	ENDS
;	COMDAT ??_C@_02EAOCLKAK@ld?$AA@
CONST	SEGMENT
??_C@_02EAOCLKAK@ld?$AA@ DB 'ld', 00H			; `string'
CONST	ENDS
;	COMDAT ??_C@_0BL@MKNOCKIC@Success?4?6Process?5cycles?5?$DN?5?$AA@
CONST	SEGMENT
??_C@_0BL@MKNOCKIC@Success?4?6Process?5cycles?5?$DN?5?$AA@ DB 'Success.', 0aH
	DB	'Process cycles = ', 00H			; `string'
CONST	ENDS
;	COMDAT ??_C@_0BD@MCLJHKGF@Now?5deciphering?4?4?4?$AA@
CONST	SEGMENT
??_C@_0BD@MCLJHKGF@Now?5deciphering?4?4?4?$AA@ DB 'Now deciphering...', 00H ; `string'
CONST	ENDS
;	COMDAT ??_C@_00CNPNBAHC@?$AA@
CONST	SEGMENT
??_C@_00CNPNBAHC@?$AA@ DB 00H				; `string'
CONST	ENDS
;	COMDAT ??_C@_0BA@HLPOIFPO@undefined?5type?4?$AA@
CONST	SEGMENT
??_C@_0BA@HLPOIFPO@undefined?5type?4?$AA@ DB 'undefined type.', 00H ; `string'
CONST	ENDS
;	COMDAT ??_C@_06MPKGPFAO@PKCS?$CD8?$AA@
CONST	SEGMENT
??_C@_06MPKGPFAO@PKCS?$CD8?$AA@ DB 'PKCS#8', 00H	; `string'
CONST	ENDS
;	COMDAT ??_C@_0BD@DEHKJKGA@Now?5enciphering?4?4?4?$AA@
CONST	SEGMENT
??_C@_0BD@DEHKJKGA@Now?5enciphering?4?4?4?$AA@ DB 'Now enciphering...', 00H ; `string'
CONST	ENDS
;	COMDAT ??_C@_0BC@MPENPPNL@Object?5Identifier?$AA@
CONST	SEGMENT
??_C@_0BC@MPENPPNL@Object?5Identifier?$AA@ DB 'Object Identifier', 00H ; `string'
CONST	ENDS
;	COMDAT ?oid_PKCS7_1@?1??encrypt@@YAXXZ@4QBIB
CONST	SEGMENT
?oid_PKCS7_1@?1??encrypt@@YAXXZ@4QBIB DD 01H		; `encrypt'::`2'::oid_PKCS7_1
	DD	02H
	DD	0348H
	DD	01bb8dH
	DD	01H
	DD	07H
	DD	01H
CONST	ENDS
;	COMDAT ??_C@_01CLKCMJKC@?5?$AA@
CONST	SEGMENT
??_C@_01CLKCMJKC@?5?$AA@ DB ' ', 00H			; `string'
; Function compile flags: /Ogtpy
; File c:\program files\microsoft visual studio 9.0\vc\include\xiosbase
;	COMDAT ?rdstate@ios_base@std@@QBEHXZ
_TEXT	SEGMENT
?rdstate@ios_base@std@@QBEHXZ PROC			; std::ios_base::rdstate, COMDAT
; _this$ = ecx

; 311  : 		return (_Mystate);

  00000	8b 41 08	 mov	 eax, DWORD PTR [ecx+8]

; 312  : 		}

  00003	c3		 ret	 0
?rdstate@ios_base@std@@QBEHXZ ENDP			; std::ios_base::rdstate
; Function compile flags: /Ogtpy
; File c:\program files\microsoft visual studio 9.0\vc\include\xstring
_TEXT	ENDS
;	COMDAT ?_Myptr@?$basic_string@DU?$char_traits@D@std@@V?$allocator@D@2@@std@@IAEPADXZ
_TEXT	SEGMENT
?_Myptr@?$basic_string@DU?$char_traits@D@std@@V?$allocator@D@2@@std@@IAEPADXZ PROC ; std::basic_string<char,std::char_traits<char>,std::allocator<char> >::_Myptr, COMDAT
; _this$ = ecx

; 2170 : 		return (_BUF_SIZE <= _Myres ? _Bx._Ptr : _Bx._Buf);

  00000	83 79 18 10	 cmp	 DWORD PTR [ecx+24], 16	; 00000010H
  00004	72 04		 jb	 SHORT $LN3@Myptr
  00006	8b 41 04	 mov	 eax, DWORD PTR [ecx+4]

; 2171 : 		}

  00009	c3		 ret	 0
$LN3@Myptr:

; 2170 : 		return (_BUF_SIZE <= _Myres ? _Bx._Ptr : _Bx._Buf);

  0000a	8d 41 04	 lea	 eax, DWORD PTR [ecx+4]

; 2171 : 		}

  0000d	c3		 ret	 0
?_Myptr@?$basic_string@DU?$char_traits@D@std@@V?$allocator@D@2@@std@@IAEPADXZ ENDP ; std::basic_string<char,std::char_traits<char>,std::allocator<char> >::_Myptr
; Function compile flags: /Ogtpy
; File c:\program files\microsoft visual studio 9.0\vc\include\iosfwd
_TEXT	ENDS
;	COMDAT ?assign@?$char_traits@D@std@@SAXAADABD@Z
_TEXT	SEGMENT
__Left$ = 8						; size = 4
__Right$ = 12						; size = 4
?assign@?$char_traits@D@std@@SAXAADABD@Z PROC		; std::char_traits<char>::assign, COMDAT

; 425  : 		_Left = _Right;

  00000	8b 44 24 08	 mov	 eax, DWORD PTR __Right$[esp-4]
  00004	8a 08		 mov	 cl, BYTE PTR [eax]
  00006	8b 54 24 04	 mov	 edx, DWORD PTR __Left$[esp-4]
  0000a	88 0a		 mov	 BYTE PTR [edx], cl

; 426  : 		}

  0000c	c3		 ret	 0
?assign@?$char_traits@D@std@@SAXAADABD@Z ENDP		; std::char_traits<char>::assign
; Function compile flags: /Ogtpy
; File c:\program files\microsoft visual studio 9.0\vc\include\xmemory
_TEXT	ENDS
;	COMDAT ?deallocate@?$allocator@D@std@@QAEXPADI@Z
_TEXT	SEGMENT
__Ptr$ = 8						; size = 4
___formal$ = 12						; size = 4
?deallocate@?$allocator@D@std@@QAEXPADI@Z PROC		; std::allocator<char>::deallocate, COMDAT
; _this$ = ecx

; 140  : 		::operator delete(_Ptr);

  00000	8b 44 24 04	 mov	 eax, DWORD PTR __Ptr$[esp-4]
  00004	50		 push	 eax
  00005	e8 00 00 00 00	 call	 ??3@YAXPAX@Z		; operator delete
  0000a	59		 pop	 ecx

; 141  : 		}

  0000b	c2 08 00	 ret	 8
?deallocate@?$allocator@D@std@@QAEXPADI@Z ENDP		; std::allocator<char>::deallocate
; Function compile flags: /Ogtpy
; File c:\program files\microsoft visual studio 9.0\vc\include\iosfwd
_TEXT	ENDS
;	COMDAT ??$_Char_traits_cat@U?$char_traits@D@std@@@std@@YA?AU_Secure_char_traits_tag@0@XZ
_TEXT	SEGMENT
__Secure$ = -1						; size = 1
??$_Char_traits_cat@U?$char_traits@D@std@@@std@@YA?AU_Secure_char_traits_tag@0@XZ PROC ; std::_Char_traits_cat<std::char_traits<char> >, COMDAT

; 575  : 	{

  00000	51		 push	 ecx

; 576  : 		typename _Char_traits_category<_Traits>::_Secure_char_traits _Secure;
; 577  : 		return (_Secure);

  00001	8a 44 24 03	 mov	 al, BYTE PTR __Secure$[esp+4]

; 578  : 	}

  00005	59		 pop	 ecx
  00006	c3		 ret	 0
??$_Char_traits_cat@U?$char_traits@D@std@@@std@@YA?AU_Secure_char_traits_tag@0@XZ ENDP ; std::_Char_traits_cat<std::char_traits<char> >
; Function compile flags: /Ogtpy
_TEXT	ENDS
;	COMDAT ?_Copy_s@?$char_traits@D@std@@SAPADPADIPBDI@Z
_TEXT	SEGMENT
__First1$ = 8						; size = 4
__Size_in_bytes$ = 12					; size = 4
__First2$ = 16						; size = 4
__Count$ = 20						; size = 4
?_Copy_s@?$char_traits@D@std@@SAPADPADIPBDI@Z PROC	; std::char_traits<char>::_Copy_s, COMDAT

; 463  : //		_DEBUG_POINTER(_First1);
; 464  : //		_DEBUG_POINTER(_First2);
; 465  : 		_CRT_SECURE_MEMCPY(_First1, _Size_in_bytes, _First2, _Count);

  00000	8b 44 24 10	 mov	 eax, DWORD PTR __Count$[esp-4]
  00004	8b 4c 24 0c	 mov	 ecx, DWORD PTR __First2$[esp-4]
  00008	8b 54 24 08	 mov	 edx, DWORD PTR __Size_in_bytes$[esp-4]
  0000c	56		 push	 esi
  0000d	8b 74 24 08	 mov	 esi, DWORD PTR __First1$[esp]
  00011	50		 push	 eax
  00012	51		 push	 ecx
  00013	52		 push	 edx
  00014	56		 push	 esi
  00015	e8 00 00 00 00	 call	 _memcpy_s
  0001a	83 c4 10	 add	 esp, 16			; 00000010H

; 466  : 		return _First1;

  0001d	8b c6		 mov	 eax, esi
  0001f	5e		 pop	 esi

; 467  : 		}

  00020	c3		 ret	 0
?_Copy_s@?$char_traits@D@std@@SAPADPADIPBDI@Z ENDP	; std::char_traits<char>::_Copy_s
; Function compile flags: /Ogtpy
; File c:\program files\microsoft visual studio 9.0\vc\include\xstring
_TEXT	ENDS
;	COMDAT ?_Myptr@?$basic_string@DU?$char_traits@D@std@@V?$allocator@D@2@@std@@IBEPBDXZ
_TEXT	SEGMENT
?_Myptr@?$basic_string@DU?$char_traits@D@std@@V?$allocator@D@2@@std@@IBEPBDXZ PROC ; std::basic_string<char,std::char_traits<char>,std::allocator<char> >::_Myptr, COMDAT
; _this$ = ecx

; 2175 : 		return (_BUF_SIZE <= _Myres ? _Bx._Ptr : _Bx._Buf);

  00000	83 79 18 10	 cmp	 DWORD PTR [ecx+24], 16	; 00000010H
  00004	72 04		 jb	 SHORT $LN3@Myptr@2
  00006	8b 41 04	 mov	 eax, DWORD PTR [ecx+4]

; 2176 : 		}

  00009	c3		 ret	 0
$LN3@Myptr@2:

; 2175 : 		return (_BUF_SIZE <= _Myres ? _Bx._Ptr : _Bx._Buf);

  0000a	8d 41 04	 lea	 eax, DWORD PTR [ecx+4]

; 2176 : 		}

  0000d	c3		 ret	 0
?_Myptr@?$basic_string@DU?$char_traits@D@std@@V?$allocator@D@2@@std@@IBEPBDXZ ENDP ; std::basic_string<char,std::char_traits<char>,std::allocator<char> >::_Myptr
; Function compile flags: /Ogtpy
_TEXT	ENDS
;	COMDAT ??0bad_alloc@std@@QAE@ABV01@@Z
_TEXT	SEGMENT
___that$ = 8						; size = 4
??0bad_alloc@std@@QAE@ABV01@@Z PROC			; std::bad_alloc::bad_alloc, COMDAT
; _this$ = ecx
  00000	8b 44 24 04	 mov	 eax, DWORD PTR ___that$[esp-4]
  00004	56		 push	 esi
  00005	50		 push	 eax
  00006	8b f1		 mov	 esi, ecx
  00008	e8 00 00 00 00	 call	 ??0exception@std@@QAE@ABV01@@Z ; std::exception::exception
  0000d	c7 06 00 00 00
	00		 mov	 DWORD PTR [esi], OFFSET ??_7bad_alloc@std@@6B@
  00013	8b c6		 mov	 eax, esi
  00015	5e		 pop	 esi
  00016	c2 04 00	 ret	 4
??0bad_alloc@std@@QAE@ABV01@@Z ENDP			; std::bad_alloc::bad_alloc
; Function compile flags: /Ogtpy
; File c:\program files\microsoft visual studio 9.0\vc\include\exception
_TEXT	ENDS
;	COMDAT ??1bad_alloc@std@@UAE@XZ
_TEXT	SEGMENT
??1bad_alloc@std@@UAE@XZ PROC				; std::bad_alloc::~bad_alloc, COMDAT
; _this$ = ecx

; 380  : 		{	// destroy the object

  00000	c7 01 00 00 00
	00		 mov	 DWORD PTR [ecx], OFFSET ??_7bad_alloc@std@@6B@

; 381  : 		}

  00006	e9 00 00 00 00	 jmp	 ??1exception@std@@UAE@XZ ; std::exception::~exception
??1bad_alloc@std@@UAE@XZ ENDP				; std::bad_alloc::~bad_alloc
; Function compile flags: /Ogtpy
_TEXT	ENDS
;	COMDAT ??0bad_alloc@std@@QAE@PBD@Z
_TEXT	SEGMENT
__Message$ = 8						; size = 4
??0bad_alloc@std@@QAE@PBD@Z PROC			; std::bad_alloc::bad_alloc, COMDAT
; _this$ = ecx

; 371  : 		{	// construct from message string

  00000	56		 push	 esi
  00001	8d 44 24 08	 lea	 eax, DWORD PTR __Message$[esp]
  00005	50		 push	 eax
  00006	8b f1		 mov	 esi, ecx
  00008	e8 00 00 00 00	 call	 ??0exception@std@@QAE@ABQBD@Z ; std::exception::exception
  0000d	c7 06 00 00 00
	00		 mov	 DWORD PTR [esi], OFFSET ??_7bad_alloc@std@@6B@

; 372  : 		}

  00013	8b c6		 mov	 eax, esi
  00015	5e		 pop	 esi
  00016	c2 04 00	 ret	 4
??0bad_alloc@std@@QAE@PBD@Z ENDP			; std::bad_alloc::bad_alloc
; Function compile flags: /Ogtpy
; File c:\program files\microsoft visual studio 9.0\vc\include\xmemory
_TEXT	ENDS
;	COMDAT ?max_size@?$allocator@D@std@@QBEIXZ
_TEXT	SEGMENT
?max_size@?$allocator@D@std@@QBEIXZ PROC		; std::allocator<char>::max_size, COMDAT
; _this$ = ecx

; 165  : 		_SIZT _Count = (_SIZT)(-1) / sizeof (_Ty);
; 166  : 		return (0 < _Count ? _Count : 1);

  00000	83 c8 ff	 or	 eax, -1

; 167  : 		}

  00003	c3		 ret	 0
?max_size@?$allocator@D@std@@QBEIXZ ENDP		; std::allocator<char>::max_size
; Function compile flags: /Ogtpy
; File c:\program files\microsoft visual studio 9.0\vc\include\iosfwd
_TEXT	ENDS
;	COMDAT ?_Move_s@?$char_traits@D@std@@SAPADPADIPBDI@Z
_TEXT	SEGMENT
__First1$ = 8						; size = 4
__Size_in_bytes$ = 12					; size = 4
__First2$ = 16						; size = 4
__Count$ = 20						; size = 4
?_Move_s@?$char_traits@D@std@@SAPADPADIPBDI@Z PROC	; std::char_traits<char>::_Move_s, COMDAT

; 487  : //		_DEBUG_POINTER(_First1);
; 488  : //		_DEBUG_POINTER(_First2);
; 489  : 		_CRT_SECURE_MEMMOVE(_First1, _Size_in_bytes, _First2, _Count);

  00000	8b 44 24 10	 mov	 eax, DWORD PTR __Count$[esp-4]
  00004	8b 4c 24 0c	 mov	 ecx, DWORD PTR __First2$[esp-4]
  00008	8b 54 24 08	 mov	 edx, DWORD PTR __Size_in_bytes$[esp-4]
  0000c	56		 push	 esi
  0000d	8b 74 24 08	 mov	 esi, DWORD PTR __First1$[esp]
  00011	50		 push	 eax
  00012	51		 push	 ecx
  00013	52		 push	 edx
  00014	56		 push	 esi
  00015	e8 00 00 00 00	 call	 _memmove_s
  0001a	83 c4 10	 add	 esp, 16			; 00000010H

; 490  : 		return _First1;

  0001d	8b c6		 mov	 eax, esi
  0001f	5e		 pop	 esi

; 491  : 		}

  00020	c3		 ret	 0
?_Move_s@?$char_traits@D@std@@SAPADPADIPBDI@Z ENDP	; std::char_traits<char>::_Move_s
; Function compile flags: /Ogtpy
; File c:\program files\microsoft visual studio 9.0\vc\include\xstring
_TEXT	ENDS
;	COMDAT ?size@?$basic_string@DU?$char_traits@D@std@@V?$allocator@D@2@@std@@QBEIXZ
_TEXT	SEGMENT
?size@?$basic_string@DU?$char_traits@D@std@@V?$allocator@D@2@@std@@QBEIXZ PROC ; std::basic_string<char,std::char_traits<char>,std::allocator<char> >::size, COMDAT
; _this$ = ecx

; 1666 : 		return (_Mysize);

  00000	8b 41 14	 mov	 eax, DWORD PTR [ecx+20]

; 1667 : 		}

  00003	c3		 ret	 0
?size@?$basic_string@DU?$char_traits@D@std@@V?$allocator@D@2@@std@@QBEIXZ ENDP ; std::basic_string<char,std::char_traits<char>,std::allocator<char> >::size
; Function compile flags: /Ogtpy
; File c:\program files\microsoft visual studio 9.0\vc\include\xmemory
_TEXT	ENDS
;	COMDAT ??0?$allocator@D@std@@QAE@ABV01@@Z
_TEXT	SEGMENT
___formal$ = 8						; size = 4
??0?$allocator@D@std@@QAE@ABV01@@Z PROC			; std::allocator<char>::allocator<char>, COMDAT
; _this$ = ecx

; 123  : 	allocator(const allocator<_Ty>&) _THROW0()

  00000	8b c1		 mov	 eax, ecx

; 124  : 		{	// construct by copying (do nothing)
; 125  : 		}

  00002	c2 04 00	 ret	 4
??0?$allocator@D@std@@QAE@ABV01@@Z ENDP			; std::allocator<char>::allocator<char>
; Function compile flags: /Ogtpy
; File c:\program files\microsoft visual studio 9.0\vc\include\xstring
_TEXT	ENDS
;	COMDAT ?c_str@?$basic_string@DU?$char_traits@D@std@@V?$allocator@D@2@@std@@QBEPBDXZ
_TEXT	SEGMENT
?c_str@?$basic_string@DU?$char_traits@D@std@@V?$allocator@D@2@@std@@QBEPBDXZ PROC ; std::basic_string<char,std::char_traits<char>,std::allocator<char> >::c_str, COMDAT
; _this$ = ecx

; 1651 : 		return (_Myptr());

  00000	83 79 18 10	 cmp	 DWORD PTR [ecx+24], 16	; 00000010H
  00004	72 04		 jb	 SHORT $LN5@c_str
  00006	8b 41 04	 mov	 eax, DWORD PTR [ecx+4]

; 1652 : 		}

  00009	c3		 ret	 0

; 1651 : 		return (_Myptr());

$LN5@c_str:
  0000a	8d 41 04	 lea	 eax, DWORD PTR [ecx+4]

; 1652 : 		}

  0000d	c3		 ret	 0
?c_str@?$basic_string@DU?$char_traits@D@std@@V?$allocator@D@2@@std@@QBEPBDXZ ENDP ; std::basic_string<char,std::char_traits<char>,std::allocator<char> >::c_str
; Function compile flags: /Ogtpy
; File c:\program files\microsoft visual studio 9.0\vc\include\iosfwd
_TEXT	ENDS
;	COMDAT ?length@?$char_traits@D@std@@SAIPBD@Z
_TEXT	SEGMENT
__First$ = 8						; size = 4
?length@?$char_traits@D@std@@SAIPBD@Z PROC		; std::char_traits<char>::length, COMDAT

; 448  : //		_DEBUG_POINTER(_First);
; 449  : 		return (::strlen(_First));

  00000	8b 44 24 04	 mov	 eax, DWORD PTR __First$[esp-4]
  00004	8d 50 01	 lea	 edx, DWORD PTR [eax+1]
$LL3@length:
  00007	8a 08		 mov	 cl, BYTE PTR [eax]
  00009	40		 inc	 eax
  0000a	84 c9		 test	 cl, cl
  0000c	75 f9		 jne	 SHORT $LL3@length
  0000e	2b c2		 sub	 eax, edx

; 450  : 		}

  00010	c3		 ret	 0
?length@?$char_traits@D@std@@SAIPBD@Z ENDP		; std::char_traits<char>::length
; Function compile flags: /Ogtpy
; File c:\program files\microsoft visual studio 9.0\vc\include\xstring
_TEXT	ENDS
;	COMDAT ?_Inside@?$basic_string@DU?$char_traits@D@std@@V?$allocator@D@2@@std@@IAE_NPBD@Z
_TEXT	SEGMENT
__Ptr$ = 8						; size = 4
?_Inside@?$basic_string@DU?$char_traits@D@std@@V?$allocator@D@2@@std@@IAE_NPBD@Z PROC ; std::basic_string<char,std::char_traits<char>,std::allocator<char> >::_Inside, COMDAT
; _this$ = ecx

; 2133 : 		{	// test if _Ptr points inside string

  00000	56		 push	 esi
  00001	57		 push	 edi

; 2134 : 		if (_Ptr == 0 || _Ptr < _Myptr() || _Myptr() + _Mysize <= _Ptr)

  00002	8b 7c 24 0c	 mov	 edi, DWORD PTR __Ptr$[esp+4]
  00006	85 ff		 test	 edi, edi
  00008	74 2c		 je	 SHORT $LN2@Inside
  0000a	8b 71 18	 mov	 esi, DWORD PTR [ecx+24]
  0000d	8d 41 04	 lea	 eax, DWORD PTR [ecx+4]
  00010	83 fe 10	 cmp	 esi, 16			; 00000010H
  00013	72 04		 jb	 SHORT $LN8@Inside
  00015	8b 10		 mov	 edx, DWORD PTR [eax]
  00017	eb 02		 jmp	 SHORT $LN9@Inside
$LN8@Inside:
  00019	8b d0		 mov	 edx, eax
$LN9@Inside:
  0001b	3b fa		 cmp	 edi, edx
  0001d	72 17		 jb	 SHORT $LN2@Inside
  0001f	83 fe 10	 cmp	 esi, 16			; 00000010H
  00022	72 02		 jb	 SHORT $LN12@Inside
  00024	8b 00		 mov	 eax, DWORD PTR [eax]
$LN12@Inside:
  00026	8b 49 14	 mov	 ecx, DWORD PTR [ecx+20]
  00029	03 c8		 add	 ecx, eax
  0002b	3b cf		 cmp	 ecx, edi
  0002d	76 07		 jbe	 SHORT $LN2@Inside
  0002f	5f		 pop	 edi

; 2136 : 		else
; 2137 : 			return (true);

  00030	b0 01		 mov	 al, 1
  00032	5e		 pop	 esi

; 2138 : 		}

  00033	c2 04 00	 ret	 4
$LN2@Inside:
  00036	5f		 pop	 edi

; 2135 : 			return (false);	// don't ask

  00037	32 c0		 xor	 al, al
  00039	5e		 pop	 esi

; 2138 : 		}

  0003a	c2 04 00	 ret	 4
?_Inside@?$basic_string@DU?$char_traits@D@std@@V?$allocator@D@2@@std@@IAE_NPBD@Z ENDP ; std::basic_string<char,std::char_traits<char>,std::allocator<char> >::_Inside
; Function compile flags: /Ogtpy
; File c:\program files\microsoft visual studio 9.0\vc\include\xmemory
_TEXT	ENDS
;	COMDAT ??0?$allocator@D@std@@QAE@XZ
_TEXT	SEGMENT
??0?$allocator@D@std@@QAE@XZ PROC			; std::allocator<char>::allocator<char>, COMDAT
; _this$ = ecx

; 119  : 	allocator() _THROW0()

  00000	8b c1		 mov	 eax, ecx

; 120  : 		{	// construct default allocator (do nothing)
; 121  : 		}

  00002	c3		 ret	 0
??0?$allocator@D@std@@QAE@XZ ENDP			; std::allocator<char>::allocator<char>
; Function compile flags: /Ogtpy
; File c:\program files\microsoft visual studio 9.0\vc\include\xstring
_TEXT	ENDS
;	COMDAT ??0?$_String_val@DV?$allocator@D@std@@@std@@IAE@V?$allocator@D@1@@Z
_TEXT	SEGMENT
__Al$ = 8						; size = 1
??0?$_String_val@DV?$allocator@D@std@@@std@@IAE@V?$allocator@D@1@@Z PROC ; std::_String_val<char,std::allocator<char> >::_String_val<char,std::allocator<char> >, COMDAT
; _this$ = ecx

; 472  : 		{	// construct allocator from _Al

  00000	8b c1		 mov	 eax, ecx

; 473  : 		}

  00002	c2 04 00	 ret	 4
??0?$_String_val@DV?$allocator@D@std@@@std@@IAE@V?$allocator@D@1@@Z ENDP ; std::_String_val<char,std::allocator<char> >::_String_val<char,std::allocator<char> >
; Function compile flags: /Ogtpy
; File c:\program files\microsoft visual studio 9.0\vc\include\ios
_TEXT	ENDS
;	COMDAT ?rdbuf@?$basic_ios@DU?$char_traits@D@std@@@std@@QBEPAV?$basic_streambuf@DU?$char_traits@D@std@@@2@XZ
_TEXT	SEGMENT
?rdbuf@?$basic_ios@DU?$char_traits@D@std@@@std@@QBEPAV?$basic_streambuf@DU?$char_traits@D@std@@@2@XZ PROC ; std::basic_ios<char,std::char_traits<char> >::rdbuf, COMDAT
; _this$ = eax

; 85   : 		return (_Mystrbuf);

  00000	8b 40 28	 mov	 eax, DWORD PTR [eax+40]

; 86   : 		}

  00003	c3		 ret	 0
?rdbuf@?$basic_ios@DU?$char_traits@D@std@@@std@@QBEPAV?$basic_streambuf@DU?$char_traits@D@std@@@2@XZ ENDP ; std::basic_ios<char,std::char_traits<char> >::rdbuf
; Function compile flags: /Ogtpy
; File c:\program files\microsoft visual studio 9.0\vc\include\streambuf
_TEXT	ENDS
;	COMDAT ?pubsync@?$basic_streambuf@DU?$char_traits@D@std@@@std@@QAEHXZ
_TEXT	SEGMENT
?pubsync@?$basic_streambuf@DU?$char_traits@D@std@@@std@@QAEHXZ PROC ; std::basic_streambuf<char,std::char_traits<char> >::pubsync, COMDAT
; _this$ = ecx

; 100  : 		return (sync());

  00000	8b 01		 mov	 eax, DWORD PTR [ecx]
  00002	8b 50 30	 mov	 edx, DWORD PTR [eax+48]
  00005	ff e2		 jmp	 edx
?pubsync@?$basic_streambuf@DU?$char_traits@D@std@@@std@@QAEHXZ ENDP ; std::basic_streambuf<char,std::char_traits<char> >::pubsync
; Function compile flags: /Ogtpy
; File c:\program files\microsoft visual studio 9.0\vc\include\xiosbase
_TEXT	ENDS
;	COMDAT ?fail@ios_base@std@@QBE_NXZ
_TEXT	SEGMENT
?fail@ios_base@std@@QBE_NXZ PROC			; std::ios_base::fail, COMDAT
; _this$ = eax

; 344  : 		return (((int)rdstate()
; 345  : 			& ((int)badbit | (int)failbit)) != 0);

  00000	f6 40 08 06	 test	 BYTE PTR [eax+8], 6
  00004	b8 00 00 00 00	 mov	 eax, 0
  00009	0f 95 c0	 setne	 al

; 346  : 		}

  0000c	c3		 ret	 0
?fail@ios_base@std@@QBE_NXZ ENDP			; std::ios_base::fail
; Function compile flags: /Ogtpy
; File c:\program files\microsoft visual studio 9.0\vc\include\iosfwd
_TEXT	ENDS
;	COMDAT ?eof@?$char_traits@D@std@@SAHXZ
_TEXT	SEGMENT
?eof@?$char_traits@D@std@@SAHXZ PROC			; std::char_traits<char>::eof, COMDAT

; 517  : 		return (EOF);

  00000	83 c8 ff	 or	 eax, -1

; 518  : 		}

  00003	c3		 ret	 0
?eof@?$char_traits@D@std@@SAHXZ ENDP			; std::char_traits<char>::eof
; Function compile flags: /Ogtpy
_TEXT	ENDS
;	COMDAT ?to_int_type@?$char_traits@D@std@@SAHABD@Z
_TEXT	SEGMENT
__Ch$ = 8						; size = 4
?to_int_type@?$char_traits@D@std@@SAHABD@Z PROC		; std::char_traits<char>::to_int_type, COMDAT

; 506  : 		return ((unsigned char)_Ch);

  00000	8b 44 24 04	 mov	 eax, DWORD PTR __Ch$[esp-4]
  00004	0f b6 00	 movzx	 eax, BYTE PTR [eax]

; 507  : 		}

  00007	c3		 ret	 0
?to_int_type@?$char_traits@D@std@@SAHABD@Z ENDP		; std::char_traits<char>::to_int_type
; Function compile flags: /Ogtpy
; File c:\program files\microsoft visual studio 9.0\vc\include\streambuf
_TEXT	ENDS
;	COMDAT ?_Pninc@?$basic_streambuf@DU?$char_traits@D@std@@@std@@IAEPADXZ
_TEXT	SEGMENT
?_Pninc@?$basic_streambuf@DU?$char_traits@D@std@@@std@@IAEPADXZ PROC ; std::basic_streambuf<char,std::char_traits<char> >::_Pninc, COMDAT
; _this$ = ecx

; 271  : 		--*_IPcount;

  00000	8b 41 34	 mov	 eax, DWORD PTR [ecx+52]
  00003	ff 08		 dec	 DWORD PTR [eax]

; 272  : 		return ((*_IPnext)++);

  00005	8b 49 24	 mov	 ecx, DWORD PTR [ecx+36]
  00008	8b 01		 mov	 eax, DWORD PTR [ecx]
  0000a	8d 50 01	 lea	 edx, DWORD PTR [eax+1]
  0000d	89 11		 mov	 DWORD PTR [ecx], edx

; 273  : 		}

  0000f	c3		 ret	 0
?_Pninc@?$basic_streambuf@DU?$char_traits@D@std@@@std@@IAEPADXZ ENDP ; std::basic_streambuf<char,std::char_traits<char> >::_Pninc
; Function compile flags: /Ogtpy
_TEXT	ENDS
;	COMDAT ?_Pnavail@?$basic_streambuf@DU?$char_traits@D@std@@@std@@IBEHXZ
_TEXT	SEGMENT
?_Pnavail@?$basic_streambuf@DU?$char_traits@D@std@@@std@@IBEHXZ PROC ; std::basic_streambuf<char,std::char_traits<char> >::_Pnavail, COMDAT
; _this$ = ecx

; 277  : 		return (*_IPnext != 0 ? *_IPcount : 0);

  00000	8b 41 24	 mov	 eax, DWORD PTR [ecx+36]
  00003	83 38 00	 cmp	 DWORD PTR [eax], 0
  00006	74 06		 je	 SHORT $LN3@Pnavail
  00008	8b 49 34	 mov	 ecx, DWORD PTR [ecx+52]
  0000b	8b 01		 mov	 eax, DWORD PTR [ecx]

; 278  : 		}

  0000d	c3		 ret	 0
$LN3@Pnavail:

; 277  : 		return (*_IPnext != 0 ? *_IPcount : 0);

  0000e	33 c0		 xor	 eax, eax

; 278  : 		}

  00010	c3		 ret	 0
?_Pnavail@?$basic_streambuf@DU?$char_traits@D@std@@@std@@IBEHXZ ENDP ; std::basic_streambuf<char,std::char_traits<char> >::_Pnavail
; Function compile flags: /Ogtpy
; File c:\program files\microsoft visual studio 9.0\vc\include\iosfwd
_TEXT	ENDS
;	COMDAT ?eq_int_type@?$char_traits@D@std@@SA_NABH0@Z
_TEXT	SEGMENT
__Left$ = 8						; size = 4
__Right$ = 12						; size = 4
?eq_int_type@?$char_traits@D@std@@SA_NABH0@Z PROC	; std::char_traits<char>::eq_int_type, COMDAT

; 512  : 		return (_Left == _Right);

  00000	8b 44 24 04	 mov	 eax, DWORD PTR __Left$[esp-4]
  00004	8b 08		 mov	 ecx, DWORD PTR [eax]
  00006	8b 54 24 08	 mov	 edx, DWORD PTR __Right$[esp-4]
  0000a	33 c0		 xor	 eax, eax
  0000c	3b 0a		 cmp	 ecx, DWORD PTR [edx]
  0000e	0f 94 c0	 sete	 al

; 513  : 		}

  00011	c3		 ret	 0
?eq_int_type@?$char_traits@D@std@@SA_NABH0@Z ENDP	; std::char_traits<char>::eq_int_type
; Function compile flags: /Ogtpy
; File c:\program files\microsoft visual studio 9.0\vc\include\ostream
_TEXT	ENDS
;	COMDAT ??Bsentry@?$basic_ostream@DU?$char_traits@D@std@@@std@@QBE_NXZ
_TEXT	SEGMENT
??Bsentry@?$basic_ostream@DU?$char_traits@D@std@@@std@@QBE_NXZ PROC ; std::basic_ostream<char,std::char_traits<char> >::sentry::operator bool, COMDAT
; _this$ = eax

; 116  : 			return (_Ok);

  00000	8a 40 04	 mov	 al, BYTE PTR [eax+4]

; 117  : 			}

  00003	c3		 ret	 0
??Bsentry@?$basic_ostream@DU?$char_traits@D@std@@@std@@QBE_NXZ ENDP ; std::basic_ostream<char,std::char_traits<char> >::sentry::operator bool
; Function compile flags: /Ogtpy
; File c:\program files\microsoft visual studio 9.0\vc\include\xiosbase
_TEXT	ENDS
;	COMDAT ?flags@ios_base@std@@QBEHXZ
_TEXT	SEGMENT
?flags@ios_base@std@@QBEHXZ PROC			; std::ios_base::flags, COMDAT
; _this$ = eax

; 374  : 		return (_Fmtfl);

  00000	8b 40 10	 mov	 eax, DWORD PTR [eax+16]

; 375  : 		}

  00003	c3		 ret	 0
?flags@ios_base@std@@QBEHXZ ENDP			; std::ios_base::flags
; Function compile flags: /Ogtpy
; File c:\program files\microsoft visual studio 9.0\vc\include\streambuf
_TEXT	ENDS
;	COMDAT ?_Unlock@?$basic_streambuf@DU?$char_traits@D@std@@@std@@QAEXXZ
_TEXT	SEGMENT
?_Unlock@?$basic_streambuf@DU?$char_traits@D@std@@@std@@QAEXXZ PROC ; std::basic_streambuf<char,std::char_traits<char> >::_Unlock, COMDAT
; _this$ = ecx

; 178  : 		_Mylock._Unlock();

  00000	83 c1 04	 add	 ecx, 4
  00003	e9 00 00 00 00	 jmp	 ?_Unlock@_Mutex@std@@QAEXXZ ; std::_Mutex::_Unlock
?_Unlock@?$basic_streambuf@DU?$char_traits@D@std@@@std@@QAEXXZ ENDP ; std::basic_streambuf<char,std::char_traits<char> >::_Unlock
; Function compile flags: /Ogtpy
; File c:\program files\microsoft visual studio 9.0\vc\include\xiosbase
_TEXT	ENDS
;	COMDAT ?good@ios_base@std@@QBE_NXZ
_TEXT	SEGMENT
?good@ios_base@std@@QBE_NXZ PROC			; std::ios_base::good, COMDAT
; _this$ = ecx

; 334  : 		return (rdstate() == goodbit);

  00000	33 c0		 xor	 eax, eax
  00002	39 41 08	 cmp	 DWORD PTR [ecx+8], eax
  00005	0f 94 c0	 sete	 al

; 335  : 		}

  00008	c3		 ret	 0
?good@ios_base@std@@QBE_NXZ ENDP			; std::ios_base::good
; Function compile flags: /Ogtpy
; File c:\program files\microsoft visual studio 9.0\vc\include\ios
_TEXT	ENDS
;	COMDAT ?tie@?$basic_ios@DU?$char_traits@D@std@@@std@@QBEPAV?$basic_ostream@DU?$char_traits@D@std@@@2@XZ
_TEXT	SEGMENT
?tie@?$basic_ios@DU?$char_traits@D@std@@@std@@QBEPAV?$basic_ostream@DU?$char_traits@D@std@@@2@XZ PROC ; std::basic_ios<char,std::char_traits<char> >::tie, COMDAT
; _this$ = eax

; 73   : 		return (_Tiestr);

  00000	8b 40 2c	 mov	 eax, DWORD PTR [eax+44]

; 74   : 		}

  00003	c3		 ret	 0
?tie@?$basic_ios@DU?$char_traits@D@std@@@std@@QBEPAV?$basic_ostream@DU?$char_traits@D@std@@@2@XZ ENDP ; std::basic_ios<char,std::char_traits<char> >::tie
; Function compile flags: /Ogtpy
; File c:\program files\microsoft visual studio 9.0\vc\include\streambuf
_TEXT	ENDS
;	COMDAT ?_Lock@?$basic_streambuf@DU?$char_traits@D@std@@@std@@QAEXXZ
_TEXT	SEGMENT
?_Lock@?$basic_streambuf@DU?$char_traits@D@std@@@std@@QAEXXZ PROC ; std::basic_streambuf<char,std::char_traits<char> >::_Lock, COMDAT
; _this$ = ecx

; 173  : 		_Mylock._Lock();

  00000	83 c1 04	 add	 ecx, 4
  00003	e9 00 00 00 00	 jmp	 ?_Lock@_Mutex@std@@QAEXXZ ; std::_Mutex::_Lock
?_Lock@?$basic_streambuf@DU?$char_traits@D@std@@@std@@QAEXXZ ENDP ; std::basic_streambuf<char,std::char_traits<char> >::_Lock
; Function compile flags: /Ogtpy
; File c:\program files\microsoft visual studio 9.0\vc\include\xiosbase
_TEXT	ENDS
;	COMDAT ?setf@ios_base@std@@QAEHHH@Z
_TEXT	SEGMENT
__Newfmtflags$ = 8					; size = 4
__Mask$ = 12						; size = 4
?setf@ios_base@std@@QAEHHH@Z PROC			; std::ios_base::setf, COMDAT
; _this$ = ecx

; 394  : 		ios_base::fmtflags _Oldfmtflags = _Fmtfl;
; 395  : 		_Fmtfl = (fmtflags)(((int)_Fmtfl & (int)~_Mask)
; 396  : 			| ((int)_Newfmtflags & (int)_Mask & (int)_Fmtmask));

  00000	8b 54 24 08	 mov	 edx, DWORD PTR __Mask$[esp-4]
  00004	8b 41 10	 mov	 eax, DWORD PTR [ecx+16]
  00007	56		 push	 esi
  00008	57		 push	 edi
  00009	8b 7c 24 0c	 mov	 edi, DWORD PTR __Newfmtflags$[esp+4]
  0000d	8b f2		 mov	 esi, edx
  0000f	f7 d6		 not	 esi
  00011	23 fa		 and	 edi, edx
  00013	23 f0		 and	 esi, eax
  00015	81 e7 ff ff 00
	00		 and	 edi, 65535		; 0000ffffH
  0001b	0b f7		 or	 esi, edi
  0001d	5f		 pop	 edi
  0001e	89 71 10	 mov	 DWORD PTR [ecx+16], esi
  00021	5e		 pop	 esi

; 397  : 		return (_Oldfmtflags);
; 398  : 		}

  00022	c2 08 00	 ret	 8
?setf@ios_base@std@@QAEHHH@Z ENDP			; std::ios_base::setf
; Function compile flags: /Ogtpy
; File c:\program files\microsoft visual studio 9.0\vc\include\ios
_TEXT	ENDS
;	COMDAT ?dec@std@@YAAAVios_base@1@AAV21@@Z
_TEXT	SEGMENT
__Iosbase$ = 8						; size = 4
?dec@std@@YAAAVios_base@1@AAV21@@Z PROC			; std::dec, COMDAT

; 179  : 	_Iosbase.setf(ios_base::dec, ios_base::basefield);

  00000	8b 44 24 04	 mov	 eax, DWORD PTR __Iosbase$[esp-4]
  00004	8b 48 10	 mov	 ecx, DWORD PTR [eax+16]
  00007	81 e1 ff f3 ff
	ff		 and	 ecx, -3073		; fffff3ffH
  0000d	81 c9 00 02 00
	00		 or	 ecx, 512		; 00000200H
  00013	89 48 10	 mov	 DWORD PTR [eax+16], ecx

; 180  : 	return (_Iosbase);
; 181  : 	}

  00016	c3		 ret	 0
?dec@std@@YAAAVios_base@1@AAV21@@Z ENDP			; std::dec
; Function compile flags: /Ogtpy
; File c:\program files\microsoft visual studio 9.0\vc\include\xiosbase
_TEXT	ENDS
;	COMDAT ??Bios_base@std@@QBEPAXXZ
_TEXT	SEGMENT
??Bios_base@std@@QBEPAXXZ PROC				; std::ios_base::operator void *, COMDAT
; _this$ = ecx

; 276  : 		return (fail() ? 0 : (void *)this);

  00000	8b 41 08	 mov	 eax, DWORD PTR [ecx+8]
  00003	24 06		 and	 al, 6
  00005	0f be c0	 movsx	 eax, al
  00008	f7 d8		 neg	 eax
  0000a	1b c0		 sbb	 eax, eax
  0000c	f7 d0		 not	 eax
  0000e	23 c1		 and	 eax, ecx

; 277  : 		}

  00010	c3		 ret	 0
??Bios_base@std@@QBEPAXXZ ENDP				; std::ios_base::operator void *
; Function compile flags: /Ogtpy
_TEXT	ENDS
;	COMDAT ??1ios_base@std@@UAE@XZ
_TEXT	SEGMENT
??1ios_base@std@@UAE@XZ PROC				; std::ios_base::~ios_base, COMDAT
; _this$ = ecx

; 494  :         _Ios_base_dtor(this);

  00000	51		 push	 ecx
  00001	c7 01 00 00 00
	00		 mov	 DWORD PTR [ecx], OFFSET ??_7ios_base@std@@6B@
  00007	e8 00 00 00 00	 call	 ?_Ios_base_dtor@ios_base@std@@CAXPAV12@@Z ; std::ios_base::_Ios_base_dtor
  0000c	59		 pop	 ecx

; 495  :         }

  0000d	c3		 ret	 0
??1ios_base@std@@UAE@XZ ENDP				; std::ios_base::~ios_base
; Function compile flags: /Ogtpy
_TEXT	ENDS
;	COMDAT ??_Gios_base@std@@UAEPAXI@Z
_TEXT	SEGMENT
___flags$ = 8						; size = 4
??_Gios_base@std@@UAEPAXI@Z PROC			; std::ios_base::`scalar deleting destructor', COMDAT
; _this$ = ecx
  00000	56		 push	 esi
  00001	8b f1		 mov	 esi, ecx
  00003	56		 push	 esi
  00004	c7 06 00 00 00
	00		 mov	 DWORD PTR [esi], OFFSET ??_7ios_base@std@@6B@
  0000a	e8 00 00 00 00	 call	 ?_Ios_base_dtor@ios_base@std@@CAXPAV12@@Z ; std::ios_base::_Ios_base_dtor
  0000f	83 c4 04	 add	 esp, 4
  00012	f6 44 24 08 01	 test	 BYTE PTR ___flags$[esp], 1
  00017	74 09		 je	 SHORT $LN6@scalar
  00019	56		 push	 esi
  0001a	e8 00 00 00 00	 call	 ??3@YAXPAX@Z		; operator delete
  0001f	83 c4 04	 add	 esp, 4
$LN6@scalar:
  00022	8b c6		 mov	 eax, esi
  00024	5e		 pop	 esi
  00025	c2 04 00	 ret	 4
??_Gios_base@std@@UAEPAXI@Z ENDP			; std::ios_base::`scalar deleting destructor'
; Function compile flags: /Ogtpy
; File c:\program files\microsoft visual studio 9.0\vc\include\time.inl
_TEXT	ENDS
;	COMDAT _time
_TEXT	SEGMENT
_time	PROC						; COMDAT
; __Time$ = eax

; 135  :     return _time64(_Time);

  00000	50		 push	 eax
  00001	e8 00 00 00 00	 call	 __time64
  00006	83 c4 04	 add	 esp, 4

; 136  : }

  00009	c3		 ret	 0
_time	ENDP
; Function compile flags: /Ogtpy
; File c:\program files\microsoft visual studio 9.0\vc\include\xlocale
_TEXT	ENDS
;	COMDAT ??1facet@locale@std@@UAE@XZ
_TEXT	SEGMENT
??1facet@locale@std@@UAE@XZ PROC			; std::locale::facet::~facet, COMDAT
; _this$ = ecx

; 170  : 			{	// destroy the object

  00000	c7 01 00 00 00
	00		 mov	 DWORD PTR [ecx], OFFSET ??_7facet@locale@std@@6B@

; 171  : 			}

  00006	c3		 ret	 0
??1facet@locale@std@@UAE@XZ ENDP			; std::locale::facet::~facet
; Function compile flags: /Ogtpy
_TEXT	ENDS
;	COMDAT ??_Gfacet@locale@std@@UAEPAXI@Z
_TEXT	SEGMENT
___flags$ = 8						; size = 4
??_Gfacet@locale@std@@UAEPAXI@Z PROC			; std::locale::facet::`scalar deleting destructor', COMDAT
; _this$ = ecx
  00000	f6 44 24 04 01	 test	 BYTE PTR ___flags$[esp-4], 1
  00005	56		 push	 esi
  00006	8b f1		 mov	 esi, ecx
  00008	c7 06 00 00 00
	00		 mov	 DWORD PTR [esi], OFFSET ??_7facet@locale@std@@6B@
  0000e	74 09		 je	 SHORT $LN6@scalar@2
  00010	56		 push	 esi
  00011	e8 00 00 00 00	 call	 ??3@YAXPAX@Z		; operator delete
  00016	83 c4 04	 add	 esp, 4
$LN6@scalar@2:
  00019	8b c6		 mov	 eax, esi
  0001b	5e		 pop	 esi
  0001c	c2 04 00	 ret	 4
??_Gfacet@locale@std@@UAEPAXI@Z ENDP			; std::locale::facet::`scalar deleting destructor'
; Function compile flags: /Ogtpy
_TEXT	ENDS
;	COMDAT ?_Decref@facet@locale@std@@QAEPAV123@XZ
_TEXT	SEGMENT
__Lock$25353 = -4					; size = 4
?_Decref@facet@locale@std@@QAEPAV123@XZ PROC		; std::locale::facet::_Decref, COMDAT
; _this$ = ecx

; 125  : 			{	// safely decrement the reference count, return this when dead

  00000	51		 push	 ecx
  00001	56		 push	 esi
  00002	57		 push	 edi
  00003	8b f9		 mov	 edi, ecx

; 126  : 			_BEGIN_LOCK(_LOCK_LOCALE)

  00005	6a 00		 push	 0
  00007	8d 4c 24 0c	 lea	 ecx, DWORD PTR __Lock$25353[esp+16]
  0000b	e8 00 00 00 00	 call	 ??0_Lockit@std@@QAE@H@Z	; std::_Lockit::_Lockit

; 127  : 				if (0 < _Refs && _Refs < (size_t)(-1))

  00010	8b 47 04	 mov	 eax, DWORD PTR [edi+4]
  00013	85 c0		 test	 eax, eax
  00015	76 09		 jbe	 SHORT $LN1@Decref
  00017	83 f8 ff	 cmp	 eax, -1
  0001a	73 04		 jae	 SHORT $LN1@Decref

; 128  : 					--_Refs;

  0001c	48		 dec	 eax
  0001d	89 47 04	 mov	 DWORD PTR [edi+4], eax
$LN1@Decref:

; 129  : 				return (_Refs == 0 ? this : 0);

  00020	8b 77 04	 mov	 esi, DWORD PTR [edi+4]
  00023	f7 de		 neg	 esi
  00025	1b f6		 sbb	 esi, esi
  00027	f7 d6		 not	 esi
  00029	8d 4c 24 08	 lea	 ecx, DWORD PTR __Lock$25353[esp+12]
  0002d	23 f7		 and	 esi, edi
  0002f	e8 00 00 00 00	 call	 ??1_Lockit@std@@QAE@XZ	; std::_Lockit::~_Lockit
  00034	5f		 pop	 edi
  00035	8b c6		 mov	 eax, esi
  00037	5e		 pop	 esi

; 130  : 			_END_LOCK()
; 131  : 			}

  00038	59		 pop	 ecx
  00039	c3		 ret	 0
?_Decref@facet@locale@std@@QAEPAV123@XZ ENDP		; std::locale::facet::_Decref
; Function compile flags: /Ogtpy
_TEXT	ENDS
;	COMDAT ?_Incref@facet@locale@std@@QAEXXZ
_TEXT	SEGMENT
__Lock$25348 = -4					; size = 4
?_Incref@facet@locale@std@@QAEXXZ PROC			; std::locale::facet::_Incref, COMDAT
; _this$ = ecx

; 117  : 			{	// safely increment the reference count

  00000	51		 push	 ecx
  00001	56		 push	 esi
  00002	8b f1		 mov	 esi, ecx

; 118  : 			_BEGIN_LOCK(_LOCK_LOCALE)

  00004	6a 00		 push	 0
  00006	8d 4c 24 08	 lea	 ecx, DWORD PTR __Lock$25348[esp+12]
  0000a	e8 00 00 00 00	 call	 ??0_Lockit@std@@QAE@H@Z	; std::_Lockit::_Lockit

; 119  : 				if (_Refs < (size_t)(-1))

  0000f	8b 46 04	 mov	 eax, DWORD PTR [esi+4]
  00012	83 f8 ff	 cmp	 eax, -1
  00015	73 04		 jae	 SHORT $LN1@Incref

; 120  : 					++_Refs;

  00017	40		 inc	 eax
  00018	89 46 04	 mov	 DWORD PTR [esi+4], eax
$LN1@Incref:

; 121  : 			_END_LOCK()

  0001b	8d 4c 24 04	 lea	 ecx, DWORD PTR __Lock$25348[esp+8]
  0001f	e8 00 00 00 00	 call	 ??1_Lockit@std@@QAE@XZ	; std::_Lockit::~_Lockit
  00024	5e		 pop	 esi

; 122  : 			}

  00025	59		 pop	 ecx
  00026	c3		 ret	 0
?_Incref@facet@locale@std@@QAEXXZ ENDP			; std::locale::facet::_Incref
; Function compile flags: /Ogtpy
; File c:\program files\microsoft visual studio 9.0\vc\include\xiosbase
_TEXT	ENDS
;	COMDAT ?width@ios_base@std@@QBEHXZ
_TEXT	SEGMENT
?width@ios_base@std@@QBEHXZ PROC			; std::ios_base::width, COMDAT
; _this$ = eax

; 419  : 		return (_Wide);

  00000	8b 40 18	 mov	 eax, DWORD PTR [eax+24]

; 420  : 		}

  00003	c3		 ret	 0
?width@ios_base@std@@QBEHXZ ENDP			; std::ios_base::width
; Function compile flags: /Ogtpy
_TEXT	ENDS
;	COMDAT ?width@ios_base@std@@QAEHH@Z
_TEXT	SEGMENT
__Newwidth$ = 8						; size = 4
?width@ios_base@std@@QAEHH@Z PROC			; std::ios_base::width, COMDAT
; _this$ = ecx

; 424  : 		streamsize _Oldwidth = _Wide;
; 425  : 		_Wide = _Newwidth;

  00000	8b 54 24 04	 mov	 edx, DWORD PTR __Newwidth$[esp-4]
  00004	8b 41 18	 mov	 eax, DWORD PTR [ecx+24]
  00007	89 51 18	 mov	 DWORD PTR [ecx+24], edx

; 426  : 		return (_Oldwidth);
; 427  : 		}

  0000a	c2 04 00	 ret	 4
?width@ios_base@std@@QAEHH@Z ENDP			; std::ios_base::width
; Function compile flags: /Ogtpy
_TEXT	ENDS
;	COMDAT ?precision@ios_base@std@@QBEHXZ
_TEXT	SEGMENT
?precision@ios_base@std@@QBEHXZ PROC			; std::ios_base::precision, COMDAT
; _this$ = eax

; 407  : 		return (_Prec);

  00000	8b 40 14	 mov	 eax, DWORD PTR [eax+20]

; 408  : 		}

  00003	c3		 ret	 0
?precision@ios_base@std@@QBEHXZ ENDP			; std::ios_base::precision
_TEXT	ENDS
EXTRN	_memset:PROC
; Function compile flags: /Ogtpy
; File c:\program files\microsoft visual studio 9.0\vc\include\iosfwd
;	COMDAT ?assign@?$char_traits@D@std@@SAPADPADID@Z
_TEXT	SEGMENT
__First$ = 8						; size = 4
__Count$ = 12						; size = 4
__Ch$ = 16						; size = 1
?assign@?$char_traits@D@std@@SAPADPADID@Z PROC		; std::char_traits<char>::assign, COMDAT

; 495  : //		_DEBUG_POINTER(_First);
; 496  : 		return ((_Elem *)::memset(_First, _Ch, _Count));

  00000	8b 44 24 08	 mov	 eax, DWORD PTR __Count$[esp-4]
  00004	0f be 4c 24 0c	 movsx	 ecx, BYTE PTR __Ch$[esp-4]
  00009	8b 54 24 04	 mov	 edx, DWORD PTR __First$[esp-4]
  0000d	50		 push	 eax
  0000e	51		 push	 ecx
  0000f	52		 push	 edx
  00010	e8 00 00 00 00	 call	 _memset
  00015	83 c4 0c	 add	 esp, 12			; 0000000cH

; 497  : 		}

  00018	c3		 ret	 0
?assign@?$char_traits@D@std@@SAPADPADID@Z ENDP		; std::char_traits<char>::assign
; Function compile flags: /Ogtpy
; File c:\program files\microsoft visual studio 9.0\vc\include\xlocale
_TEXT	ENDS
;	COMDAT ??Bid@locale@std@@QAEIXZ
_TEXT	SEGMENT
__Lock$25342 = -4					; size = 4
??Bid@locale@std@@QAEIXZ PROC				; std::locale::id::operator unsigned int, COMDAT
; _this$ = ecx

; 77   : 			{	// get stamp, with lazy allocation

  00000	51		 push	 ecx
  00001	56		 push	 esi
  00002	8b f1		 mov	 esi, ecx

; 78   : 			if (_Id == 0)

  00004	83 3e 00	 cmp	 DWORD PTR [esi], 0
  00007	75 26		 jne	 SHORT $LN6@operator@4

; 79   : 				{	// still zero, allocate stamp
; 80   : 				_BEGIN_LOCK(_LOCK_LOCALE)

  00009	6a 00		 push	 0
  0000b	8d 4c 24 08	 lea	 ecx, DWORD PTR __Lock$25342[esp+12]
  0000f	e8 00 00 00 00	 call	 ??0_Lockit@std@@QAE@H@Z	; std::_Lockit::_Lockit

; 81   : 					if (_Id == 0)

  00014	83 3e 00	 cmp	 DWORD PTR [esi], 0
  00017	75 0d		 jne	 SHORT $LN1@operator@4

; 82   : 						_Id = ++_Id_cnt;

  00019	a1 00 00 00 00	 mov	 eax, DWORD PTR ?_Id_cnt@id@locale@std@@0HA ; std::locale::id::_Id_cnt
  0001e	40		 inc	 eax
  0001f	a3 00 00 00 00	 mov	 DWORD PTR ?_Id_cnt@id@locale@std@@0HA, eax ; std::locale::id::_Id_cnt
  00024	89 06		 mov	 DWORD PTR [esi], eax
$LN1@operator@4:

; 83   : 				_END_LOCK()

  00026	8d 4c 24 04	 lea	 ecx, DWORD PTR __Lock$25342[esp+8]
  0002a	e8 00 00 00 00	 call	 ??1_Lockit@std@@QAE@XZ	; std::_Lockit::~_Lockit
$LN6@operator@4:

; 84   : 				}
; 85   : 			return (_Id);

  0002f	8b 06		 mov	 eax, DWORD PTR [esi]
  00031	5e		 pop	 esi

; 86   : 			}

  00032	59		 pop	 ecx
  00033	c3		 ret	 0
??Bid@locale@std@@QAEIXZ ENDP				; std::locale::id::operator unsigned int
; Function compile flags: /Ogtpy
_TEXT	ENDS
;	COMDAT ?_Getfacet@locale@std@@QBEPBVfacet@12@I@Z
_TEXT	SEGMENT
__Id$ = 8						; size = 4
?_Getfacet@locale@std@@QBEPBVfacet@12@I@Z PROC		; std::locale::_Getfacet, COMDAT
; _this$ = ecx

; 413  : 		const facet *_Facptr = _Id < _Ptr->_Facetcount
; 414  : 			? _Ptr->_Facetvec[_Id] : 0;	// null if id off end

  00000	8b 09		 mov	 ecx, DWORD PTR [ecx]
  00002	56		 push	 esi
  00003	8b 74 24 08	 mov	 esi, DWORD PTR __Id$[esp]
  00007	3b 71 0c	 cmp	 esi, DWORD PTR [ecx+12]
  0000a	73 24		 jae	 SHORT $LN6@Getfacet
  0000c	8b 41 08	 mov	 eax, DWORD PTR [ecx+8]
  0000f	8b 04 b0	 mov	 eax, DWORD PTR [eax+esi*4]

; 415  : 		if (_Facptr != 0 || !_Ptr->_Xparent)

  00012	85 c0		 test	 eax, eax
  00014	75 20		 jne	 SHORT $LN1@Getfacet
$LN10@Getfacet:
  00016	80 79 14 00	 cmp	 BYTE PTR [ecx+20], 0
  0001a	74 1a		 je	 SHORT $LN1@Getfacet

; 416  : 			return (_Facptr);	// found facet or not transparent, return pointer
; 417  : 		else
; 418  : 			{	// look in current locale
; 419  : 			locale::_Locimp *_Ptr = _Getgloballocale();

  0001c	e8 00 00 00 00	 call	 ?_Getgloballocale@locale@std@@CAPAV_Locimp@12@XZ ; std::locale::_Getgloballocale

; 420  : 			return (_Id < _Ptr->_Facetcount
; 421  : 				? _Ptr->_Facetvec[_Id]	// get from current locale
; 422  : 				: 0);	// no entry in current locale

  00021	3b 70 0c	 cmp	 esi, DWORD PTR [eax+12]
  00024	73 0e		 jae	 SHORT $LN8@Getfacet
  00026	8b 48 08	 mov	 ecx, DWORD PTR [eax+8]
  00029	8b 04 b1	 mov	 eax, DWORD PTR [ecx+esi*4]
  0002c	5e		 pop	 esi

; 423  : 			}
; 424  : 		}

  0002d	c2 04 00	 ret	 4
$LN6@Getfacet:

; 413  : 		const facet *_Facptr = _Id < _Ptr->_Facetcount
; 414  : 			? _Ptr->_Facetvec[_Id] : 0;	// null if id off end

  00030	33 c0		 xor	 eax, eax

; 415  : 		if (_Facptr != 0 || !_Ptr->_Xparent)

  00032	eb e2		 jmp	 SHORT $LN10@Getfacet
$LN8@Getfacet:

; 420  : 			return (_Id < _Ptr->_Facetcount
; 421  : 				? _Ptr->_Facetvec[_Id]	// get from current locale
; 422  : 				: 0);	// no entry in current locale

  00034	33 c0		 xor	 eax, eax
$LN1@Getfacet:
  00036	5e		 pop	 esi

; 423  : 			}
; 424  : 		}

  00037	c2 04 00	 ret	 4
?_Getfacet@locale@std@@QBEPBVfacet@12@I@Z ENDP		; std::locale::_Getfacet
; Function compile flags: /Ogtpy
_TEXT	ENDS
;	COMDAT ?_Register@facet@locale@std@@QAEXXZ
_TEXT	SEGMENT
?_Register@facet@locale@std@@QAEXXZ PROC		; std::locale::facet::_Register, COMDAT
; _this$ = ecx

; 135  : #if defined(_M_CEE)
; 136  : 			facet_Register_m(this);
; 137  : #else
; 138  : 			facet_Register(this);

  00000	51		 push	 ecx
  00001	e8 00 00 00 00	 call	 ?facet_Register@facet@locale@std@@CAXPAV123@@Z ; std::locale::facet::facet_Register
  00006	59		 pop	 ecx

; 139  : #endif
; 140  : 			}

  00007	c3		 ret	 0
?_Register@facet@locale@std@@QAEXXZ ENDP		; std::locale::facet::_Register
; Function compile flags: /Ogtpy
_TEXT	ENDS
;	COMDAT ??0facet@locale@std@@IAE@I@Z
_TEXT	SEGMENT
__Initrefs$ = 8						; size = 4
??0facet@locale@std@@IAE@I@Z PROC			; std::locale::facet::facet, COMDAT
; _this$ = ecx

; 176  : 			{	// construct with initial reference count

  00000	8b c1		 mov	 eax, ecx
  00002	8b 4c 24 04	 mov	 ecx, DWORD PTR __Initrefs$[esp-4]
  00006	c7 00 00 00 00
	00		 mov	 DWORD PTR [eax], OFFSET ??_7facet@locale@std@@6B@
  0000c	89 48 04	 mov	 DWORD PTR [eax+4], ecx

; 177  : 			}

  0000f	c2 04 00	 ret	 4
??0facet@locale@std@@IAE@I@Z ENDP			; std::locale::facet::facet
; Function compile flags: /Ogtpy
; File c:\program files\microsoft visual studio 9.0\vc\include\xlocinfo
_TEXT	ENDS
;	COMDAT ?_Getcvt@_Locinfo@std@@QBE?AU_Cvtvec@@XZ
_TEXT	SEGMENT
?_Getcvt@_Locinfo@std@@QBE?AU_Cvtvec@@XZ PROC		; std::_Locinfo::_Getcvt, COMDAT
; ___$ReturnUdt$ = esi

; 129  : 		return (::_Getcvt());

  00000	e8 00 00 00 00	 call	 __Getcvt
  00005	89 06		 mov	 DWORD PTR [esi], eax
  00007	89 56 04	 mov	 DWORD PTR [esi+4], edx
  0000a	8b c6		 mov	 eax, esi

; 130  : 		}

  0000c	c3		 ret	 0
?_Getcvt@_Locinfo@std@@QBE?AU_Cvtvec@@XZ ENDP		; std::_Locinfo::_Getcvt
; Function compile flags: /Ogtpy
_TEXT	ENDS
;	COMDAT ?_Getlconv@_Locinfo@std@@QBEPBUlconv@@XZ
_TEXT	SEGMENT
?_Getlconv@_Locinfo@std@@QBEPBUlconv@@XZ PROC		; std::_Locinfo::_Getlconv, COMDAT

; 134  : 		return (localeconv());

  00000	e9 00 00 00 00	 jmp	 _localeconv
?_Getlconv@_Locinfo@std@@QBEPBUlconv@@XZ ENDP		; std::_Locinfo::_Getlconv
; Function compile flags: /Ogtpy
_TEXT	ENDS
;	COMDAT ?_Getfalse@_Locinfo@std@@QBEPBDXZ
_TEXT	SEGMENT
?_Getfalse@_Locinfo@std@@QBEPBDXZ PROC			; std::_Locinfo::_Getfalse, COMDAT

; 172  : 		return ("false");

  00000	b8 00 00 00 00	 mov	 eax, OFFSET ??_C@_05LAPONLG@false?$AA@

; 173  : 		}

  00005	c3		 ret	 0
?_Getfalse@_Locinfo@std@@QBEPBDXZ ENDP			; std::_Locinfo::_Getfalse
; Function compile flags: /Ogtpy
_TEXT	ENDS
;	COMDAT ?_Gettrue@_Locinfo@std@@QBEPBDXZ
_TEXT	SEGMENT
?_Gettrue@_Locinfo@std@@QBEPBDXZ PROC			; std::_Locinfo::_Gettrue, COMDAT

; 177  : 		return ("true");

  00000	b8 00 00 00 00	 mov	 eax, OFFSET ??_C@_04LOAJBDKD@true?$AA@

; 178  : 		}

  00005	c3		 ret	 0
?_Gettrue@_Locinfo@std@@QBEPBDXZ ENDP			; std::_Locinfo::_Gettrue
; Function compile flags: /Ogtpy
; File c:\program files\microsoft visual studio 9.0\vc\include\xlocale
_TEXT	ENDS
;	COMDAT ??0id@locale@std@@QAE@I@Z
_TEXT	SEGMENT
__Val$ = 8						; size = 4
??0id@locale@std@@QAE@I@Z PROC				; std::locale::id::id, COMDAT
; _this$ = ecx

; 73   : 			{	// construct with specified stamp value

  00000	8b c1		 mov	 eax, ecx
  00002	8b 4c 24 04	 mov	 ecx, DWORD PTR __Val$[esp-4]
  00006	89 08		 mov	 DWORD PTR [eax], ecx

; 74   : 			}

  00008	c2 04 00	 ret	 4
??0id@locale@std@@QAE@I@Z ENDP				; std::locale::id::id
; Function compile flags: /Ogtpy
_TEXT	ENDS
;	COMDAT ??$_Maklocstr@D@std@@YAPADPBDPADABU_Cvtvec@@@Z
_TEXT	SEGMENT
??$_Maklocstr@D@std@@YAPADPBDPADABU_Cvtvec@@@Z PROC	; std::_Maklocstr<char>, COMDAT
; __Ptr$ = eax

; 624  : 	{	// convert C string to _Elem sequence using _Cvtvec

  00000	56		 push	 esi
  00001	57		 push	 edi
  00002	8b f8		 mov	 edi, eax

; 625  : 	size_t _Count = ::strlen(_Ptr) + 1;

  00004	8d 50 01	 lea	 edx, DWORD PTR [eax+1]
$LL8@Maklocstr:
  00007	8a 08		 mov	 cl, BYTE PTR [eax]
  00009	40		 inc	 eax
  0000a	84 c9		 test	 cl, cl
  0000c	75 f9		 jne	 SHORT $LL8@Maklocstr
  0000e	2b c2		 sub	 eax, edx
  00010	8d 70 01	 lea	 esi, DWORD PTR [eax+1]

; 626  : 	_Elem *_Ptrdest = _NEW_CRT _Elem[_Count];

  00013	56		 push	 esi
  00014	e8 00 00 00 00	 call	 ??_U@YAPAXI@Z		; operator new[]
  00019	83 c4 04	 add	 esp, 4

; 627  : 
; 628  : #pragma warning(push)
; 629  : #pragma warning(disable: 6011)
; 630  : 	/* prefast noise */
; 631  : 	for (_Elem *_Ptrnext = _Ptrdest; 0 < _Count; --_Count, ++_Ptrnext, ++_Ptr)

  0001c	8b c8		 mov	 ecx, eax
  0001e	85 f6		 test	 esi, esi
  00020	76 0b		 jbe	 SHORT $LN1@Maklocstr
$LL3@Maklocstr:

; 632  : 		*_Ptrnext = (_Elem)(unsigned char)*_Ptr;

  00022	8a 17		 mov	 dl, BYTE PTR [edi]
  00024	88 11		 mov	 BYTE PTR [ecx], dl
  00026	4e		 dec	 esi
  00027	41		 inc	 ecx
  00028	47		 inc	 edi
  00029	85 f6		 test	 esi, esi
  0002b	77 f5		 ja	 SHORT $LL3@Maklocstr
$LN1@Maklocstr:
  0002d	5f		 pop	 edi
  0002e	5e		 pop	 esi

; 633  : 	return (_Ptrdest);
; 634  : #pragma warning(pop)
; 635  : 	}

  0002f	c3		 ret	 0
??$_Maklocstr@D@std@@YAPADPBDPADABU_Cvtvec@@@Z ENDP	; std::_Maklocstr<char>
; Function compile flags: /Ogtpy
; File c:\program files\microsoft visual studio 9.0\vc\include\xlocnum
_TEXT	ENDS
;	COMDAT ?_Init@?$num_put@DV?$ostreambuf_iterator@DU?$char_traits@D@std@@@std@@@std@@IAEXABV_Locinfo@2@@Z
_TEXT	SEGMENT
?_Init@?$num_put@DV?$ostreambuf_iterator@DU?$char_traits@D@std@@@std@@@std@@IAEXABV_Locinfo@2@@Z PROC ; std::num_put<char,std::ostreambuf_iterator<char,std::char_traits<char> > >::_Init, COMDAT
; _this$ = esi

; 1050 : 		_Cvt = _Lobj._Getcvt();

  00000	e8 00 00 00 00	 call	 __Getcvt
  00005	89 46 08	 mov	 DWORD PTR [esi+8], eax
  00008	89 56 0c	 mov	 DWORD PTR [esi+12], edx

; 1051 : 		}

  0000b	c3		 ret	 0
?_Init@?$num_put@DV?$ostreambuf_iterator@DU?$char_traits@D@std@@@std@@@std@@IAEXABV_Locinfo@2@@Z ENDP ; std::num_put<char,std::ostreambuf_iterator<char,std::char_traits<char> > >::_Init
; Function compile flags: /Ogtpy
_TEXT	ENDS
;	COMDAT ??0?$num_put@DV?$ostreambuf_iterator@DU?$char_traits@D@std@@@std@@@std@@QAE@ABV_Locinfo@1@I@Z
_TEXT	SEGMENT
??0?$num_put@DV?$ostreambuf_iterator@DU?$char_traits@D@std@@@std@@@std@@QAE@ABV_Locinfo@1@I@Z PROC ; std::num_put<char,std::ostreambuf_iterator<char,std::char_traits<char> > >::num_put<char,std::ostreambuf_iterator<char,std::char_traits<char> > >, COMDAT
; _this$ = esi

; 1066 : 		{	// construct from specified locale

  00000	c7 46 04 00 00
	00 00		 mov	 DWORD PTR [esi+4], 0
  00007	c7 06 00 00 00
	00		 mov	 DWORD PTR [esi], OFFSET ??_7?$num_put@DV?$ostreambuf_iterator@DU?$char_traits@D@std@@@std@@@std@@6B@

; 1067 : 		_Init(_Lobj);

  0000d	e8 00 00 00 00	 call	 __Getcvt
  00012	89 46 08	 mov	 DWORD PTR [esi+8], eax
  00015	89 56 0c	 mov	 DWORD PTR [esi+12], edx

; 1068 : 		}

  00018	8b c6		 mov	 eax, esi
  0001a	c3		 ret	 0
??0?$num_put@DV?$ostreambuf_iterator@DU?$char_traits@D@std@@@std@@@std@@QAE@ABV_Locinfo@1@I@Z ENDP ; std::num_put<char,std::ostreambuf_iterator<char,std::char_traits<char> > >::num_put<char,std::ostreambuf_iterator<char,std::char_traits<char> > >
; Function compile flags: /Ogtpy
; File c:\program files\microsoft visual studio 9.0\vc\include\streambuf
_TEXT	ENDS
;	COMDAT ?sputn@?$basic_streambuf@DU?$char_traits@D@std@@@std@@QAEHPBDH@Z
_TEXT	SEGMENT
__Ptr$ = 8						; size = 4
?sputn@?$basic_streambuf@DU?$char_traits@D@std@@@std@@QAEHPBDH@Z PROC ; std::basic_streambuf<char,std::char_traits<char> >::sputn, COMDAT
; _this$ = ecx
; __Count$ = edx

; 168  : 		return (xsputn(_Ptr, _Count));

  00000	8b 01		 mov	 eax, DWORD PTR [ecx]
  00002	8b 40 20	 mov	 eax, DWORD PTR [eax+32]
  00005	52		 push	 edx
  00006	8b 54 24 08	 mov	 edx, DWORD PTR __Ptr$[esp]
  0000a	52		 push	 edx
  0000b	ff d0		 call	 eax

; 169  : 		}

  0000d	c2 04 00	 ret	 4
?sputn@?$basic_streambuf@DU?$char_traits@D@std@@@std@@QAEHPBDH@Z ENDP ; std::basic_streambuf<char,std::char_traits<char> >::sputn
; Function compile flags: /Ogtpy
; File c:\program files\microsoft visual studio 9.0\vc\include\xlocale
_TEXT	ENDS
;	COMDAT ??$_Maklocchr@D@std@@YADDPADABU_Cvtvec@@@Z
_TEXT	SEGMENT
??$_Maklocchr@D@std@@YADDPADABU_Cvtvec@@@Z PROC		; std::_Maklocchr<char>, COMDAT
; __Byte$ = eax

; 603  : 	return ((_Elem)(unsigned char)_Byte);
; 604  : 	}

  00000	c3		 ret	 0
??$_Maklocchr@D@std@@YADDPADABU_Cvtvec@@@Z ENDP		; std::_Maklocchr<char>
; Function compile flags: /Ogtpy
; File c:\program files\microsoft visual studio 9.0\vc\include\xlocnum
_TEXT	ENDS
;	COMDAT ?_Tidy@?$numpunct@D@std@@AAEXXZ
_TEXT	SEGMENT
?_Tidy@?$numpunct@D@std@@AAEXXZ PROC			; std::numpunct<char>::_Tidy, COMDAT
; _this$ = esi

; 191  : 		_DELETE_CRT_VEC((void *)_Grouping);

  00000	8b 46 08	 mov	 eax, DWORD PTR [esi+8]
  00003	50		 push	 eax
  00004	e8 00 00 00 00	 call	 ??_V@YAXPAX@Z		; operator delete[]

; 192  : 		_DELETE_CRT_VEC((void *)_Falsename);

  00009	8b 4e 10	 mov	 ecx, DWORD PTR [esi+16]
  0000c	51		 push	 ecx
  0000d	e8 00 00 00 00	 call	 ??_V@YAXPAX@Z		; operator delete[]

; 193  : 		_DELETE_CRT_VEC((void *)_Truename);

  00012	8b 56 14	 mov	 edx, DWORD PTR [esi+20]
  00015	52		 push	 edx
  00016	e8 00 00 00 00	 call	 ??_V@YAXPAX@Z		; operator delete[]
  0001b	83 c4 0c	 add	 esp, 12			; 0000000cH

; 194  : 		}

  0001e	c3		 ret	 0
?_Tidy@?$numpunct@D@std@@AAEXXZ ENDP			; std::numpunct<char>::_Tidy
; Function compile flags: /Ogtpy
_TEXT	ENDS
;	COMDAT ?thousands_sep@?$numpunct@D@std@@QBEDXZ
_TEXT	SEGMENT
?thousands_sep@?$numpunct@D@std@@QBEDXZ PROC		; std::numpunct<char>::thousands_sep, COMDAT
; _this$ = ecx

; 75   : 		return (do_thousands_sep());

  00000	8b 01		 mov	 eax, DWORD PTR [ecx]
  00002	8b 50 08	 mov	 edx, DWORD PTR [eax+8]
  00005	ff e2		 jmp	 edx
?thousands_sep@?$numpunct@D@std@@QBEDXZ ENDP		; std::numpunct<char>::thousands_sep
; Function compile flags: /Ogtpy
_TEXT	ENDS
;	COMDAT ?decimal_point@?$numpunct@D@std@@QBEDXZ
_TEXT	SEGMENT
?decimal_point@?$numpunct@D@std@@QBEDXZ PROC		; std::numpunct<char>::decimal_point, COMDAT
; _this$ = ecx

; 70   : 		return (do_decimal_point());

  00000	8b 01		 mov	 eax, DWORD PTR [ecx]
  00002	8b 50 04	 mov	 edx, DWORD PTR [eax+4]
  00005	ff e2		 jmp	 edx
?decimal_point@?$numpunct@D@std@@QBEDXZ ENDP		; std::numpunct<char>::decimal_point
; Function compile flags: /Ogtpy
; File c:\program files\microsoft visual studio 9.0\vc\include\streambuf
_TEXT	ENDS
;	COMDAT ??E?$ostreambuf_iterator@DU?$char_traits@D@std@@@std@@QAEAAV01@XZ
_TEXT	SEGMENT
??E?$ostreambuf_iterator@DU?$char_traits@D@std@@@std@@QAEAAV01@XZ PROC ; std::ostreambuf_iterator<char,std::char_traits<char> >::operator++, COMDAT
; _this$ = eax

; 607  : 		return (*this);
; 608  : 		}

  00000	c3		 ret	 0
??E?$ostreambuf_iterator@DU?$char_traits@D@std@@@std@@QAEAAV01@XZ ENDP ; std::ostreambuf_iterator<char,std::char_traits<char> >::operator++
; Function compile flags: /Ogtpy
_TEXT	ENDS
;	COMDAT ??D?$ostreambuf_iterator@DU?$char_traits@D@std@@@std@@QAEAAV01@XZ
_TEXT	SEGMENT
??D?$ostreambuf_iterator@DU?$char_traits@D@std@@@std@@QAEAAV01@XZ PROC ; std::ostreambuf_iterator<char,std::char_traits<char> >::operator*, COMDAT
; _this$ = eax

; 602  : 		return (*this);
; 603  : 		}

  00000	c3		 ret	 0
??D?$ostreambuf_iterator@DU?$char_traits@D@std@@@std@@QAEAAV01@XZ ENDP ; std::ostreambuf_iterator<char,std::char_traits<char> >::operator*
; Function compile flags: /Ogtpy
; File c:\program files\microsoft visual studio 9.0\vc\include\xstring
_TEXT	ENDS
;	COMDAT ??A?$basic_string@DU?$char_traits@D@std@@V?$allocator@D@2@@std@@QAEAADI@Z
_TEXT	SEGMENT
??A?$basic_string@DU?$char_traits@D@std@@V?$allocator@D@2@@std@@QAEAADI@Z PROC ; std::basic_string<char,std::char_traits<char>,std::allocator<char> >::operator[], COMDAT
; _this$ = eax
; __Off$ = edi

; 1557 : 		{	// subscript mutable sequence

  00000	56		 push	 esi
  00001	8b f0		 mov	 esi, eax

; 1558 : 
; 1559 :  #if _HAS_ITERATOR_DEBUGGING
; 1560 : 		// skip debug checks if the container is initizialed with _IGNORE_MYITERLIST
; 1561 : 		if (this->_Myfirstiter != _IGNORE_MYITERLIST)
; 1562 : 			{
; 1563 : 			if (_Mysize < _Off)
; 1564 : 				{
; 1565 : 				_DEBUG_ERROR("string subscript out of range");
; 1566 : 				_SCL_SECURE_OUT_OF_RANGE;
; 1567 : 				}
; 1568 : 			}
; 1569 :  #else
; 1570 : 		_SCL_SECURE_VALIDATE_RANGE(_Off <= _Mysize);

  00003	3b 7e 14	 cmp	 edi, DWORD PTR [esi+20]
  00006	76 05		 jbe	 SHORT $LN1@operator@5
  00008	e8 00 00 00 00	 call	 __invalid_parameter_noinfo
$LN1@operator@5:

; 1571 :  #endif /* _HAS_ITERATOR_DEBUGGING */
; 1572 : 
; 1573 : 		return (_Myptr()[_Off]);

  0000d	83 7e 18 10	 cmp	 DWORD PTR [esi+24], 16	; 00000010H
  00011	72 08		 jb	 SHORT $LN6@operator@5
  00013	8b 76 04	 mov	 esi, DWORD PTR [esi+4]
  00016	8d 04 3e	 lea	 eax, DWORD PTR [esi+edi]
  00019	5e		 pop	 esi

; 1574 : 		}

  0001a	c3		 ret	 0

; 1571 :  #endif /* _HAS_ITERATOR_DEBUGGING */
; 1572 : 
; 1573 : 		return (_Myptr()[_Off]);

$LN6@operator@5:
  0001b	8d 44 3e 04	 lea	 eax, DWORD PTR [esi+edi+4]
  0001f	5e		 pop	 esi

; 1574 : 		}

  00020	c3		 ret	 0
??A?$basic_string@DU?$char_traits@D@std@@V?$allocator@D@2@@std@@QAEAADI@Z ENDP ; std::basic_string<char,std::char_traits<char>,std::allocator<char> >::operator[]
; Function compile flags: /Ogtpy
; File c:\program files\microsoft visual studio 9.0\vc\include\xlocnum
_TEXT	ENDS
;	COMDAT ?do_thousands_sep@?$numpunct@D@std@@MBEDXZ
_TEXT	SEGMENT
?do_thousands_sep@?$numpunct@D@std@@MBEDXZ PROC		; std::numpunct<char>::do_thousands_sep, COMDAT
; _this$ = ecx

; 170  : 		return (_Kseparator);

  00000	8a 41 0d	 mov	 al, BYTE PTR [ecx+13]

; 171  : 		}

  00003	c3		 ret	 0
?do_thousands_sep@?$numpunct@D@std@@MBEDXZ ENDP		; std::numpunct<char>::do_thousands_sep
; Function compile flags: /Ogtpy
_TEXT	ENDS
;	COMDAT ?do_decimal_point@?$numpunct@D@std@@MBEDXZ
_TEXT	SEGMENT
?do_decimal_point@?$numpunct@D@std@@MBEDXZ PROC		; std::numpunct<char>::do_decimal_point, COMDAT
; _this$ = ecx

; 165  : 		return (_Dp);

  00000	8a 41 0c	 mov	 al, BYTE PTR [ecx+12]

; 166  : 		}

  00003	c3		 ret	 0
?do_decimal_point@?$numpunct@D@std@@MBEDXZ ENDP		; std::numpunct<char>::do_decimal_point
; Function compile flags: /Ogtpy
_TEXT	ENDS
;	COMDAT ??1?$numpunct@D@std@@MAE@XZ
_TEXT	SEGMENT
??1?$numpunct@D@std@@MAE@XZ PROC			; std::numpunct<char>::~numpunct<char>, COMDAT
; _this$ = ecx

; 121  : 		{	// destroy the object

  00000	56		 push	 esi
  00001	8b f1		 mov	 esi, ecx

; 122  : 		_Tidy();

  00003	8b 46 08	 mov	 eax, DWORD PTR [esi+8]
  00006	50		 push	 eax
  00007	c7 06 00 00 00
	00		 mov	 DWORD PTR [esi], OFFSET ??_7?$numpunct@D@std@@6B@
  0000d	e8 00 00 00 00	 call	 ??_V@YAXPAX@Z		; operator delete[]
  00012	8b 4e 10	 mov	 ecx, DWORD PTR [esi+16]
  00015	51		 push	 ecx
  00016	e8 00 00 00 00	 call	 ??_V@YAXPAX@Z		; operator delete[]
  0001b	8b 56 14	 mov	 edx, DWORD PTR [esi+20]
  0001e	52		 push	 edx
  0001f	e8 00 00 00 00	 call	 ??_V@YAXPAX@Z		; operator delete[]
  00024	83 c4 0c	 add	 esp, 12			; 0000000cH

; 123  : 		}

  00027	c7 06 00 00 00
	00		 mov	 DWORD PTR [esi], OFFSET ??_7facet@locale@std@@6B@
  0002d	5e		 pop	 esi
  0002e	c3		 ret	 0
??1?$numpunct@D@std@@MAE@XZ ENDP			; std::numpunct<char>::~numpunct<char>
; Function compile flags: /Ogtpy
_TEXT	ENDS
;	COMDAT ?_Ifmt@?$num_put@DV?$ostreambuf_iterator@DU?$char_traits@D@std@@@std@@@std@@ABAPADPADPBDH@Z
_TEXT	SEGMENT
?_Ifmt@?$num_put@DV?$ostreambuf_iterator@DU?$char_traits@D@std@@@std@@@std@@ABAPADPADPBDH@Z PROC ; std::num_put<char,std::ostreambuf_iterator<char,std::char_traits<char> > >::_Ifmt, COMDAT
; __Fmt$ = eax
; __Spec$ = edi
; __Flags$ = edx

; 1435 : 		char *_Ptr = _Fmt;
; 1436 : 		*_Ptr++ = '%';

  00000	c6 00 25	 mov	 BYTE PTR [eax], 37	; 00000025H
  00003	8d 48 01	 lea	 ecx, DWORD PTR [eax+1]

; 1437 : 
; 1438 : 		if (_Flags & ios_base::showpos)

  00006	f6 c2 20	 test	 dl, 32			; 00000020H
  00009	74 04		 je	 SHORT $LN4@Ifmt

; 1439 : 			*_Ptr++ = '+';

  0000b	c6 01 2b	 mov	 BYTE PTR [ecx], 43	; 0000002bH
  0000e	41		 inc	 ecx
$LN4@Ifmt:

; 1440 : 		if (_Flags & ios_base::showbase)

  0000f	f6 c2 08	 test	 dl, 8
  00012	74 04		 je	 SHORT $LN3@Ifmt

; 1441 : 			*_Ptr++ = '#';

  00014	c6 01 23	 mov	 BYTE PTR [ecx], 35	; 00000023H
  00017	41		 inc	 ecx
$LN3@Ifmt:
  00018	53		 push	 ebx

; 1442 : 		if (_Spec[0] != 'L')

  00019	8a 1f		 mov	 bl, BYTE PTR [edi]
  0001b	56		 push	 esi
  0001c	80 fb 4c	 cmp	 bl, 76			; 0000004cH
  0001f	74 04		 je	 SHORT $LN2@Ifmt

; 1443 : 			*_Ptr++ = _Spec[0];	// qualifier

  00021	88 19		 mov	 BYTE PTR [ecx], bl

; 1444 : 		else

  00023	eb 0b		 jmp	 SHORT $LN11@Ifmt
$LN2@Ifmt:

; 1445 : 			{	/* change L to I64 */
; 1446 : 			*_Ptr++ = 'I';

  00025	c6 01 49	 mov	 BYTE PTR [ecx], 73	; 00000049H
  00028	41		 inc	 ecx

; 1447 : 			*_Ptr++ = '6';

  00029	c6 01 36	 mov	 BYTE PTR [ecx], 54	; 00000036H
  0002c	41		 inc	 ecx

; 1448 : 			*_Ptr++ = '4';

  0002d	c6 01 34	 mov	 BYTE PTR [ecx], 52	; 00000034H
$LN11@Ifmt:

; 1449 : 			}
; 1450 : 
; 1451 : 		ios_base::fmtflags _Basefield = _Flags & ios_base::basefield;

  00030	8b f2		 mov	 esi, edx
  00032	81 e6 00 0e 00
	00		 and	 esi, 3584		; 00000e00H
  00038	41		 inc	 ecx

; 1452 : 		*_Ptr++ = _Basefield == ios_base::oct ? 'o'
; 1453 : 			: _Basefield != ios_base::hex ? _Spec[1]	// 'd' or 'u'
; 1454 : 			: _Flags & ios_base::uppercase ? 'X' : 'x';

  00039	81 fe 00 04 00
	00		 cmp	 esi, 1024		; 00000400H
  0003f	75 0b		 jne	 SHORT $LN9@Ifmt
  00041	b2 6f		 mov	 dl, 111			; 0000006fH
  00043	5e		 pop	 esi
  00044	88 11		 mov	 BYTE PTR [ecx], dl

; 1455 : 		*_Ptr = '\0';

  00046	c6 41 01 00	 mov	 BYTE PTR [ecx+1], 0
  0004a	5b		 pop	 ebx

; 1456 : 		return (_Fmt);
; 1457 : 		}

  0004b	c3		 ret	 0
$LN9@Ifmt:

; 1452 : 		*_Ptr++ = _Basefield == ios_base::oct ? 'o'
; 1453 : 			: _Basefield != ios_base::hex ? _Spec[1]	// 'd' or 'u'
; 1454 : 			: _Flags & ios_base::uppercase ? 'X' : 'x';

  0004c	81 fe 00 08 00
	00		 cmp	 esi, 2048		; 00000800H
  00052	74 0c		 je	 SHORT $LN7@Ifmt
  00054	8a 57 01	 mov	 dl, BYTE PTR [edi+1]
  00057	5e		 pop	 esi
  00058	88 11		 mov	 BYTE PTR [ecx], dl

; 1455 : 		*_Ptr = '\0';

  0005a	c6 41 01 00	 mov	 BYTE PTR [ecx+1], 0
  0005e	5b		 pop	 ebx

; 1456 : 		return (_Fmt);
; 1457 : 		}

  0005f	c3		 ret	 0
$LN7@Ifmt:

; 1452 : 		*_Ptr++ = _Basefield == ios_base::oct ? 'o'
; 1453 : 			: _Basefield != ios_base::hex ? _Spec[1]	// 'd' or 'u'
; 1454 : 			: _Flags & ios_base::uppercase ? 'X' : 'x';

  00060	02 d2		 add	 dl, dl
  00062	02 d2		 add	 dl, dl
  00064	02 d2		 add	 dl, dl
  00066	f6 d2		 not	 dl
  00068	80 e2 20	 and	 dl, 32			; 00000020H
  0006b	80 ca 58	 or	 dl, 88			; 00000058H
  0006e	5e		 pop	 esi
  0006f	88 11		 mov	 BYTE PTR [ecx], dl

; 1455 : 		*_Ptr = '\0';

  00071	c6 41 01 00	 mov	 BYTE PTR [ecx+1], 0
  00075	5b		 pop	 ebx

; 1456 : 		return (_Fmt);
; 1457 : 		}

  00076	c3		 ret	 0
?_Ifmt@?$num_put@DV?$ostreambuf_iterator@DU?$char_traits@D@std@@@std@@@std@@ABAPADPADPBDH@Z ENDP ; std::num_put<char,std::ostreambuf_iterator<char,std::char_traits<char> > >::_Ifmt
; Function compile flags: /Ogtpy
_TEXT	ENDS
;	COMDAT ?_Ffmt@?$num_put@DV?$ostreambuf_iterator@DU?$char_traits@D@std@@@std@@@std@@ABAPADPADDH@Z
_TEXT	SEGMENT
__Spec$ = 8						; size = 1
?_Ffmt@?$num_put@DV?$ostreambuf_iterator@DU?$char_traits@D@std@@@std@@@std@@ABAPADPADDH@Z PROC ; std::num_put<char,std::ostreambuf_iterator<char,std::char_traits<char> > >::_Ffmt, COMDAT
; __Fmt$ = eax
; __Flags$ = edx

; 1291 : 		{	// generate sprintf format for floating-point

  00000	53		 push	 ebx
  00001	8a 5c 24 08	 mov	 bl, BYTE PTR __Spec$[esp]

; 1292 : 		char *_Ptr = _Fmt;
; 1293 : 		*_Ptr++ = '%';

  00005	c6 00 25	 mov	 BYTE PTR [eax], 37	; 00000025H
  00008	8d 48 01	 lea	 ecx, DWORD PTR [eax+1]

; 1294 : 
; 1295 : 		if (_Flags & ios_base::showpos)

  0000b	f6 c2 20	 test	 dl, 32			; 00000020H
  0000e	74 04		 je	 SHORT $LN3@Ffmt

; 1296 : 			*_Ptr++ = '+';

  00010	c6 01 2b	 mov	 BYTE PTR [ecx], 43	; 0000002bH
  00013	41		 inc	 ecx
$LN3@Ffmt:

; 1297 : 		if (_Flags & ios_base::showpoint)

  00014	f6 c2 10	 test	 dl, 16			; 00000010H
  00017	74 04		 je	 SHORT $LN2@Ffmt

; 1298 : 			*_Ptr++ = '#';

  00019	c6 01 23	 mov	 BYTE PTR [ecx], 35	; 00000023H
  0001c	41		 inc	 ecx
$LN2@Ffmt:

; 1299 : 		*_Ptr++ = '.';

  0001d	c6 01 2e	 mov	 BYTE PTR [ecx], 46	; 0000002eH
  00020	41		 inc	 ecx

; 1300 : 		*_Ptr++ = '*';	// for precision argument

  00021	c6 01 2a	 mov	 BYTE PTR [ecx], 42	; 0000002aH
  00024	41		 inc	 ecx

; 1301 : 		if (_Spec != '\0')

  00025	84 db		 test	 bl, bl
  00027	74 03		 je	 SHORT $LN1@Ffmt

; 1302 : 			*_Ptr++ = _Spec;	// 'L' qualifier for long double only

  00029	88 19		 mov	 BYTE PTR [ecx], bl
  0002b	41		 inc	 ecx
$LN1@Ffmt:

; 1303 : 
; 1304 : 		ios_base::fmtflags _Ffl = _Flags & ios_base::floatfield;

  0002c	81 e2 00 30 00
	00		 and	 edx, 12288		; 00003000H
  00032	5b		 pop	 ebx

; 1305 : 		*_Ptr++ = _Ffl == ios_base::fixed ? 'f'
; 1306 : 			: _Ffl == ios_base::hexfloat ? 'a'	// added with TR1
; 1307 : 			: _Ffl == ios_base::scientific ? 'e' : 'g';	// specifier

  00033	81 fa 00 20 00
	00		 cmp	 edx, 8192		; 00002000H
  00039	75 09		 jne	 SHORT $LN8@Ffmt
  0003b	b2 66		 mov	 dl, 102			; 00000066H
  0003d	88 11		 mov	 BYTE PTR [ecx], dl

; 1308 : 		*_Ptr = '\0';

  0003f	c6 41 01 00	 mov	 BYTE PTR [ecx+1], 0

; 1309 : 		return (_Fmt);
; 1310 : 		}

  00043	c3		 ret	 0
$LN8@Ffmt:

; 1305 : 		*_Ptr++ = _Ffl == ios_base::fixed ? 'f'
; 1306 : 			: _Ffl == ios_base::hexfloat ? 'a'	// added with TR1
; 1307 : 			: _Ffl == ios_base::scientific ? 'e' : 'g';	// specifier

  00044	81 fa 00 30 00
	00		 cmp	 edx, 12288		; 00003000H
  0004a	75 09		 jne	 SHORT $LN6@Ffmt
  0004c	b2 61		 mov	 dl, 97			; 00000061H
  0004e	88 11		 mov	 BYTE PTR [ecx], dl

; 1308 : 		*_Ptr = '\0';

  00050	c6 41 01 00	 mov	 BYTE PTR [ecx+1], 0

; 1309 : 		return (_Fmt);
; 1310 : 		}

  00054	c3		 ret	 0
$LN6@Ffmt:

; 1305 : 		*_Ptr++ = _Ffl == ios_base::fixed ? 'f'
; 1306 : 			: _Ffl == ios_base::hexfloat ? 'a'	// added with TR1
; 1307 : 			: _Ffl == ios_base::scientific ? 'e' : 'g';	// specifier

  00055	81 fa 00 10 00
	00		 cmp	 edx, 4096		; 00001000H
  0005b	0f 95 c2	 setne	 dl
  0005e	8d 54 12 65	 lea	 edx, DWORD PTR [edx+edx+101]
  00062	88 11		 mov	 BYTE PTR [ecx], dl

; 1308 : 		*_Ptr = '\0';

  00064	c6 41 01 00	 mov	 BYTE PTR [ecx+1], 0

; 1309 : 		return (_Fmt);
; 1310 : 		}

  00068	c3		 ret	 0
?_Ffmt@?$num_put@DV?$ostreambuf_iterator@DU?$char_traits@D@std@@@std@@@std@@ABAPADPADDH@Z ENDP ; std::num_put<char,std::ostreambuf_iterator<char,std::char_traits<char> > >::_Ffmt
; Function compile flags: /Ogtpy
; File c:\program files\microsoft visual studio 9.0\vc\include\streambuf
_TEXT	ENDS
;	COMDAT ?failed@?$ostreambuf_iterator@DU?$char_traits@D@std@@@std@@QBE_NXZ
_TEXT	SEGMENT
?failed@?$ostreambuf_iterator@DU?$char_traits@D@std@@@std@@QBE_NXZ PROC ; std::ostreambuf_iterator<char,std::char_traits<char> >::failed, COMDAT
; _this$ = eax

; 617  : 		return (_Failed);

  00000	8a 00		 mov	 al, BYTE PTR [eax]

; 618  : 		}

  00002	c3		 ret	 0
?failed@?$ostreambuf_iterator@DU?$char_traits@D@std@@@std@@QBE_NXZ ENDP ; std::ostreambuf_iterator<char,std::char_traits<char> >::failed
; Function compile flags: /Ogtpy
_TEXT	ENDS
;	COMDAT ??0?$ostreambuf_iterator@DU?$char_traits@D@std@@@std@@QAE@PAV?$basic_streambuf@DU?$char_traits@D@std@@@1@@Z
_TEXT	SEGMENT
??0?$ostreambuf_iterator@DU?$char_traits@D@std@@@std@@QAE@PAV?$basic_streambuf@DU?$char_traits@D@std@@@1@@Z PROC ; std::ostreambuf_iterator<char,std::char_traits<char> >::ostreambuf_iterator<char,std::char_traits<char> >, COMDAT
; _this$ = eax
; __Sb$ = ecx

; 583  : 		{	// construct from stream buffer _Sb

  00000	c6 00 00	 mov	 BYTE PTR [eax], 0
  00003	89 48 04	 mov	 DWORD PTR [eax+4], ecx

; 584  : 		}

  00006	c3		 ret	 0
??0?$ostreambuf_iterator@DU?$char_traits@D@std@@@std@@QAE@PAV?$basic_streambuf@DU?$char_traits@D@std@@@1@@Z ENDP ; std::ostreambuf_iterator<char,std::char_traits<char> >::ostreambuf_iterator<char,std::char_traits<char> >
; Function compile flags: /Ogtpy
; File c:\program files\microsoft visual studio 9.0\vc\include\xlocnum
_TEXT	ENDS
;	COMDAT ?put@?$num_put@DV?$ostreambuf_iterator@DU?$char_traits@D@std@@@std@@@std@@QBE?AV?$ostreambuf_iterator@DU?$char_traits@D@std@@@2@V32@AAVios_base@2@D_K@Z
_TEXT	SEGMENT
__Iosbase$ = 8						; size = 4
__Fill$ = 12						; size = 1
__Val$ = 16						; size = 8
__Dest$ = 24						; size = 8
?put@?$num_put@DV?$ostreambuf_iterator@DU?$char_traits@D@std@@@std@@@std@@QBE?AV?$ostreambuf_iterator@DU?$char_traits@D@std@@@2@V32@AAVios_base@2@D_K@Z PROC ; std::num_put<char,std::ostreambuf_iterator<char,std::char_traits<char> > >::put, COMDAT
; _this$ = ecx
; ___$ReturnUdt$ = esi

; 1101 : 		return (do_put(_Dest, _Iosbase, _Fill, _Val));

  00000	8b 54 24 10	 mov	 edx, DWORD PTR __Val$[esp]
  00004	8b 01		 mov	 eax, DWORD PTR [ecx]
  00006	8b 40 10	 mov	 eax, DWORD PTR [eax+16]
  00009	52		 push	 edx
  0000a	8b 54 24 10	 mov	 edx, DWORD PTR __Val$[esp]
  0000e	52		 push	 edx
  0000f	8b 54 24 10	 mov	 edx, DWORD PTR __Fill$[esp+4]
  00013	52		 push	 edx
  00014	8b 54 24 10	 mov	 edx, DWORD PTR __Iosbase$[esp+8]
  00018	52		 push	 edx
  00019	8b 54 24 28	 mov	 edx, DWORD PTR __Dest$[esp+16]
  0001d	52		 push	 edx
  0001e	8b 54 24 28	 mov	 edx, DWORD PTR __Dest$[esp+16]
  00022	52		 push	 edx
  00023	56		 push	 esi
  00024	ff d0		 call	 eax
  00026	8b c6		 mov	 eax, esi

; 1102 : 		}

  00028	c2 18 00	 ret	 24			; 00000018H
?put@?$num_put@DV?$ostreambuf_iterator@DU?$char_traits@D@std@@@std@@@std@@QBE?AV?$ostreambuf_iterator@DU?$char_traits@D@std@@@2@V32@AAVios_base@2@D_K@Z ENDP ; std::num_put<char,std::ostreambuf_iterator<char,std::char_traits<char> > >::put
; Function compile flags: /Ogtpy
_TEXT	ENDS
;	COMDAT ??1?$num_put@DV?$ostreambuf_iterator@DU?$char_traits@D@std@@@std@@@std@@MAE@XZ
_TEXT	SEGMENT
??1?$num_put@DV?$ostreambuf_iterator@DU?$char_traits@D@std@@@std@@@std@@MAE@XZ PROC ; std::num_put<char,std::ostreambuf_iterator<char,std::char_traits<char> > >::~num_put<char,std::ostreambuf_iterator<char,std::char_traits<char> > >, COMDAT
; _this$ = ecx

; 1045 : 		}

  00000	c7 01 00 00 00
	00		 mov	 DWORD PTR [ecx], OFFSET ??_7facet@locale@std@@6B@
  00006	c3		 ret	 0
??1?$num_put@DV?$ostreambuf_iterator@DU?$char_traits@D@std@@@std@@@std@@MAE@XZ ENDP ; std::num_put<char,std::ostreambuf_iterator<char,std::char_traits<char> > >::~num_put<char,std::ostreambuf_iterator<char,std::char_traits<char> > >
; Function compile flags: /Ogtpy
; File c:\program files\microsoft visual studio 9.0\vc\include\ios
_TEXT	ENDS
;	COMDAT ?fill@?$basic_ios@DU?$char_traits@D@std@@@std@@QBEDXZ
_TEXT	SEGMENT
?fill@?$basic_ios@DU?$char_traits@D@std@@@std@@QBEDXZ PROC ; std::basic_ios<char,std::char_traits<char> >::fill, COMDAT
; _this$ = eax

; 106  : 		return (_Fillch);

  00000	8a 40 30	 mov	 al, BYTE PTR [eax+48]

; 107  : 		}

  00003	c3		 ret	 0
?fill@?$basic_ios@DU?$char_traits@D@std@@@std@@QBEDXZ ENDP ; std::basic_ios<char,std::char_traits<char> >::fill
; Function compile flags: /Ogtpy
; File c:\program files\microsoft visual studio 9.0\vc\include\ostream
_TEXT	ENDS
;	COMDAT ??6?$basic_ostream@DU?$char_traits@D@std@@@std@@QAEAAV01@P6AAAV01@AAV01@@Z@Z
_TEXT	SEGMENT
??6?$basic_ostream@DU?$char_traits@D@std@@@std@@QAEAAV01@P6AAAV01@AAV01@@Z@Z PROC ; std::basic_ostream<char,std::char_traits<char> >::operator<<, COMDAT
; _this$ = esi

; 172  : 		_DEBUG_POINTER(_Pfn);
; 173  : 		return ((*_Pfn)(*this));

  00000	6a 0a		 push	 10			; 0000000aH
  00002	8b ce		 mov	 ecx, esi
  00004	e8 00 00 00 00	 call	 ?put@?$basic_ostream@DU?$char_traits@D@std@@@std@@QAEAAV12@D@Z ; std::basic_ostream<char,std::char_traits<char> >::put
  00009	8b ce		 mov	 ecx, esi
  0000b	e8 00 00 00 00	 call	 ?flush@?$basic_ostream@DU?$char_traits@D@std@@@std@@QAEAAV12@XZ ; std::basic_ostream<char,std::char_traits<char> >::flush
  00010	8b c6		 mov	 eax, esi

; 174  : 		}

  00012	c3		 ret	 0
??6?$basic_ostream@DU?$char_traits@D@std@@@std@@QAEAAV01@P6AAAV01@AAV01@@Z@Z ENDP ; std::basic_ostream<char,std::char_traits<char> >::operator<<
; Function compile flags: /Ogtpy
; File c:\program files\microsoft visual studio 9.0\vc\include\xstring
_TEXT	ENDS
;	COMDAT ?empty@?$basic_string@DU?$char_traits@D@std@@V?$allocator@D@2@@std@@QBE_NXZ
_TEXT	SEGMENT
?empty@?$basic_string@DU?$char_traits@D@std@@V?$allocator@D@2@@std@@QBE_NXZ PROC ; std::basic_string<char,std::char_traits<char>,std::allocator<char> >::empty, COMDAT
; _this$ = ecx

; 1705 : 		return (_Mysize == 0);

  00000	33 c0		 xor	 eax, eax
  00002	39 41 14	 cmp	 DWORD PTR [ecx+20], eax
  00005	0f 94 c0	 sete	 al

; 1706 : 		}

  00008	c3		 ret	 0
?empty@?$basic_string@DU?$char_traits@D@std@@V?$allocator@D@2@@std@@QBE_NXZ ENDP ; std::basic_string<char,std::char_traits<char>,std::allocator<char> >::empty
_TEXT	ENDS
PUBLIC	?ChkSIMD@@YAHXZ					; ChkSIMD
; Function compile flags: /Ogtpy
; File i:\nj\my project\cms\cms\main.cpp
;	COMDAT ?ChkSIMD@@YAHXZ
_TEXT	SEGMENT
?ChkSIMD@@YAHXZ PROC					; ChkSIMD, COMDAT

; 104  : int	ChkSIMD(){

  00000	53		 push	 ebx

; 105  : 	__asm{
; 106  : 		push	ebx

  00001	53		 push	 ebx

; 107  : 		push	ecx

  00002	51		 push	 ecx

; 108  : 		push	edx

  00003	52		 push	 edx

; 109  : 
; 110  : 		mov		eax, 1

  00004	b8 01 00 00 00	 mov	 eax, 1

; 111  : 		cpuid

  00009	0f a2		 cpuid

; 112  : 		test	ecx, 002000000h

  0000b	f7 c1 00 00 00
	02		 test	 ecx, 33554432		; 02000000H

; 113  : 		jnz		ChkSIMD_AESNI

  00011	75 16		 jne	 SHORT $ChkSIMD_AESNI$39227

; 114  : 		test	edx, 004000000h		;//SSE2 check

  00013	f7 c2 00 00 00
	04		 test	 edx, 67108864		; 04000000H

; 115  : 		jnz		ChkSIMD_SSE2

  00019	75 07		 jne	 SHORT $ChkSIMD_SSE2$39228

; 116  : 		mov		eax, 0

  0001b	b8 00 00 00 00	 mov	 eax, 0

; 117  : 		jmp		ChkSIMD_END

  00020	eb 0c		 jmp	 SHORT $ChkSIMD_END$39229
$ChkSIMD_SSE2$39228:

; 118  : ChkSIMD_SSE2:
; 119  : 		mov		eax, 1

  00022	b8 01 00 00 00	 mov	 eax, 1

; 120  : 		jmp		ChkSIMD_END

  00027	eb 05		 jmp	 SHORT $ChkSIMD_END$39229
$ChkSIMD_AESNI$39227:

; 121  : ChkSIMD_AESNI:
; 122  : 		mov		eax, 2

  00029	b8 02 00 00 00	 mov	 eax, 2
$ChkSIMD_END$39229:

; 123  : ;		jmp		ChkSIMD_END
; 124  : ChkSIMD_END:
; 125  : 
; 126  : 		pop		edx

  0002e	5a		 pop	 edx

; 127  : 		pop		ecx

  0002f	59		 pop	 ecx

; 128  : 		pop		ebx

  00030	5b		 pop	 ebx

; 129  : 	}
; 130  : }

  00031	5b		 pop	 ebx
  00032	c3		 ret	 0
?ChkSIMD@@YAHXZ ENDP					; ChkSIMD
_TEXT	ENDS
PUBLIC	?ReadTSC@@YA_JXZ				; ReadTSC
; Function compile flags: /Ogtpy
;	COMDAT ?ReadTSC@@YA_JXZ
_TEXT	SEGMENT
?ReadTSC@@YA_JXZ PROC					; ReadTSC, COMDAT

; 91   : 	__asm{
; 92   : ;		cpuid
; 93   : 		rdtsc

  00000	0f 31		 rdtsc

; 94   : 	}
; 95   : }

  00002	c3		 ret	 0
?ReadTSC@@YA_JXZ ENDP					; ReadTSC
; Function compile flags: /Ogtpy
; File c:\program files\microsoft visual studio 9.0\vc\include\xstring
;	COMDAT ?_Eos@?$basic_string@DU?$char_traits@D@std@@V?$allocator@D@2@@std@@IAEXI@Z
_TEXT	SEGMENT
__Newsize$ = 8						; size = 4
?_Eos@?$basic_string@DU?$char_traits@D@std@@V?$allocator@D@2@@std@@IAEXI@Z PROC ; std::basic_string<char,std::char_traits<char>,std::allocator<char> >::_Eos, COMDAT
; _this$ = ecx

; 2114 : 		_Traits::assign(_Myptr()[_Mysize = _Newsize], _Elem());

  00000	83 79 18 10	 cmp	 DWORD PTR [ecx+24], 16	; 00000010H
  00004	8b 44 24 04	 mov	 eax, DWORD PTR __Newsize$[esp-4]
  00008	89 41 14	 mov	 DWORD PTR [ecx+20], eax
  0000b	72 0a		 jb	 SHORT $LN5@Eos
  0000d	8b 49 04	 mov	 ecx, DWORD PTR [ecx+4]
  00010	c6 04 01 00	 mov	 BYTE PTR [ecx+eax], 0

; 2115 : 		}

  00014	c2 04 00	 ret	 4

; 2114 : 		_Traits::assign(_Myptr()[_Mysize = _Newsize], _Elem());

$LN5@Eos:
  00017	c6 44 01 04 00	 mov	 BYTE PTR [ecx+eax+4], 0

; 2115 : 		}

  0001c	c2 04 00	 ret	 4
?_Eos@?$basic_string@DU?$char_traits@D@std@@V?$allocator@D@2@@std@@IAEXI@Z ENDP ; std::basic_string<char,std::char_traits<char>,std::allocator<char> >::_Eos
; Function compile flags: /Ogtpy
; File c:\program files\microsoft visual studio 9.0\vc\include\iosfwd
_TEXT	ENDS
;	COMDAT ??$copy_s@U?$char_traits@D@std@@@_Traits_helper@std@@YAPADPADIPBDIU_Secure_char_traits_tag@1@@Z
_TEXT	SEGMENT
__First1$ = 8						; size = 4
__Size$ = 12						; size = 4
__First2$ = 16						; size = 4
__Count$ = 20						; size = 4
___formal$ = 24						; size = 1
??$copy_s@U?$char_traits@D@std@@@_Traits_helper@std@@YAPADPADIPBDIU_Secure_char_traits_tag@1@@Z PROC ; std::_Traits_helper::copy_s<std::char_traits<char> >, COMDAT

; 597  : 		return _Traits::_Copy_s(_First1, _Size, _First2, _Count);

  00000	8b 44 24 10	 mov	 eax, DWORD PTR __Count$[esp-4]
  00004	8b 4c 24 0c	 mov	 ecx, DWORD PTR __First2$[esp-4]
  00008	8b 54 24 08	 mov	 edx, DWORD PTR __Size$[esp-4]
  0000c	56		 push	 esi
  0000d	8b 74 24 08	 mov	 esi, DWORD PTR __First1$[esp]
  00011	50		 push	 eax
  00012	51		 push	 ecx
  00013	52		 push	 edx
  00014	56		 push	 esi
  00015	e8 00 00 00 00	 call	 _memcpy_s
  0001a	83 c4 10	 add	 esp, 16			; 00000010H
  0001d	8b c6		 mov	 eax, esi
  0001f	5e		 pop	 esi

; 598  : 	}

  00020	c3		 ret	 0
??$copy_s@U?$char_traits@D@std@@@_Traits_helper@std@@YAPADPADIPBDIU_Secure_char_traits_tag@1@@Z ENDP ; std::_Traits_helper::copy_s<std::char_traits<char> >
; Function compile flags: /Ogtpy
; File c:\program files\microsoft visual studio 9.0\vc\include\xmemory
_TEXT	ENDS
;	COMDAT ??$_Allocate@D@std@@YAPADIPAD@Z
_TEXT	SEGMENT
$T56363 = -12						; size = 12
$T56367 = 8						; size = 4
__Count$ = 8						; size = 4
___formal$ = 12						; size = 4
??$_Allocate@D@std@@YAPADIPAD@Z PROC			; std::_Allocate<char>, COMDAT

; 37   : 	if (_Count <= 0)

  00000	8b 4c 24 04	 mov	 ecx, DWORD PTR __Count$[esp-4]
  00004	83 ec 0c	 sub	 esp, 12			; 0000000cH
  00007	85 c9		 test	 ecx, ecx
  00009	77 0f		 ja	 SHORT $LN3@Allocate@7

; 38   : 		_Count = 0;

  0000b	33 c9		 xor	 ecx, ecx
$LN1@Allocate@7:

; 41   : 
; 42   : 		// allocate storage for _Count elements of type _Ty
; 43   : 	return ((_Ty _FARQ *)::operator new(_Count * sizeof (_Ty)));

  0000d	51		 push	 ecx
  0000e	e8 00 00 00 00	 call	 ??2@YAPAXI@Z		; operator new
  00013	83 c4 04	 add	 esp, 4

; 44   : 	}

  00016	83 c4 0c	 add	 esp, 12			; 0000000cH
  00019	c3		 ret	 0
$LN3@Allocate@7:

; 39   : 	else if (((_SIZT)(-1) / _Count) < sizeof (_Ty))

  0001a	83 c8 ff	 or	 eax, -1
  0001d	33 d2		 xor	 edx, edx
  0001f	f7 f1		 div	 ecx
  00021	83 f8 01	 cmp	 eax, 1
  00024	73 e7		 jae	 SHORT $LN1@Allocate@7

; 40   : 		_THROW_NCEE(std::bad_alloc, NULL);

  00026	8d 44 24 10	 lea	 eax, DWORD PTR $T56367[esp+8]
  0002a	50		 push	 eax
  0002b	8d 4c 24 04	 lea	 ecx, DWORD PTR $T56363[esp+16]
  0002f	c7 44 24 14 00
	00 00 00	 mov	 DWORD PTR $T56367[esp+12], 0
  00037	e8 00 00 00 00	 call	 ??0exception@std@@QAE@ABQBD@Z ; std::exception::exception
  0003c	68 00 00 00 00	 push	 OFFSET __TI2?AVbad_alloc@std@@
  00041	8d 4c 24 04	 lea	 ecx, DWORD PTR $T56363[esp+16]
  00045	51		 push	 ecx
  00046	c7 44 24 08 00
	00 00 00	 mov	 DWORD PTR $T56363[esp+20], OFFSET ??_7bad_alloc@std@@6B@
  0004e	e8 00 00 00 00	 call	 __CxxThrowException@8
$LN9@Allocate@7:
$LN8@Allocate@7:
  00053	cc		 int	 3
??$_Allocate@D@std@@YAPADIPAD@Z ENDP			; std::_Allocate<char>
; Function compile flags: /Ogtpy
_TEXT	ENDS
;	COMDAT ??_Gbad_alloc@std@@UAEPAXI@Z
_TEXT	SEGMENT
___flags$ = 8						; size = 4
??_Gbad_alloc@std@@UAEPAXI@Z PROC			; std::bad_alloc::`scalar deleting destructor', COMDAT
; _this$ = ecx
  00000	56		 push	 esi
  00001	8b f1		 mov	 esi, ecx
  00003	c7 06 00 00 00
	00		 mov	 DWORD PTR [esi], OFFSET ??_7bad_alloc@std@@6B@
  00009	e8 00 00 00 00	 call	 ??1exception@std@@UAE@XZ ; std::exception::~exception
  0000e	f6 44 24 08 01	 test	 BYTE PTR ___flags$[esp], 1
  00013	74 09		 je	 SHORT $LN6@scalar@5
  00015	56		 push	 esi
  00016	e8 00 00 00 00	 call	 ??3@YAXPAX@Z		; operator delete
  0001b	83 c4 04	 add	 esp, 4
$LN6@scalar@5:
  0001e	8b c6		 mov	 eax, esi
  00020	5e		 pop	 esi
  00021	c2 04 00	 ret	 4
??_Gbad_alloc@std@@UAEPAXI@Z ENDP			; std::bad_alloc::`scalar deleting destructor'
; Function compile flags: /Ogtpy
; File c:\program files\microsoft visual studio 9.0\vc\include\xstring
_TEXT	ENDS
;	COMDAT ?max_size@?$basic_string@DU?$char_traits@D@std@@V?$allocator@D@2@@std@@QBEIXZ
_TEXT	SEGMENT
?max_size@?$basic_string@DU?$char_traits@D@std@@V?$allocator@D@2@@std@@QBEIXZ PROC ; std::basic_string<char,std::char_traits<char>,std::allocator<char> >::max_size, COMDAT
; _this$ = ecx

; 1671 : 		size_type _Num = _Mybase::_Alval.max_size();
; 1672 : 		return (_Num <= 1 ? 1 : _Num - 1);

  00000	b8 fe ff ff ff	 mov	 eax, -2			; fffffffeH

; 1673 : 		}

  00005	c3		 ret	 0
?max_size@?$basic_string@DU?$char_traits@D@std@@V?$allocator@D@2@@std@@QBEIXZ ENDP ; std::basic_string<char,std::char_traits<char>,std::allocator<char> >::max_size
; Function compile flags: /Ogtpy
; File c:\program files\microsoft visual studio 9.0\vc\include\iosfwd
_TEXT	ENDS
;	COMDAT ??$move_s@U?$char_traits@D@std@@@_Traits_helper@std@@YAPADPADIPBDIU_Secure_char_traits_tag@1@@Z
_TEXT	SEGMENT
__First1$ = 8						; size = 4
__Size$ = 12						; size = 4
__First2$ = 16						; size = 4
__Count$ = 20						; size = 4
___formal$ = 24						; size = 1
??$move_s@U?$char_traits@D@std@@@_Traits_helper@std@@YAPADPADIPBDIU_Secure_char_traits_tag@1@@Z PROC ; std::_Traits_helper::move_s<std::char_traits<char> >, COMDAT

; 624  : 		return _Traits::_Move_s(_First1, _Size, _First2, _Count);

  00000	8b 44 24 10	 mov	 eax, DWORD PTR __Count$[esp-4]
  00004	8b 4c 24 0c	 mov	 ecx, DWORD PTR __First2$[esp-4]
  00008	8b 54 24 08	 mov	 edx, DWORD PTR __Size$[esp-4]
  0000c	56		 push	 esi
  0000d	8b 74 24 08	 mov	 esi, DWORD PTR __First1$[esp]
  00011	50		 push	 eax
  00012	51		 push	 ecx
  00013	52		 push	 edx
  00014	56		 push	 esi
  00015	e8 00 00 00 00	 call	 _memmove_s
  0001a	83 c4 10	 add	 esp, 16			; 00000010H
  0001d	8b c6		 mov	 eax, esi
  0001f	5e		 pop	 esi

; 625  : 	}

  00020	c3		 ret	 0
??$move_s@U?$char_traits@D@std@@@_Traits_helper@std@@YAPADPADIPBDIU_Secure_char_traits_tag@1@@Z ENDP ; std::_Traits_helper::move_s<std::char_traits<char> >
; Function compile flags: /Ogtpy
; File c:\program files\microsoft visual studio 9.0\vc\include\xstring
_TEXT	ENDS
;	COMDAT ??0?$_String_val@DV?$allocator@D@std@@@std@@QAE@ABV01@@Z
_TEXT	SEGMENT
__Right$ = 8						; size = 4
??0?$_String_val@DV?$allocator@D@std@@@std@@QAE@ABV01@@Z PROC ; std::_String_val<char,std::allocator<char> >::_String_val<char,std::allocator<char> >, COMDAT
; _this$ = ecx

; 478  : 		{	// copy constructor

  00000	8b c1		 mov	 eax, ecx

; 479  : #if defined(_DEBUG)
; 480  : 		if (_Right._Myfirstiter == _IGNORE_MYITERLIST)
; 481  : 			{
; 482  : 			this->_Myfirstiter = _IGNORE_MYITERLIST;
; 483  : 			}
; 484  : #endif
; 485  : 		}

  00002	c2 04 00	 ret	 4
??0?$_String_val@DV?$allocator@D@std@@@std@@QAE@ABV01@@Z ENDP ; std::_String_val<char,std::allocator<char> >::_String_val<char,std::allocator<char> >
; Function compile flags: /Ogtpy
; File c:\program files\microsoft visual studio 9.0\vc\include\stdexcept
_TEXT	ENDS
;	COMDAT ?what@runtime_error@std@@UBEPBDXZ
_TEXT	SEGMENT
?what@runtime_error@std@@UBEPBDXZ PROC			; std::runtime_error::what, COMDAT
; _this$ = ecx

; 162  : 		return (_Str.c_str());

  00000	83 79 24 10	 cmp	 DWORD PTR [ecx+36], 16	; 00000010H
  00004	72 04		 jb	 SHORT $LN7@what@2
  00006	8b 41 10	 mov	 eax, DWORD PTR [ecx+16]

; 163  : 		}

  00009	c3		 ret	 0

; 162  : 		return (_Str.c_str());

$LN7@what@2:
  0000a	8d 41 10	 lea	 eax, DWORD PTR [ecx+16]

; 163  : 		}

  0000d	c3		 ret	 0
?what@runtime_error@std@@UBEPBDXZ ENDP			; std::runtime_error::what
; Function compile flags: /Ogtpy
; File c:\program files\microsoft visual studio 9.0\vc\include\streambuf
_TEXT	ENDS
;	COMDAT ?sputc@?$basic_streambuf@DU?$char_traits@D@std@@@std@@QAEHD@Z
_TEXT	SEGMENT
?sputc@?$basic_streambuf@DU?$char_traits@D@std@@@std@@QAEHD@Z PROC ; std::basic_streambuf<char,std::char_traits<char> >::sputc, COMDAT
; _this$ = ecx
; __Ch$ = edx

; 161  : 		return (0 < _Pnavail()
; 162  : 			? _Traits::to_int_type(*_Pninc() = _Ch)
; 163  : 			: overflow(_Traits::to_int_type(_Ch)));

  00000	8b 41 24	 mov	 eax, DWORD PTR [ecx+36]
  00003	83 38 00	 cmp	 DWORD PTR [eax], 0
  00006	74 1c		 je	 SHORT $LN3@sputc
  00008	8b 41 34	 mov	 eax, DWORD PTR [ecx+52]
  0000b	83 38 00	 cmp	 DWORD PTR [eax], 0
  0000e	7e 14		 jle	 SHORT $LN3@sputc
  00010	ff 08		 dec	 DWORD PTR [eax]
  00012	8b 49 24	 mov	 ecx, DWORD PTR [ecx+36]
  00015	8b 01		 mov	 eax, DWORD PTR [ecx]
  00017	56		 push	 esi
  00018	8d 70 01	 lea	 esi, DWORD PTR [eax+1]
  0001b	89 31		 mov	 DWORD PTR [ecx], esi
  0001d	88 10		 mov	 BYTE PTR [eax], dl
  0001f	0f b6 c2	 movzx	 eax, dl
  00022	5e		 pop	 esi

; 164  : 		}

  00023	c3		 ret	 0
$LN3@sputc:

; 161  : 		return (0 < _Pnavail()
; 162  : 			? _Traits::to_int_type(*_Pninc() = _Ch)
; 163  : 			: overflow(_Traits::to_int_type(_Ch)));

  00024	8b 01		 mov	 eax, DWORD PTR [ecx]
  00026	8b 40 04	 mov	 eax, DWORD PTR [eax+4]
  00029	0f b6 d2	 movzx	 edx, dl
  0002c	52		 push	 edx
  0002d	ff d0		 call	 eax

; 164  : 		}

  0002f	c3		 ret	 0
?sputc@?$basic_streambuf@DU?$char_traits@D@std@@@std@@QAEHD@Z ENDP ; std::basic_streambuf<char,std::char_traits<char> >::sputc
; Function compile flags: /Ogtpy
; File c:\program files\microsoft visual studio 9.0\vc\include\ostream
_TEXT	ENDS
;	COMDAT ??1_Sentry_base@?$basic_ostream@DU?$char_traits@D@std@@@std@@QAE@XZ
_TEXT	SEGMENT
??1_Sentry_base@?$basic_ostream@DU?$char_traits@D@std@@@std@@QAE@XZ PROC ; std::basic_ostream<char,std::char_traits<char> >::_Sentry_base::~_Sentry_base, COMDAT
; _this$ = eax

; 82   : 			if (_Myostr.rdbuf() != 0)

  00000	8b 00		 mov	 eax, DWORD PTR [eax]
  00002	8b 08		 mov	 ecx, DWORD PTR [eax]
  00004	8b 51 04	 mov	 edx, DWORD PTR [ecx+4]
  00007	8b 44 02 28	 mov	 eax, DWORD PTR [edx+eax+40]
  0000b	85 c0		 test	 eax, eax
  0000d	74 08		 je	 SHORT $LN8@Sentry_bas@3

; 83   : 				_Myostr.rdbuf()->_Unlock();

  0000f	8d 48 04	 lea	 ecx, DWORD PTR [eax+4]
  00012	e9 00 00 00 00	 jmp	 ?_Unlock@_Mutex@std@@QAEXXZ ; std::_Mutex::_Unlock
$LN8@Sentry_bas@3:

; 84   : 			}

  00017	c3		 ret	 0
??1_Sentry_base@?$basic_ostream@DU?$char_traits@D@std@@@std@@QAE@XZ ENDP ; std::basic_ostream<char,std::char_traits<char> >::_Sentry_base::~_Sentry_base
; Function compile flags: /Ogtpy
_TEXT	ENDS
;	COMDAT ??0_Sentry_base@?$basic_ostream@DU?$char_traits@D@std@@@std@@QAE@AAV12@@Z
_TEXT	SEGMENT
??0_Sentry_base@?$basic_ostream@DU?$char_traits@D@std@@@std@@QAE@AAV12@@Z PROC ; std::basic_ostream<char,std::char_traits<char> >::_Sentry_base::_Sentry_base, COMDAT
; _this$ = esi
; __Ostr$ = eax

; 75   : 			{	// lock the stream buffer, if there

  00000	89 06		 mov	 DWORD PTR [esi], eax

; 76   : 			if (_Myostr.rdbuf() != 0)

  00002	8b 08		 mov	 ecx, DWORD PTR [eax]
  00004	8b 51 04	 mov	 edx, DWORD PTR [ecx+4]
  00007	8b 44 02 28	 mov	 eax, DWORD PTR [edx+eax+40]
  0000b	85 c0		 test	 eax, eax
  0000d	74 08		 je	 SHORT $LN10@Sentry_bas@4

; 77   : 				_Myostr.rdbuf()->_Lock();

  0000f	8d 48 04	 lea	 ecx, DWORD PTR [eax+4]
  00012	e8 00 00 00 00	 call	 ?_Lock@_Mutex@std@@QAEXXZ ; std::_Mutex::_Lock
$LN10@Sentry_bas@4:

; 78   : 			}

  00017	8b c6		 mov	 eax, esi
  00019	c3		 ret	 0
??0_Sentry_base@?$basic_ostream@DU?$char_traits@D@std@@@std@@QAE@AAV12@@Z ENDP ; std::basic_ostream<char,std::char_traits<char> >::_Sentry_base::_Sentry_base
; Function compile flags: /Ogtpy
; File c:\program files\microsoft visual studio 9.0\vc\include\ios
_TEXT	ENDS
;	COMDAT ?hex@std@@YAAAVios_base@1@AAV21@@Z
_TEXT	SEGMENT
__Iosbase$ = 8						; size = 4
?hex@std@@YAAAVios_base@1@AAV21@@Z PROC			; std::hex, COMDAT

; 191  : 	_Iosbase.setf(ios_base::hex, ios_base::basefield);

  00000	8b 44 24 04	 mov	 eax, DWORD PTR __Iosbase$[esp-4]
  00004	8b 48 10	 mov	 ecx, DWORD PTR [eax+16]
  00007	81 e1 ff f9 ff
	ff		 and	 ecx, -1537		; fffff9ffH
  0000d	81 c9 00 08 00
	00		 or	 ecx, 2048		; 00000800H
  00013	89 48 10	 mov	 DWORD PTR [eax+16], ecx

; 192  : 	return (_Iosbase);
; 193  : 	}

  00016	c3		 ret	 0
?hex@std@@YAAAVios_base@1@AAV21@@Z ENDP			; std::hex
; Function compile flags: /Ogtpy
_TEXT	ENDS
;	COMDAT ??1?$basic_ios@DU?$char_traits@D@std@@@std@@UAE@XZ
_TEXT	SEGMENT
??1?$basic_ios@DU?$char_traits@D@std@@@std@@UAE@XZ PROC	; std::basic_ios<char,std::char_traits<char> >::~basic_ios<char,std::char_traits<char> >, COMDAT
; _this$ = ecx

; 39   : 		}

  00000	51		 push	 ecx
  00001	c7 01 00 00 00
	00		 mov	 DWORD PTR [ecx], OFFSET ??_7ios_base@std@@6B@
  00007	e8 00 00 00 00	 call	 ?_Ios_base_dtor@ios_base@std@@CAXPAV12@@Z ; std::ios_base::_Ios_base_dtor
  0000c	59		 pop	 ecx
  0000d	c3		 ret	 0
??1?$basic_ios@DU?$char_traits@D@std@@@std@@UAE@XZ ENDP	; std::basic_ios<char,std::char_traits<char> >::~basic_ios<char,std::char_traits<char> >
; Function compile flags: /Ogtpy
_TEXT	ENDS
;	COMDAT ??_G?$basic_ios@DU?$char_traits@D@std@@@std@@UAEPAXI@Z
_TEXT	SEGMENT
___flags$ = 8						; size = 4
??_G?$basic_ios@DU?$char_traits@D@std@@@std@@UAEPAXI@Z PROC ; std::basic_ios<char,std::char_traits<char> >::`scalar deleting destructor', COMDAT
; _this$ = ecx
  00000	56		 push	 esi
  00001	8b f1		 mov	 esi, ecx
  00003	56		 push	 esi
  00004	c7 06 00 00 00
	00		 mov	 DWORD PTR [esi], OFFSET ??_7ios_base@std@@6B@
  0000a	e8 00 00 00 00	 call	 ?_Ios_base_dtor@ios_base@std@@CAXPAV12@@Z ; std::ios_base::_Ios_base_dtor
  0000f	83 c4 04	 add	 esp, 4
  00012	f6 44 24 08 01	 test	 BYTE PTR ___flags$[esp], 1
  00017	74 09		 je	 SHORT $LN9@scalar@6
  00019	56		 push	 esi
  0001a	e8 00 00 00 00	 call	 ??3@YAXPAX@Z		; operator delete
  0001f	83 c4 04	 add	 esp, 4
$LN9@scalar@6:
  00022	8b c6		 mov	 eax, esi
  00024	5e		 pop	 esi
  00025	c2 04 00	 ret	 4
??_G?$basic_ios@DU?$char_traits@D@std@@@std@@UAEPAXI@Z ENDP ; std::basic_ios<char,std::char_traits<char> >::`scalar deleting destructor'
; Function compile flags: /Ogtpy
; File c:\program files\microsoft visual studio 9.0\vc\include\xlocale
_TEXT	ENDS
;	COMDAT ??1locale@std@@QAE@XZ
_TEXT	SEGMENT
__Lock$56512 = -4					; size = 4
??1locale@std@@QAE@XZ PROC				; std::locale::~locale, COMDAT
; _this$ = ecx

; 390  : 		{	// destroy the object

  00000	51		 push	 ecx
  00001	57		 push	 edi

; 391  : 		if (_Ptr != 0)

  00002	8b 39		 mov	 edi, DWORD PTR [ecx]
  00004	85 ff		 test	 edi, edi
  00006	74 3f		 je	 SHORT $LN4@locale@2

; 392  : 			_DELETE_CRT(_Ptr->_Decref());

  00008	6a 00		 push	 0
  0000a	8d 4c 24 08	 lea	 ecx, DWORD PTR __Lock$56512[esp+12]
  0000e	e8 00 00 00 00	 call	 ??0_Lockit@std@@QAE@H@Z	; std::_Lockit::_Lockit
  00013	8b 47 04	 mov	 eax, DWORD PTR [edi+4]
  00016	85 c0		 test	 eax, eax
  00018	76 09		 jbe	 SHORT $LN6@locale@2
  0001a	83 f8 ff	 cmp	 eax, -1
  0001d	73 04		 jae	 SHORT $LN6@locale@2
  0001f	48		 dec	 eax
  00020	89 47 04	 mov	 DWORD PTR [edi+4], eax
$LN6@locale@2:
  00023	56		 push	 esi
  00024	8b 77 04	 mov	 esi, DWORD PTR [edi+4]
  00027	f7 de		 neg	 esi
  00029	1b f6		 sbb	 esi, esi
  0002b	f7 d6		 not	 esi
  0002d	8d 4c 24 08	 lea	 ecx, DWORD PTR __Lock$56512[esp+12]
  00031	23 f7		 and	 esi, edi
  00033	e8 00 00 00 00	 call	 ??1_Lockit@std@@QAE@XZ	; std::_Lockit::~_Lockit
  00038	85 f6		 test	 esi, esi
  0003a	74 0a		 je	 SHORT $LN9@locale@2
  0003c	8b 06		 mov	 eax, DWORD PTR [esi]
  0003e	8b 10		 mov	 edx, DWORD PTR [eax]
  00040	6a 01		 push	 1
  00042	8b ce		 mov	 ecx, esi
  00044	ff d2		 call	 edx
$LN9@locale@2:
  00046	5e		 pop	 esi
$LN4@locale@2:
  00047	5f		 pop	 edi

; 393  : 		}

  00048	59		 pop	 ecx
  00049	c3		 ret	 0
??1locale@std@@QAE@XZ ENDP				; std::locale::~locale
; Function compile flags: /Ogtpy
_TEXT	ENDS
;	COMDAT ??0locale@std@@QAE@ABV01@@Z
_TEXT	SEGMENT
__Lock$56522 = 8					; size = 4
__Right$ = 8						; size = 4
??0locale@std@@QAE@ABV01@@Z PROC			; std::locale::locale, COMDAT
; _this$ = ecx

; 334  : 		{	// construct by copying

  00000	8b 44 24 04	 mov	 eax, DWORD PTR __Right$[esp-4]
  00004	56		 push	 esi
  00005	8b 30		 mov	 esi, DWORD PTR [eax]
  00007	57		 push	 edi
  00008	8b f9		 mov	 edi, ecx

; 335  : 		_Ptr->_Incref();

  0000a	6a 00		 push	 0
  0000c	8d 4c 24 10	 lea	 ecx, DWORD PTR __Lock$56522[esp+8]
  00010	89 37		 mov	 DWORD PTR [edi], esi
  00012	e8 00 00 00 00	 call	 ??0_Lockit@std@@QAE@H@Z	; std::_Lockit::_Lockit
  00017	8b 46 04	 mov	 eax, DWORD PTR [esi+4]
  0001a	83 f8 ff	 cmp	 eax, -1
  0001d	73 04		 jae	 SHORT $LN3@locale@3
  0001f	40		 inc	 eax
  00020	89 46 04	 mov	 DWORD PTR [esi+4], eax
$LN3@locale@3:
  00023	8d 4c 24 0c	 lea	 ecx, DWORD PTR __Lock$56522[esp+4]
  00027	e8 00 00 00 00	 call	 ??1_Lockit@std@@QAE@XZ	; std::_Lockit::~_Lockit

; 336  : 		}

  0002c	8b c7		 mov	 eax, edi
  0002e	5f		 pop	 edi
  0002f	5e		 pop	 esi
  00030	c2 04 00	 ret	 4
??0locale@std@@QAE@ABV01@@Z ENDP			; std::locale::locale
; Function compile flags: /Ogtpy
; File c:\program files\microsoft visual studio 9.0\vc\include\xstring
_TEXT	ENDS
;	COMDAT ?_Chassign@?$basic_string@DU?$char_traits@D@std@@V?$allocator@D@2@@std@@IAEXIID@Z
_TEXT	SEGMENT
__Off$ = 8						; size = 4
__Count$ = 12						; size = 4
__Ch$ = 16						; size = 1
?_Chassign@?$basic_string@DU?$char_traits@D@std@@V?$allocator@D@2@@std@@IAEXIID@Z PROC ; std::basic_string<char,std::char_traits<char>,std::allocator<char> >::_Chassign, COMDAT
; _this$ = ecx

; 2076 : 		if (_Count == 1)

  00000	8b 44 24 08	 mov	 eax, DWORD PTR __Count$[esp-4]
  00004	83 f8 01	 cmp	 eax, 1
  00007	75 28		 jne	 SHORT $LN2@Chassign

; 2077 : 			_Traits::assign(*(_Myptr() + _Off), _Ch);

  00009	83 79 18 10	 cmp	 DWORD PTR [ecx+24], 16	; 00000010H
  0000d	72 11		 jb	 SHORT $LN7@Chassign
  0000f	8b 49 04	 mov	 ecx, DWORD PTR [ecx+4]
  00012	8a 44 24 0c	 mov	 al, BYTE PTR __Ch$[esp-4]
  00016	8b 54 24 04	 mov	 edx, DWORD PTR __Off$[esp-4]
  0001a	88 04 11	 mov	 BYTE PTR [ecx+edx], al

; 2080 : 		}

  0001d	c2 0c 00	 ret	 12			; 0000000cH

; 2077 : 			_Traits::assign(*(_Myptr() + _Off), _Ch);

$LN7@Chassign:
  00020	8a 44 24 0c	 mov	 al, BYTE PTR __Ch$[esp-4]
  00024	8b 54 24 04	 mov	 edx, DWORD PTR __Off$[esp-4]
  00028	83 c1 04	 add	 ecx, 4
  0002b	88 04 11	 mov	 BYTE PTR [ecx+edx], al

; 2080 : 		}

  0002e	c2 0c 00	 ret	 12			; 0000000cH
$LN2@Chassign:

; 2078 : 		else
; 2079 : 			_Traits::assign(_Myptr() + _Off, _Count, _Ch);

  00031	83 79 18 10	 cmp	 DWORD PTR [ecx+24], 16	; 00000010H
  00035	72 05		 jb	 SHORT $LN13@Chassign
  00037	8b 49 04	 mov	 ecx, DWORD PTR [ecx+4]
  0003a	eb 03		 jmp	 SHORT $LN14@Chassign
$LN13@Chassign:
  0003c	83 c1 04	 add	 ecx, 4
$LN14@Chassign:
  0003f	8b 54 24 04	 mov	 edx, DWORD PTR __Off$[esp-4]
  00043	50		 push	 eax
  00044	0f be 44 24 10	 movsx	 eax, BYTE PTR __Ch$[esp]
  00049	50		 push	 eax
  0004a	03 ca		 add	 ecx, edx
  0004c	51		 push	 ecx
  0004d	e8 00 00 00 00	 call	 _memset
  00052	83 c4 0c	 add	 esp, 12			; 0000000cH

; 2080 : 		}

  00055	c2 0c 00	 ret	 12			; 0000000cH
?_Chassign@?$basic_string@DU?$char_traits@D@std@@V?$allocator@D@2@@std@@IAEXIID@Z ENDP ; std::basic_string<char,std::char_traits<char>,std::allocator<char> >::_Chassign
_TEXT	ENDS
;	COMDAT xdata$x
; File c:\program files\microsoft visual studio 9.0\vc\include\xlocale
xdata$x	SEGMENT
__unwindtable$?_Init@?$numpunct@D@std@@IAEXABV_Locinfo@2@_N@Z DD 0ffffffffH
	DD	00H
	DD	0ffffffffH
	DD	00H
__catchsym$?_Init@?$numpunct@D@std@@IAEXABV_Locinfo@2@_N@Z$2 DD 040H
	DD	00H
	DD	00H
	DD	FLAT:__catch$?_Init@?$numpunct@D@std@@IAEXABV_Locinfo@2@_N@Z$0
__tryblocktable$?_Init@?$numpunct@D@std@@IAEXABV_Locinfo@2@_N@Z DD 00H
	DD	00H
	DD	01H
	DD	01H
	DD	FLAT:__catchsym$?_Init@?$numpunct@D@std@@IAEXABV_Locinfo@2@_N@Z$2
__ehfuncinfo$?_Init@?$numpunct@D@std@@IAEXABV_Locinfo@2@_N@Z DD 019930522H
	DD	02H
	DD	FLAT:__unwindtable$?_Init@?$numpunct@D@std@@IAEXABV_Locinfo@2@_N@Z
	DD	01H
	DD	FLAT:__tryblocktable$?_Init@?$numpunct@D@std@@IAEXABV_Locinfo@2@_N@Z
	DD	2 DUP(00H)
	DD	00H
	DD	01H
; Function compile flags: /Ogtpy
; File c:\program files\microsoft visual studio 9.0\vc\include\xlocnum
xdata$x	ENDS
;	COMDAT ?_Init@?$numpunct@D@std@@IAEXABV_Locinfo@2@_N@Z
_TEXT	SEGMENT
__Ptr$ = -20						; size = 4
__$EHRec$ = -16						; size = 16
_this$ = 8						; size = 4
?_Init@?$numpunct@D@std@@IAEXABV_Locinfo@2@_N@Z PROC	; std::numpunct<char>::_Init, COMDAT

; 135  : 		{	// initialize from _Lobj

  00000	55		 push	 ebp
  00001	8b ec		 mov	 ebp, esp
  00003	6a ff		 push	 -1
  00005	68 00 00 00 00	 push	 __ehhandler$?_Init@?$numpunct@D@std@@IAEXABV_Locinfo@2@_N@Z
  0000a	64 a1 00 00 00
	00		 mov	 eax, DWORD PTR fs:0
  00010	50		 push	 eax
  00011	83 ec 08	 sub	 esp, 8
  00014	53		 push	 ebx
  00015	56		 push	 esi
  00016	57		 push	 edi
  00017	a1 00 00 00 00	 mov	 eax, DWORD PTR ___security_cookie
  0001c	33 c5		 xor	 eax, ebp
  0001e	50		 push	 eax
  0001f	8d 45 f4	 lea	 eax, DWORD PTR __$EHRec$[ebp+4]
  00022	64 a3 00 00 00
	00		 mov	 DWORD PTR fs:0, eax
  00028	89 65 f0	 mov	 DWORD PTR __$EHRec$[ebp], esp
  0002b	8b 5d 08	 mov	 ebx, DWORD PTR _this$[ebp]

; 136  : 		const lconv *_Ptr = _Lobj._Getlconv();

  0002e	e8 00 00 00 00	 call	 _localeconv
  00033	8b f0		 mov	 esi, eax

; 137  : 
; 138  : 		_Grouping = 0;

  00035	33 c0		 xor	 eax, eax
  00037	89 75 ec	 mov	 DWORD PTR __Ptr$[ebp], esi
  0003a	89 43 08	 mov	 DWORD PTR [ebx+8], eax

; 139  : 		_Falsename = 0;

  0003d	89 43 10	 mov	 DWORD PTR [ebx+16], eax

; 140  : 		_Truename = 0;

  00040	89 43 14	 mov	 DWORD PTR [ebx+20], eax

; 141  : 
; 142  : 		_TRY_BEGIN

  00043	89 45 fc	 mov	 DWORD PTR __$EHRec$[ebp+12], eax

; 143  : 		_Grouping = _MAKLOCSTR(char, _Ptr->grouping, _Lobj._Getcvt());

  00046	e8 00 00 00 00	 call	 __Getcvt
  0004b	8b 7e 08	 mov	 edi, DWORD PTR [esi+8]
  0004e	8b c7		 mov	 eax, edi
  00050	8d 50 01	 lea	 edx, DWORD PTR [eax+1]
$LL65@Init:
  00053	8a 08		 mov	 cl, BYTE PTR [eax]
  00055	40		 inc	 eax
  00056	84 c9		 test	 cl, cl
  00058	75 f9		 jne	 SHORT $LL65@Init
  0005a	2b c2		 sub	 eax, edx
  0005c	8d 70 01	 lea	 esi, DWORD PTR [eax+1]
  0005f	56		 push	 esi
  00060	e8 00 00 00 00	 call	 ??_U@YAPAXI@Z		; operator new[]
  00065	83 c4 04	 add	 esp, 4
  00068	8b c8		 mov	 ecx, eax
  0006a	8d 9b 00 00 00
	00		 npad	 6
$LL15@Init:
  00070	85 f6		 test	 esi, esi
  00072	76 09		 jbe	 SHORT $LN13@Init
  00074	8a 17		 mov	 dl, BYTE PTR [edi]
  00076	88 11		 mov	 BYTE PTR [ecx], dl
  00078	4e		 dec	 esi
  00079	41		 inc	 ecx
  0007a	47		 inc	 edi
  0007b	eb f3		 jmp	 SHORT $LL15@Init
$LN13@Init:
  0007d	89 43 08	 mov	 DWORD PTR [ebx+8], eax

; 144  : 		_Falsename = _MAKLOCSTR(_Elem, _Lobj._Getfalse(), _Lobj._Getcvt());

  00080	e8 00 00 00 00	 call	 __Getcvt
  00085	bf 00 00 00 00	 mov	 edi, OFFSET ??_C@_05LAPONLG@false?$AA@
  0008a	8b c7		 mov	 eax, edi
  0008c	8d 50 01	 lea	 edx, DWORD PTR [eax+1]
  0008f	90		 npad	 1
$LL66@Init:
  00090	8a 08		 mov	 cl, BYTE PTR [eax]
  00092	40		 inc	 eax
  00093	84 c9		 test	 cl, cl
  00095	75 f9		 jne	 SHORT $LL66@Init
  00097	2b c2		 sub	 eax, edx
  00099	8d 70 01	 lea	 esi, DWORD PTR [eax+1]
  0009c	56		 push	 esi
  0009d	e8 00 00 00 00	 call	 ??_U@YAPAXI@Z		; operator new[]
  000a2	83 c4 04	 add	 esp, 4
  000a5	8b c8		 mov	 ecx, eax
$LL24@Init:
  000a7	85 f6		 test	 esi, esi
  000a9	76 09		 jbe	 SHORT $LN22@Init
  000ab	8a 17		 mov	 dl, BYTE PTR [edi]
  000ad	88 11		 mov	 BYTE PTR [ecx], dl
  000af	4e		 dec	 esi
  000b0	41		 inc	 ecx
  000b1	47		 inc	 edi
  000b2	eb f3		 jmp	 SHORT $LL24@Init
$LN22@Init:
  000b4	89 43 10	 mov	 DWORD PTR [ebx+16], eax

; 145  : 		_Truename = _MAKLOCSTR(_Elem, _Lobj._Gettrue(), _Lobj._Getcvt());

  000b7	e8 00 00 00 00	 call	 __Getcvt
  000bc	bf 00 00 00 00	 mov	 edi, OFFSET ??_C@_04LOAJBDKD@true?$AA@
  000c1	8b c7		 mov	 eax, edi
  000c3	8d 50 01	 lea	 edx, DWORD PTR [eax+1]
$LL67@Init:
  000c6	8a 08		 mov	 cl, BYTE PTR [eax]
  000c8	40		 inc	 eax
  000c9	84 c9		 test	 cl, cl
  000cb	75 f9		 jne	 SHORT $LL67@Init
  000cd	2b c2		 sub	 eax, edx
  000cf	8d 70 01	 lea	 esi, DWORD PTR [eax+1]
  000d2	56		 push	 esi
  000d3	e8 00 00 00 00	 call	 ??_U@YAPAXI@Z		; operator new[]
  000d8	83 c4 04	 add	 esp, 4
  000db	8b c8		 mov	 ecx, eax
  000dd	8d 49 00	 npad	 3
$LL33@Init:
  000e0	85 f6		 test	 esi, esi
  000e2	76 09		 jbe	 SHORT $LN31@Init
  000e4	8a 17		 mov	 dl, BYTE PTR [edi]
  000e6	88 11		 mov	 BYTE PTR [ecx], dl
  000e8	4e		 dec	 esi
  000e9	41		 inc	 ecx
  000ea	47		 inc	 edi
  000eb	eb f3		 jmp	 SHORT $LL33@Init
$LN31@Init:
  000ed	89 43 14	 mov	 DWORD PTR [ebx+20], eax
  000f0	c7 45 fc ff ff
	ff ff		 mov	 DWORD PTR __$EHRec$[ebp+12], -1

; 149  : 		_CATCH_END
; 150  : 
; 151  : 		_Dp = _MAKLOCCHR(_Elem, _Ptr->decimal_point[0], _Lobj._Getcvt());

  000f7	e8 00 00 00 00	 call	 __Getcvt
  000fc	8b 75 ec	 mov	 esi, DWORD PTR __Ptr$[ebp]
  000ff	8b 06		 mov	 eax, DWORD PTR [esi]
  00101	8a 08		 mov	 cl, BYTE PTR [eax]
  00103	88 4b 0c	 mov	 BYTE PTR [ebx+12], cl

; 152  : 		_Kseparator =
; 153  : 			_MAKLOCCHR(_Elem, _Ptr->thousands_sep[0], _Lobj._Getcvt());

  00106	e8 00 00 00 00	 call	 __Getcvt
  0010b	8b 56 04	 mov	 edx, DWORD PTR [esi+4]
  0010e	8a 02		 mov	 al, BYTE PTR [edx]
  00110	88 43 0d	 mov	 BYTE PTR [ebx+13], al

; 154  : 
; 155  : 		if (_Isdef)

  00113	b0 01		 mov	 al, 1
  00115	84 c0		 test	 al, al
  00117	74 4a		 je	 SHORT $LN1@Init

; 156  : 			{	// apply defaults for required facets
; 157  : 			_Grouping = _MAKLOCSTR(char, "", _Lobj._Getcvt());

  00119	e8 00 00 00 00	 call	 __Getcvt
  0011e	bf 00 00 00 00	 mov	 edi, OFFSET ??_C@_00CNPNBAHC@?$AA@
  00123	8b c7		 mov	 eax, edi
  00125	8d 50 01	 lea	 edx, DWORD PTR [eax+1]
$LL68@Init:
  00128	8a 08		 mov	 cl, BYTE PTR [eax]
  0012a	40		 inc	 eax
  0012b	84 c9		 test	 cl, cl
  0012d	75 f9		 jne	 SHORT $LL68@Init
  0012f	2b c2		 sub	 eax, edx
  00131	8d 70 01	 lea	 esi, DWORD PTR [eax+1]
  00134	56		 push	 esi
  00135	e8 00 00 00 00	 call	 ??_U@YAPAXI@Z		; operator new[]
  0013a	83 c4 04	 add	 esp, 4
  0013d	8b c8		 mov	 ecx, eax
  0013f	85 f6		 test	 esi, esi
  00141	76 0b		 jbe	 SHORT $LN46@Init
$LL48@Init:
  00143	8a 17		 mov	 dl, BYTE PTR [edi]
  00145	88 11		 mov	 BYTE PTR [ecx], dl
  00147	4e		 dec	 esi
  00148	41		 inc	 ecx
  00149	47		 inc	 edi
  0014a	85 f6		 test	 esi, esi
  0014c	77 f5		 ja	 SHORT $LL48@Init
$LN46@Init:
  0014e	89 43 08	 mov	 DWORD PTR [ebx+8], eax

; 158  : 			_Dp = _MAKLOCCHR(_Elem, '.', _Lobj._Getcvt());

  00151	e8 00 00 00 00	 call	 __Getcvt
  00156	c6 43 0c 2e	 mov	 BYTE PTR [ebx+12], 46	; 0000002eH

; 159  : 			_Kseparator = _MAKLOCCHR(_Elem, ',', _Lobj._Getcvt());

  0015a	e8 00 00 00 00	 call	 __Getcvt
  0015f	c6 43 0d 2c	 mov	 BYTE PTR [ebx+13], 44	; 0000002cH
$LN1@Init:

; 160  : 			}
; 161  : 		}

  00163	8b 4d f4	 mov	 ecx, DWORD PTR __$EHRec$[ebp+4]
  00166	64 89 0d 00 00
	00 00		 mov	 DWORD PTR fs:0, ecx
  0016d	59		 pop	 ecx
  0016e	5f		 pop	 edi
  0016f	5e		 pop	 esi
  00170	5b		 pop	 ebx
  00171	8b e5		 mov	 esp, ebp
  00173	5d		 pop	 ebp
  00174	c2 04 00	 ret	 4
__catch$?_Init@?$numpunct@D@std@@IAEXABV_Locinfo@2@_N@Z$0:

; 146  : 		_CATCH_ALL
; 147  : 		_Tidy();

  00177	8b 75 08	 mov	 esi, DWORD PTR _this$[ebp]
  0017a	e8 00 00 00 00	 call	 ?_Tidy@?$numpunct@D@std@@AAEXXZ ; std::numpunct<char>::_Tidy

; 148  : 		_RERAISE;

  0017f	6a 00		 push	 0
  00181	6a 00		 push	 0
  00183	e8 00 00 00 00	 call	 __CxxThrowException@8
$LN71@Init:
$LN70@Init:
  00188	cc		 int	 3
_TEXT	ENDS
;	COMDAT text$x
text$x	SEGMENT
__ehhandler$?_Init@?$numpunct@D@std@@IAEXABV_Locinfo@2@_N@Z:
  00000	8b 54 24 08	 mov	 edx, DWORD PTR [esp+8]
  00004	8d 42 0c	 lea	 eax, DWORD PTR [edx+12]
  00007	8b 4a e8	 mov	 ecx, DWORD PTR [edx-24]
  0000a	33 c8		 xor	 ecx, eax
  0000c	e8 00 00 00 00	 call	 @__security_check_cookie@4
  00011	b8 00 00 00 00	 mov	 eax, OFFSET __ehfuncinfo$?_Init@?$numpunct@D@std@@IAEXABV_Locinfo@2@_N@Z
  00016	e9 00 00 00 00	 jmp	 ___CxxFrameHandler3
text$x	ENDS
?_Init@?$numpunct@D@std@@IAEXABV_Locinfo@2@_N@Z ENDP	; std::numpunct<char>::_Init
;	COMDAT xdata$x
; File c:\program files\microsoft visual studio 9.0\vc\include\xlocale
xdata$x	SEGMENT
__unwindtable$??0?$numpunct@D@std@@QAE@ABV_Locinfo@1@I_N@Z DD 0ffffffffH
	DD	FLAT:__unwindfunclet$??0?$numpunct@D@std@@QAE@ABV_Locinfo@1@I_N@Z$0
__ehfuncinfo$??0?$numpunct@D@std@@QAE@ABV_Locinfo@1@I_N@Z DD 019930522H
	DD	01H
	DD	FLAT:__unwindtable$??0?$numpunct@D@std@@QAE@ABV_Locinfo@1@I_N@Z
	DD	2 DUP(00H)
	DD	2 DUP(00H)
	DD	00H
	DD	01H
; Function compile flags: /Ogtpy
; File c:\program files\microsoft visual studio 9.0\vc\include\xlocnum
xdata$x	ENDS
;	COMDAT ??0?$numpunct@D@std@@QAE@ABV_Locinfo@1@I_N@Z
_TEXT	SEGMENT
__$EHRec$ = -12						; size = 12
_this$ = 8						; size = 4
??0?$numpunct@D@std@@QAE@ABV_Locinfo@1@I_N@Z PROC	; std::numpunct<char>::numpunct<char>, COMDAT

; 106  : 		{	// construct from specified locale

  00000	6a ff		 push	 -1
  00002	68 00 00 00 00	 push	 __ehhandler$??0?$numpunct@D@std@@QAE@ABV_Locinfo@1@I_N@Z
  00007	64 a1 00 00 00
	00		 mov	 eax, DWORD PTR fs:0
  0000d	50		 push	 eax
  0000e	51		 push	 ecx
  0000f	56		 push	 esi
  00010	a1 00 00 00 00	 mov	 eax, DWORD PTR ___security_cookie
  00015	33 c4		 xor	 eax, esp
  00017	50		 push	 eax
  00018	8d 44 24 0c	 lea	 eax, DWORD PTR __$EHRec$[esp+24]
  0001c	64 a3 00 00 00
	00		 mov	 DWORD PTR fs:0, eax
  00022	8b 74 24 1c	 mov	 esi, DWORD PTR _this$[esp+20]
  00026	33 c0		 xor	 eax, eax
  00028	89 46 04	 mov	 DWORD PTR [esi+4], eax
  0002b	89 44 24 14	 mov	 DWORD PTR __$EHRec$[esp+32], eax

; 107  : 		_Init(_Lobj, _Isdef);

  0002f	56		 push	 esi
  00030	c7 06 00 00 00
	00		 mov	 DWORD PTR [esi], OFFSET ??_7?$numpunct@D@std@@6B@
  00036	e8 00 00 00 00	 call	 ?_Init@?$numpunct@D@std@@IAEXABV_Locinfo@2@_N@Z ; std::numpunct<char>::_Init

; 108  : 		}

  0003b	8b c6		 mov	 eax, esi
  0003d	8b 4c 24 0c	 mov	 ecx, DWORD PTR __$EHRec$[esp+24]
  00041	64 89 0d 00 00
	00 00		 mov	 DWORD PTR fs:0, ecx
  00048	59		 pop	 ecx
  00049	5e		 pop	 esi
  0004a	83 c4 10	 add	 esp, 16			; 00000010H
  0004d	c2 04 00	 ret	 4
_TEXT	ENDS
;	COMDAT text$x
text$x	SEGMENT
__unwindfunclet$??0?$numpunct@D@std@@QAE@ABV_Locinfo@1@I_N@Z$0:
  00000	8b 4d 04	 mov	 ecx, DWORD PTR _this$[ebp-4]
  00003	e9 00 00 00 00	 jmp	 ??1facet@locale@std@@UAE@XZ ; std::locale::facet::~facet
__ehhandler$??0?$numpunct@D@std@@QAE@ABV_Locinfo@1@I_N@Z:
  00008	8b 54 24 08	 mov	 edx, DWORD PTR [esp+8]
  0000c	8d 42 f8	 lea	 eax, DWORD PTR [edx-8]
  0000f	8b 4a f4	 mov	 ecx, DWORD PTR [edx-12]
  00012	33 c8		 xor	 ecx, eax
  00014	e8 00 00 00 00	 call	 @__security_check_cookie@4
  00019	b8 00 00 00 00	 mov	 eax, OFFSET __ehfuncinfo$??0?$numpunct@D@std@@QAE@ABV_Locinfo@1@I_N@Z
  0001e	e9 00 00 00 00	 jmp	 ___CxxFrameHandler3
text$x	ENDS
??0?$numpunct@D@std@@QAE@ABV_Locinfo@1@I_N@Z ENDP	; std::numpunct<char>::numpunct<char>
; Function compile flags: /Ogtpy
; File c:\program files\microsoft visual studio 9.0\vc\include\streambuf
;	COMDAT ??4?$ostreambuf_iterator@DU?$char_traits@D@std@@@std@@QAEAAV01@D@Z
_TEXT	SEGMENT
??4?$ostreambuf_iterator@DU?$char_traits@D@std@@@std@@QAEAAV01@D@Z PROC ; std::ostreambuf_iterator<char,std::char_traits<char> >::operator=, COMDAT
; _this$ = esi
; __Right$ = edx

; 593  : 		if (_Strbuf == 0
; 594  : 			|| traits_type::eq_int_type(_Traits::eof(),
; 595  : 				_Strbuf->sputc(_Right)))

  00000	8b 4e 04	 mov	 ecx, DWORD PTR [esi+4]
  00003	85 c9		 test	 ecx, ecx
  00005	74 35		 je	 SHORT $LN1@operator@17
  00007	8b 41 24	 mov	 eax, DWORD PTR [ecx+36]
  0000a	83 38 00	 cmp	 DWORD PTR [eax], 0
  0000d	74 1d		 je	 SHORT $LN7@operator@17
  0000f	8b 41 34	 mov	 eax, DWORD PTR [ecx+52]
  00012	83 38 00	 cmp	 DWORD PTR [eax], 0
  00015	7e 15		 jle	 SHORT $LN7@operator@17
  00017	ff 08		 dec	 DWORD PTR [eax]
  00019	8b 49 24	 mov	 ecx, DWORD PTR [ecx+36]
  0001c	8b 01		 mov	 eax, DWORD PTR [ecx]
  0001e	57		 push	 edi
  0001f	8d 78 01	 lea	 edi, DWORD PTR [eax+1]
  00022	89 39		 mov	 DWORD PTR [ecx], edi
  00024	88 10		 mov	 BYTE PTR [eax], dl
  00026	0f b6 c2	 movzx	 eax, dl
  00029	5f		 pop	 edi
  0002a	eb 0b		 jmp	 SHORT $LN8@operator@17
$LN7@operator@17:
  0002c	8b 01		 mov	 eax, DWORD PTR [ecx]
  0002e	8b 40 04	 mov	 eax, DWORD PTR [eax+4]
  00031	0f b6 d2	 movzx	 edx, dl
  00034	52		 push	 edx
  00035	ff d0		 call	 eax
$LN8@operator@17:
  00037	83 f8 ff	 cmp	 eax, -1
  0003a	75 03		 jne	 SHORT $LN23@operator@17
$LN1@operator@17:

; 596  : 			_Failed = true;

  0003c	c6 06 01	 mov	 BYTE PTR [esi], 1
$LN23@operator@17:

; 597  : 		return (*this);

  0003f	8b c6		 mov	 eax, esi

; 598  : 		}

  00041	c3		 ret	 0
??4?$ostreambuf_iterator@DU?$char_traits@D@std@@@std@@QAEAAV01@D@Z ENDP ; std::ostreambuf_iterator<char,std::char_traits<char> >::operator=
; Function compile flags: /Ogtpy
; File c:\program files\microsoft visual studio 9.0\vc\include\xlocnum
_TEXT	ENDS
;	COMDAT ?_Putc@?$num_put@DV?$ostreambuf_iterator@DU?$char_traits@D@std@@@std@@@std@@ABA?AV?$ostreambuf_iterator@DU?$char_traits@D@std@@@2@V32@PBDI@Z
_TEXT	SEGMENT
___$ReturnUdt$ = 8					; size = 4
__Dest$ = 12						; size = 8
__Count$ = 20						; size = 4
?_Putc@?$num_put@DV?$ostreambuf_iterator@DU?$char_traits@D@std@@@std@@@std@@ABA?AV?$ostreambuf_iterator@DU?$char_traits@D@std@@@2@V32@PBDI@Z PROC ; std::num_put<char,std::ostreambuf_iterator<char,std::char_traits<char> > >::_Putc, COMDAT
; __Ptr$ = eax

; 1521 : 		for (; 0 < _Count; --_Count, ++_Dest, ++_Ptr)

  00000	8b 4c 24 0c	 mov	 ecx, DWORD PTR __Dest$[esp]
  00004	55		 push	 ebp
  00005	8b 6c 24 14	 mov	 ebp, DWORD PTR __Count$[esp]
  00009	57		 push	 edi
  0000a	8b f8		 mov	 edi, eax
  0000c	85 ed		 test	 ebp, ebp
  0000e	76 4c		 jbe	 SHORT $LN1@Putc
  00010	56		 push	 esi
$LL3@Putc:

; 1522 : 			*_Dest = _MAKLOCCHR(_Elem, *_Ptr, _Cvt);

  00011	85 c9		 test	 ecx, ecx
  00013	74 3b		 je	 SHORT $LN12@Putc
  00015	8b 41 24	 mov	 eax, DWORD PTR [ecx+36]
  00018	83 38 00	 cmp	 DWORD PTR [eax], 0
  0001b	8a 17		 mov	 dl, BYTE PTR [edi]
  0001d	8d 71 24	 lea	 esi, DWORD PTR [ecx+36]
  00020	74 1a		 je	 SHORT $LN18@Putc
  00022	8b 41 34	 mov	 eax, DWORD PTR [ecx+52]
  00025	83 38 00	 cmp	 DWORD PTR [eax], 0
  00028	7e 12		 jle	 SHORT $LN18@Putc
  0002a	ff 08		 dec	 DWORD PTR [eax]
  0002c	8b 06		 mov	 eax, DWORD PTR [esi]
  0002e	8b 08		 mov	 ecx, DWORD PTR [eax]
  00030	8d 71 01	 lea	 esi, DWORD PTR [ecx+1]
  00033	89 30		 mov	 DWORD PTR [eax], esi
  00035	88 11		 mov	 BYTE PTR [ecx], dl
  00037	0f b6 c2	 movzx	 eax, dl
  0003a	eb 0b		 jmp	 SHORT $LN19@Putc
$LN18@Putc:
  0003c	8b 01		 mov	 eax, DWORD PTR [ecx]
  0003e	8b 40 04	 mov	 eax, DWORD PTR [eax+4]
  00041	0f b6 d2	 movzx	 edx, dl
  00044	52		 push	 edx
  00045	ff d0		 call	 eax
$LN19@Putc:
  00047	8b 4c 24 18	 mov	 ecx, DWORD PTR __Dest$[esp+12]
  0004b	83 f8 ff	 cmp	 eax, -1
  0004e	75 05		 jne	 SHORT $LN2@Putc
$LN12@Putc:
  00050	c6 44 24 14 01	 mov	 BYTE PTR __Dest$[esp+8], 1
$LN2@Putc:

; 1521 : 		for (; 0 < _Count; --_Count, ++_Dest, ++_Ptr)

  00055	4d		 dec	 ebp
  00056	47		 inc	 edi
  00057	85 ed		 test	 ebp, ebp
  00059	77 b6		 ja	 SHORT $LL3@Putc
  0005b	5e		 pop	 esi
$LN1@Putc:

; 1523 : 		return (_Dest);

  0005c	8b 44 24 0c	 mov	 eax, DWORD PTR ___$ReturnUdt$[esp+4]
  00060	8b 54 24 10	 mov	 edx, DWORD PTR __Dest$[esp+4]
  00064	5f		 pop	 edi
  00065	89 10		 mov	 DWORD PTR [eax], edx
  00067	89 48 04	 mov	 DWORD PTR [eax+4], ecx
  0006a	5d		 pop	 ebp

; 1524 : 		}

  0006b	c3		 ret	 0
?_Putc@?$num_put@DV?$ostreambuf_iterator@DU?$char_traits@D@std@@@std@@@std@@ABA?AV?$ostreambuf_iterator@DU?$char_traits@D@std@@@2@V32@PBDI@Z ENDP ; std::num_put<char,std::ostreambuf_iterator<char,std::char_traits<char> > >::_Putc
; Function compile flags: /Ogtpy
_TEXT	ENDS
;	COMDAT ??_G?$numpunct@D@std@@MAEPAXI@Z
_TEXT	SEGMENT
___flags$ = 8						; size = 4
??_G?$numpunct@D@std@@MAEPAXI@Z PROC			; std::numpunct<char>::`scalar deleting destructor', COMDAT
; _this$ = ecx
  00000	56		 push	 esi
  00001	8b f1		 mov	 esi, ecx
  00003	8b 46 08	 mov	 eax, DWORD PTR [esi+8]
  00006	50		 push	 eax
  00007	c7 06 00 00 00
	00		 mov	 DWORD PTR [esi], OFFSET ??_7?$numpunct@D@std@@6B@
  0000d	e8 00 00 00 00	 call	 ??_V@YAXPAX@Z		; operator delete[]
  00012	8b 4e 10	 mov	 ecx, DWORD PTR [esi+16]
  00015	51		 push	 ecx
  00016	e8 00 00 00 00	 call	 ??_V@YAXPAX@Z		; operator delete[]
  0001b	8b 56 14	 mov	 edx, DWORD PTR [esi+20]
  0001e	52		 push	 edx
  0001f	e8 00 00 00 00	 call	 ??_V@YAXPAX@Z		; operator delete[]
  00024	83 c4 0c	 add	 esp, 12			; 0000000cH
  00027	f6 44 24 08 01	 test	 BYTE PTR ___flags$[esp], 1
  0002c	c7 06 00 00 00
	00		 mov	 DWORD PTR [esi], OFFSET ??_7facet@locale@std@@6B@
  00032	74 09		 je	 SHORT $LN10@scalar@7
  00034	56		 push	 esi
  00035	e8 00 00 00 00	 call	 ??3@YAXPAX@Z		; operator delete
  0003a	83 c4 04	 add	 esp, 4
$LN10@scalar@7:
  0003d	8b c6		 mov	 eax, esi
  0003f	5e		 pop	 esi
  00040	c2 04 00	 ret	 4
??_G?$numpunct@D@std@@MAEPAXI@Z ENDP			; std::numpunct<char>::`scalar deleting destructor'
; Function compile flags: /Ogtpy
_TEXT	ENDS
;	COMDAT ?_Rep@?$num_put@DV?$ostreambuf_iterator@DU?$char_traits@D@std@@@std@@@std@@ABA?AV?$ostreambuf_iterator@DU?$char_traits@D@std@@@2@V32@DI@Z
_TEXT	SEGMENT
__Dest$ = 8						; size = 8
__Ch$ = 16						; size = 1
?_Rep@?$num_put@DV?$ostreambuf_iterator@DU?$char_traits@D@std@@@std@@@std@@ABA?AV?$ostreambuf_iterator@DU?$char_traits@D@std@@@2@V32@DI@Z PROC ; std::num_put<char,std::ostreambuf_iterator<char,std::char_traits<char> > >::_Rep, COMDAT
; ___$ReturnUdt$ = edi
; __Count$ = eax

; 1548 : 		for (; 0 < _Count; --_Count, ++_Dest)

  00000	8b 4c 24 08	 mov	 ecx, DWORD PTR __Dest$[esp]
  00004	53		 push	 ebx
  00005	8a 5c 24 10	 mov	 bl, BYTE PTR __Ch$[esp]
  00009	56		 push	 esi
  0000a	8b f0		 mov	 esi, eax
  0000c	85 f6		 test	 esi, esi
  0000e	76 47		 jbe	 SHORT $LN1@Rep
$LL6@Rep:

; 1549 : 			*_Dest = _Ch;

  00010	85 c9		 test	 ecx, ecx
  00012	74 39		 je	 SHORT $LN10@Rep
  00014	8b 41 24	 mov	 eax, DWORD PTR [ecx+36]
  00017	83 38 00	 cmp	 DWORD PTR [eax], 0
  0001a	8d 51 24	 lea	 edx, DWORD PTR [ecx+36]
  0001d	74 1a		 je	 SHORT $LN16@Rep
  0001f	8b 41 34	 mov	 eax, DWORD PTR [ecx+52]
  00022	83 38 00	 cmp	 DWORD PTR [eax], 0
  00025	7e 12		 jle	 SHORT $LN16@Rep
  00027	ff 08		 dec	 DWORD PTR [eax]
  00029	8b 02		 mov	 eax, DWORD PTR [edx]
  0002b	8b 08		 mov	 ecx, DWORD PTR [eax]
  0002d	8d 51 01	 lea	 edx, DWORD PTR [ecx+1]
  00030	89 10		 mov	 DWORD PTR [eax], edx
  00032	88 19		 mov	 BYTE PTR [ecx], bl
  00034	0f b6 c3	 movzx	 eax, bl
  00037	eb 0b		 jmp	 SHORT $LN17@Rep
$LN16@Rep:
  00039	8b 01		 mov	 eax, DWORD PTR [ecx]
  0003b	8b 40 04	 mov	 eax, DWORD PTR [eax+4]
  0003e	0f b6 d3	 movzx	 edx, bl
  00041	52		 push	 edx
  00042	ff d0		 call	 eax
$LN17@Rep:
  00044	8b 4c 24 10	 mov	 ecx, DWORD PTR __Dest$[esp+8]
  00048	83 f8 ff	 cmp	 eax, -1
  0004b	75 05		 jne	 SHORT $LN2@Rep
$LN10@Rep:
  0004d	c6 44 24 0c 01	 mov	 BYTE PTR __Dest$[esp+4], 1
$LN2@Rep:

; 1548 : 		for (; 0 < _Count; --_Count, ++_Dest)

  00052	83 ee 01	 sub	 esi, 1
  00055	75 b9		 jne	 SHORT $LL6@Rep
$LN1@Rep:

; 1550 : 		return (_Dest);

  00057	8b 54 24 0c	 mov	 edx, DWORD PTR __Dest$[esp+4]
  0005b	5e		 pop	 esi
  0005c	89 17		 mov	 DWORD PTR [edi], edx
  0005e	89 4f 04	 mov	 DWORD PTR [edi+4], ecx
  00061	8b c7		 mov	 eax, edi
  00063	5b		 pop	 ebx

; 1551 : 		}

  00064	c3		 ret	 0
?_Rep@?$num_put@DV?$ostreambuf_iterator@DU?$char_traits@D@std@@@std@@@std@@ABA?AV?$ostreambuf_iterator@DU?$char_traits@D@std@@@2@V32@DI@Z ENDP ; std::num_put<char,std::ostreambuf_iterator<char,std::char_traits<char> > >::_Rep
; Function compile flags: /Ogtpy
_TEXT	ENDS
;	COMDAT ?_Put@?$num_put@DV?$ostreambuf_iterator@DU?$char_traits@D@std@@@std@@@std@@ABA?AV?$ostreambuf_iterator@DU?$char_traits@D@std@@@2@V32@PBDI@Z
_TEXT	SEGMENT
___$ReturnUdt$ = 8					; size = 4
__Dest$ = 12						; size = 8
__Count$ = 20						; size = 4
?_Put@?$num_put@DV?$ostreambuf_iterator@DU?$char_traits@D@std@@@std@@@std@@ABA?AV?$ostreambuf_iterator@DU?$char_traits@D@std@@@2@V32@PBDI@Z PROC ; std::num_put<char,std::ostreambuf_iterator<char,std::char_traits<char> > >::_Put, COMDAT
; __Ptr$ = eax

; 1513 : 		for (; 0 < _Count; --_Count, ++_Dest, ++_Ptr)

  00000	8b 4c 24 0c	 mov	 ecx, DWORD PTR __Dest$[esp]
  00004	55		 push	 ebp
  00005	8b 6c 24 14	 mov	 ebp, DWORD PTR __Count$[esp]
  00009	57		 push	 edi
  0000a	8b f8		 mov	 edi, eax
  0000c	85 ed		 test	 ebp, ebp
  0000e	76 4c		 jbe	 SHORT $LN1@Put
  00010	56		 push	 esi
$LL3@Put:

; 1514 : 			*_Dest = *_Ptr;

  00011	85 c9		 test	 ecx, ecx
  00013	74 3b		 je	 SHORT $LN10@Put
  00015	8b 41 24	 mov	 eax, DWORD PTR [ecx+36]
  00018	83 38 00	 cmp	 DWORD PTR [eax], 0
  0001b	8a 17		 mov	 dl, BYTE PTR [edi]
  0001d	8d 71 24	 lea	 esi, DWORD PTR [ecx+36]
  00020	74 1a		 je	 SHORT $LN16@Put
  00022	8b 41 34	 mov	 eax, DWORD PTR [ecx+52]
  00025	83 38 00	 cmp	 DWORD PTR [eax], 0
  00028	7e 12		 jle	 SHORT $LN16@Put
  0002a	ff 08		 dec	 DWORD PTR [eax]
  0002c	8b 06		 mov	 eax, DWORD PTR [esi]
  0002e	8b 08		 mov	 ecx, DWORD PTR [eax]
  00030	8d 71 01	 lea	 esi, DWORD PTR [ecx+1]
  00033	89 30		 mov	 DWORD PTR [eax], esi
  00035	88 11		 mov	 BYTE PTR [ecx], dl
  00037	0f b6 c2	 movzx	 eax, dl
  0003a	eb 0b		 jmp	 SHORT $LN17@Put
$LN16@Put:
  0003c	8b 01		 mov	 eax, DWORD PTR [ecx]
  0003e	8b 40 04	 mov	 eax, DWORD PTR [eax+4]
  00041	0f b6 d2	 movzx	 edx, dl
  00044	52		 push	 edx
  00045	ff d0		 call	 eax
$LN17@Put:
  00047	8b 4c 24 18	 mov	 ecx, DWORD PTR __Dest$[esp+12]
  0004b	83 f8 ff	 cmp	 eax, -1
  0004e	75 05		 jne	 SHORT $LN2@Put
$LN10@Put:
  00050	c6 44 24 14 01	 mov	 BYTE PTR __Dest$[esp+8], 1
$LN2@Put:

; 1513 : 		for (; 0 < _Count; --_Count, ++_Dest, ++_Ptr)

  00055	4d		 dec	 ebp
  00056	47		 inc	 edi
  00057	85 ed		 test	 ebp, ebp
  00059	77 b6		 ja	 SHORT $LL3@Put
  0005b	5e		 pop	 esi
$LN1@Put:

; 1515 : 		return (_Dest);

  0005c	8b 44 24 0c	 mov	 eax, DWORD PTR ___$ReturnUdt$[esp+4]
  00060	8b 54 24 10	 mov	 edx, DWORD PTR __Dest$[esp+4]
  00064	5f		 pop	 edi
  00065	89 10		 mov	 DWORD PTR [eax], edx
  00067	89 48 04	 mov	 DWORD PTR [eax+4], ecx
  0006a	5d		 pop	 ebp

; 1516 : 		}

  0006b	c3		 ret	 0
?_Put@?$num_put@DV?$ostreambuf_iterator@DU?$char_traits@D@std@@@std@@@std@@ABA?AV?$ostreambuf_iterator@DU?$char_traits@D@std@@@2@V32@PBDI@Z ENDP ; std::num_put<char,std::ostreambuf_iterator<char,std::char_traits<char> > >::_Put
; Function compile flags: /Ogtpy
_TEXT	ENDS
;	COMDAT ??_G?$num_put@DV?$ostreambuf_iterator@DU?$char_traits@D@std@@@std@@@std@@MAEPAXI@Z
_TEXT	SEGMENT
___flags$ = 8						; size = 4
??_G?$num_put@DV?$ostreambuf_iterator@DU?$char_traits@D@std@@@std@@@std@@MAEPAXI@Z PROC ; std::num_put<char,std::ostreambuf_iterator<char,std::char_traits<char> > >::`scalar deleting destructor', COMDAT
; _this$ = ecx
  00000	f6 44 24 04 01	 test	 BYTE PTR ___flags$[esp-4], 1
  00005	56		 push	 esi
  00006	8b f1		 mov	 esi, ecx
  00008	c7 06 00 00 00
	00		 mov	 DWORD PTR [esi], OFFSET ??_7facet@locale@std@@6B@
  0000e	74 09		 je	 SHORT $LN8@scalar@8
  00010	56		 push	 esi
  00011	e8 00 00 00 00	 call	 ??3@YAXPAX@Z		; operator delete
  00016	83 c4 04	 add	 esp, 4
$LN8@scalar@8:
  00019	8b c6		 mov	 eax, esi
  0001b	5e		 pop	 esi
  0001c	c2 04 00	 ret	 4
??_G?$num_put@DV?$ostreambuf_iterator@DU?$char_traits@D@std@@@std@@@std@@MAEPAXI@Z ENDP ; std::num_put<char,std::ostreambuf_iterator<char,std::char_traits<char> > >::`scalar deleting destructor'
; Function compile flags: /Ogtpy
; File c:\program files\microsoft visual studio 9.0\vc\include\iosfwd
;	COMDAT ??$copy_s@U?$char_traits@D@std@@@_Traits_helper@std@@YAPADPADIPBDI@Z
_TEXT	SEGMENT
__First1$ = 8						; size = 4
__Size$ = 12						; size = 4
__First2$ = 16						; size = 4
__Count$ = 20						; size = 4
??$copy_s@U?$char_traits@D@std@@@_Traits_helper@std@@YAPADPADIPBDI@Z PROC ; std::_Traits_helper::copy_s<std::char_traits<char> >, COMDAT

; 589  : 		return copy_s<_Traits>(_First1, _Size, _First2, _Count, _Char_traits_cat<_Traits>());

  00000	8b 44 24 10	 mov	 eax, DWORD PTR __Count$[esp-4]
  00004	8b 4c 24 0c	 mov	 ecx, DWORD PTR __First2$[esp-4]
  00008	8b 54 24 08	 mov	 edx, DWORD PTR __Size$[esp-4]
  0000c	56		 push	 esi
  0000d	8b 74 24 08	 mov	 esi, DWORD PTR __First1$[esp]
  00011	50		 push	 eax
  00012	51		 push	 ecx
  00013	52		 push	 edx
  00014	56		 push	 esi
  00015	e8 00 00 00 00	 call	 _memcpy_s
  0001a	83 c4 10	 add	 esp, 16			; 00000010H
  0001d	8b c6		 mov	 eax, esi
  0001f	5e		 pop	 esi

; 590  : 	}

  00020	c3		 ret	 0
??$copy_s@U?$char_traits@D@std@@@_Traits_helper@std@@YAPADPADIPBDI@Z ENDP ; std::_Traits_helper::copy_s<std::char_traits<char> >
; Function compile flags: /Ogtpy
; File c:\program files\microsoft visual studio 9.0\vc\include\xmemory
_TEXT	ENDS
;	COMDAT ?allocate@?$allocator@D@std@@QAEPADI@Z
_TEXT	SEGMENT
$T59328 = -12						; size = 12
$T59322 = 8						; size = 4
__Count$ = 8						; size = 4
?allocate@?$allocator@D@std@@QAEPADI@Z PROC		; std::allocator<char>::allocate, COMDAT
; _this$ = ecx

; 145  : 		return (_Allocate(_Count, (pointer)0));

  00000	8b 4c 24 04	 mov	 ecx, DWORD PTR __Count$[esp-4]
  00004	83 ec 0c	 sub	 esp, 12			; 0000000cH
  00007	85 c9		 test	 ecx, ecx
  00009	77 11		 ja	 SHORT $LN5@allocate@5
  0000b	33 c9		 xor	 ecx, ecx
$LN3@allocate@5:
  0000d	51		 push	 ecx
  0000e	e8 00 00 00 00	 call	 ??2@YAPAXI@Z		; operator new
  00013	83 c4 04	 add	 esp, 4

; 146  : 		}

  00016	83 c4 0c	 add	 esp, 12			; 0000000cH
  00019	c2 04 00	 ret	 4

; 145  : 		return (_Allocate(_Count, (pointer)0));

$LN5@allocate@5:
  0001c	83 c8 ff	 or	 eax, -1
  0001f	33 d2		 xor	 edx, edx
  00021	f7 f1		 div	 ecx
  00023	83 f8 01	 cmp	 eax, 1
  00026	73 e5		 jae	 SHORT $LN3@allocate@5
  00028	8d 44 24 10	 lea	 eax, DWORD PTR $T59322[esp+8]
  0002c	50		 push	 eax
  0002d	8d 4c 24 04	 lea	 ecx, DWORD PTR $T59328[esp+16]
  00031	c7 44 24 14 00
	00 00 00	 mov	 DWORD PTR $T59322[esp+12], 0
  00039	e8 00 00 00 00	 call	 ??0exception@std@@QAE@ABQBD@Z ; std::exception::exception
  0003e	68 00 00 00 00	 push	 OFFSET __TI2?AVbad_alloc@std@@
  00043	8d 4c 24 04	 lea	 ecx, DWORD PTR $T59328[esp+16]
  00047	51		 push	 ecx
  00048	c7 44 24 08 00
	00 00 00	 mov	 DWORD PTR $T59328[esp+20], OFFSET ??_7bad_alloc@std@@6B@
  00050	e8 00 00 00 00	 call	 __CxxThrowException@8
$LN12@allocate@5:
$LN11@allocate@5:
  00055	cc		 int	 3
?allocate@?$allocator@D@std@@QAEPADI@Z ENDP		; std::allocator<char>::allocate
; Function compile flags: /Ogtpy
; File c:\program files\microsoft visual studio 9.0\vc\include\iosfwd
_TEXT	ENDS
;	COMDAT ??$move_s@U?$char_traits@D@std@@@_Traits_helper@std@@YAPADPADIPBDI@Z
_TEXT	SEGMENT
__First1$ = 8						; size = 4
__Size$ = 12						; size = 4
__First2$ = 16						; size = 4
__Count$ = 20						; size = 4
??$move_s@U?$char_traits@D@std@@@_Traits_helper@std@@YAPADPADIPBDI@Z PROC ; std::_Traits_helper::move_s<std::char_traits<char> >, COMDAT

; 616  : 		return move_s<_Traits>(_First1, _Size, _First2, _Count, _Char_traits_cat<_Traits>());

  00000	8b 44 24 10	 mov	 eax, DWORD PTR __Count$[esp-4]
  00004	8b 4c 24 0c	 mov	 ecx, DWORD PTR __First2$[esp-4]
  00008	8b 54 24 08	 mov	 edx, DWORD PTR __Size$[esp-4]
  0000c	56		 push	 esi
  0000d	8b 74 24 08	 mov	 esi, DWORD PTR __First1$[esp]
  00011	50		 push	 eax
  00012	51		 push	 ecx
  00013	52		 push	 edx
  00014	56		 push	 esi
  00015	e8 00 00 00 00	 call	 _memmove_s
  0001a	83 c4 10	 add	 esp, 16			; 00000010H
  0001d	8b c6		 mov	 eax, esi
  0001f	5e		 pop	 esi

; 617  : 	}

  00020	c3		 ret	 0
??$move_s@U?$char_traits@D@std@@@_Traits_helper@std@@YAPADPADIPBDI@Z ENDP ; std::_Traits_helper::move_s<std::char_traits<char> >
; Function compile flags: /Ogtpy
; File c:\program files\microsoft visual studio 9.0\vc\include\xiosbase
_TEXT	ENDS
;	COMDAT ?getloc@ios_base@std@@QBE?AVlocale@2@XZ
_TEXT	SEGMENT
__Lock$59365 = 8					; size = 4
___$ReturnUdt$ = 8					; size = 4
?getloc@ios_base@std@@QBE?AVlocale@2@XZ PROC		; std::ios_base::getloc, COMDAT
; _this$ = ecx

; 431  : 		return (*_Ploc);

  00000	8b 41 24	 mov	 eax, DWORD PTR [ecx+36]
  00003	56		 push	 esi
  00004	8b 30		 mov	 esi, DWORD PTR [eax]
  00006	57		 push	 edi
  00007	8b 7c 24 0c	 mov	 edi, DWORD PTR ___$ReturnUdt$[esp+4]
  0000b	6a 00		 push	 0
  0000d	8d 4c 24 10	 lea	 ecx, DWORD PTR __Lock$59365[esp+8]
  00011	89 37		 mov	 DWORD PTR [edi], esi
  00013	e8 00 00 00 00	 call	 ??0_Lockit@std@@QAE@H@Z	; std::_Lockit::_Lockit
  00018	8b 46 04	 mov	 eax, DWORD PTR [esi+4]
  0001b	83 f8 ff	 cmp	 eax, -1
  0001e	73 04		 jae	 SHORT $LN5@getloc@2
  00020	40		 inc	 eax
  00021	89 46 04	 mov	 DWORD PTR [esi+4], eax
$LN5@getloc@2:
  00024	8d 4c 24 0c	 lea	 ecx, DWORD PTR __Lock$59365[esp+4]
  00028	e8 00 00 00 00	 call	 ??1_Lockit@std@@QAE@XZ	; std::_Lockit::~_Lockit
  0002d	8b c7		 mov	 eax, edi
  0002f	5f		 pop	 edi
  00030	5e		 pop	 esi

; 432  : 		}

  00031	c2 04 00	 ret	 4
?getloc@ios_base@std@@QBE?AVlocale@2@XZ ENDP		; std::ios_base::getloc
; Function compile flags: /Ogtpy
; File c:\program files\microsoft visual studio 9.0\vc\include\xlocnum
_TEXT	ENDS
;	COMDAT ?_Putgrouped@?$num_put@DV?$ostreambuf_iterator@DU?$char_traits@D@std@@@std@@@std@@ABA?AV?$ostreambuf_iterator@DU?$char_traits@D@std@@@2@V32@PBDID@Z
_TEXT	SEGMENT
$T59374 = -20						; size = 8
$T59375 = -12						; size = 8
___$ReturnUdt$ = 8					; size = 4
__Ptr$ = 12						; size = 4
__Count$ = 16						; size = 4
__Kseparator$ = 20					; size = 1
__Dest$ = 24						; size = 8
?_Putgrouped@?$num_put@DV?$ostreambuf_iterator@DU?$char_traits@D@std@@@std@@@std@@ABA?AV?$ostreambuf_iterator@DU?$char_traits@D@std@@@2@V32@PBDID@Z PROC ; std::num_put<char,std::ostreambuf_iterator<char,std::char_traits<char> > >::_Putgrouped, COMDAT

; 1528 : 		{	// put char sequence [_Ptr, _Ptr + _Count) to _Dest with commas

  00000	83 ec 14	 sub	 esp, 20			; 00000014H
  00003	53		 push	 ebx
  00004	8b 5c 24 24	 mov	 ebx, DWORD PTR __Count$[esp+20]
  00008	55		 push	 ebp
  00009	8b 6c 24 24	 mov	 ebp, DWORD PTR __Ptr$[esp+24]
  0000d	56		 push	 esi
  0000e	57		 push	 edi
  0000f	90		 npad	 1
$LL5@Putgrouped:

; 1529 : 		for (; ; ++_Ptr, --_Count)
; 1530 : 			{	// put field with thousands separators for NULs
; 1531 : 			const char *_Pend =
; 1532 : 				(const char *)::memchr(_Ptr, '\0', _Count);

  00010	53		 push	 ebx
  00011	6a 00		 push	 0
  00013	55		 push	 ebp
  00014	e8 00 00 00 00	 call	 _memchr
  00019	83 c4 0c	 add	 esp, 12			; 0000000cH

; 1533 : 			size_t _Groupsize = _Pend != 0 ? _Pend - _Ptr : _Count;

  0001c	85 c0		 test	 eax, eax
  0001e	74 06		 je	 SHORT $LN8@Putgrouped
  00020	2b c5		 sub	 eax, ebp
  00022	8b f0		 mov	 esi, eax
  00024	eb 02		 jmp	 SHORT $LN9@Putgrouped
$LN8@Putgrouped:
  00026	8b f3		 mov	 esi, ebx
$LN9@Putgrouped:

; 1534 : 
; 1535 : 			_Dest = _Putc(_Dest, _Ptr, _Groupsize);

  00028	8b 44 24 3c	 mov	 eax, DWORD PTR __Dest$[esp+36]
  0002c	8b 4c 24 38	 mov	 ecx, DWORD PTR __Dest$[esp+32]
  00030	56		 push	 esi
  00031	50		 push	 eax
  00032	51		 push	 ecx
  00033	8d 54 24 1c	 lea	 edx, DWORD PTR $T59374[esp+48]
  00037	52		 push	 edx
  00038	8b c5		 mov	 eax, ebp
  0003a	e8 00 00 00 00	 call	 ?_Putc@?$num_put@DV?$ostreambuf_iterator@DU?$char_traits@D@std@@@std@@@std@@ABA?AV?$ostreambuf_iterator@DU?$char_traits@D@std@@@2@V32@PBDI@Z ; std::num_put<char,std::ostreambuf_iterator<char,std::char_traits<char> > >::_Putc
  0003f	8b 08		 mov	 ecx, DWORD PTR [eax]
  00041	89 4c 24 48	 mov	 DWORD PTR __Dest$[esp+48], ecx
  00045	8b 50 04	 mov	 edx, DWORD PTR [eax+4]
  00048	83 c4 10	 add	 esp, 16			; 00000010H

; 1536 : 			_Ptr += _Groupsize, _Count -= _Groupsize;

  0004b	03 ee		 add	 ebp, esi
  0004d	2b de		 sub	 ebx, esi
  0004f	89 54 24 3c	 mov	 DWORD PTR __Dest$[esp+36], edx

; 1537 : 			if (_Count == 0)

  00053	74 32		 je	 SHORT $LN12@Putgrouped

; 1538 : 				break;
; 1539 : 			if (_Kseparator != (_Elem)0)

  00055	8b 4c 24 34	 mov	 ecx, DWORD PTR __Kseparator$[esp+32]
  00059	84 c9		 test	 cl, cl
  0005b	74 26		 je	 SHORT $LN4@Putgrouped

; 1540 : 				_Dest = _Rep(_Dest, _Kseparator, 1);

  0005d	8b 10		 mov	 edx, DWORD PTR [eax]
  0005f	51		 push	 ecx
  00060	8b 48 04	 mov	 ecx, DWORD PTR [eax+4]
  00063	51		 push	 ecx
  00064	52		 push	 edx
  00065	b8 01 00 00 00	 mov	 eax, 1
  0006a	8d 7c 24 24	 lea	 edi, DWORD PTR $T59375[esp+48]
  0006e	e8 00 00 00 00	 call	 ?_Rep@?$num_put@DV?$ostreambuf_iterator@DU?$char_traits@D@std@@@std@@@std@@ABA?AV?$ostreambuf_iterator@DU?$char_traits@D@std@@@2@V32@DI@Z ; std::num_put<char,std::ostreambuf_iterator<char,std::char_traits<char> > >::_Rep
  00073	8b 08		 mov	 ecx, DWORD PTR [eax]
  00075	89 4c 24 44	 mov	 DWORD PTR __Dest$[esp+44], ecx
  00079	8b 50 04	 mov	 edx, DWORD PTR [eax+4]
  0007c	83 c4 0c	 add	 esp, 12			; 0000000cH
  0007f	89 54 24 3c	 mov	 DWORD PTR __Dest$[esp+36], edx
$LN4@Putgrouped:
  00083	45		 inc	 ebp
  00084	4b		 dec	 ebx
  00085	eb 89		 jmp	 SHORT $LL5@Putgrouped
$LN12@Putgrouped:

; 1541 : 			}
; 1542 : 		return (_Dest);

  00087	8b 10		 mov	 edx, DWORD PTR [eax]
  00089	8b 4c 24 28	 mov	 ecx, DWORD PTR ___$ReturnUdt$[esp+32]
  0008d	8b 40 04	 mov	 eax, DWORD PTR [eax+4]

; 1543 : 		}

  00090	5f		 pop	 edi
  00091	5e		 pop	 esi
  00092	5d		 pop	 ebp
  00093	89 41 04	 mov	 DWORD PTR [ecx+4], eax
  00096	89 11		 mov	 DWORD PTR [ecx], edx
  00098	8b c1		 mov	 eax, ecx
  0009a	5b		 pop	 ebx
  0009b	83 c4 14	 add	 esp, 20			; 00000014H
  0009e	c3		 ret	 0
?_Putgrouped@?$num_put@DV?$ostreambuf_iterator@DU?$char_traits@D@std@@@std@@@std@@ABA?AV?$ostreambuf_iterator@DU?$char_traits@D@std@@@2@V32@PBDID@Z ENDP ; std::num_put<char,std::ostreambuf_iterator<char,std::char_traits<char> > >::_Putgrouped
; Function compile flags: /Ogtpy
; File c:\program files\microsoft visual studio 9.0\vc\include\xstring
;	COMDAT ?_Tidy@?$basic_string@DU?$char_traits@D@std@@V?$allocator@D@2@@std@@IAEX_NI@Z
_TEXT	SEGMENT
__Built$ = 8						; size = 1
__Newsize$ = 12						; size = 4
?_Tidy@?$basic_string@DU?$char_traits@D@std@@V?$allocator@D@2@@std@@IAEX_NI@Z PROC ; std::basic_string<char,std::char_traits<char>,std::allocator<char> >::_Tidy, COMDAT
; _this$ = ecx

; 2149 : 		if (!_Built)

  00000	80 7c 24 04 00	 cmp	 BYTE PTR __Built$[esp-4], 0
  00005	56		 push	 esi
  00006	57		 push	 edi
  00007	8b 7c 24 10	 mov	 edi, DWORD PTR __Newsize$[esp+4]
  0000b	8b f1		 mov	 esi, ecx
  0000d	74 27		 je	 SHORT $LN15@Tidy@6

; 2150 : 			;
; 2151 : 		else if (_BUF_SIZE <= _Myres)

  0000f	83 7e 18 10	 cmp	 DWORD PTR [esi+24], 16	; 00000010H
  00013	72 21		 jb	 SHORT $LN15@Tidy@6

; 2152 : 			{	// copy any leftovers to small buffer and deallocate
; 2153 : 			_Elem *_Ptr = _Bx._Ptr;

  00015	8d 46 04	 lea	 eax, DWORD PTR [esi+4]
  00018	53		 push	 ebx
  00019	8b 18		 mov	 ebx, DWORD PTR [eax]

; 2154 : 			if (0 < _Newsize)

  0001b	85 ff		 test	 edi, edi
  0001d	76 0d		 jbe	 SHORT $LN13@Tidy@6

; 2155 : 				_Traits_helper::copy_s<_Traits>(_Bx._Buf, _BUF_SIZE, _Ptr, _Newsize);

  0001f	57		 push	 edi
  00020	53		 push	 ebx
  00021	6a 10		 push	 16			; 00000010H
  00023	50		 push	 eax
  00024	e8 00 00 00 00	 call	 _memcpy_s
  00029	83 c4 10	 add	 esp, 16			; 00000010H
$LN13@Tidy@6:

; 2156 : 			_Mybase::_Alval.deallocate(_Ptr, _Myres + 1);

  0002c	53		 push	 ebx
  0002d	e8 00 00 00 00	 call	 ??3@YAXPAX@Z		; operator delete
  00032	83 c4 04	 add	 esp, 4
  00035	5b		 pop	 ebx
$LN15@Tidy@6:

; 2157 : 			}
; 2158 : 		_Myres = _BUF_SIZE - 1;
; 2159 : 		_Eos(_Newsize);

  00036	89 7e 14	 mov	 DWORD PTR [esi+20], edi
  00039	c7 46 18 0f 00
	00 00		 mov	 DWORD PTR [esi+24], 15	; 0000000fH
  00040	c6 44 3e 04 00	 mov	 BYTE PTR [esi+edi+4], 0
  00045	5f		 pop	 edi
  00046	5e		 pop	 esi

; 2160 : 		}

  00047	c2 08 00	 ret	 8
?_Tidy@?$basic_string@DU?$char_traits@D@std@@V?$allocator@D@2@@std@@IAEX_NI@Z ENDP ; std::basic_string<char,std::char_traits<char>,std::allocator<char> >::_Tidy
_TEXT	ENDS
;	COMDAT xdata$x
; File c:\program files\microsoft visual studio 9.0\vc\include\iosfwd
xdata$x	SEGMENT
__unwindtable$?_Copy@?$basic_string@DU?$char_traits@D@std@@V?$allocator@D@2@@std@@IAEXII@Z DD 0ffffffffH
	DD	00H
	DD	0ffffffffH
	DD	00H
	DD	01H
	DD	00H
	DD	01H
	DD	00H
__catchsym$?_Copy@?$basic_string@DU?$char_traits@D@std@@V?$allocator@D@2@@std@@IAEXII@Z$4 DD 040H
	DD	00H
	DD	00H
	DD	FLAT:__catch$?_Copy@?$basic_string@DU?$char_traits@D@std@@V?$allocator@D@2@@std@@IAEXII@Z$1
__catchsym$?_Copy@?$basic_string@DU?$char_traits@D@std@@V?$allocator@D@2@@std@@IAEXII@Z$5 DD 040H
	DD	00H
	DD	00H
	DD	FLAT:__catch$?_Copy@?$basic_string@DU?$char_traits@D@std@@V?$allocator@D@2@@std@@IAEXII@Z$0
__tryblocktable$?_Copy@?$basic_string@DU?$char_traits@D@std@@V?$allocator@D@2@@std@@IAEXII@Z DD 02H
	DD	02H
	DD	03H
	DD	01H
	DD	FLAT:__catchsym$?_Copy@?$basic_string@DU?$char_traits@D@std@@V?$allocator@D@2@@std@@IAEXII@Z$4
	DD	00H
	DD	00H
	DD	03H
	DD	01H
	DD	FLAT:__catchsym$?_Copy@?$basic_string@DU?$char_traits@D@std@@V?$allocator@D@2@@std@@IAEXII@Z$5
__ehfuncinfo$?_Copy@?$basic_string@DU?$char_traits@D@std@@V?$allocator@D@2@@std@@IAEXII@Z DD 019930522H
	DD	04H
	DD	FLAT:__unwindtable$?_Copy@?$basic_string@DU?$char_traits@D@std@@V?$allocator@D@2@@std@@IAEXII@Z
	DD	02H
	DD	FLAT:__tryblocktable$?_Copy@?$basic_string@DU?$char_traits@D@std@@V?$allocator@D@2@@std@@IAEXII@Z
	DD	2 DUP(00H)
	DD	00H
	DD	01H
; Function compile flags: /Ogtpy
; File c:\program files\microsoft visual studio 9.0\vc\include\xstring
xdata$x	ENDS
;	COMDAT ?_Copy@?$basic_string@DU?$char_traits@D@std@@V?$allocator@D@2@@std@@IAEXII@Z
_TEXT	SEGMENT
$T59746 = -40						; size = 12
__Newres$ = -28						; size = 4
$T59732 = -24						; size = 4
_this$ = -20						; size = 4
__$EHRec$ = -16						; size = 16
__Ptr$ = 8						; size = 4
__Newsize$ = 8						; size = 4
__Oldlen$ = 12						; size = 4
?_Copy@?$basic_string@DU?$char_traits@D@std@@V?$allocator@D@2@@std@@IAEXII@Z PROC ; std::basic_string<char,std::char_traits<char>,std::allocator<char> >::_Copy, COMDAT
; _this$ = ecx

; 2083 : 		{	// copy _Oldlen elements to newly allocated buffer

  00000	55		 push	 ebp
  00001	8b ec		 mov	 ebp, esp
  00003	6a ff		 push	 -1
  00005	68 00 00 00 00	 push	 __ehhandler$?_Copy@?$basic_string@DU?$char_traits@D@std@@V?$allocator@D@2@@std@@IAEXII@Z
  0000a	64 a1 00 00 00
	00		 mov	 eax, DWORD PTR fs:0
  00010	50		 push	 eax
  00011	83 ec 1c	 sub	 esp, 28			; 0000001cH
  00014	53		 push	 ebx
  00015	56		 push	 esi
  00016	57		 push	 edi
  00017	a1 00 00 00 00	 mov	 eax, DWORD PTR ___security_cookie
  0001c	33 c5		 xor	 eax, ebp
  0001e	50		 push	 eax
  0001f	8d 45 f4	 lea	 eax, DWORD PTR __$EHRec$[ebp+4]
  00022	64 a3 00 00 00
	00		 mov	 DWORD PTR fs:0, eax
  00028	89 65 f0	 mov	 DWORD PTR __$EHRec$[ebp], esp
  0002b	8b f9		 mov	 edi, ecx
  0002d	89 7d ec	 mov	 DWORD PTR _this$[ebp], edi

; 2084 : 		size_type _Newres = _Newsize | _ALLOC_MASK;

  00030	8b 45 08	 mov	 eax, DWORD PTR __Newsize$[ebp]
  00033	8b f0		 mov	 esi, eax
  00035	83 ce 0f	 or	 esi, 15			; 0000000fH

; 2085 : 		if (max_size() < _Newres)

  00038	83 fe fe	 cmp	 esi, -2			; fffffffeH
  0003b	76 04		 jbe	 SHORT $LN6@Copy

; 2086 : 			_Newres = _Newsize;	// undo roundup if too big

  0003d	8b f0		 mov	 esi, eax

; 2087 : 		else if (_Newres / 3 < _Myres / 2

  0003f	eb 22		 jmp	 SHORT $LN4@Copy
$LN6@Copy:

; 2088 : 			&& _Myres <= max_size() - _Myres / 2)

  00041	8b 5f 18	 mov	 ebx, DWORD PTR [edi+24]
  00044	b8 ab aa aa aa	 mov	 eax, -1431655765	; aaaaaaabH
  00049	f7 e6		 mul	 esi
  0004b	8b cb		 mov	 ecx, ebx
  0004d	d1 e9		 shr	 ecx, 1
  0004f	d1 ea		 shr	 edx, 1
  00051	3b d1		 cmp	 edx, ecx
  00053	73 0e		 jae	 SHORT $LN4@Copy
  00055	b8 fe ff ff ff	 mov	 eax, -2			; fffffffeH
  0005a	2b c1		 sub	 eax, ecx
  0005c	3b d8		 cmp	 ebx, eax
  0005e	77 03		 ja	 SHORT $LN4@Copy

; 2089 : 			_Newres = _Myres + _Myres / 2;	// grow exponentially if possible

  00060	8d 34 19	 lea	 esi, DWORD PTR [ecx+ebx]
$LN4@Copy:

; 2090 : 		_Elem *_Ptr = 0;
; 2091 : 
; 2092 : 		_TRY_BEGIN

  00063	33 db		 xor	 ebx, ebx

; 2093 : 			_Ptr = _Mybase::_Alval.allocate(_Newres + 1);

  00065	8d 4e 01	 lea	 ecx, DWORD PTR [esi+1]
  00068	89 5d fc	 mov	 DWORD PTR __$EHRec$[ebp+12], ebx
  0006b	3b cb		 cmp	 ecx, ebx
  0006d	77 10		 ja	 SHORT $LN37@Copy
  0006f	33 c9		 xor	 ecx, ecx
$LN35@Copy:
  00071	51		 push	 ecx
  00072	e8 00 00 00 00	 call	 ??2@YAPAXI@Z		; operator new
  00077	83 c4 04	 add	 esp, 4
  0007a	89 45 08	 mov	 DWORD PTR __Ptr$[ebp], eax
  0007d	eb 56		 jmp	 SHORT $LN16@Copy
$LN37@Copy:
  0007f	83 c8 ff	 or	 eax, -1
  00082	33 d2		 xor	 edx, edx
  00084	f7 f1		 div	 ecx
  00086	83 f8 01	 cmp	 eax, 1
  00089	73 e6		 jae	 SHORT $LN35@Copy
  0008b	8d 4d e8	 lea	 ecx, DWORD PTR $T59732[ebp]
  0008e	51		 push	 ecx
  0008f	8d 4d d8	 lea	 ecx, DWORD PTR $T59746[ebp]
  00092	89 5d e8	 mov	 DWORD PTR $T59732[ebp], ebx
  00095	e8 00 00 00 00	 call	 ??0exception@std@@QAE@ABQBD@Z ; std::exception::exception
  0009a	68 00 00 00 00	 push	 OFFSET __TI2?AVbad_alloc@std@@
  0009f	8d 55 d8	 lea	 edx, DWORD PTR $T59746[ebp]
  000a2	52		 push	 edx
  000a3	c7 45 d8 00 00
	00 00		 mov	 DWORD PTR $T59746[ebp], OFFSET ??_7bad_alloc@std@@6B@
  000aa	e8 00 00 00 00	 call	 __CxxThrowException@8
$LN117@Copy:
__catch$?_Copy@?$basic_string@DU?$char_traits@D@std@@V?$allocator@D@2@@std@@IAEXII@Z$0:

; 2094 : 		_CATCH_ALL
; 2095 : 			_Newres = _Newsize;	// allocation failed, undo roundup and retry

  000af	8b 45 08	 mov	 eax, DWORD PTR __Newsize$[ebp]

; 2096 : 			_TRY_BEGIN
; 2097 : 				_Ptr = _Mybase::_Alval.allocate(_Newres + 1);

  000b2	8b 4d ec	 mov	 ecx, DWORD PTR _this$[ebp]
  000b5	89 45 e4	 mov	 DWORD PTR __Newres$[ebp], eax
  000b8	40		 inc	 eax
  000b9	89 65 f0	 mov	 DWORD PTR __$EHRec$[ebp], esp
  000bc	50		 push	 eax
  000bd	c6 45 fc 02	 mov	 BYTE PTR __$EHRec$[ebp+12], 2
  000c1	e8 00 00 00 00	 call	 ?allocate@?$allocator@D@std@@QAEPADI@Z ; std::allocator<char>::allocate
  000c6	89 45 08	 mov	 DWORD PTR __Ptr$[ebp], eax

; 2101 : 			_CATCH_END
; 2102 : 		_CATCH_END

  000c9	b8 00 00 00 00	 mov	 eax, $LN113@Copy
  000ce	c3		 ret	 0
$LN113@Copy:
  000cf	8b 7d ec	 mov	 edi, DWORD PTR _this$[ebp]
  000d2	8b 75 e4	 mov	 esi, DWORD PTR __Newres$[ebp]
$LN16@Copy:

; 2103 : 
; 2104 : 		if (0 < _Oldlen)

  000d5	8b 5d 0c	 mov	 ebx, DWORD PTR __Oldlen$[ebp]
  000d8	85 db		 test	 ebx, ebx
  000da	76 20		 jbe	 SHORT $LN78@Copy

; 2105 : 			_Traits_helper::copy_s<_Traits>(_Ptr, _Newres + 1, _Myptr(), _Oldlen);	// copy existing elements

  000dc	83 7f 18 10	 cmp	 DWORD PTR [edi+24], 16	; 00000010H
  000e0	72 05		 jb	 SHORT $LN70@Copy
  000e2	8b 47 04	 mov	 eax, DWORD PTR [edi+4]
  000e5	eb 03		 jmp	 SHORT $LN71@Copy
$LN70@Copy:
  000e7	8d 47 04	 lea	 eax, DWORD PTR [edi+4]
$LN71@Copy:
  000ea	8b 4d 08	 mov	 ecx, DWORD PTR __Ptr$[ebp]
  000ed	53		 push	 ebx
  000ee	50		 push	 eax
  000ef	8d 46 01	 lea	 eax, DWORD PTR [esi+1]
  000f2	50		 push	 eax
  000f3	51		 push	 ecx
  000f4	e8 00 00 00 00	 call	 _memcpy_s
  000f9	83 c4 10	 add	 esp, 16			; 00000010H
$LN78@Copy:

; 2106 : 		_Tidy(true);

  000fc	83 7f 18 10	 cmp	 DWORD PTR [edi+24], 16	; 00000010H
  00100	72 0c		 jb	 SHORT $LN94@Copy
  00102	8b 57 04	 mov	 edx, DWORD PTR [edi+4]
  00105	52		 push	 edx
  00106	e8 00 00 00 00	 call	 ??3@YAXPAX@Z		; operator delete
  0010b	83 c4 04	 add	 esp, 4
$LN94@Copy:

; 2107 : 		_Bx._Ptr = _Ptr;

  0010e	8b 4d 08	 mov	 ecx, DWORD PTR __Ptr$[ebp]
  00111	8d 47 04	 lea	 eax, DWORD PTR [edi+4]
  00114	c6 00 00	 mov	 BYTE PTR [eax], 0
  00117	89 08		 mov	 DWORD PTR [eax], ecx

; 2108 : 		_Myres = _Newres;

  00119	89 77 18	 mov	 DWORD PTR [edi+24], esi

; 2109 : 		_Eos(_Oldlen);

  0011c	89 5f 14	 mov	 DWORD PTR [edi+20], ebx
  0011f	83 fe 10	 cmp	 esi, 16			; 00000010H
  00122	72 02		 jb	 SHORT $LN108@Copy
  00124	8b c1		 mov	 eax, ecx
$LN108@Copy:
  00126	c6 04 18 00	 mov	 BYTE PTR [eax+ebx], 0

; 2110 : 		}

  0012a	8b 4d f4	 mov	 ecx, DWORD PTR __$EHRec$[ebp+4]
  0012d	64 89 0d 00 00
	00 00		 mov	 DWORD PTR fs:0, ecx
  00134	59		 pop	 ecx
  00135	5f		 pop	 edi
  00136	5e		 pop	 esi
  00137	5b		 pop	 ebx
  00138	8b e5		 mov	 esp, ebp
  0013a	5d		 pop	 ebp
  0013b	c2 08 00	 ret	 8
__catch$?_Copy@?$basic_string@DU?$char_traits@D@std@@V?$allocator@D@2@@std@@IAEXII@Z$1:

; 2098 : 			_CATCH_ALL
; 2099 : 			_Tidy(true);	// failed again, discard storage and reraise

  0013e	8b 75 ec	 mov	 esi, DWORD PTR _this$[ebp]
  00141	83 7e 18 10	 cmp	 DWORD PTR [esi+24], 16	; 00000010H
  00145	72 0c		 jb	 SHORT $LN58@Copy
  00147	8b 46 04	 mov	 eax, DWORD PTR [esi+4]
  0014a	50		 push	 eax
  0014b	e8 00 00 00 00	 call	 ??3@YAXPAX@Z		; operator delete
  00150	83 c4 04	 add	 esp, 4
$LN58@Copy:

; 2100 : 			_RERAISE;

  00153	6a 00		 push	 0
  00155	c7 46 18 0f 00
	00 00		 mov	 DWORD PTR [esi+24], 15	; 0000000fH
  0015c	c7 46 14 00 00
	00 00		 mov	 DWORD PTR [esi+20], 0
  00163	6a 00		 push	 0
  00165	c6 46 04 00	 mov	 BYTE PTR [esi+4], 0
  00169	e8 00 00 00 00	 call	 __CxxThrowException@8
$LN118@Copy:
$LN116@Copy:
  0016e	cc		 int	 3
_TEXT	ENDS
;	COMDAT text$x
text$x	SEGMENT
__ehhandler$?_Copy@?$basic_string@DU?$char_traits@D@std@@V?$allocator@D@2@@std@@IAEXII@Z:
  00000	8b 54 24 08	 mov	 edx, DWORD PTR [esp+8]
  00004	8d 42 0c	 lea	 eax, DWORD PTR [edx+12]
  00007	8b 4a d4	 mov	 ecx, DWORD PTR [edx-44]
  0000a	33 c8		 xor	 ecx, eax
  0000c	e8 00 00 00 00	 call	 @__security_check_cookie@4
  00011	b8 00 00 00 00	 mov	 eax, OFFSET __ehfuncinfo$?_Copy@?$basic_string@DU?$char_traits@D@std@@V?$allocator@D@2@@std@@IAEXII@Z
  00016	e9 00 00 00 00	 jmp	 ___CxxFrameHandler3
text$x	ENDS
?_Copy@?$basic_string@DU?$char_traits@D@std@@V?$allocator@D@2@@std@@IAEXII@Z ENDP ; std::basic_string<char,std::char_traits<char>,std::allocator<char> >::_Copy
; Function compile flags: /Ogtpy
;	COMDAT ?erase@?$basic_string@DU?$char_traits@D@std@@V?$allocator@D@2@@std@@QAEAAV12@II@Z
_TEXT	SEGMENT
tv130 = 8						; size = 4
__Off$ = 8						; size = 4
__Count$ = 12						; size = 4
?erase@?$basic_string@DU?$char_traits@D@std@@V?$allocator@D@2@@std@@QAEAAV12@II@Z PROC ; std::basic_string<char,std::char_traits<char>,std::allocator<char> >::erase, COMDAT
; _this$ = ecx

; 1262 : 		{	// erase elements [_Off, _Off + _Count)

  00000	53		 push	 ebx

; 1263 : 		if (_Mysize < _Off)

  00001	8b 5c 24 08	 mov	 ebx, DWORD PTR __Off$[esp]
  00005	56		 push	 esi
  00006	8b f1		 mov	 esi, ecx
  00008	57		 push	 edi
  00009	39 5e 14	 cmp	 DWORD PTR [esi+20], ebx
  0000c	73 05		 jae	 SHORT $LN3@erase@2

; 1264 : 			_String_base::_Xran();	// _Off off end

  0000e	e8 00 00 00 00	 call	 ?_Xran@_String_base@std@@SAXXZ ; std::_String_base::_Xran
$LN3@erase@2:

; 1265 : 		if (_Mysize - _Off < _Count)

  00013	8b 46 14	 mov	 eax, DWORD PTR [esi+20]
  00016	8b 7c 24 14	 mov	 edi, DWORD PTR __Count$[esp+8]
  0001a	2b c3		 sub	 eax, ebx
  0001c	3b c7		 cmp	 eax, edi

; 1266 : 			_Count = _Mysize - _Off;	// trim _Count

  0001e	0f 42 f8	 cmovb	 edi, eax

; 1267 : 		if (0 < _Count)

  00021	85 ff		 test	 edi, edi
  00023	76 55		 jbe	 SHORT $LN30@erase@2

; 1268 : 			{	// move elements down
; 1269 : 			_Traits_helper::move_s<_Traits>(_Myptr() + _Off, _Myres - _Off, _Myptr() + _Off + _Count,
; 1270 : 				_Mysize - _Off - _Count);

  00025	8b 4e 18	 mov	 ecx, DWORD PTR [esi+24]
  00028	55		 push	 ebp
  00029	8d 6e 04	 lea	 ebp, DWORD PTR [esi+4]
  0002c	83 f9 10	 cmp	 ecx, 16			; 00000010H
  0002f	72 09		 jb	 SHORT $LN8@erase@2
  00031	8b 55 00	 mov	 edx, DWORD PTR [ebp]
  00034	89 54 24 14	 mov	 DWORD PTR tv130[esp+12], edx
  00038	eb 04		 jmp	 SHORT $LN9@erase@2
$LN8@erase@2:
  0003a	89 6c 24 14	 mov	 DWORD PTR tv130[esp+12], ebp
$LN9@erase@2:
  0003e	83 f9 10	 cmp	 ecx, 16			; 00000010H
  00041	72 05		 jb	 SHORT $LN12@erase@2
  00043	8b 55 00	 mov	 edx, DWORD PTR [ebp]
  00046	eb 02		 jmp	 SHORT $LN13@erase@2
$LN12@erase@2:
  00048	8b d5		 mov	 edx, ebp
$LN13@erase@2:
  0004a	2b c7		 sub	 eax, edi
  0004c	50		 push	 eax
  0004d	8b 44 24 18	 mov	 eax, DWORD PTR tv130[esp+16]
  00051	03 c3		 add	 eax, ebx
  00053	03 c7		 add	 eax, edi
  00055	50		 push	 eax
  00056	2b cb		 sub	 ecx, ebx
  00058	51		 push	 ecx
  00059	03 d3		 add	 edx, ebx
  0005b	52		 push	 edx
  0005c	e8 00 00 00 00	 call	 _memmove_s

; 1271 : 			size_type _Newsize = _Mysize - _Count;

  00061	8b 46 14	 mov	 eax, DWORD PTR [esi+20]
  00064	2b c7		 sub	 eax, edi
  00066	83 c4 10	 add	 esp, 16			; 00000010H

; 1272 : 			_Eos(_Newsize);

  00069	83 7e 18 10	 cmp	 DWORD PTR [esi+24], 16	; 00000010H
  0006d	89 46 14	 mov	 DWORD PTR [esi+20], eax
  00070	72 03		 jb	 SHORT $LN26@erase@2
  00072	8b 6d 00	 mov	 ebp, DWORD PTR [ebp]
$LN26@erase@2:
  00075	c6 04 28 00	 mov	 BYTE PTR [eax+ebp], 0
  00079	5d		 pop	 ebp
$LN30@erase@2:
  0007a	5f		 pop	 edi

; 1273 : 			}
; 1274 : 		return (*this);

  0007b	8b c6		 mov	 eax, esi
  0007d	5e		 pop	 esi
  0007e	5b		 pop	 ebx

; 1275 : 		}

  0007f	c2 08 00	 ret	 8
?erase@?$basic_string@DU?$char_traits@D@std@@V?$allocator@D@2@@std@@QAEAAV12@II@Z ENDP ; std::basic_string<char,std::char_traits<char>,std::allocator<char> >::erase
; Function compile flags: /Ogtpy
_TEXT	ENDS
;	COMDAT ??0?$basic_string@DU?$char_traits@D@std@@V?$allocator@D@2@@std@@QAE@XZ
_TEXT	SEGMENT
??0?$basic_string@DU?$char_traits@D@std@@V?$allocator@D@2@@std@@QAE@XZ PROC ; std::basic_string<char,std::char_traits<char>,std::allocator<char> >::basic_string<char,std::char_traits<char>,std::allocator<char> >, COMDAT
; _this$ = ecx

; 565  : 		{	// construct empty string

  00000	8b c1		 mov	 eax, ecx

; 566  : 		_Tidy();

  00002	33 c9		 xor	 ecx, ecx
  00004	c7 40 18 0f 00
	00 00		 mov	 DWORD PTR [eax+24], 15	; 0000000fH
  0000b	89 48 14	 mov	 DWORD PTR [eax+20], ecx
  0000e	88 48 04	 mov	 BYTE PTR [eax+4], cl

; 567  : 		}

  00011	c3		 ret	 0
??0?$basic_string@DU?$char_traits@D@std@@V?$allocator@D@2@@std@@QAE@XZ ENDP ; std::basic_string<char,std::char_traits<char>,std::allocator<char> >::basic_string<char,std::char_traits<char>,std::allocator<char> >
; Function compile flags: /Ogtpy
;	COMDAT ??1?$basic_string@DU?$char_traits@D@std@@V?$allocator@D@2@@std@@QAE@XZ
_TEXT	SEGMENT
??1?$basic_string@DU?$char_traits@D@std@@V?$allocator@D@2@@std@@QAE@XZ PROC ; std::basic_string<char,std::char_traits<char>,std::allocator<char> >::~basic_string<char,std::char_traits<char>,std::allocator<char> >, COMDAT
; _this$ = ecx

; 905  : 		{	// destroy the string

  00000	56		 push	 esi
  00001	8b f1		 mov	 esi, ecx

; 906  : 		_Tidy(true);

  00003	83 7e 18 10	 cmp	 DWORD PTR [esi+24], 16	; 00000010H
  00007	72 0c		 jb	 SHORT $LN17@basic_stri
  00009	8b 46 04	 mov	 eax, DWORD PTR [esi+4]
  0000c	50		 push	 eax
  0000d	e8 00 00 00 00	 call	 ??3@YAXPAX@Z		; operator delete
  00012	83 c4 04	 add	 esp, 4
$LN17@basic_stri:
  00015	33 c0		 xor	 eax, eax
  00017	c7 46 18 0f 00
	00 00		 mov	 DWORD PTR [esi+24], 15	; 0000000fH
  0001e	89 46 14	 mov	 DWORD PTR [esi+20], eax
  00021	88 46 04	 mov	 BYTE PTR [esi+4], al
  00024	5e		 pop	 esi

; 907  : 		}

  00025	c3		 ret	 0
??1?$basic_string@DU?$char_traits@D@std@@V?$allocator@D@2@@std@@QAE@XZ ENDP ; std::basic_string<char,std::char_traits<char>,std::allocator<char> >::~basic_string<char,std::char_traits<char>,std::allocator<char> >
; Function compile flags: /Ogtpy
_TEXT	ENDS
;	COMDAT ?_Grow@?$basic_string@DU?$char_traits@D@std@@V?$allocator@D@2@@std@@IAE_NI_N@Z
_TEXT	SEGMENT
__Newsize$ = 8						; size = 4
__Trim$ = 12						; size = 1
?_Grow@?$basic_string@DU?$char_traits@D@std@@V?$allocator@D@2@@std@@IAE_NI_N@Z PROC ; std::basic_string<char,std::char_traits<char>,std::allocator<char> >::_Grow, COMDAT
; _this$ = ecx

; 2119 : 		{	// ensure buffer is big enough, trim to size if _Trim is true

  00000	53		 push	 ebx

; 2120 : 			if (max_size() < _Newsize)

  00001	8b 5c 24 08	 mov	 ebx, DWORD PTR __Newsize$[esp]
  00005	56		 push	 esi
  00006	8b f1		 mov	 esi, ecx
  00008	83 fb fe	 cmp	 ebx, -2			; fffffffeH
  0000b	76 05		 jbe	 SHORT $LN6@Grow

; 2121 : 			_String_base::_Xlen();	// result too long

  0000d	e8 00 00 00 00	 call	 ?_Xlen@_String_base@std@@SAXXZ ; std::_String_base::_Xlen
$LN6@Grow:

; 2122 : 		if (_Myres < _Newsize)

  00012	8b 46 18	 mov	 eax, DWORD PTR [esi+24]
  00015	3b c3		 cmp	 eax, ebx
  00017	73 19		 jae	 SHORT $LN5@Grow

; 2123 : 			_Copy(_Newsize, _Mysize);	// reallocate to grow

  00019	8b 46 14	 mov	 eax, DWORD PTR [esi+20]
  0001c	50		 push	 eax
  0001d	53		 push	 ebx
  0001e	8b ce		 mov	 ecx, esi
  00020	e8 00 00 00 00	 call	 ?_Copy@?$basic_string@DU?$char_traits@D@std@@V?$allocator@D@2@@std@@IAEXII@Z ; std::basic_string<char,std::char_traits<char>,std::allocator<char> >::_Copy

; 2129 : 		return (0 < _Newsize);	// return true only if more work to do

  00025	33 c9		 xor	 ecx, ecx
  00027	3b cb		 cmp	 ecx, ebx
  00029	1b c0		 sbb	 eax, eax
  0002b	5e		 pop	 esi
  0002c	f7 d8		 neg	 eax
  0002e	5b		 pop	 ebx

; 2130 : 		}

  0002f	c2 08 00	 ret	 8
$LN5@Grow:

; 2124 : 		else if (_Trim && _Newsize < _BUF_SIZE)

  00032	80 7c 24 10 00	 cmp	 BYTE PTR __Trim$[esp+4], 0
  00037	74 52		 je	 SHORT $LN3@Grow
  00039	83 fb 10	 cmp	 ebx, 16			; 00000010H
  0003c	73 4d		 jae	 SHORT $LN3@Grow
  0003e	57		 push	 edi

; 2125 : 			_Tidy(true,	// copy and deallocate if trimming to small string
; 2126 : 				_Newsize < _Mysize ? _Newsize : _Mysize);

  0003f	8b 7e 14	 mov	 edi, DWORD PTR [esi+20]
  00042	3b df		 cmp	 ebx, edi
  00044	73 02		 jae	 SHORT $LN9@Grow
  00046	8b fb		 mov	 edi, ebx
$LN9@Grow:
  00048	83 f8 10	 cmp	 eax, 16			; 00000010H
  0004b	72 21		 jb	 SHORT $LN33@Grow
  0004d	8d 46 04	 lea	 eax, DWORD PTR [esi+4]
  00050	55		 push	 ebp
  00051	8b 28		 mov	 ebp, DWORD PTR [eax]
  00053	85 ff		 test	 edi, edi
  00055	76 0d		 jbe	 SHORT $LN31@Grow
  00057	57		 push	 edi
  00058	55		 push	 ebp
  00059	6a 10		 push	 16			; 00000010H
  0005b	50		 push	 eax
  0005c	e8 00 00 00 00	 call	 _memcpy_s
  00061	83 c4 10	 add	 esp, 16			; 00000010H
$LN31@Grow:
  00064	55		 push	 ebp
  00065	e8 00 00 00 00	 call	 ??3@YAXPAX@Z		; operator delete
  0006a	83 c4 04	 add	 esp, 4
  0006d	5d		 pop	 ebp
$LN33@Grow:
  0006e	89 7e 14	 mov	 DWORD PTR [esi+20], edi
  00071	c7 46 18 0f 00
	00 00		 mov	 DWORD PTR [esi+24], 15	; 0000000fH

; 2129 : 		return (0 < _Newsize);	// return true only if more work to do

  00078	33 c9		 xor	 ecx, ecx
  0007a	c6 44 3e 04 00	 mov	 BYTE PTR [esi+edi+4], 0
  0007f	3b cb		 cmp	 ecx, ebx
  00081	5f		 pop	 edi
  00082	1b c0		 sbb	 eax, eax
  00084	5e		 pop	 esi
  00085	f7 d8		 neg	 eax
  00087	5b		 pop	 ebx

; 2130 : 		}

  00088	c2 08 00	 ret	 8
$LN3@Grow:

; 2127 : 		else if (_Newsize == 0)

  0008b	85 db		 test	 ebx, ebx
  0008d	75 20		 jne	 SHORT $LN49@Grow

; 2128 : 			_Eos(0);	// new size is zero, just null terminate

  0008f	89 5e 14	 mov	 DWORD PTR [esi+20], ebx
  00092	83 f8 10	 cmp	 eax, 16			; 00000010H
  00095	72 12		 jb	 SHORT $LN47@Grow
  00097	8b 76 04	 mov	 esi, DWORD PTR [esi+4]

; 2129 : 		return (0 < _Newsize);	// return true only if more work to do

  0009a	33 c9		 xor	 ecx, ecx
  0009c	3b cb		 cmp	 ecx, ebx
  0009e	88 1e		 mov	 BYTE PTR [esi], bl
  000a0	1b c0		 sbb	 eax, eax
  000a2	5e		 pop	 esi
  000a3	f7 d8		 neg	 eax
  000a5	5b		 pop	 ebx

; 2130 : 		}

  000a6	c2 08 00	 ret	 8

; 2128 : 			_Eos(0);	// new size is zero, just null terminate

$LN47@Grow:
  000a9	83 c6 04	 add	 esi, 4
  000ac	c6 06 00	 mov	 BYTE PTR [esi], 0
$LN49@Grow:

; 2129 : 		return (0 < _Newsize);	// return true only if more work to do

  000af	33 c9		 xor	 ecx, ecx
  000b1	3b cb		 cmp	 ecx, ebx
  000b3	1b c0		 sbb	 eax, eax
  000b5	5e		 pop	 esi
  000b6	f7 d8		 neg	 eax
  000b8	5b		 pop	 ebx

; 2130 : 		}

  000b9	c2 08 00	 ret	 8
?_Grow@?$basic_string@DU?$char_traits@D@std@@V?$allocator@D@2@@std@@IAE_NI_N@Z ENDP ; std::basic_string<char,std::char_traits<char>,std::allocator<char> >::_Grow
; Function compile flags: /Ogtpy
; File c:\program files\microsoft visual studio 9.0\vc\include\stdexcept
_TEXT	ENDS
;	COMDAT ??1runtime_error@std@@UAE@XZ
_TEXT	SEGMENT
??1runtime_error@std@@UAE@XZ PROC			; std::runtime_error::~runtime_error, COMDAT
; _this$ = ecx

; 157  : 		{	// destroy the object

  00000	56		 push	 esi
  00001	8b f1		 mov	 esi, ecx
  00003	c7 06 00 00 00
	00		 mov	 DWORD PTR [esi], OFFSET ??_7runtime_error@std@@6B@

; 158  : 		}

  00009	83 7e 24 10	 cmp	 DWORD PTR [esi+36], 16	; 00000010H
  0000d	72 0c		 jb	 SHORT $LN19@runtime_er
  0000f	8b 46 10	 mov	 eax, DWORD PTR [esi+16]
  00012	50		 push	 eax
  00013	e8 00 00 00 00	 call	 ??3@YAXPAX@Z		; operator delete
  00018	83 c4 04	 add	 esp, 4
$LN19@runtime_er:
  0001b	33 c0		 xor	 eax, eax
  0001d	c7 46 24 0f 00
	00 00		 mov	 DWORD PTR [esi+36], 15	; 0000000fH
  00024	89 46 20	 mov	 DWORD PTR [esi+32], eax
  00027	88 46 10	 mov	 BYTE PTR [esi+16], al
  0002a	8b ce		 mov	 ecx, esi
  0002c	5e		 pop	 esi
  0002d	e9 00 00 00 00	 jmp	 ??1exception@std@@UAE@XZ ; std::exception::~exception
??1runtime_error@std@@UAE@XZ ENDP			; std::runtime_error::~runtime_error
; Function compile flags: /Ogtpy
; File c:\program files\microsoft visual studio 9.0\vc\include\xiosbase
_TEXT	ENDS
;	COMDAT ??1failure@ios_base@std@@UAE@XZ
_TEXT	SEGMENT
??1failure@ios_base@std@@UAE@XZ PROC			; std::ios_base::failure::~failure, COMDAT
; _this$ = ecx

; 224  : 			{	// destroy the object

  00000	56		 push	 esi
  00001	8b f1		 mov	 esi, ecx

; 225  : 			}

  00003	c7 06 00 00 00
	00		 mov	 DWORD PTR [esi], OFFSET ??_7runtime_error@std@@6B@
  00009	83 7e 24 10	 cmp	 DWORD PTR [esi+36], 16	; 00000010H
  0000d	72 0c		 jb	 SHORT $LN21@failure
  0000f	8b 46 10	 mov	 eax, DWORD PTR [esi+16]
  00012	50		 push	 eax
  00013	e8 00 00 00 00	 call	 ??3@YAXPAX@Z		; operator delete
  00018	83 c4 04	 add	 esp, 4
$LN21@failure:
  0001b	33 c0		 xor	 eax, eax
  0001d	c7 46 24 0f 00
	00 00		 mov	 DWORD PTR [esi+36], 15	; 0000000fH
  00024	89 46 20	 mov	 DWORD PTR [esi+32], eax
  00027	88 46 10	 mov	 BYTE PTR [esi+16], al
  0002a	8b ce		 mov	 ecx, esi
  0002c	5e		 pop	 esi
  0002d	e9 00 00 00 00	 jmp	 ??1exception@std@@UAE@XZ ; std::exception::~exception
??1failure@ios_base@std@@UAE@XZ ENDP			; std::ios_base::failure::~failure
; Function compile flags: /Ogtpy
; File c:\program files\microsoft visual studio 9.0\vc\include\xstring
_TEXT	ENDS
;	COMDAT ?append@?$basic_string@DU?$char_traits@D@std@@V?$allocator@D@2@@std@@QAEAAV12@ID@Z
_TEXT	SEGMENT
__Count$ = 8						; size = 4
__Ch$ = 12						; size = 1
?append@?$basic_string@DU?$char_traits@D@std@@V?$allocator@D@2@@std@@QAEAAV12@ID@Z PROC ; std::basic_string<char,std::char_traits<char>,std::allocator<char> >::append, COMDAT
; _this$ = ecx

; 998  : 		{	// append _Count * _Ch

  00000	53		 push	 ebx

; 999  : 			if (npos - _Mysize <= _Count)

  00001	8b 5c 24 08	 mov	 ebx, DWORD PTR __Count$[esp]
  00005	56		 push	 esi
  00006	83 c8 ff	 or	 eax, -1
  00009	8b f1		 mov	 esi, ecx
  0000b	2b 46 14	 sub	 eax, DWORD PTR [esi+20]
  0000e	3b c3		 cmp	 eax, ebx
  00010	77 05		 ja	 SHORT $LN2@append

; 1000 : 			_String_base::_Xlen();	// result too long

  00012	e8 00 00 00 00	 call	 ?_Xlen@_String_base@std@@SAXXZ ; std::_String_base::_Xlen
$LN2@append:

; 1001 : 
; 1002 : 		size_type _Num;
; 1003 : 		if (0 < _Count && _Grow(_Num = _Mysize + _Count))

  00017	85 db		 test	 ebx, ebx
  00019	0f 86 80 00 00
	00		 jbe	 $LN63@append
  0001f	57		 push	 edi
  00020	8b 7e 14	 mov	 edi, DWORD PTR [esi+20]
  00023	03 fb		 add	 edi, ebx
  00025	83 ff fe	 cmp	 edi, -2			; fffffffeH
  00028	76 05		 jbe	 SHORT $LN10@append
  0002a	e8 00 00 00 00	 call	 ?_Xlen@_String_base@std@@SAXXZ ; std::_String_base::_Xlen
$LN10@append:
  0002f	8b 46 18	 mov	 eax, DWORD PTR [esi+24]
  00032	3b c7		 cmp	 eax, edi
  00034	73 39		 jae	 SHORT $LN9@append
  00036	8b 4e 14	 mov	 ecx, DWORD PTR [esi+20]
  00039	51		 push	 ecx
  0003a	57		 push	 edi
  0003b	8b ce		 mov	 ecx, esi
  0003d	e8 00 00 00 00	 call	 ?_Copy@?$basic_string@DU?$char_traits@D@std@@V?$allocator@D@2@@std@@IAEXII@Z ; std::basic_string<char,std::char_traits<char>,std::allocator<char> >::_Copy
  00042	85 ff		 test	 edi, edi
$LN66@append:
  00044	76 58		 jbe	 SHORT $LN64@append

; 1004 : 			{	// make room and append new stuff using assign
; 1005 : 			_Chassign(_Mysize, _Count, _Ch);

  00046	8b 54 24 14	 mov	 edx, DWORD PTR __Ch$[esp+8]
  0004a	8b 46 14	 mov	 eax, DWORD PTR [esi+20]
  0004d	52		 push	 edx
  0004e	53		 push	 ebx
  0004f	50		 push	 eax
  00050	8b ce		 mov	 ecx, esi
  00052	e8 00 00 00 00	 call	 ?_Chassign@?$basic_string@DU?$char_traits@D@std@@V?$allocator@D@2@@std@@IAEXIID@Z ; std::basic_string<char,std::char_traits<char>,std::allocator<char> >::_Chassign

; 1006 : 			_Eos(_Num);

  00057	83 7e 18 10	 cmp	 DWORD PTR [esi+24], 16	; 00000010H
  0005b	89 7e 14	 mov	 DWORD PTR [esi+20], edi
  0005e	72 37		 jb	 SHORT $LN59@append
  00060	8b 46 04	 mov	 eax, DWORD PTR [esi+4]
  00063	c6 04 38 00	 mov	 BYTE PTR [eax+edi], 0
  00067	5f		 pop	 edi

; 1007 : 			}
; 1008 : 		return (*this);

  00068	8b c6		 mov	 eax, esi
  0006a	5e		 pop	 esi
  0006b	5b		 pop	 ebx

; 1009 : 		}

  0006c	c2 08 00	 ret	 8

; 1001 : 
; 1002 : 		size_type _Num;
; 1003 : 		if (0 < _Count && _Grow(_Num = _Mysize + _Count))

$LN9@append:
  0006f	85 ff		 test	 edi, edi
  00071	75 d1		 jne	 SHORT $LN66@append
  00073	89 7e 14	 mov	 DWORD PTR [esi+20], edi
  00076	83 f8 10	 cmp	 eax, 16			; 00000010H
  00079	72 0e		 jb	 SHORT $LN51@append
  0007b	8b 46 04	 mov	 eax, DWORD PTR [esi+4]
  0007e	5f		 pop	 edi
  0007f	c6 00 00	 mov	 BYTE PTR [eax], 0

; 1007 : 			}
; 1008 : 		return (*this);

  00082	8b c6		 mov	 eax, esi
  00084	5e		 pop	 esi
  00085	5b		 pop	 ebx

; 1009 : 		}

  00086	c2 08 00	 ret	 8

; 1001 : 
; 1002 : 		size_type _Num;
; 1003 : 		if (0 < _Count && _Grow(_Num = _Mysize + _Count))

$LN51@append:
  00089	8d 46 04	 lea	 eax, DWORD PTR [esi+4]
  0008c	5f		 pop	 edi
  0008d	c6 00 00	 mov	 BYTE PTR [eax], 0

; 1007 : 			}
; 1008 : 		return (*this);

  00090	8b c6		 mov	 eax, esi
  00092	5e		 pop	 esi
  00093	5b		 pop	 ebx

; 1009 : 		}

  00094	c2 08 00	 ret	 8

; 1006 : 			_Eos(_Num);

$LN59@append:
  00097	8d 46 04	 lea	 eax, DWORD PTR [esi+4]
  0009a	c6 04 38 00	 mov	 BYTE PTR [eax+edi], 0
$LN64@append:
  0009e	5f		 pop	 edi
$LN63@append:

; 1007 : 			}
; 1008 : 		return (*this);

  0009f	8b c6		 mov	 eax, esi
  000a1	5e		 pop	 esi
  000a2	5b		 pop	 ebx

; 1009 : 		}

  000a3	c2 08 00	 ret	 8
?append@?$basic_string@DU?$char_traits@D@std@@V?$allocator@D@2@@std@@QAEAAV12@ID@Z ENDP ; std::basic_string<char,std::char_traits<char>,std::allocator<char> >::append
_TEXT	ENDS
;	COMDAT xdata$x
; File c:\program files\microsoft visual studio 9.0\vc\include\iosfwd
xdata$x	SEGMENT
__unwindtable$??0_Locinfo@std@@QAE@ABV?$basic_string@DU?$char_traits@D@std@@V?$allocator@D@2@@1@@Z DD 0ffffffffH
	DD	FLAT:__unwindfunclet$??0_Locinfo@std@@QAE@ABV?$basic_string@DU?$char_traits@D@std@@V?$allocator@D@2@@1@@Z$0
	DD	00H
	DD	FLAT:__unwindfunclet$??0_Locinfo@std@@QAE@ABV?$basic_string@DU?$char_traits@D@std@@V?$allocator@D@2@@1@@Z$1
	DD	01H
	DD	FLAT:__unwindfunclet$??0_Locinfo@std@@QAE@ABV?$basic_string@DU?$char_traits@D@std@@V?$allocator@D@2@@1@@Z$2
	DD	02H
	DD	FLAT:__unwindfunclet$??0_Locinfo@std@@QAE@ABV?$basic_string@DU?$char_traits@D@std@@V?$allocator@D@2@@1@@Z$3
	DD	03H
	DD	FLAT:__unwindfunclet$??0_Locinfo@std@@QAE@ABV?$basic_string@DU?$char_traits@D@std@@V?$allocator@D@2@@1@@Z$4
__ehfuncinfo$??0_Locinfo@std@@QAE@ABV?$basic_string@DU?$char_traits@D@std@@V?$allocator@D@2@@1@@Z DD 019930522H
	DD	05H
	DD	FLAT:__unwindtable$??0_Locinfo@std@@QAE@ABV?$basic_string@DU?$char_traits@D@std@@V?$allocator@D@2@@1@@Z
	DD	2 DUP(00H)
	DD	2 DUP(00H)
	DD	00H
	DD	01H
; Function compile flags: /Ogtpy
; File c:\program files\microsoft visual studio 9.0\vc\include\xlocinfo
xdata$x	ENDS
;	COMDAT ??0_Locinfo@std@@QAE@ABV?$basic_string@DU?$char_traits@D@std@@V?$allocator@D@2@@1@@Z
_TEXT	SEGMENT
_this$ = -16						; size = 4
__$EHRec$ = -12						; size = 12
_locstr$ = 8						; size = 4
??0_Locinfo@std@@QAE@ABV?$basic_string@DU?$char_traits@D@std@@V?$allocator@D@2@@1@@Z PROC ; std::_Locinfo::_Locinfo, COMDAT
; _this$ = ecx

; 96   : 		{

  00000	6a ff		 push	 -1
  00002	68 00 00 00 00	 push	 __ehhandler$??0_Locinfo@std@@QAE@ABV?$basic_string@DU?$char_traits@D@std@@V?$allocator@D@2@@1@@Z
  00007	64 a1 00 00 00
	00		 mov	 eax, DWORD PTR fs:0
  0000d	50		 push	 eax
  0000e	51		 push	 ecx
  0000f	53		 push	 ebx
  00010	56		 push	 esi
  00011	a1 00 00 00 00	 mov	 eax, DWORD PTR ___security_cookie
  00016	33 c4		 xor	 eax, esp
  00018	50		 push	 eax
  00019	8d 44 24 10	 lea	 eax, DWORD PTR __$EHRec$[esp+28]
  0001d	64 a3 00 00 00
	00		 mov	 DWORD PTR fs:0, eax
  00023	8b f1		 mov	 esi, ecx
  00025	89 74 24 0c	 mov	 DWORD PTR _this$[esp+28], esi
  00029	33 db		 xor	 ebx, ebx
  0002b	53		 push	 ebx
  0002c	e8 00 00 00 00	 call	 ??0_Lockit@std@@QAE@H@Z	; std::_Lockit::_Lockit
  00031	89 5c 24 18	 mov	 DWORD PTR __$EHRec$[esp+36], ebx
  00035	b8 0f 00 00 00	 mov	 eax, 15			; 0000000fH
  0003a	89 46 1c	 mov	 DWORD PTR [esi+28], eax
  0003d	89 5e 18	 mov	 DWORD PTR [esi+24], ebx
  00040	88 5e 08	 mov	 BYTE PTR [esi+8], bl
  00043	89 46 38	 mov	 DWORD PTR [esi+56], eax
  00046	89 5e 34	 mov	 DWORD PTR [esi+52], ebx
  00049	88 5e 24	 mov	 BYTE PTR [esi+36], bl
  0004c	89 46 54	 mov	 DWORD PTR [esi+84], eax
  0004f	89 5e 50	 mov	 DWORD PTR [esi+80], ebx
  00052	88 5e 40	 mov	 BYTE PTR [esi+64], bl
  00055	89 46 70	 mov	 DWORD PTR [esi+112], eax
  00058	89 5e 6c	 mov	 DWORD PTR [esi+108], ebx
  0005b	88 5e 5c	 mov	 BYTE PTR [esi+92], bl

; 97   :         _Locinfo_ctor(this, locstr);

  0005e	8b 44 24 20	 mov	 eax, DWORD PTR _locstr$[esp+24]
  00062	50		 push	 eax
  00063	56		 push	 esi
  00064	c6 44 24 20 04	 mov	 BYTE PTR __$EHRec$[esp+44], 4
  00069	e8 00 00 00 00	 call	 ?_Locinfo_ctor@_Locinfo@std@@SAXPAV12@ABV?$basic_string@DU?$char_traits@D@std@@V?$allocator@D@2@@2@@Z ; std::_Locinfo::_Locinfo_ctor
  0006e	83 c4 08	 add	 esp, 8

; 98   : 		}

  00071	8b c6		 mov	 eax, esi
  00073	8b 4c 24 10	 mov	 ecx, DWORD PTR __$EHRec$[esp+28]
  00077	64 89 0d 00 00
	00 00		 mov	 DWORD PTR fs:0, ecx
  0007e	59		 pop	 ecx
  0007f	5e		 pop	 esi
  00080	5b		 pop	 ebx
  00081	83 c4 10	 add	 esp, 16			; 00000010H
  00084	c2 04 00	 ret	 4
_TEXT	ENDS
;	COMDAT text$x
text$x	SEGMENT
__unwindfunclet$??0_Locinfo@std@@QAE@ABV?$basic_string@DU?$char_traits@D@std@@V?$allocator@D@2@@1@@Z$0:
  00000	8b 4d f0	 mov	 ecx, DWORD PTR _this$[ebp]
  00003	e9 00 00 00 00	 jmp	 ??1_Lockit@std@@QAE@XZ	; std::_Lockit::~_Lockit
__unwindfunclet$??0_Locinfo@std@@QAE@ABV?$basic_string@DU?$char_traits@D@std@@V?$allocator@D@2@@1@@Z$1:
  00008	8b 4d f0	 mov	 ecx, DWORD PTR _this$[ebp]
  0000b	83 c1 04	 add	 ecx, 4
  0000e	e9 00 00 00 00	 jmp	 ??1?$basic_string@DU?$char_traits@D@std@@V?$allocator@D@2@@std@@QAE@XZ ; std::basic_string<char,std::char_traits<char>,std::allocator<char> >::~basic_string<char,std::char_traits<char>,std::allocator<char> >
__unwindfunclet$??0_Locinfo@std@@QAE@ABV?$basic_string@DU?$char_traits@D@std@@V?$allocator@D@2@@1@@Z$2:
  00013	8b 4d f0	 mov	 ecx, DWORD PTR _this$[ebp]
  00016	83 c1 20	 add	 ecx, 32			; 00000020H
  00019	e9 00 00 00 00	 jmp	 ??1?$basic_string@DU?$char_traits@D@std@@V?$allocator@D@2@@std@@QAE@XZ ; std::basic_string<char,std::char_traits<char>,std::allocator<char> >::~basic_string<char,std::char_traits<char>,std::allocator<char> >
__unwindfunclet$??0_Locinfo@std@@QAE@ABV?$basic_string@DU?$char_traits@D@std@@V?$allocator@D@2@@1@@Z$3:
  0001e	8b 4d f0	 mov	 ecx, DWORD PTR _this$[ebp]
  00021	83 c1 3c	 add	 ecx, 60			; 0000003cH
  00024	e9 00 00 00 00	 jmp	 ??1?$basic_string@DU?$char_traits@D@std@@V?$allocator@D@2@@std@@QAE@XZ ; std::basic_string<char,std::char_traits<char>,std::allocator<char> >::~basic_string<char,std::char_traits<char>,std::allocator<char> >
__unwindfunclet$??0_Locinfo@std@@QAE@ABV?$basic_string@DU?$char_traits@D@std@@V?$allocator@D@2@@1@@Z$4:
  00029	8b 4d f0	 mov	 ecx, DWORD PTR _this$[ebp]
  0002c	83 c1 58	 add	 ecx, 88			; 00000058H
  0002f	e9 00 00 00 00	 jmp	 ??1?$basic_string@DU?$char_traits@D@std@@V?$allocator@D@2@@std@@QAE@XZ ; std::basic_string<char,std::char_traits<char>,std::allocator<char> >::~basic_string<char,std::char_traits<char>,std::allocator<char> >
__ehhandler$??0_Locinfo@std@@QAE@ABV?$basic_string@DU?$char_traits@D@std@@V?$allocator@D@2@@1@@Z:
  00034	8b 54 24 08	 mov	 edx, DWORD PTR [esp+8]
  00038	8d 42 f4	 lea	 eax, DWORD PTR [edx-12]
  0003b	8b 4a f0	 mov	 ecx, DWORD PTR [edx-16]
  0003e	33 c8		 xor	 ecx, eax
  00040	e8 00 00 00 00	 call	 @__security_check_cookie@4
  00045	b8 00 00 00 00	 mov	 eax, OFFSET __ehfuncinfo$??0_Locinfo@std@@QAE@ABV?$basic_string@DU?$char_traits@D@std@@V?$allocator@D@2@@1@@Z
  0004a	e9 00 00 00 00	 jmp	 ___CxxFrameHandler3
text$x	ENDS
??0_Locinfo@std@@QAE@ABV?$basic_string@DU?$char_traits@D@std@@V?$allocator@D@2@@1@@Z ENDP ; std::_Locinfo::_Locinfo
;	COMDAT xdata$x
; File c:\program files\microsoft visual studio 9.0\vc\include\iosfwd
xdata$x	SEGMENT
__unwindtable$??1_Locinfo@std@@QAE@XZ DD 0ffffffffH
	DD	FLAT:__unwindfunclet$??1_Locinfo@std@@QAE@XZ$0
	DD	00H
	DD	FLAT:__unwindfunclet$??1_Locinfo@std@@QAE@XZ$1
	DD	01H
	DD	FLAT:__unwindfunclet$??1_Locinfo@std@@QAE@XZ$2
	DD	02H
	DD	FLAT:__unwindfunclet$??1_Locinfo@std@@QAE@XZ$3
	DD	03H
	DD	FLAT:__unwindfunclet$??1_Locinfo@std@@QAE@XZ$4
__ehfuncinfo$??1_Locinfo@std@@QAE@XZ DD 019930522H
	DD	05H
	DD	FLAT:__unwindtable$??1_Locinfo@std@@QAE@XZ
	DD	2 DUP(00H)
	DD	2 DUP(00H)
	DD	00H
	DD	01H
; Function compile flags: /Ogtpy
; File c:\program files\microsoft visual studio 9.0\vc\include\xlocinfo
xdata$x	ENDS
;	COMDAT ??1_Locinfo@std@@QAE@XZ
_TEXT	SEGMENT
_this$ = -16						; size = 4
__$EHRec$ = -12						; size = 12
??1_Locinfo@std@@QAE@XZ PROC				; std::_Locinfo::~_Locinfo, COMDAT
; _this$ = ecx

; 101  :         {

  00000	6a ff		 push	 -1
  00002	68 00 00 00 00	 push	 __ehhandler$??1_Locinfo@std@@QAE@XZ
  00007	64 a1 00 00 00
	00		 mov	 eax, DWORD PTR fs:0
  0000d	50		 push	 eax
  0000e	51		 push	 ecx
  0000f	53		 push	 ebx
  00010	55		 push	 ebp
  00011	56		 push	 esi
  00012	57		 push	 edi
  00013	a1 00 00 00 00	 mov	 eax, DWORD PTR ___security_cookie
  00018	33 c4		 xor	 eax, esp
  0001a	50		 push	 eax
  0001b	8d 44 24 18	 lea	 eax, DWORD PTR __$EHRec$[esp+36]
  0001f	64 a3 00 00 00
	00		 mov	 DWORD PTR fs:0, eax
  00025	8b f1		 mov	 esi, ecx
  00027	89 74 24 14	 mov	 DWORD PTR _this$[esp+36], esi

; 102  :         _Locinfo_dtor(this);

  0002b	56		 push	 esi
  0002c	c7 44 24 24 04
	00 00 00	 mov	 DWORD PTR __$EHRec$[esp+48], 4
  00034	e8 00 00 00 00	 call	 ?_Locinfo_dtor@_Locinfo@std@@SAXPAV12@@Z ; std::_Locinfo::_Locinfo_dtor

; 103  :         }

  00039	bd 10 00 00 00	 mov	 ebp, 16			; 00000010H
  0003e	83 c4 04	 add	 esp, 4
  00041	39 6e 70	 cmp	 DWORD PTR [esi+112], ebp
  00044	72 0c		 jb	 SHORT $LN24@Locinfo
  00046	8b 46 5c	 mov	 eax, DWORD PTR [esi+92]
  00049	50		 push	 eax
  0004a	e8 00 00 00 00	 call	 ??3@YAXPAX@Z		; operator delete
  0004f	83 c4 04	 add	 esp, 4
$LN24@Locinfo:
  00052	33 db		 xor	 ebx, ebx
  00054	bf 0f 00 00 00	 mov	 edi, 15			; 0000000fH
  00059	89 7e 70	 mov	 DWORD PTR [esi+112], edi
  0005c	89 5e 6c	 mov	 DWORD PTR [esi+108], ebx
  0005f	88 5e 5c	 mov	 BYTE PTR [esi+92], bl
  00062	39 6e 54	 cmp	 DWORD PTR [esi+84], ebp
  00065	72 0c		 jb	 SHORT $LN50@Locinfo
  00067	8b 46 40	 mov	 eax, DWORD PTR [esi+64]
  0006a	50		 push	 eax
  0006b	e8 00 00 00 00	 call	 ??3@YAXPAX@Z		; operator delete
  00070	83 c4 04	 add	 esp, 4
$LN50@Locinfo:
  00073	89 7e 54	 mov	 DWORD PTR [esi+84], edi
  00076	89 5e 50	 mov	 DWORD PTR [esi+80], ebx
  00079	88 5e 40	 mov	 BYTE PTR [esi+64], bl
  0007c	39 6e 38	 cmp	 DWORD PTR [esi+56], ebp
  0007f	72 0c		 jb	 SHORT $LN76@Locinfo
  00081	8b 46 24	 mov	 eax, DWORD PTR [esi+36]
  00084	50		 push	 eax
  00085	e8 00 00 00 00	 call	 ??3@YAXPAX@Z		; operator delete
  0008a	83 c4 04	 add	 esp, 4
$LN76@Locinfo:
  0008d	89 7e 38	 mov	 DWORD PTR [esi+56], edi
  00090	89 5e 34	 mov	 DWORD PTR [esi+52], ebx
  00093	88 5e 24	 mov	 BYTE PTR [esi+36], bl
  00096	39 6e 1c	 cmp	 DWORD PTR [esi+28], ebp
  00099	72 0c		 jb	 SHORT $LN102@Locinfo
  0009b	8b 46 08	 mov	 eax, DWORD PTR [esi+8]
  0009e	50		 push	 eax
  0009f	e8 00 00 00 00	 call	 ??3@YAXPAX@Z		; operator delete
  000a4	83 c4 04	 add	 esp, 4
$LN102@Locinfo:
  000a7	89 7e 1c	 mov	 DWORD PTR [esi+28], edi
  000aa	89 5e 18	 mov	 DWORD PTR [esi+24], ebx
  000ad	8b ce		 mov	 ecx, esi
  000af	88 5e 08	 mov	 BYTE PTR [esi+8], bl
  000b2	c7 44 24 20 ff
	ff ff ff	 mov	 DWORD PTR __$EHRec$[esp+44], -1
  000ba	e8 00 00 00 00	 call	 ??1_Lockit@std@@QAE@XZ	; std::_Lockit::~_Lockit
  000bf	8b 4c 24 18	 mov	 ecx, DWORD PTR __$EHRec$[esp+36]
  000c3	64 89 0d 00 00
	00 00		 mov	 DWORD PTR fs:0, ecx
  000ca	59		 pop	 ecx
  000cb	5f		 pop	 edi
  000cc	5e		 pop	 esi
  000cd	5d		 pop	 ebp
  000ce	5b		 pop	 ebx
  000cf	83 c4 10	 add	 esp, 16			; 00000010H
  000d2	c3		 ret	 0
_TEXT	ENDS
;	COMDAT text$x
text$x	SEGMENT
__unwindfunclet$??1_Locinfo@std@@QAE@XZ$0:
  00000	8b 4d f0	 mov	 ecx, DWORD PTR _this$[ebp]
  00003	e9 00 00 00 00	 jmp	 ??1_Lockit@std@@QAE@XZ	; std::_Lockit::~_Lockit
__unwindfunclet$??1_Locinfo@std@@QAE@XZ$1:
  00008	8b 4d f0	 mov	 ecx, DWORD PTR _this$[ebp]
  0000b	83 c1 04	 add	 ecx, 4
  0000e	e9 00 00 00 00	 jmp	 ??1?$basic_string@DU?$char_traits@D@std@@V?$allocator@D@2@@std@@QAE@XZ ; std::basic_string<char,std::char_traits<char>,std::allocator<char> >::~basic_string<char,std::char_traits<char>,std::allocator<char> >
__unwindfunclet$??1_Locinfo@std@@QAE@XZ$2:
  00013	8b 4d f0	 mov	 ecx, DWORD PTR _this$[ebp]
  00016	83 c1 20	 add	 ecx, 32			; 00000020H
  00019	e9 00 00 00 00	 jmp	 ??1?$basic_string@DU?$char_traits@D@std@@V?$allocator@D@2@@std@@QAE@XZ ; std::basic_string<char,std::char_traits<char>,std::allocator<char> >::~basic_string<char,std::char_traits<char>,std::allocator<char> >
__unwindfunclet$??1_Locinfo@std@@QAE@XZ$3:
  0001e	8b 4d f0	 mov	 ecx, DWORD PTR _this$[ebp]
  00021	83 c1 3c	 add	 ecx, 60			; 0000003cH
  00024	e9 00 00 00 00	 jmp	 ??1?$basic_string@DU?$char_traits@D@std@@V?$allocator@D@2@@std@@QAE@XZ ; std::basic_string<char,std::char_traits<char>,std::allocator<char> >::~basic_string<char,std::char_traits<char>,std::allocator<char> >
__unwindfunclet$??1_Locinfo@std@@QAE@XZ$4:
  00029	8b 4d f0	 mov	 ecx, DWORD PTR _this$[ebp]
  0002c	83 c1 58	 add	 ecx, 88			; 00000058H
  0002f	e9 00 00 00 00	 jmp	 ??1?$basic_string@DU?$char_traits@D@std@@V?$allocator@D@2@@std@@QAE@XZ ; std::basic_string<char,std::char_traits<char>,std::allocator<char> >::~basic_string<char,std::char_traits<char>,std::allocator<char> >
__ehhandler$??1_Locinfo@std@@QAE@XZ:
  00034	8b 54 24 08	 mov	 edx, DWORD PTR [esp+8]
  00038	8d 42 ec	 lea	 eax, DWORD PTR [edx-20]
  0003b	8b 4a e8	 mov	 ecx, DWORD PTR [edx-24]
  0003e	33 c8		 xor	 ecx, eax
  00040	e8 00 00 00 00	 call	 @__security_check_cookie@4
  00045	b8 00 00 00 00	 mov	 eax, OFFSET __ehfuncinfo$??1_Locinfo@std@@QAE@XZ
  0004a	e9 00 00 00 00	 jmp	 ___CxxFrameHandler3
text$x	ENDS
??1_Locinfo@std@@QAE@XZ ENDP				; std::_Locinfo::~_Locinfo
; Function compile flags: /Ogtpy
; File c:\program files\microsoft visual studio 9.0\vc\include\xstring
;	COMDAT ?append@?$basic_string@DU?$char_traits@D@std@@V?$allocator@D@2@@std@@QAEAAV12@ABV12@II@Z
_TEXT	SEGMENT
__Right$ = 8						; size = 4
__Roff$ = 12						; size = 4
__Count$ = 16						; size = 4
?append@?$basic_string@DU?$char_traits@D@std@@V?$allocator@D@2@@std@@QAEAAV12@ABV12@II@Z PROC ; std::basic_string<char,std::char_traits<char>,std::allocator<char> >::append, COMDAT
; _this$ = esi

; 951  : 		{	// append _Right [_Roff, _Roff + _Count)

  00000	53		 push	 ebx
  00001	8b 5c 24 10	 mov	 ebx, DWORD PTR __Count$[esp]
  00005	55		 push	 ebp
  00006	8b 6c 24 0c	 mov	 ebp, DWORD PTR __Right$[esp+4]
  0000a	57		 push	 edi

; 952  : 		if (_Right.size() < _Roff)

  0000b	8b 7c 24 14	 mov	 edi, DWORD PTR __Roff$[esp+8]
  0000f	39 7d 14	 cmp	 DWORD PTR [ebp+20], edi
  00012	73 05		 jae	 SHORT $LN5@append@2

; 953  : 			_String_base::_Xran();	// _Roff off end

  00014	e8 00 00 00 00	 call	 ?_Xran@_String_base@std@@SAXXZ ; std::_String_base::_Xran
$LN5@append@2:

; 954  : 		size_type _Num = _Right.size() - _Roff;

  00019	8b 45 14	 mov	 eax, DWORD PTR [ebp+20]
  0001c	2b c7		 sub	 eax, edi

; 955  : 		if (_Num < _Count)

  0001e	3b c3		 cmp	 eax, ebx

; 956  : 			_Count = _Num;	// trim _Count to size

  00020	0f 42 d8	 cmovb	 ebx, eax

; 957  : 		if (npos - _Mysize <= _Count || _Mysize + _Count < _Mysize)

  00023	8b 46 14	 mov	 eax, DWORD PTR [esi+20]
  00026	83 c9 ff	 or	 ecx, -1
  00029	2b c8		 sub	 ecx, eax
  0002b	3b cb		 cmp	 ecx, ebx
  0002d	76 07		 jbe	 SHORT $LN2@append@2
  0002f	8d 14 18	 lea	 edx, DWORD PTR [eax+ebx]
  00032	3b d0		 cmp	 edx, eax
  00034	73 05		 jae	 SHORT $LN3@append@2
$LN2@append@2:

; 958  : 			_String_base::_Xlen();	// result too long

  00036	e8 00 00 00 00	 call	 ?_Xlen@_String_base@std@@SAXXZ ; std::_String_base::_Xlen
$LN3@append@2:

; 959  : 
; 960  : 		if (0 < _Count && _Grow(_Num = _Mysize + _Count))

  0003b	85 db		 test	 ebx, ebx
  0003d	0f 86 a4 00 00
	00		 jbe	 $LN87@append@2
  00043	8b 7e 14	 mov	 edi, DWORD PTR [esi+20]
  00046	03 fb		 add	 edi, ebx
  00048	83 ff fe	 cmp	 edi, -2			; fffffffeH
  0004b	76 05		 jbe	 SHORT $LN17@append@2
  0004d	e8 00 00 00 00	 call	 ?_Xlen@_String_base@std@@SAXXZ ; std::_String_base::_Xlen
$LN17@append@2:
  00052	8b 46 18	 mov	 eax, DWORD PTR [esi+24]
  00055	3b c7		 cmp	 eax, edi
  00057	73 1b		 jae	 SHORT $LN16@append@2
  00059	8b 46 14	 mov	 eax, DWORD PTR [esi+20]
  0005c	50		 push	 eax
  0005d	57		 push	 edi
  0005e	8b ce		 mov	 ecx, esi
  00060	e8 00 00 00 00	 call	 ?_Copy@?$basic_string@DU?$char_traits@D@std@@V?$allocator@D@2@@std@@IAEXII@Z ; std::basic_string<char,std::char_traits<char>,std::allocator<char> >::_Copy
  00065	85 ff		 test	 edi, edi
$LN88@append@2:
  00067	76 7e		 jbe	 SHORT $LN87@append@2

; 961  : 			{	// make room and append new stuff
; 962  : 			_Traits_helper::copy_s<_Traits>(_Myptr() + _Mysize, _Myres - _Mysize,
; 963  : 				_Right._Myptr() + _Roff, _Count);

  00069	83 7d 18 10	 cmp	 DWORD PTR [ebp+24], 16	; 00000010H
  0006d	72 2d		 jb	 SHORT $LN64@append@2
  0006f	8b 6d 04	 mov	 ebp, DWORD PTR [ebp+4]
  00072	eb 2b		 jmp	 SHORT $LN65@append@2

; 959  : 
; 960  : 		if (0 < _Count && _Grow(_Num = _Mysize + _Count))

$LN16@append@2:
  00074	85 ff		 test	 edi, edi
  00076	75 ef		 jne	 SHORT $LN88@append@2
  00078	89 7e 14	 mov	 DWORD PTR [esi+20], edi
  0007b	83 f8 10	 cmp	 eax, 16			; 00000010H
  0007e	72 0e		 jb	 SHORT $LN58@append@2
  00080	8b 46 04	 mov	 eax, DWORD PTR [esi+4]
  00083	5f		 pop	 edi
  00084	5d		 pop	 ebp
  00085	c6 00 00	 mov	 BYTE PTR [eax], 0

; 965  : 			}
; 966  : 		return (*this);

  00088	8b c6		 mov	 eax, esi
  0008a	5b		 pop	 ebx

; 967  : 		}

  0008b	c2 0c 00	 ret	 12			; 0000000cH

; 959  : 
; 960  : 		if (0 < _Count && _Grow(_Num = _Mysize + _Count))

$LN58@append@2:
  0008e	5f		 pop	 edi
  0008f	8d 46 04	 lea	 eax, DWORD PTR [esi+4]
  00092	5d		 pop	 ebp
  00093	c6 00 00	 mov	 BYTE PTR [eax], 0

; 965  : 			}
; 966  : 		return (*this);

  00096	8b c6		 mov	 eax, esi
  00098	5b		 pop	 ebx

; 967  : 		}

  00099	c2 0c 00	 ret	 12			; 0000000cH

; 961  : 			{	// make room and append new stuff
; 962  : 			_Traits_helper::copy_s<_Traits>(_Myptr() + _Mysize, _Myres - _Mysize,
; 963  : 				_Right._Myptr() + _Roff, _Count);

$LN64@append@2:
  0009c	83 c5 04	 add	 ebp, 4
$LN65@append@2:
  0009f	8b 46 18	 mov	 eax, DWORD PTR [esi+24]
  000a2	83 f8 10	 cmp	 eax, 16			; 00000010H
  000a5	72 05		 jb	 SHORT $LN68@append@2
  000a7	8b 56 04	 mov	 edx, DWORD PTR [esi+4]
  000aa	eb 03		 jmp	 SHORT $LN69@append@2
$LN68@append@2:
  000ac	8d 56 04	 lea	 edx, DWORD PTR [esi+4]
$LN69@append@2:
  000af	8b 4e 14	 mov	 ecx, DWORD PTR [esi+20]
  000b2	53		 push	 ebx
  000b3	8b 5c 24 18	 mov	 ebx, DWORD PTR __Roff$[esp+12]
  000b7	03 eb		 add	 ebp, ebx
  000b9	2b c1		 sub	 eax, ecx
  000bb	55		 push	 ebp
  000bc	50		 push	 eax
  000bd	03 ca		 add	 ecx, edx
  000bf	51		 push	 ecx
  000c0	e8 00 00 00 00	 call	 _memcpy_s
  000c5	83 c4 10	 add	 esp, 16			; 00000010H

; 964  : 			_Eos(_Num);

  000c8	83 7e 18 10	 cmp	 DWORD PTR [esi+24], 16	; 00000010H
  000cc	89 7e 14	 mov	 DWORD PTR [esi+20], edi
  000cf	72 0f		 jb	 SHORT $LN82@append@2
  000d1	8b 46 04	 mov	 eax, DWORD PTR [esi+4]
  000d4	c6 04 38 00	 mov	 BYTE PTR [eax+edi], 0
  000d8	5f		 pop	 edi
  000d9	5d		 pop	 ebp

; 965  : 			}
; 966  : 		return (*this);

  000da	8b c6		 mov	 eax, esi
  000dc	5b		 pop	 ebx

; 967  : 		}

  000dd	c2 0c 00	 ret	 12			; 0000000cH

; 964  : 			_Eos(_Num);

$LN82@append@2:
  000e0	8d 46 04	 lea	 eax, DWORD PTR [esi+4]
  000e3	c6 04 38 00	 mov	 BYTE PTR [eax+edi], 0
$LN87@append@2:
  000e7	5f		 pop	 edi
  000e8	5d		 pop	 ebp

; 965  : 			}
; 966  : 		return (*this);

  000e9	8b c6		 mov	 eax, esi
  000eb	5b		 pop	 ebx

; 967  : 		}

  000ec	c2 0c 00	 ret	 12			; 0000000cH
?append@?$basic_string@DU?$char_traits@D@std@@V?$allocator@D@2@@std@@QAEAAV12@ABV12@II@Z ENDP ; std::basic_string<char,std::char_traits<char>,std::allocator<char> >::append
; Function compile flags: /Ogtpy
; File c:\program files\microsoft visual studio 9.0\vc\include\xlocnum
_TEXT	ENDS
;	COMDAT ?grouping@?$numpunct@D@std@@QBE?AV?$basic_string@DU?$char_traits@D@std@@V?$allocator@D@2@@2@XZ
_TEXT	SEGMENT
$T62156 = -4						; size = 4
?grouping@?$numpunct@D@std@@QBE?AV?$basic_string@DU?$char_traits@D@std@@V?$allocator@D@2@@2@XZ PROC ; std::numpunct<char>::grouping, COMDAT
; _this$ = ecx
; ___$ReturnUdt$ = esi

; 79   : 		{	// return grouping string

  00000	51		 push	 ecx

; 80   : 		return (do_grouping());

  00001	8b 01		 mov	 eax, DWORD PTR [ecx]
  00003	8b 50 0c	 mov	 edx, DWORD PTR [eax+12]
  00006	56		 push	 esi
  00007	c7 44 24 04 00
	00 00 00	 mov	 DWORD PTR $T62156[esp+8], 0
  0000f	ff d2		 call	 edx
  00011	8b c6		 mov	 eax, esi

; 81   : 		}

  00013	59		 pop	 ecx
  00014	c3		 ret	 0
?grouping@?$numpunct@D@std@@QBE?AV?$basic_string@DU?$char_traits@D@std@@V?$allocator@D@2@@2@XZ ENDP ; std::numpunct<char>::grouping
; Function compile flags: /Ogtpy
; File c:\program files\microsoft visual studio 9.0\vc\include\xstring
_TEXT	ENDS
;	COMDAT ?insert@?$basic_string@DU?$char_traits@D@std@@V?$allocator@D@2@@std@@QAEAAV12@IID@Z
_TEXT	SEGMENT
tv188 = 8						; size = 4
__Count$ = 8						; size = 4
__Ch$ = 12						; size = 1
?insert@?$basic_string@DU?$char_traits@D@std@@V?$allocator@D@2@@std@@QAEAAV12@IID@Z PROC ; std::basic_string<char,std::char_traits<char>,std::allocator<char> >::insert, COMDAT
; _this$ = esi
; __Off$ = edi

; 1196 : 		{	// insert _Count * _Ch at _Off

  00000	55		 push	 ebp
  00001	8b 6c 24 08	 mov	 ebp, DWORD PTR __Count$[esp]

; 1197 : 		if (_Mysize < _Off)

  00005	39 7e 14	 cmp	 DWORD PTR [esi+20], edi
  00008	73 05		 jae	 SHORT $LN3@insert

; 1198 : 			_String_base::_Xran();	// _Off off end

  0000a	e8 00 00 00 00	 call	 ?_Xran@_String_base@std@@SAXXZ ; std::_String_base::_Xran
$LN3@insert:

; 1199 : 		if (npos - _Mysize <= _Count)

  0000f	83 c8 ff	 or	 eax, -1
  00012	2b 46 14	 sub	 eax, DWORD PTR [esi+20]
  00015	3b c5		 cmp	 eax, ebp
  00017	77 05		 ja	 SHORT $LN2@insert

; 1200 : 			_String_base::_Xlen();	// result too long

  00019	e8 00 00 00 00	 call	 ?_Xlen@_String_base@std@@SAXXZ ; std::_String_base::_Xlen
$LN2@insert:

; 1201 : 		size_type _Num;
; 1202 : 		if (0 < _Count && _Grow(_Num = _Mysize + _Count))

  0001e	85 ed		 test	 ebp, ebp
  00020	0f 86 c1 00 00
	00		 jbe	 $LN80@insert
  00026	53		 push	 ebx
  00027	8b 5e 14	 mov	 ebx, DWORD PTR [esi+20]
  0002a	03 dd		 add	 ebx, ebp
  0002c	83 fb fe	 cmp	 ebx, -2			; fffffffeH
  0002f	76 05		 jbe	 SHORT $LN11@insert
  00031	e8 00 00 00 00	 call	 ?_Xlen@_String_base@std@@SAXXZ ; std::_String_base::_Xlen
$LN11@insert:
  00036	8b 46 18	 mov	 eax, DWORD PTR [esi+24]
  00039	3b c3		 cmp	 eax, ebx
  0003b	73 25		 jae	 SHORT $LN10@insert
  0003d	8b 4e 14	 mov	 ecx, DWORD PTR [esi+20]
  00040	51		 push	 ecx
  00041	53		 push	 ebx
  00042	8b ce		 mov	 ecx, esi
  00044	e8 00 00 00 00	 call	 ?_Copy@?$basic_string@DU?$char_traits@D@std@@V?$allocator@D@2@@std@@IAEXII@Z ; std::basic_string<char,std::char_traits<char>,std::allocator<char> >::_Copy
  00049	85 db		 test	 ebx, ebx
$LN83@insert:
  0004b	0f 86 95 00 00
	00		 jbe	 $LN81@insert

; 1203 : 			{	// make room and insert new stuff
; 1204 : 			_Traits_helper::move_s<_Traits>(_Myptr() + _Off + _Count, _Myres - _Off - _Count,
; 1205 : 				_Myptr() + _Off, _Mysize - _Off);	// empty out hole

  00051	8b 46 18	 mov	 eax, DWORD PTR [esi+24]
  00054	83 f8 10	 cmp	 eax, 16			; 00000010H
  00057	72 2e		 jb	 SHORT $LN58@insert
  00059	8b 56 04	 mov	 edx, DWORD PTR [esi+4]
  0005c	89 54 24 0c	 mov	 DWORD PTR tv188[esp+4], edx
  00060	eb 2c		 jmp	 SHORT $LN59@insert

; 1201 : 		size_type _Num;
; 1202 : 		if (0 < _Count && _Grow(_Num = _Mysize + _Count))

$LN10@insert:
  00062	85 db		 test	 ebx, ebx
  00064	75 e5		 jne	 SHORT $LN83@insert
  00066	89 5e 14	 mov	 DWORD PTR [esi+20], ebx
  00069	83 f8 10	 cmp	 eax, 16			; 00000010H
  0006c	72 0c		 jb	 SHORT $LN52@insert
  0006e	8b 46 04	 mov	 eax, DWORD PTR [esi+4]
  00071	88 18		 mov	 BYTE PTR [eax], bl
  00073	5b		 pop	 ebx

; 1208 : 			}
; 1209 : 		return (*this);

  00074	8b c6		 mov	 eax, esi
  00076	5d		 pop	 ebp

; 1210 : 		}

  00077	c2 08 00	 ret	 8

; 1201 : 		size_type _Num;
; 1202 : 		if (0 < _Count && _Grow(_Num = _Mysize + _Count))

$LN52@insert:
  0007a	8d 46 04	 lea	 eax, DWORD PTR [esi+4]
  0007d	5b		 pop	 ebx
  0007e	c6 00 00	 mov	 BYTE PTR [eax], 0

; 1208 : 			}
; 1209 : 		return (*this);

  00081	8b c6		 mov	 eax, esi
  00083	5d		 pop	 ebp

; 1210 : 		}

  00084	c2 08 00	 ret	 8

; 1203 : 			{	// make room and insert new stuff
; 1204 : 			_Traits_helper::move_s<_Traits>(_Myptr() + _Off + _Count, _Myres - _Off - _Count,
; 1205 : 				_Myptr() + _Off, _Mysize - _Off);	// empty out hole

$LN58@insert:
  00087	8d 4e 04	 lea	 ecx, DWORD PTR [esi+4]
  0008a	89 4c 24 0c	 mov	 DWORD PTR tv188[esp+4], ecx
$LN59@insert:
  0008e	83 f8 10	 cmp	 eax, 16			; 00000010H
  00091	72 05		 jb	 SHORT $LN62@insert
  00093	8b 4e 04	 mov	 ecx, DWORD PTR [esi+4]
  00096	eb 03		 jmp	 SHORT $LN63@insert
$LN62@insert:
  00098	8d 4e 04	 lea	 ecx, DWORD PTR [esi+4]
$LN63@insert:
  0009b	8b 56 14	 mov	 edx, DWORD PTR [esi+20]
  0009e	2b d7		 sub	 edx, edi
  000a0	52		 push	 edx
  000a1	8b 54 24 10	 mov	 edx, DWORD PTR tv188[esp+8]
  000a5	03 d7		 add	 edx, edi
  000a7	2b c7		 sub	 eax, edi
  000a9	52		 push	 edx
  000aa	2b c5		 sub	 eax, ebp
  000ac	03 cf		 add	 ecx, edi
  000ae	50		 push	 eax
  000af	03 cd		 add	 ecx, ebp
  000b1	51		 push	 ecx
  000b2	e8 00 00 00 00	 call	 _memmove_s

; 1206 : 			_Chassign(_Off, _Count, _Ch);	// fill hole

  000b7	8b 44 24 20	 mov	 eax, DWORD PTR __Ch$[esp+20]
  000bb	83 c4 10	 add	 esp, 16			; 00000010H
  000be	50		 push	 eax
  000bf	55		 push	 ebp
  000c0	57		 push	 edi
  000c1	8b ce		 mov	 ecx, esi
  000c3	e8 00 00 00 00	 call	 ?_Chassign@?$basic_string@DU?$char_traits@D@std@@V?$allocator@D@2@@std@@IAEXIID@Z ; std::basic_string<char,std::char_traits<char>,std::allocator<char> >::_Chassign

; 1207 : 			_Eos(_Num);

  000c8	83 7e 18 10	 cmp	 DWORD PTR [esi+24], 16	; 00000010H
  000cc	89 5e 14	 mov	 DWORD PTR [esi+20], ebx
  000cf	72 0e		 jb	 SHORT $LN76@insert
  000d1	8b 46 04	 mov	 eax, DWORD PTR [esi+4]
  000d4	c6 04 18 00	 mov	 BYTE PTR [eax+ebx], 0
  000d8	5b		 pop	 ebx

; 1208 : 			}
; 1209 : 		return (*this);

  000d9	8b c6		 mov	 eax, esi
  000db	5d		 pop	 ebp

; 1210 : 		}

  000dc	c2 08 00	 ret	 8

; 1207 : 			_Eos(_Num);

$LN76@insert:
  000df	8d 46 04	 lea	 eax, DWORD PTR [esi+4]
  000e2	c6 04 18 00	 mov	 BYTE PTR [eax+ebx], 0
$LN81@insert:
  000e6	5b		 pop	 ebx
$LN80@insert:

; 1208 : 			}
; 1209 : 		return (*this);

  000e7	8b c6		 mov	 eax, esi
  000e9	5d		 pop	 ebp

; 1210 : 		}

  000ea	c2 08 00	 ret	 8
?insert@?$basic_string@DU?$char_traits@D@std@@V?$allocator@D@2@@std@@QAEAAV12@IID@Z ENDP ; std::basic_string<char,std::char_traits<char>,std::allocator<char> >::insert
; Function compile flags: /Ogtpy
_TEXT	ENDS
;	COMDAT ?append@?$basic_string@DU?$char_traits@D@std@@V?$allocator@D@2@@std@@QAEAAV12@PBDI@Z
_TEXT	SEGMENT
__Ptr$ = 8						; size = 4
__Count$ = 12						; size = 4
?append@?$basic_string@DU?$char_traits@D@std@@V?$allocator@D@2@@std@@QAEAAV12@PBDI@Z PROC ; std::basic_string<char,std::char_traits<char>,std::allocator<char> >::append, COMDAT
; _this$ = eax

; 970  : 		{	// append [_Ptr, _Ptr + _Count)

  00000	8b 4c 24 04	 mov	 ecx, DWORD PTR __Ptr$[esp-4]
  00004	53		 push	 ebx
  00005	55		 push	 ebp
  00006	8b 6c 24 10	 mov	 ebp, DWORD PTR __Count$[esp+4]
  0000a	56		 push	 esi
  0000b	57		 push	 edi
  0000c	8b f0		 mov	 esi, eax

; 971  : 
; 972  :  #if _HAS_ITERATOR_DEBUGGING
; 973  : 		if (_Count != 0)
; 974  : 			_DEBUG_POINTER(_Ptr);
; 975  :  #endif /* _HAS_ITERATOR_DEBUGGING */
; 976  : 
; 977  : 		if (_Inside(_Ptr))

  0000e	85 c9		 test	 ecx, ecx
  00010	74 41		 je	 SHORT $LN95@append@3
  00012	8b 7e 18	 mov	 edi, DWORD PTR [esi+24]
  00015	8d 46 04	 lea	 eax, DWORD PTR [esi+4]
  00018	83 ff 10	 cmp	 edi, 16			; 00000010H
  0001b	72 04		 jb	 SHORT $LN14@append@3
  0001d	8b 10		 mov	 edx, DWORD PTR [eax]
  0001f	eb 02		 jmp	 SHORT $LN15@append@3
$LN14@append@3:
  00021	8b d0		 mov	 edx, eax
$LN15@append@3:
  00023	3b ca		 cmp	 ecx, edx
  00025	72 2c		 jb	 SHORT $LN95@append@3
  00027	83 ff 10	 cmp	 edi, 16			; 00000010H
  0002a	72 04		 jb	 SHORT $LN18@append@3
  0002c	8b 10		 mov	 edx, DWORD PTR [eax]
  0002e	eb 02		 jmp	 SHORT $LN19@append@3
$LN18@append@3:
  00030	8b d0		 mov	 edx, eax
$LN19@append@3:
  00032	8b 5e 14	 mov	 ebx, DWORD PTR [esi+20]
  00035	03 da		 add	 ebx, edx
  00037	3b d9		 cmp	 ebx, ecx
  00039	76 18		 jbe	 SHORT $LN95@append@3

; 978  : 			return (append(*this, _Ptr - _Myptr(), _Count));	// substring

  0003b	83 ff 10	 cmp	 edi, 16			; 00000010H
  0003e	72 02		 jb	 SHORT $LN22@append@3
  00040	8b 00		 mov	 eax, DWORD PTR [eax]
$LN22@append@3:
  00042	55		 push	 ebp
  00043	2b c8		 sub	 ecx, eax
  00045	51		 push	 ecx
  00046	56		 push	 esi
  00047	e8 00 00 00 00	 call	 ?append@?$basic_string@DU?$char_traits@D@std@@V?$allocator@D@2@@std@@QAEAAV12@ABV12@II@Z ; std::basic_string<char,std::char_traits<char>,std::allocator<char> >::append
  0004c	5f		 pop	 edi
  0004d	5e		 pop	 esi
  0004e	5d		 pop	 ebp
  0004f	5b		 pop	 ebx

; 989  : 		}

  00050	c2 08 00	 ret	 8
$LN95@append@3:

; 979  : 		if (npos - _Mysize <= _Count || _Mysize + _Count < _Mysize)

  00053	8b 46 14	 mov	 eax, DWORD PTR [esi+20]
  00056	83 c9 ff	 or	 ecx, -1
  00059	2b c8		 sub	 ecx, eax
  0005b	3b cd		 cmp	 ecx, ebp
  0005d	76 07		 jbe	 SHORT $LN2@append@3
  0005f	8d 14 28	 lea	 edx, DWORD PTR [eax+ebp]
  00062	3b d0		 cmp	 edx, eax
  00064	73 05		 jae	 SHORT $LN3@append@3
$LN2@append@3:

; 980  : 			_String_base::_Xlen();	// result too long

  00066	e8 00 00 00 00	 call	 ?_Xlen@_String_base@std@@SAXXZ ; std::_String_base::_Xlen
$LN3@append@3:

; 981  : 
; 982  : 		size_type _Num;
; 983  : 		if (0 < _Count && _Grow(_Num = _Mysize + _Count))

  0006b	85 ed		 test	 ebp, ebp
  0006d	0f 86 87 00 00
	00		 jbe	 $LN92@append@3
  00073	8b 7e 14	 mov	 edi, DWORD PTR [esi+20]
  00076	03 fd		 add	 edi, ebp
  00078	83 ff fe	 cmp	 edi, -2			; fffffffeH
  0007b	76 05		 jbe	 SHORT $LN29@append@3
  0007d	e8 00 00 00 00	 call	 ?_Xlen@_String_base@std@@SAXXZ ; std::_String_base::_Xlen
$LN29@append@3:
  00082	8b 46 18	 mov	 eax, DWORD PTR [esi+24]
  00085	3b c7		 cmp	 eax, edi
  00087	73 1f		 jae	 SHORT $LN28@append@3
  00089	8b 46 14	 mov	 eax, DWORD PTR [esi+20]
  0008c	50		 push	 eax
  0008d	57		 push	 edi
  0008e	8b ce		 mov	 ecx, esi
  00090	e8 00 00 00 00	 call	 ?_Copy@?$basic_string@DU?$char_traits@D@std@@V?$allocator@D@2@@std@@IAEXII@Z ; std::basic_string<char,std::char_traits<char>,std::allocator<char> >::_Copy
  00095	85 ff		 test	 edi, edi
$LN96@append@3:
  00097	76 61		 jbe	 SHORT $LN92@append@3

; 984  : 			{	// make room and append new stuff
; 985  : 			_Traits_helper::copy_s<_Traits>(_Myptr() + _Mysize, _Myres - _Mysize, _Ptr, _Count);

  00099	8b 46 18	 mov	 eax, DWORD PTR [esi+24]
  0009c	8d 5e 04	 lea	 ebx, DWORD PTR [esi+4]
  0009f	83 f8 10	 cmp	 eax, 16			; 00000010H
  000a2	72 2e		 jb	 SHORT $LN76@append@3
  000a4	8b 13		 mov	 edx, DWORD PTR [ebx]
  000a6	eb 2c		 jmp	 SHORT $LN77@append@3

; 981  : 
; 982  : 		size_type _Num;
; 983  : 		if (0 < _Count && _Grow(_Num = _Mysize + _Count))

$LN28@append@3:
  000a8	85 ff		 test	 edi, edi
  000aa	75 eb		 jne	 SHORT $LN96@append@3
  000ac	89 7e 14	 mov	 DWORD PTR [esi+20], edi
  000af	83 f8 10	 cmp	 eax, 16			; 00000010H
  000b2	72 0f		 jb	 SHORT $LN70@append@3
  000b4	8b 46 04	 mov	 eax, DWORD PTR [esi+4]
  000b7	5f		 pop	 edi
  000b8	c6 00 00	 mov	 BYTE PTR [eax], 0

; 987  : 			}
; 988  : 		return (*this);

  000bb	8b c6		 mov	 eax, esi
  000bd	5e		 pop	 esi
  000be	5d		 pop	 ebp
  000bf	5b		 pop	 ebx

; 989  : 		}

  000c0	c2 08 00	 ret	 8

; 981  : 
; 982  : 		size_type _Num;
; 983  : 		if (0 < _Count && _Grow(_Num = _Mysize + _Count))

$LN70@append@3:
  000c3	8d 46 04	 lea	 eax, DWORD PTR [esi+4]
  000c6	5f		 pop	 edi
  000c7	c6 00 00	 mov	 BYTE PTR [eax], 0

; 987  : 			}
; 988  : 		return (*this);

  000ca	8b c6		 mov	 eax, esi
  000cc	5e		 pop	 esi
  000cd	5d		 pop	 ebp
  000ce	5b		 pop	 ebx

; 989  : 		}

  000cf	c2 08 00	 ret	 8

; 984  : 			{	// make room and append new stuff
; 985  : 			_Traits_helper::copy_s<_Traits>(_Myptr() + _Mysize, _Myres - _Mysize, _Ptr, _Count);

$LN76@append@3:
  000d2	8b d3		 mov	 edx, ebx
$LN77@append@3:
  000d4	8b 4e 14	 mov	 ecx, DWORD PTR [esi+20]
  000d7	55		 push	 ebp
  000d8	8b 6c 24 18	 mov	 ebp, DWORD PTR __Ptr$[esp+16]
  000dc	2b c1		 sub	 eax, ecx
  000de	55		 push	 ebp
  000df	50		 push	 eax
  000e0	03 ca		 add	 ecx, edx
  000e2	51		 push	 ecx
  000e3	e8 00 00 00 00	 call	 _memcpy_s
  000e8	83 c4 10	 add	 esp, 16			; 00000010H

; 986  : 			_Eos(_Num);

  000eb	83 7e 18 10	 cmp	 DWORD PTR [esi+24], 16	; 00000010H
  000ef	89 7e 14	 mov	 DWORD PTR [esi+20], edi
  000f2	72 02		 jb	 SHORT $LN90@append@3
  000f4	8b 1b		 mov	 ebx, DWORD PTR [ebx]
$LN90@append@3:
  000f6	c6 04 3b 00	 mov	 BYTE PTR [ebx+edi], 0
$LN92@append@3:
  000fa	5f		 pop	 edi

; 987  : 			}
; 988  : 		return (*this);

  000fb	8b c6		 mov	 eax, esi
  000fd	5e		 pop	 esi
  000fe	5d		 pop	 ebp
  000ff	5b		 pop	 ebx

; 989  : 		}

  00100	c2 08 00	 ret	 8
?append@?$basic_string@DU?$char_traits@D@std@@V?$allocator@D@2@@std@@QAEAAV12@PBDI@Z ENDP ; std::basic_string<char,std::char_traits<char>,std::allocator<char> >::append
; Function compile flags: /Ogtpy
; File c:\program files\microsoft visual studio 9.0\vc\include\xlocnum
_TEXT	ENDS
;	COMDAT ?truename@?$numpunct@D@std@@QBE?AV?$basic_string@DU?$char_traits@D@std@@V?$allocator@D@2@@2@XZ
_TEXT	SEGMENT
$T62691 = -4						; size = 4
?truename@?$numpunct@D@std@@QBE?AV?$basic_string@DU?$char_traits@D@std@@V?$allocator@D@2@@2@XZ PROC ; std::numpunct<char>::truename, COMDAT
; _this$ = ecx
; ___$ReturnUdt$ = esi

; 89   : 		{	// return name for true

  00000	51		 push	 ecx

; 90   : 		return (do_truename());

  00001	8b 01		 mov	 eax, DWORD PTR [ecx]
  00003	8b 50 14	 mov	 edx, DWORD PTR [eax+20]
  00006	56		 push	 esi
  00007	c7 44 24 04 00
	00 00 00	 mov	 DWORD PTR $T62691[esp+8], 0
  0000f	ff d2		 call	 edx
  00011	8b c6		 mov	 eax, esi

; 91   : 		}

  00013	59		 pop	 ecx
  00014	c3		 ret	 0
?truename@?$numpunct@D@std@@QBE?AV?$basic_string@DU?$char_traits@D@std@@V?$allocator@D@2@@2@XZ ENDP ; std::numpunct<char>::truename
; Function compile flags: /Ogtpy
_TEXT	ENDS
;	COMDAT ?falsename@?$numpunct@D@std@@QBE?AV?$basic_string@DU?$char_traits@D@std@@V?$allocator@D@2@@2@XZ
_TEXT	SEGMENT
$T62697 = -4						; size = 4
?falsename@?$numpunct@D@std@@QBE?AV?$basic_string@DU?$char_traits@D@std@@V?$allocator@D@2@@2@XZ PROC ; std::numpunct<char>::falsename, COMDAT
; _this$ = ecx
; ___$ReturnUdt$ = esi

; 84   : 		{	// return name for false

  00000	51		 push	 ecx

; 85   : 		return (do_falsename());

  00001	8b 01		 mov	 eax, DWORD PTR [ecx]
  00003	8b 50 10	 mov	 edx, DWORD PTR [eax+16]
  00006	56		 push	 esi
  00007	c7 44 24 04 00
	00 00 00	 mov	 DWORD PTR $T62697[esp+8], 0
  0000f	ff d2		 call	 edx
  00011	8b c6		 mov	 eax, esi

; 86   : 		}

  00013	59		 pop	 ecx
  00014	c3		 ret	 0
?falsename@?$numpunct@D@std@@QBE?AV?$basic_string@DU?$char_traits@D@std@@V?$allocator@D@2@@2@XZ ENDP ; std::numpunct<char>::falsename
; Function compile flags: /Ogtpy
; File c:\program files\microsoft visual studio 9.0\vc\include\xstring
;	COMDAT ?assign@?$basic_string@DU?$char_traits@D@std@@V?$allocator@D@2@@std@@QAEAAV12@ABV12@II@Z
_TEXT	SEGMENT
__Right$ = 8						; size = 4
__Roff$ = 12						; size = 4
__Count$ = 16						; size = 4
?assign@?$basic_string@DU?$char_traits@D@std@@V?$allocator@D@2@@std@@QAEAAV12@ABV12@II@Z PROC ; std::basic_string<char,std::char_traits<char>,std::allocator<char> >::assign, COMDAT
; _this$ = ecx

; 1046 : 		{	// assign _Right [_Roff, _Roff + _Count)

  00000	53		 push	 ebx

; 1047 : 		if (_Right.size() < _Roff)

  00001	8b 5c 24 08	 mov	 ebx, DWORD PTR __Right$[esp]
  00005	55		 push	 ebp
  00006	8b 6c 24 10	 mov	 ebp, DWORD PTR __Roff$[esp+4]
  0000a	56		 push	 esi
  0000b	57		 push	 edi
  0000c	8b f1		 mov	 esi, ecx
  0000e	39 6b 14	 cmp	 DWORD PTR [ebx+20], ebp
  00011	73 05		 jae	 SHORT $LN5@assign@2

; 1048 : 			_String_base::_Xran();	// _Roff off end

  00013	e8 00 00 00 00	 call	 ?_Xran@_String_base@std@@SAXXZ ; std::_String_base::_Xran
$LN5@assign@2:

; 1049 : 		size_type _Num = _Right.size() - _Roff;

  00018	8b 7b 14	 mov	 edi, DWORD PTR [ebx+20]

; 1050 : 		if (_Count < _Num)

  0001b	8b 44 24 1c	 mov	 eax, DWORD PTR __Count$[esp+12]
  0001f	2b fd		 sub	 edi, ebp
  00021	3b c7		 cmp	 eax, edi

; 1051 : 			_Num = _Count;	// trim _Num to size

  00023	0f 42 f8	 cmovb	 edi, eax

; 1052 : 
; 1053 : 		if (this == &_Right)

  00026	3b f3		 cmp	 esi, ebx
  00028	75 1f		 jne	 SHORT $LN3@assign@2

; 1054 : 			erase((size_type)(_Roff + _Num)), erase(0, _Roff);	// substring

  0002a	6a ff		 push	 -1
  0002c	03 fd		 add	 edi, ebp
  0002e	57		 push	 edi
  0002f	8b ce		 mov	 ecx, esi
  00031	e8 00 00 00 00	 call	 ?erase@?$basic_string@DU?$char_traits@D@std@@V?$allocator@D@2@@std@@QAEAAV12@II@Z ; std::basic_string<char,std::char_traits<char>,std::allocator<char> >::erase
  00036	55		 push	 ebp
  00037	6a 00		 push	 0
  00039	8b ce		 mov	 ecx, esi
  0003b	e8 00 00 00 00	 call	 ?erase@?$basic_string@DU?$char_traits@D@std@@V?$allocator@D@2@@std@@QAEAAV12@II@Z ; std::basic_string<char,std::char_traits<char>,std::allocator<char> >::erase
  00040	5f		 pop	 edi

; 1059 : 			}
; 1060 : 		return (*this);

  00041	8b c6		 mov	 eax, esi
  00043	5e		 pop	 esi
  00044	5d		 pop	 ebp
  00045	5b		 pop	 ebx

; 1061 : 		}

  00046	c2 0c 00	 ret	 12			; 0000000cH
$LN3@assign@2:

; 1055 : 		else if (_Grow(_Num))

  00049	83 ff fe	 cmp	 edi, -2			; fffffffeH
  0004c	76 05		 jbe	 SHORT $LN17@assign@2
  0004e	e8 00 00 00 00	 call	 ?_Xlen@_String_base@std@@SAXXZ ; std::_String_base::_Xlen
$LN17@assign@2:
  00053	8b 46 18	 mov	 eax, DWORD PTR [esi+24]
  00056	3b c7		 cmp	 eax, edi
  00058	73 1b		 jae	 SHORT $LN16@assign@2
  0005a	8b 46 14	 mov	 eax, DWORD PTR [esi+20]
  0005d	50		 push	 eax
  0005e	57		 push	 edi
  0005f	8b ce		 mov	 ecx, esi
  00061	e8 00 00 00 00	 call	 ?_Copy@?$basic_string@DU?$char_traits@D@std@@V?$allocator@D@2@@std@@IAEXII@Z ; std::basic_string<char,std::char_traits<char>,std::allocator<char> >::_Copy
  00066	85 ff		 test	 edi, edi
$LN87@assign@2:
  00068	76 66		 jbe	 SHORT $LN86@assign@2

; 1056 : 			{	// make room and assign new stuff
; 1057 : 			_Traits_helper::copy_s<_Traits>(_Myptr(), _Myres, _Right._Myptr() + _Roff, _Num);

  0006a	83 7b 18 10	 cmp	 DWORD PTR [ebx+24], 16	; 00000010H
  0006e	72 2f		 jb	 SHORT $LN64@assign@2
  00070	8b 53 04	 mov	 edx, DWORD PTR [ebx+4]
  00073	eb 2d		 jmp	 SHORT $LN65@assign@2

; 1055 : 		else if (_Grow(_Num))

$LN16@assign@2:
  00075	85 ff		 test	 edi, edi
  00077	75 ef		 jne	 SHORT $LN87@assign@2
  00079	89 7e 14	 mov	 DWORD PTR [esi+20], edi
  0007c	83 f8 10	 cmp	 eax, 16			; 00000010H
  0007f	72 0f		 jb	 SHORT $LN58@assign@2
  00081	8b 46 04	 mov	 eax, DWORD PTR [esi+4]
  00084	5f		 pop	 edi
  00085	c6 00 00	 mov	 BYTE PTR [eax], 0

; 1059 : 			}
; 1060 : 		return (*this);

  00088	8b c6		 mov	 eax, esi
  0008a	5e		 pop	 esi
  0008b	5d		 pop	 ebp
  0008c	5b		 pop	 ebx

; 1061 : 		}

  0008d	c2 0c 00	 ret	 12			; 0000000cH

; 1055 : 		else if (_Grow(_Num))

$LN58@assign@2:
  00090	8d 46 04	 lea	 eax, DWORD PTR [esi+4]
  00093	5f		 pop	 edi
  00094	c6 00 00	 mov	 BYTE PTR [eax], 0

; 1059 : 			}
; 1060 : 		return (*this);

  00097	8b c6		 mov	 eax, esi
  00099	5e		 pop	 esi
  0009a	5d		 pop	 ebp
  0009b	5b		 pop	 ebx

; 1061 : 		}

  0009c	c2 0c 00	 ret	 12			; 0000000cH

; 1056 : 			{	// make room and assign new stuff
; 1057 : 			_Traits_helper::copy_s<_Traits>(_Myptr(), _Myres, _Right._Myptr() + _Roff, _Num);

$LN64@assign@2:
  0009f	8d 53 04	 lea	 edx, DWORD PTR [ebx+4]
$LN65@assign@2:
  000a2	8b 4e 18	 mov	 ecx, DWORD PTR [esi+24]
  000a5	8d 5e 04	 lea	 ebx, DWORD PTR [esi+4]
  000a8	83 f9 10	 cmp	 ecx, 16			; 00000010H
  000ab	72 04		 jb	 SHORT $LN68@assign@2
  000ad	8b 03		 mov	 eax, DWORD PTR [ebx]
  000af	eb 02		 jmp	 SHORT $LN69@assign@2
$LN68@assign@2:
  000b1	8b c3		 mov	 eax, ebx
$LN69@assign@2:
  000b3	57		 push	 edi
  000b4	03 d5		 add	 edx, ebp
  000b6	52		 push	 edx
  000b7	51		 push	 ecx
  000b8	50		 push	 eax
  000b9	e8 00 00 00 00	 call	 _memcpy_s
  000be	83 c4 10	 add	 esp, 16			; 00000010H

; 1058 : 			_Eos(_Num);

  000c1	83 7e 18 10	 cmp	 DWORD PTR [esi+24], 16	; 00000010H
  000c5	89 7e 14	 mov	 DWORD PTR [esi+20], edi
  000c8	72 02		 jb	 SHORT $LN82@assign@2
  000ca	8b 1b		 mov	 ebx, DWORD PTR [ebx]
$LN82@assign@2:
  000cc	c6 04 3b 00	 mov	 BYTE PTR [ebx+edi], 0
$LN86@assign@2:
  000d0	5f		 pop	 edi

; 1059 : 			}
; 1060 : 		return (*this);

  000d1	8b c6		 mov	 eax, esi
  000d3	5e		 pop	 esi
  000d4	5d		 pop	 ebp
  000d5	5b		 pop	 ebx

; 1061 : 		}

  000d6	c2 0c 00	 ret	 12			; 0000000cH
?assign@?$basic_string@DU?$char_traits@D@std@@V?$allocator@D@2@@std@@QAEAAV12@ABV12@II@Z ENDP ; std::basic_string<char,std::char_traits<char>,std::allocator<char> >::assign
; Function compile flags: /Ogtpy
_TEXT	ENDS
;	COMDAT ??_Gruntime_error@std@@UAEPAXI@Z
_TEXT	SEGMENT
