; Listing generated by Microsoft (R) Optimizing Compiler Version 15.00.30729.01 

	TITLE	i:\?n????j\My Project\CMS\CMS\ASN1\ObjectIdentifier.cpp
	.686P
	.XMM
	include listing.inc
	.model	flat

INCLUDELIB OLDNAMES

PUBLIC	?encodeBER@ObjectIdentifier@@UAEXXZ		; ObjectIdentifier::encodeBER
PUBLIC	??_R4ObjectIdentifier@@6B@			; ObjectIdentifier::`RTTI Complete Object Locator'
PUBLIC	??_R3ObjectIdentifier@@8			; ObjectIdentifier::`RTTI Class Hierarchy Descriptor'
PUBLIC	??_R2ObjectIdentifier@@8			; ObjectIdentifier::`RTTI Base Class Array'
PUBLIC	??_R1A@?0A@EA@ObjectIdentifier@@8		; ObjectIdentifier::`RTTI Base Class Descriptor at (0,-1,0,64)'
PUBLIC	??_R0?AVObjectIdentifier@@@8			; ObjectIdentifier `RTTI Type Descriptor'
PUBLIC	??0?$allocator@H@std@@QAE@XZ			; std::allocator<int>::allocator<int>
PUBLIC	??$?0H@?$allocator@V_Aux_cont@std@@@std@@QAE@ABV?$allocator@H@1@@Z ; std::allocator<std::_Aux_cont>::allocator<std::_Aux_cont><int>
PUBLIC	??0?$_Container_base_aux_alloc_real@V?$allocator@H@std@@@std@@IAE@V?$allocator@H@1@@Z ; std::_Container_base_aux_alloc_real<std::allocator<int> >::_Container_base_aux_alloc_real<std::allocator<int> >
PUBLIC	??0?$allocator@H@std@@QAE@ABV01@@Z		; std::allocator<int>::allocator<int>
PUBLIC	??0?$_Vector_val@HV?$allocator@H@std@@@std@@IAE@V?$allocator@H@1@@Z ; std::_Vector_val<int,std::allocator<int> >::_Vector_val<int,std::allocator<int> >
PUBLIC	?_Buy@?$vector@HV?$allocator@H@std@@@std@@IAE_NI@Z ; std::vector<int,std::allocator<int> >::_Buy
PUBLIC	??0?$vector@HV?$allocator@H@std@@@std@@QAE@XZ	; std::vector<int,std::allocator<int> >::vector<int,std::allocator<int> >
PUBLIC	??1?$_Container_base_aux_alloc_real@V?$allocator@H@std@@@std@@IAE@XZ ; std::_Container_base_aux_alloc_real<std::allocator<int> >::~_Container_base_aux_alloc_real<std::allocator<int> >
PUBLIC	??1?$_Vector_val@HV?$allocator@H@std@@@std@@QAE@XZ ; std::_Vector_val<int,std::allocator<int> >::~_Vector_val<int,std::allocator<int> >
PUBLIC	?_Tidy@?$vector@HV?$allocator@H@std@@@std@@IAEXXZ ; std::vector<int,std::allocator<int> >::_Tidy
PUBLIC	??1?$vector@HV?$allocator@H@std@@@std@@QAE@XZ	; std::vector<int,std::allocator<int> >::~vector<int,std::allocator<int> >
PUBLIC	?end@?$vector@HV?$allocator@H@std@@@std@@QAE?AV?$_Vector_iterator@HV?$allocator@H@std@@@2@XZ ; std::vector<int,std::allocator<int> >::end
PUBLIC	??0?$_Iterator_with_base@Urandom_access_iterator_tag@std@@HHPBHABHV_Iterator_base_aux@2@@std@@QAE@XZ ; std::_Iterator_with_base<std::random_access_iterator_tag,int,int,int const *,int const &,std::_Iterator_base_aux>::_Iterator_with_base<std::random_access_iterator_tag,int,int,int const *,int const &,std::_Iterator_base_aux>
PUBLIC	??0?$_Ranit@HHPBHABH@std@@QAE@XZ		; std::_Ranit<int,int,int const *,int const &>::_Ranit<int,int,int const *,int const &>
PUBLIC	??0?$_Vector_const_iterator@HV?$allocator@H@std@@@std@@QAE@PAHPBV_Container_base_aux@1@@Z ; std::_Vector_const_iterator<int,std::allocator<int> >::_Vector_const_iterator<int,std::allocator<int> >
PUBLIC	??0?$_Vector_iterator@HV?$allocator@H@std@@@std@@QAE@PAHPBV_Container_base_aux@1@@Z ; std::_Vector_iterator<int,std::allocator<int> >::_Vector_iterator<int,std::allocator<int> >
PUBLIC	?begin@?$vector@HV?$allocator@H@std@@@std@@QAE?AV?$_Vector_iterator@HV?$allocator@H@std@@@2@XZ ; std::vector<int,std::allocator<int> >::begin
PUBLIC	?deallocate@?$allocator@H@std@@QAEXPAHI@Z	; std::allocator<int>::deallocate
PUBLIC	??$_Allocate@H@std@@YAPAHIPAH@Z			; std::_Allocate<int>
PUBLIC	?allocate@?$allocator@H@std@@QAEPAHI@Z		; std::allocator<int>::allocate
PUBLIC	?capacity@?$vector@HV?$allocator@H@std@@@std@@QBEIXZ ; std::vector<int,std::allocator<int> >::capacity
PUBLIC	?max_size@?$allocator@H@std@@QBEIXZ		; std::allocator<int>::max_size
PUBLIC	?max_size@?$vector@HV?$allocator@H@std@@@std@@QBEIXZ ; std::vector<int,std::allocator<int> >::max_size
PUBLIC	??$_Destroy_range@V?$allocator@H@std@@@std@@YAXPAH0AAV?$allocator@H@0@U_Scalar_ptr_iterator_tag@0@@Z ; std::_Destroy_range<std::allocator<int> >
PUBLIC	??$_Destroy_range@V?$allocator@H@std@@@std@@YAXPAH0AAV?$allocator@H@0@@Z ; std::_Destroy_range<std::allocator<int> >
PUBLIC	?_Destroy@?$vector@HV?$allocator@H@std@@@std@@IAEXPAH0@Z ; std::vector<int,std::allocator<int> >::_Destroy
PUBLIC	?_Xlen@?$vector@HV?$allocator@H@std@@@std@@KAXXZ ; std::vector<int,std::allocator<int> >::_Xlen
PUBLIC	??$_Uninit_copy@PAHPAHV?$allocator@H@std@@@std@@YAPAHPAH00AAV?$allocator@H@0@U_Scalar_ptr_iterator_tag@0@U_Range_checked_iterator_tag@0@@Z ; std::_Uninit_copy<int *,int *,std::allocator<int> >
PUBLIC	??$unchecked_uninitialized_copy@PAHPAHV?$allocator@H@std@@@stdext@@YAPAHPAH00AAV?$allocator@H@std@@@Z ; stdext::unchecked_uninitialized_copy<int *,int *,std::allocator<int> >
PUBLIC	??$_Uninit_move@PAHPAHV?$allocator@H@std@@U_Undefined_move_tag@2@@std@@YAPAHPAH00AAV?$allocator@H@0@U_Undefined_move_tag@0@U_Range_checked_iterator_tag@0@@Z ; std::_Uninit_move<int *,int *,std::allocator<int>,std::_Undefined_move_tag>
PUBLIC	??$_Unchecked_uninitialized_move@PAHPAHV?$allocator@H@std@@@stdext@@YAPAHPAH00AAV?$allocator@H@std@@@Z ; stdext::_Unchecked_uninitialized_move<int *,int *,std::allocator<int> >
PUBLIC	??$_Umove@PAH@?$vector@HV?$allocator@H@std@@@std@@IAEPAHPAH00@Z ; std::vector<int,std::allocator<int> >::_Umove<int *>
PUBLIC	??$_Fill@PAHH@std@@YAXPAH0ABH@Z			; std::_Fill<int *,int>
PUBLIC	??$fill@PAHH@std@@YAXPAH0ABH@Z			; std::fill<int *,int>
PUBLIC	??$_Iter_random@PAHPAH@std@@YA?AUrandom_access_iterator_tag@0@ABQAH0@Z ; std::_Iter_random<int *,int *>
PUBLIC	??$_Move_cat@PAH@std@@YA?AU_Undefined_move_tag@0@ABQAH@Z ; std::_Move_cat<int *>
PUBLIC	??$_Copy_backward_opt@PAHPAHUrandom_access_iterator_tag@std@@@std@@YAPAHPAH00Urandom_access_iterator_tag@0@U_Scalar_ptr_iterator_tag@0@U_Range_checked_iterator_tag@0@@Z ; std::_Copy_backward_opt<int *,int *,std::random_access_iterator_tag>
PUBLIC	??$_Move_backward_opt@PAHPAHUrandom_access_iterator_tag@std@@U_Undefined_move_tag@2@@std@@YAPAHPAH00Urandom_access_iterator_tag@0@U_Undefined_move_tag@0@U_Range_checked_iterator_tag@0@@Z ; std::_Move_backward_opt<int *,int *,std::random_access_iterator_tag,std::_Undefined_move_tag>
PUBLIC	??$_Unchecked_move_backward@PAHPAH@stdext@@YAPAHPAH00@Z ; stdext::_Unchecked_move_backward<int *,int *>
PUBLIC	?_Insert_n@?$vector@HV?$allocator@H@std@@@std@@IAEXV?$_Vector_const_iterator@HV?$allocator@H@std@@@2@IABH@Z ; std::vector<int,std::allocator<int> >::_Insert_n
PUBLIC	??G?$_Vector_const_iterator@HV?$allocator@H@std@@@std@@QBEHABV01@@Z ; std::_Vector_const_iterator<int,std::allocator<int> >::operator-
PUBLIC	??Y?$_Vector_const_iterator@HV?$allocator@H@std@@@std@@QAEAAV01@H@Z ; std::_Vector_const_iterator<int,std::allocator<int> >::operator+=
PUBLIC	??Y?$_Vector_iterator@HV?$allocator@H@std@@@std@@QAEAAV01@H@Z ; std::_Vector_iterator<int,std::allocator<int> >::operator+=
PUBLIC	??H?$_Vector_iterator@HV?$allocator@H@std@@@std@@QBE?AV01@H@Z ; std::_Vector_iterator<int,std::allocator<int> >::operator+
PUBLIC	?insert@?$vector@HV?$allocator@H@std@@@std@@QAE?AV?$_Vector_iterator@HV?$allocator@H@std@@@2@V?$_Vector_const_iterator@HV?$allocator@H@std@@@2@ABH@Z ; std::vector<int,std::allocator<int> >::insert
PUBLIC	??$_Ptr_cat@PAHPAH@std@@YA?AU_Scalar_ptr_iterator_tag@0@AAPAH0@Z ; std::_Ptr_cat<int *,int *>
PUBLIC	??$_Iter_cat@PAH@std@@YA?AUrandom_access_iterator_tag@0@ABQAH@Z ; std::_Iter_cat<int *>
PUBLIC	??$_Checked_base@PAH@std@@YAPAHAAPAHU_Unchanged_checked_iterator_base_type_tag@0@@Z ; std::_Checked_base<int *>
PUBLIC	??$_Checked_base@PAH@std@@YAPAHAAPAH@Z		; std::_Checked_base<int *>
PUBLIC	??$_Fill_n@PAHIH@std@@YAXPAHIABHU_Range_checked_iterator_tag@0@@Z ; std::_Fill_n<int *,unsigned int,int>
PUBLIC	??$_Fill_n@PAHIH@std@@YAXPAHIABHUrandom_access_iterator_tag@0@U_Range_checked_iterator_tag@0@@Z ; std::_Fill_n<int *,unsigned int,int>
PUBLIC	??$unchecked_fill_n@PAHIH@stdext@@YAXPAHIABH@Z	; stdext::unchecked_fill_n<int *,unsigned int,int>
PUBLIC	??$_Uninit_fill_n@PAHIHV?$allocator@H@std@@@std@@YAXPAHIABHAAV?$allocator@H@0@U_Scalar_ptr_iterator_tag@0@U_Range_checked_iterator_tag@0@@Z ; std::_Uninit_fill_n<int *,unsigned int,int,std::allocator<int> >
PUBLIC	??$unchecked_uninitialized_fill_n@PAHIHV?$allocator@H@std@@@stdext@@YAXPAHIABHAAV?$allocator@H@std@@@Z ; stdext::unchecked_uninitialized_fill_n<int *,unsigned int,int,std::allocator<int> >
PUBLIC	?_Ufill@?$vector@HV?$allocator@H@std@@@std@@IAEPAHPAHIABH@Z ; std::vector<int,std::allocator<int> >::_Ufill
PUBLIC	?push_back@?$vector@HV?$allocator@H@std@@@std@@QAEXABH@Z ; std::vector<int,std::allocator<int> >::push_back
PUBLIC	??A?$vector@IV?$allocator@I@std@@@std@@QAEAAII@Z ; std::vector<unsigned int,std::allocator<unsigned int> >::operator[]
PUBLIC	??_7ObjectIdentifier@@6B@			; ObjectIdentifier::`vftable'
;	COMDAT ??_7ObjectIdentifier@@6B@
CONST	SEGMENT
??_7ObjectIdentifier@@6B@ DD FLAT:??_R4ObjectIdentifier@@6B@ ; ObjectIdentifier::`vftable'
	DD	FLAT:?encodeBER@ObjectIdentifier@@UAEXXZ
	DD	FLAT:?Get_BERcode@ASN1@@UAEPBDXZ
	DD	FLAT:?Get_BERsize@ASN1@@UAEIXZ
CONST	ENDS
;	COMDAT ??_R4ObjectIdentifier@@6B@
rdata$r	SEGMENT
??_R4ObjectIdentifier@@6B@ DD 00H			; ObjectIdentifier::`RTTI Complete Object Locator'
	DD	00H
	DD	00H
	DD	FLAT:??_R0?AVObjectIdentifier@@@8
	DD	FLAT:??_R3ObjectIdentifier@@8
rdata$r	ENDS
;	COMDAT ??_R3ObjectIdentifier@@8
rdata$r	SEGMENT
??_R3ObjectIdentifier@@8 DD 00H				; ObjectIdentifier::`RTTI Class Hierarchy Descriptor'
	DD	00H
	DD	02H
	DD	FLAT:??_R2ObjectIdentifier@@8
rdata$r	ENDS
;	COMDAT ??_R2ObjectIdentifier@@8
rdata$r	SEGMENT
??_R2ObjectIdentifier@@8 DD FLAT:??_R1A@?0A@EA@ObjectIdentifier@@8 ; ObjectIdentifier::`RTTI Base Class Array'
	DD	FLAT:??_R1A@?0A@EA@ASN1@@8
rdata$r	ENDS
;	COMDAT ??_R1A@?0A@EA@ObjectIdentifier@@8
rdata$r	SEGMENT
??_R1A@?0A@EA@ObjectIdentifier@@8 DD FLAT:??_R0?AVObjectIdentifier@@@8 ; ObjectIdentifier::`RTTI Base Class Descriptor at (0,-1,0,64)'
	DD	01H
	DD	00H
	DD	0ffffffffH
	DD	00H
	DD	040H
	DD	FLAT:??_R3ObjectIdentifier@@8
rdata$r	ENDS
;	COMDAT ??_R0?AVObjectIdentifier@@@8
_DATA	SEGMENT
??_R0?AVObjectIdentifier@@@8 DD FLAT:??_7type_info@@6B@	; ObjectIdentifier `RTTI Type Descriptor'
	DD	00H
	DB	'.?AVObjectIdentifier@@', 00H
; Function compile flags: /Ogtpy
; File c:\program files\microsoft visual studio 9.0\vc\include\memory
;	COMDAT ??$_Uninit_copy@PAHPAHV?$allocator@H@std@@@std@@YAPAHPAH00AAV?$allocator@H@0@U_Scalar_ptr_iterator_tag@0@U_Range_checked_iterator_tag@0@@Z
_TEXT	SEGMENT
__Dest$ = 8						; size = 4
__Result$ = 12						; size = 4
??$_Uninit_copy@PAHPAHV?$allocator@H@std@@@std@@YAPAHPAH00AAV?$allocator@H@0@U_Scalar_ptr_iterator_tag@0@U_Range_checked_iterator_tag@0@@Z PROC ; std::_Uninit_copy<int *,int *,std::allocator<int> >, COMDAT
; __First$ = ecx
; __Count$ = eax

; 144  : 	_DEBUG_RANGE(_First, _Last);
; 145  : 	_DEBUG_POINTER(_Dest);
; 146  : 	size_t _Count = (size_t)(_Last - _First);
; 147  : 	_FwdIt _Result = _Dest + _Count;
; 148  : 	if (_Count > 0)
; 149  : 		_CRT_SECURE_MEMMOVE(&*_Dest, _Count * sizeof (*_First), &*_First, _Count * sizeof (*_First));	// NB: non-overlapping move

  00000	8b 54 24 04	 mov	 edx, DWORD PTR __Dest$[esp-4]
  00004	03 c0		 add	 eax, eax
  00006	03 c0		 add	 eax, eax
  00008	50		 push	 eax
  00009	51		 push	 ecx
  0000a	50		 push	 eax
  0000b	52		 push	 edx
  0000c	e8 00 00 00 00	 call	 _memmove_s

; 150  : 	return _Result;

  00011	8b 44 24 18	 mov	 eax, DWORD PTR __Result$[esp+12]
  00015	83 c4 10	 add	 esp, 16			; 00000010H

; 151  : 	}

  00018	c3		 ret	 0
??$_Uninit_copy@PAHPAHV?$allocator@H@std@@@std@@YAPAHPAH00AAV?$allocator@H@0@U_Scalar_ptr_iterator_tag@0@U_Range_checked_iterator_tag@0@@Z ENDP ; std::_Uninit_copy<int *,int *,std::allocator<int> >
; Function compile flags: /Ogtpy
; File c:\program files\microsoft visual studio 9.0\vc\include\xutility
_TEXT	ENDS
;	COMDAT ??$_Fill_n@PAHIH@std@@YAXPAHIABHU_Range_checked_iterator_tag@0@@Z
_TEXT	SEGMENT
__First$ = 8						; size = 4
___formal$ = 12						; size = 1
??$_Fill_n@PAHIH@std@@YAXPAHIABHU_Range_checked_iterator_tag@0@@Z PROC ; std::_Fill_n<int *,unsigned int,int>, COMDAT
; __Count$ = eax
; __Val$ = edx

; 3170 : 	{	// copy _Val _Count times through [_First, ...)

  00000	8b 4c 24 04	 mov	 ecx, DWORD PTR __First$[esp-4]

; 3171 : 	for (; 0 < _Count; --_Count, ++_First)

  00004	85 c0		 test	 eax, eax
  00006	76 15		 jbe	 SHORT $LN1@Fill_n@2
  00008	56		 push	 esi
  00009	8d a4 24 00 00
	00 00		 npad	 7
$LL3@Fill_n@2:

; 3172 : 		*_First = _Val;

  00010	8b 32		 mov	 esi, DWORD PTR [edx]
  00012	89 31		 mov	 DWORD PTR [ecx], esi
  00014	48		 dec	 eax
  00015	83 c1 04	 add	 ecx, 4
  00018	85 c0		 test	 eax, eax
  0001a	77 f4		 ja	 SHORT $LL3@Fill_n@2
  0001c	5e		 pop	 esi
$LN1@Fill_n@2:

; 3173 : 	}

  0001d	c3		 ret	 0
??$_Fill_n@PAHIH@std@@YAXPAHIABHU_Range_checked_iterator_tag@0@@Z ENDP ; std::_Fill_n<int *,unsigned int,int>
; Function compile flags: /Ogtpy
_TEXT	ENDS
;	COMDAT ??$_Iter_cat@PAH@std@@YA?AUrandom_access_iterator_tag@0@ABQAH@Z
_TEXT	SEGMENT
??$_Iter_cat@PAH@std@@YA?AUrandom_access_iterator_tag@0@ABQAH@Z PROC ; std::_Iter_cat<int *>, COMDAT
; ___$ReturnUdt$ = eax

; 953  : 	typename iterator_traits<_Iter>::iterator_category _Cat;
; 954  : 	return (_Cat);
; 955  : 	}

  00000	c3		 ret	 0
??$_Iter_cat@PAH@std@@YA?AUrandom_access_iterator_tag@0@ABQAH@Z ENDP ; std::_Iter_cat<int *>
; Function compile flags: /Ogtpy
_TEXT	ENDS
;	COMDAT ??$_Copy_backward_opt@PAHPAHUrandom_access_iterator_tag@std@@@std@@YAPAHPAH00Urandom_access_iterator_tag@0@U_Scalar_ptr_iterator_tag@0@U_Range_checked_iterator_tag@0@@Z
_TEXT	SEGMENT
??$_Copy_backward_opt@PAHPAHUrandom_access_iterator_tag@std@@@std@@YAPAHPAH00Urandom_access_iterator_tag@0@U_Scalar_ptr_iterator_tag@0@U_Range_checked_iterator_tag@0@@Z PROC ; std::_Copy_backward_opt<int *,int *,std::random_access_iterator_tag>, COMDAT
; __First$ = ecx
; __Off$ = eax
; __Result$ = esi

; 2673 : 
; 2674 :  #if _HAS_ITERATOR_DEBUGGING
; 2675 : 	_DEBUG_RANGE(_First, _Last);
; 2676 : 	if (_First != _Last)
; 2677 : 		_DEBUG_POINTER(_Dest);
; 2678 :  #endif /* _HAS_ITERATOR_DEBUGGING */
; 2679 : 
; 2680 : 	ptrdiff_t _Off = _Last - _First;	// NB: non-overlapping move
; 2681 : 	/* if _OutIt is range checked, this will make sure there is enough space for 
; 2682 : 	 * the memmove
; 2683 : 	 */
; 2684 : 	_OutIt _Result = _Dest - _Off;
; 2685 : 	if (_Off > 0)
; 2686 : 		_CRT_SECURE_MEMMOVE(&*_Result, _Off * sizeof (*_First), &*_First, _Off * sizeof (*_First));

  00000	03 c0		 add	 eax, eax
  00002	03 c0		 add	 eax, eax
  00004	50		 push	 eax
  00005	51		 push	 ecx
  00006	50		 push	 eax
  00007	56		 push	 esi
  00008	e8 00 00 00 00	 call	 _memmove_s
  0000d	83 c4 10	 add	 esp, 16			; 00000010H

; 2687 : 	return _Result;

  00010	8b c6		 mov	 eax, esi

; 2688 : 	}

  00012	c3		 ret	 0
??$_Copy_backward_opt@PAHPAHUrandom_access_iterator_tag@std@@@std@@YAPAHPAH00Urandom_access_iterator_tag@0@U_Scalar_ptr_iterator_tag@0@U_Range_checked_iterator_tag@0@@Z ENDP ; std::_Copy_backward_opt<int *,int *,std::random_access_iterator_tag>
; Function compile flags: /Ogtpy
_TEXT	ENDS
;	COMDAT ??$_Checked_base@PAH@std@@YAPAHAAPAHU_Unchanged_checked_iterator_base_type_tag@0@@Z
_TEXT	SEGMENT
___formal$ = 8						; size = 1
??$_Checked_base@PAH@std@@YAPAHAAPAHU_Unchanged_checked_iterator_base_type_tag@0@@Z PROC ; std::_Checked_base<int *>, COMDAT
; __It$ = eax

; 1147 : 		return _It;

  00000	8b 00		 mov	 eax, DWORD PTR [eax]

; 1148 : 	}

  00002	c3		 ret	 0
??$_Checked_base@PAH@std@@YAPAHAAPAHU_Unchanged_checked_iterator_base_type_tag@0@@Z ENDP ; std::_Checked_base<int *>
; Function compile flags: /Ogtpy
_TEXT	ENDS
;	COMDAT ??$_Move_cat@PAH@std@@YA?AU_Undefined_move_tag@0@ABQAH@Z
_TEXT	SEGMENT
__Cat$ = -1						; size = 1
??$_Move_cat@PAH@std@@YA?AU_Undefined_move_tag@0@ABQAH@Z PROC ; std::_Move_cat<int *>, COMDAT

; 1200 : 	{

  00000	51		 push	 ecx

; 1201 : 		typename _Move_operation_category<typename iterator_traits<_Iter>::value_type>::_Move_cat _Cat;
; 1202 : 		return (_Cat);

  00001	8a 44 24 03	 mov	 al, BYTE PTR __Cat$[esp+4]

; 1203 : 	}

  00005	59		 pop	 ecx
  00006	c3		 ret	 0
??$_Move_cat@PAH@std@@YA?AU_Undefined_move_tag@0@ABQAH@Z ENDP ; std::_Move_cat<int *>
; Function compile flags: /Ogtpy
_TEXT	ENDS
;	COMDAT ??$_Iter_random@PAHPAH@std@@YA?AUrandom_access_iterator_tag@0@ABQAH0@Z
_TEXT	SEGMENT
??$_Iter_random@PAHPAH@std@@YA?AUrandom_access_iterator_tag@0@ABQAH0@Z PROC ; std::_Iter_random<int *,int *>, COMDAT
; ___$ReturnUdt$ = eax

; 994  : 	typename _Iter_random_helper<
; 995  : 		iterator_traits<_Iter1>::iterator_category, 
; 996  : 		iterator_traits<_Iter2>::iterator_category>::_Iter_random_cat _Cat;
; 997  : 	return (_Cat);
; 998  : 	}

  00000	c3		 ret	 0
??$_Iter_random@PAHPAH@std@@YA?AUrandom_access_iterator_tag@0@ABQAH0@Z ENDP ; std::_Iter_random<int *,int *>
; Function compile flags: /Ogtpy
_TEXT	ENDS
;	COMDAT ??$_Fill@PAHH@std@@YAXPAH0ABH@Z
_TEXT	SEGMENT
__Val$ = 8						; size = 4
??$_Fill@PAHH@std@@YAXPAH0ABH@Z PROC			; std::_Fill<int *,int>, COMDAT
; __First$ = eax
; __Last$ = edx

; 3131 : 	_DEBUG_RANGE(_First, _Last);
; 3132 : 	for (; _First != _Last; ++_First)

  00000	3b c2		 cmp	 eax, edx
  00002	74 15		 je	 SHORT $LN1@Fill@2
  00004	8b 4c 24 04	 mov	 ecx, DWORD PTR __Val$[esp-4]
  00008	8b 09		 mov	 ecx, DWORD PTR [ecx]
  0000a	8d 9b 00 00 00
	00		 npad	 6
$LL3@Fill@2:

; 3133 : 		*_First = _Val;

  00010	89 08		 mov	 DWORD PTR [eax], ecx
  00012	83 c0 04	 add	 eax, 4
  00015	3b c2		 cmp	 eax, edx
  00017	75 f7		 jne	 SHORT $LL3@Fill@2
$LN1@Fill@2:

; 3134 : 	}

  00019	c3		 ret	 0
??$_Fill@PAHH@std@@YAXPAH0ABH@Z ENDP			; std::_Fill<int *,int>
; Function compile flags: /Ogtpy
_TEXT	ENDS
;	COMDAT ??$_Checked_base@PAH@std@@YAPAHAAPAH@Z
_TEXT	SEGMENT
??$_Checked_base@PAH@std@@YAPAHAAPAH@Z PROC		; std::_Checked_base<int *>, COMDAT
; __It$ = eax

; 1164 : 		typename _Checked_iterator_base_helper<_Iter>::_Checked_iterator_base_type_tag _Base_tag;
; 1165 : 		return _Checked_base(_It, _Base_tag);

  00000	8b 00		 mov	 eax, DWORD PTR [eax]

; 1166 : 	}

  00002	c3		 ret	 0
??$_Checked_base@PAH@std@@YAPAHAAPAH@Z ENDP		; std::_Checked_base<int *>
; Function compile flags: /Ogtpy
; File c:\program files\microsoft visual studio 9.0\vc\include\xmemory
_TEXT	ENDS
;	COMDAT ??$_Destroy_range@V?$allocator@H@std@@@std@@YAXPAH0AAV?$allocator@H@0@U_Scalar_ptr_iterator_tag@0@@Z
_TEXT	SEGMENT
___formal$ = 8						; size = 1
??$_Destroy_range@V?$allocator@H@std@@@std@@YAXPAH0AAV?$allocator@H@0@U_Scalar_ptr_iterator_tag@0@@Z PROC ; std::_Destroy_range<std::allocator<int> >, COMDAT

; 242  : 	}

  00000	c3		 ret	 0
??$_Destroy_range@V?$allocator@H@std@@@std@@YAXPAH0AAV?$allocator@H@0@U_Scalar_ptr_iterator_tag@0@@Z ENDP ; std::_Destroy_range<std::allocator<int> >
; Function compile flags: /Ogtpy
; File c:\program files\microsoft visual studio 9.0\vc\include\xutility
_TEXT	ENDS
;	COMDAT ??$_Ptr_cat@PAHPAH@std@@YA?AU_Scalar_ptr_iterator_tag@0@AAPAH0@Z
_TEXT	SEGMENT
__Cat$ = -1						; size = 1
??$_Ptr_cat@PAHPAH@std@@YA?AU_Scalar_ptr_iterator_tag@0@AAPAH0@Z PROC ; std::_Ptr_cat<int *,int *>, COMDAT

; 1483 : 	{

  00000	51		 push	 ecx

; 1484 : 	typename _Ptr_cat_helper<_T1, _T2>::_Ptr_cat _Cat;
; 1485 : 	return (_Cat);

  00001	8a 44 24 03	 mov	 al, BYTE PTR __Cat$[esp+4]

; 1486 : 	}

  00005	59		 pop	 ecx
  00006	c3		 ret	 0
??$_Ptr_cat@PAHPAH@std@@YA?AU_Scalar_ptr_iterator_tag@0@AAPAH0@Z ENDP ; std::_Ptr_cat<int *,int *>
; Function compile flags: /Ogtpy
; File c:\program files\microsoft visual studio 9.0\vc\include\xmemory
_TEXT	ENDS
;	COMDAT ??$?0H@?$allocator@V_Aux_cont@std@@@std@@QAE@ABV?$allocator@H@1@@Z
_TEXT	SEGMENT
??$?0H@?$allocator@V_Aux_cont@std@@@std@@QAE@ABV?$allocator@H@1@@Z PROC ; std::allocator<std::_Aux_cont>::allocator<std::_Aux_cont><int>, COMDAT
; _this$ = eax

; 129  : 		{	// construct from a related allocator (do nothing)
; 130  : 		}

  00000	c3		 ret	 0
??$?0H@?$allocator@V_Aux_cont@std@@@std@@QAE@ABV?$allocator@H@1@@Z ENDP ; std::allocator<std::_Aux_cont>::allocator<std::_Aux_cont><int>
; Function compile flags: /Ogtpy
; File c:\program files\microsoft visual studio 9.0\vc\include\xutility
_TEXT	ENDS
;	COMDAT ??$fill@PAHH@std@@YAXPAH0ABH@Z
_TEXT	SEGMENT
__Val$ = 8						; size = 4
??$fill@PAHH@std@@YAXPAH0ABH@Z PROC			; std::fill<int *,int>, COMDAT
; __First$ = eax
; __Last$ = ecx

; 3161 : 	_Fill(_CHECKED_BASE(_First), _CHECKED_BASE(_Last), _Val);

  00000	3b c1		 cmp	 eax, ecx
  00002	74 15		 je	 SHORT $LN11@fill@2
  00004	8b 54 24 04	 mov	 edx, DWORD PTR __Val$[esp-4]
  00008	8b 12		 mov	 edx, DWORD PTR [edx]
  0000a	8d 9b 00 00 00
	00		 npad	 6
$LL13@fill@2:
  00010	89 10		 mov	 DWORD PTR [eax], edx
  00012	83 c0 04	 add	 eax, 4
  00015	3b c1		 cmp	 eax, ecx
  00017	75 f7		 jne	 SHORT $LL13@fill@2
$LN11@fill@2:

; 3162 : 	}

  00019	c3		 ret	 0
??$fill@PAHH@std@@YAXPAH0ABH@Z ENDP			; std::fill<int *,int>
; Function compile flags: /Ogtpy
; File c:\program files\microsoft visual studio 9.0\vc\include\xmemory
_TEXT	ENDS
;	COMDAT ??$_Destroy_range@V?$allocator@H@std@@@std@@YAXPAH0AAV?$allocator@H@0@@Z
_TEXT	SEGMENT
??$_Destroy_range@V?$allocator@H@std@@@std@@YAXPAH0AAV?$allocator@H@0@@Z PROC ; std::_Destroy_range<std::allocator<int> >, COMDAT

; 225  : 	_Destroy_range(_First, _Last, _Al, _Ptr_cat(_First, _Last));
; 226  : 	}

  00000	c3		 ret	 0
??$_Destroy_range@V?$allocator@H@std@@@std@@YAXPAH0AAV?$allocator@H@0@@Z ENDP ; std::_Destroy_range<std::allocator<int> >
; Function compile flags: /Ogtpy
_TEXT	ENDS
;	COMDAT ?max_size@?$allocator@H@std@@QBEIXZ
_TEXT	SEGMENT
?max_size@?$allocator@H@std@@QBEIXZ PROC		; std::allocator<int>::max_size, COMDAT

; 165  : 		_SIZT _Count = (_SIZT)(-1) / sizeof (_Ty);
; 166  : 		return (0 < _Count ? _Count : 1);

  00000	b8 ff ff ff 3f	 mov	 eax, 1073741823		; 3fffffffH

; 167  : 		}

  00005	c3		 ret	 0
?max_size@?$allocator@H@std@@QBEIXZ ENDP		; std::allocator<int>::max_size
; Function compile flags: /Ogtpy
_TEXT	ENDS
;	COMDAT ?deallocate@?$allocator@H@std@@QAEXPAHI@Z
_TEXT	SEGMENT
?deallocate@?$allocator@H@std@@QAEXPAHI@Z PROC		; std::allocator<int>::deallocate, COMDAT
; __Ptr$ = eax

; 140  : 		::operator delete(_Ptr);

  00000	50		 push	 eax
  00001	e8 00 00 00 00	 call	 ??3@YAXPAX@Z		; operator delete
  00006	59		 pop	 ecx

; 141  : 		}

  00007	c3		 ret	 0
?deallocate@?$allocator@H@std@@QAEXPAHI@Z ENDP		; std::allocator<int>::deallocate
; Function compile flags: /Ogtpy
_TEXT	ENDS
;	COMDAT ??0?$allocator@H@std@@QAE@ABV01@@Z
_TEXT	SEGMENT
??0?$allocator@H@std@@QAE@ABV01@@Z PROC			; std::allocator<int>::allocator<int>, COMDAT
; _this$ = eax

; 124  : 		{	// construct by copying (do nothing)
; 125  : 		}

  00000	c3		 ret	 0
??0?$allocator@H@std@@QAE@ABV01@@Z ENDP			; std::allocator<int>::allocator<int>
; Function compile flags: /Ogtpy
; File c:\program files\microsoft visual studio 9.0\vc\include\vector
_TEXT	ENDS
;	COMDAT ?_Destroy@?$vector@HV?$allocator@H@std@@@std@@IAEXPAH0@Z
_TEXT	SEGMENT
?_Destroy@?$vector@HV?$allocator@H@std@@@std@@IAEXPAH0@Z PROC ; std::vector<int,std::allocator<int> >::_Destroy, COMDAT

; 1124 : 		_Destroy_range(_First, _Last, this->_Alval);
; 1125 : 		}

  00000	c3		 ret	 0
?_Destroy@?$vector@HV?$allocator@H@std@@@std@@IAEXPAH0@Z ENDP ; std::vector<int,std::allocator<int> >::_Destroy
; Function compile flags: /Ogtpy
_TEXT	ENDS
;	COMDAT ?max_size@?$vector@HV?$allocator@H@std@@@std@@QBEIXZ
_TEXT	SEGMENT
?max_size@?$vector@HV?$allocator@H@std@@@std@@QBEIXZ PROC ; std::vector<int,std::allocator<int> >::max_size, COMDAT

; 731  : 		return (this->_Alval.max_size());

  00000	b8 ff ff ff 3f	 mov	 eax, 1073741823		; 3fffffffH

; 732  : 		}

  00005	c3		 ret	 0
?max_size@?$vector@HV?$allocator@H@std@@@std@@QBEIXZ ENDP ; std::vector<int,std::allocator<int> >::max_size
; Function compile flags: /Ogtpy
; File c:\program files\microsoft visual studio 9.0\vc\include\xmemory
_TEXT	ENDS
;	COMDAT ??0?$allocator@H@std@@QAE@XZ
_TEXT	SEGMENT
??0?$allocator@H@std@@QAE@XZ PROC			; std::allocator<int>::allocator<int>, COMDAT
; _this$ = eax

; 120  : 		{	// construct default allocator (do nothing)
; 121  : 		}

  00000	c3		 ret	 0
??0?$allocator@H@std@@QAE@XZ ENDP			; std::allocator<int>::allocator<int>
; Function compile flags: /Ogtpy
; File c:\program files\microsoft visual studio 9.0\vc\include\vector
_TEXT	ENDS
;	COMDAT ?_Tidy@?$vector@HV?$allocator@H@std@@@std@@IAEXXZ
_TEXT	SEGMENT
?_Tidy@?$vector@HV?$allocator@H@std@@@std@@IAEXXZ PROC	; std::vector<int,std::allocator<int> >::_Tidy, COMDAT
; _this$ = esi

; 1129 : 		if (_Myfirst != 0)

  00000	8b 46 0c	 mov	 eax, DWORD PTR [esi+12]
  00003	85 c0		 test	 eax, eax
  00005	74 09		 je	 SHORT $LN4@Tidy

; 1130 : 			{	// something to free, destroy and deallocate it
; 1131 : 
; 1132 :  #if _HAS_ITERATOR_DEBUGGING
; 1133 : 			this->_Orphan_all();
; 1134 :  #endif /* _HAS_ITERATOR_DEBUGGING */
; 1135 : 
; 1136 : 			_Destroy(_Myfirst, _Mylast);
; 1137 : 			this->_Alval.deallocate(_Myfirst, _Myend - _Myfirst);

  00007	50		 push	 eax
  00008	e8 00 00 00 00	 call	 ??3@YAXPAX@Z		; operator delete
  0000d	83 c4 04	 add	 esp, 4
$LN4@Tidy:

; 1138 : 			}
; 1139 : 		_Myfirst = 0, _Mylast = 0, _Myend = 0;

  00010	c7 46 0c 00 00
	00 00		 mov	 DWORD PTR [esi+12], 0
  00017	c7 46 10 00 00
	00 00		 mov	 DWORD PTR [esi+16], 0
  0001e	c7 46 14 00 00
	00 00		 mov	 DWORD PTR [esi+20], 0

; 1140 : 		}

  00025	c3		 ret	 0
?_Tidy@?$vector@HV?$allocator@H@std@@@std@@IAEXXZ ENDP	; std::vector<int,std::allocator<int> >::_Tidy
; Function compile flags: /Ogtpy
_TEXT	ENDS
;	COMDAT ?capacity@?$vector@HV?$allocator@H@std@@@std@@QBEIXZ
_TEXT	SEGMENT
?capacity@?$vector@HV?$allocator@H@std@@@std@@QBEIXZ PROC ; std::vector<int,std::allocator<int> >::capacity, COMDAT
; _this$ = eax

; 635  : 		return (_Myfirst == 0 ? 0 : _Myend - _Myfirst);

  00000	8b 48 0c	 mov	 ecx, DWORD PTR [eax+12]
  00003	85 c9		 test	 ecx, ecx
  00005	75 03		 jne	 SHORT $LN3@capacity@2
  00007	33 c0		 xor	 eax, eax

; 636  : 		}

  00009	c3		 ret	 0
$LN3@capacity@2:

; 635  : 		return (_Myfirst == 0 ? 0 : _Myend - _Myfirst);

  0000a	8b 40 14	 mov	 eax, DWORD PTR [eax+20]
  0000d	2b c1		 sub	 eax, ecx
  0000f	c1 f8 02	 sar	 eax, 2

; 636  : 		}

  00012	c3		 ret	 0
?capacity@?$vector@HV?$allocator@H@std@@@std@@QBEIXZ ENDP ; std::vector<int,std::allocator<int> >::capacity
; Function compile flags: /Ogtpy
; File c:\program files\microsoft visual studio 9.0\vc\include\memory
;	COMDAT ??$unchecked_uninitialized_copy@PAHPAHV?$allocator@H@std@@@stdext@@YAPAHPAH00AAV?$allocator@H@std@@@Z
_TEXT	SEGMENT
??$unchecked_uninitialized_copy@PAHPAHV?$allocator@H@std@@@stdext@@YAPAHPAH00AAV?$allocator@H@std@@@Z PROC ; stdext::unchecked_uninitialized_copy<int *,int *,std::allocator<int> >, COMDAT
; __First$ = edi
; __Last$ = eax
; __Dest$ = edx

; 810  : 		return (_STD _Uninit_copy(_CHECKED_BASE(_First), _CHECKED_BASE(_Last), _Dest, _Al,
; 811  : 			_STD _Ptr_cat(_First, _Dest), _STD _Range_checked_iterator_tag()));

  00000	2b c7		 sub	 eax, edi
  00002	c1 f8 02	 sar	 eax, 2
  00005	8d 0c 85 00 00
	00 00		 lea	 ecx, DWORD PTR [eax*4]
  0000c	56		 push	 esi
  0000d	8d 34 11	 lea	 esi, DWORD PTR [ecx+edx]
  00010	85 c0		 test	 eax, eax
  00012	76 0c		 jbe	 SHORT $LN16@unchecked_@6
  00014	51		 push	 ecx
  00015	57		 push	 edi
  00016	51		 push	 ecx
  00017	52		 push	 edx
  00018	e8 00 00 00 00	 call	 _memmove_s
  0001d	83 c4 10	 add	 esp, 16			; 00000010H
$LN16@unchecked_@6:
  00020	8b c6		 mov	 eax, esi
  00022	5e		 pop	 esi

; 812  : 	}

  00023	c3		 ret	 0
??$unchecked_uninitialized_copy@PAHPAHV?$allocator@H@std@@@stdext@@YAPAHPAH00AAV?$allocator@H@std@@@Z ENDP ; stdext::unchecked_uninitialized_copy<int *,int *,std::allocator<int> >
; Function compile flags: /Ogtpy
; File c:\program files\microsoft visual studio 9.0\vc\include\xutility
_TEXT	ENDS
;	COMDAT ??$_Fill_n@PAHIH@std@@YAXPAHIABHUrandom_access_iterator_tag@0@U_Range_checked_iterator_tag@0@@Z
_TEXT	SEGMENT
__First$ = 8						; size = 4
___formal$ = 12						; size = 1
___formal$ = 16						; size = 1
??$_Fill_n@PAHIH@std@@YAXPAHIABHUrandom_access_iterator_tag@0@U_Range_checked_iterator_tag@0@@Z PROC ; std::_Fill_n<int *,unsigned int,int>, COMDAT
; __Count$ = eax
; __Val$ = edx

; 3225 : 		// if _OutIt is checked, this will ensure we have enough space
; 3226 : 		_OutIt _Last = _First + _Count; (_Last);
; 3227 : 		_Fill_n(_CHECKED_BASE(_First), _Count, _Val,
; 3228 : 			_Range_checked_iterator_tag());

  00000	8b 4c 24 04	 mov	 ecx, DWORD PTR __First$[esp-4]
  00004	85 c0		 test	 eax, eax
  00006	76 15		 jbe	 SHORT $LN7@Fill_n@6
  00008	56		 push	 esi
  00009	8d a4 24 00 00
	00 00		 npad	 7
$LL9@Fill_n@6:
  00010	8b 32		 mov	 esi, DWORD PTR [edx]
  00012	89 31		 mov	 DWORD PTR [ecx], esi
  00014	48		 dec	 eax
  00015	83 c1 04	 add	 ecx, 4
  00018	85 c0		 test	 eax, eax
  0001a	77 f4		 ja	 SHORT $LL9@Fill_n@6
  0001c	5e		 pop	 esi
$LN7@Fill_n@6:

; 3229 : 	}

  0001d	c3		 ret	 0
??$_Fill_n@PAHIH@std@@YAXPAHIABHUrandom_access_iterator_tag@0@U_Range_checked_iterator_tag@0@@Z ENDP ; std::_Fill_n<int *,unsigned int,int>
; Function compile flags: /Ogtpy
; File c:\program files\microsoft visual studio 9.0\vc\include\memory
_TEXT	ENDS
;	COMDAT ??$_Uninit_move@PAHPAHV?$allocator@H@std@@U_Undefined_move_tag@2@@std@@YAPAHPAH00AAV?$allocator@H@0@U_Undefined_move_tag@0@U_Range_checked_iterator_tag@0@@Z
_TEXT	SEGMENT
___formal$ = 8						; size = 1
___formal$ = 12						; size = 1
??$_Uninit_move@PAHPAHV?$allocator@H@std@@U_Undefined_move_tag@2@@std@@YAPAHPAH00AAV?$allocator@H@0@U_Undefined_move_tag@0@U_Range_checked_iterator_tag@0@@Z PROC ; std::_Uninit_move<int *,int *,std::allocator<int>,std::_Undefined_move_tag>, COMDAT
; __First$ = edi
; __Last$ = eax
; __Dest$ = edx

; 205  : 	return _STDEXT unchecked_uninitialized_copy(_First, _Last, _Dest, _Al);

  00000	2b c7		 sub	 eax, edi
  00002	c1 f8 02	 sar	 eax, 2
  00005	8d 0c 85 00 00
	00 00		 lea	 ecx, DWORD PTR [eax*4]
  0000c	56		 push	 esi
  0000d	8d 34 11	 lea	 esi, DWORD PTR [ecx+edx]
  00010	85 c0		 test	 eax, eax
  00012	76 0c		 jbe	 SHORT $LN18@Uninit_mov@2
  00014	51		 push	 ecx
  00015	57		 push	 edi
  00016	51		 push	 ecx
  00017	52		 push	 edx
  00018	e8 00 00 00 00	 call	 _memmove_s
  0001d	83 c4 10	 add	 esp, 16			; 00000010H
$LN18@Uninit_mov@2:
  00020	8b c6		 mov	 eax, esi
  00022	5e		 pop	 esi

; 206  : 	}

  00023	c3		 ret	 0
??$_Uninit_move@PAHPAHV?$allocator@H@std@@U_Undefined_move_tag@2@@std@@YAPAHPAH00AAV?$allocator@H@0@U_Undefined_move_tag@0@U_Range_checked_iterator_tag@0@@Z ENDP ; std::_Uninit_move<int *,int *,std::allocator<int>,std::_Undefined_move_tag>
; Function compile flags: /Ogtpy
; File c:\program files\microsoft visual studio 9.0\vc\include\xutility
_TEXT	ENDS
;	COMDAT ??$unchecked_fill_n@PAHIH@stdext@@YAXPAHIABH@Z
_TEXT	SEGMENT
__First$ = 8						; size = 4
??$unchecked_fill_n@PAHIH@stdext@@YAXPAHIABH@Z PROC	; stdext::unchecked_fill_n<int *,unsigned int,int>, COMDAT
; __Count$ = eax
; __Val$ = edx

; 3695 : 		_STD _Fill_n(_First, _Count, _Val, _STD _Iter_cat(_First), _STD _Range_checked_iterator_tag());

  00000	8b 4c 24 04	 mov	 ecx, DWORD PTR __First$[esp-4]
  00004	85 c0		 test	 eax, eax
  00006	76 15		 jbe	 SHORT $LN11@unchecked_@7
  00008	56		 push	 esi
  00009	8d a4 24 00 00
	00 00		 npad	 7
$LL13@unchecked_@7:
  00010	8b 32		 mov	 esi, DWORD PTR [edx]
  00012	89 31		 mov	 DWORD PTR [ecx], esi
  00014	48		 dec	 eax
  00015	83 c1 04	 add	 ecx, 4
  00018	85 c0		 test	 eax, eax
  0001a	77 f4		 ja	 SHORT $LL13@unchecked_@7
  0001c	5e		 pop	 esi
$LN11@unchecked_@7:

; 3696 : 	}

  0001d	c3		 ret	 0
??$unchecked_fill_n@PAHIH@stdext@@YAXPAHIABH@Z ENDP	; stdext::unchecked_fill_n<int *,unsigned int,int>
; Function compile flags: /Ogtpy
_TEXT	ENDS
;	COMDAT ??$_Move_backward_opt@PAHPAHUrandom_access_iterator_tag@std@@U_Undefined_move_tag@2@@std@@YAPAHPAH00Urandom_access_iterator_tag@0@U_Undefined_move_tag@0@U_Range_checked_iterator_tag@0@@Z
_TEXT	SEGMENT
__First_dest_cat$ = 8					; size = 1
___formal$ = 12						; size = 1
___formal$ = 16						; size = 1
??$_Move_backward_opt@PAHPAHUrandom_access_iterator_tag@std@@U_Undefined_move_tag@2@@std@@YAPAHPAH00Urandom_access_iterator_tag@0@U_Undefined_move_tag@0@U_Range_checked_iterator_tag@0@@Z PROC ; std::_Move_backward_opt<int *,int *,std::random_access_iterator_tag,std::_Undefined_move_tag>, COMDAT
; __First$ = edi
; __Last$ = eax
; __Dest$ = ecx

; 2727 : 	return _Copy_backward_opt(_First, _Last, _Dest,
; 2728 : 		_First_dest_cat, _Ptr_cat(_First, _Dest), _Range_checked_iterator_tag());

  00000	2b c7		 sub	 eax, edi
  00002	c1 f8 02	 sar	 eax, 2
  00005	8d 14 85 00 00
	00 00		 lea	 edx, DWORD PTR [eax*4]
  0000c	2b ca		 sub	 ecx, edx
  0000e	56		 push	 esi
  0000f	8b f1		 mov	 esi, ecx
  00011	85 c0		 test	 eax, eax
  00013	7e 0c		 jle	 SHORT $LN8@Move_backw@2
  00015	52		 push	 edx
  00016	57		 push	 edi
  00017	52		 push	 edx
  00018	56		 push	 esi
  00019	e8 00 00 00 00	 call	 _memmove_s
  0001e	83 c4 10	 add	 esp, 16			; 00000010H
$LN8@Move_backw@2:
  00021	8b c6		 mov	 eax, esi
  00023	5e		 pop	 esi

; 2729 : 	}

  00024	c3		 ret	 0
??$_Move_backward_opt@PAHPAHUrandom_access_iterator_tag@std@@U_Undefined_move_tag@2@@std@@YAPAHPAH00Urandom_access_iterator_tag@0@U_Undefined_move_tag@0@U_Range_checked_iterator_tag@0@@Z ENDP ; std::_Move_backward_opt<int *,int *,std::random_access_iterator_tag,std::_Undefined_move_tag>
; Function compile flags: /Ogtpy
; File c:\program files\microsoft visual studio 9.0\vc\include\memory
_TEXT	ENDS
;	COMDAT ??$_Unchecked_uninitialized_move@PAHPAHV?$allocator@H@std@@@stdext@@YAPAHPAH00AAV?$allocator@H@std@@@Z
_TEXT	SEGMENT
??$_Unchecked_uninitialized_move@PAHPAHV?$allocator@H@std@@@stdext@@YAPAHPAH00AAV?$allocator@H@std@@@Z PROC ; stdext::_Unchecked_uninitialized_move<int *,int *,std::allocator<int> >, COMDAT
; __First$ = edi
; __Last$ = eax
; __Dest$ = edx

; 850  : 		return (_STD _Uninit_move(_CHECKED_BASE(_First), _CHECKED_BASE(_Last), _Dest, _Al,
; 851  : 			_STD _Move_cat(_Dest), _STD _Range_checked_iterator_tag()));

  00000	2b c7		 sub	 eax, edi
  00002	c1 f8 02	 sar	 eax, 2
  00005	8d 0c 85 00 00
	00 00		 lea	 ecx, DWORD PTR [eax*4]
  0000c	56		 push	 esi
  0000d	8d 34 11	 lea	 esi, DWORD PTR [ecx+edx]
  00010	85 c0		 test	 eax, eax
  00012	76 0c		 jbe	 SHORT $LN30@Unchecked_@3
  00014	51		 push	 ecx
  00015	57		 push	 edi
  00016	51		 push	 ecx
  00017	52		 push	 edx
  00018	e8 00 00 00 00	 call	 _memmove_s
  0001d	83 c4 10	 add	 esp, 16			; 00000010H
$LN30@Unchecked_@3:
  00020	8b c6		 mov	 eax, esi
  00022	5e		 pop	 esi

; 852  : 	}

  00023	c3		 ret	 0
??$_Unchecked_uninitialized_move@PAHPAHV?$allocator@H@std@@@stdext@@YAPAHPAH00AAV?$allocator@H@std@@@Z ENDP ; stdext::_Unchecked_uninitialized_move<int *,int *,std::allocator<int> >
; Function compile flags: /Ogtpy
_TEXT	ENDS
;	COMDAT ??$_Uninit_fill_n@PAHIHV?$allocator@H@std@@@std@@YAXPAHIABHAAV?$allocator@H@0@U_Scalar_ptr_iterator_tag@0@U_Range_checked_iterator_tag@0@@Z
_TEXT	SEGMENT
__First$ = 8						; size = 4
___formal$ = 12						; size = 1
___formal$ = 16						; size = 1
??$_Uninit_fill_n@PAHIHV?$allocator@H@std@@@std@@YAXPAHIABHAAV?$allocator@H@0@U_Scalar_ptr_iterator_tag@0@U_Range_checked_iterator_tag@0@@Z PROC ; std::_Uninit_fill_n<int *,unsigned int,int,std::allocator<int> >, COMDAT
; __Count$ = eax
; __Val$ = edx

; 415  : 		_STDEXT unchecked_fill_n(_First, _Count, _Val);

  00000	8b 4c 24 04	 mov	 ecx, DWORD PTR __First$[esp-4]
  00004	85 c0		 test	 eax, eax
  00006	76 15		 jbe	 SHORT $LN13@Uninit_fil@2
  00008	56		 push	 esi
  00009	8d a4 24 00 00
	00 00		 npad	 7
$LL15@Uninit_fil@2:
  00010	8b 32		 mov	 esi, DWORD PTR [edx]
  00012	89 31		 mov	 DWORD PTR [ecx], esi
  00014	48		 dec	 eax
  00015	83 c1 04	 add	 ecx, 4
  00018	85 c0		 test	 eax, eax
  0001a	77 f4		 ja	 SHORT $LL15@Uninit_fil@2
  0001c	5e		 pop	 esi
$LN13@Uninit_fil@2:

; 416  : 	}

  0001d	c3		 ret	 0
??$_Uninit_fill_n@PAHIHV?$allocator@H@std@@@std@@YAXPAHIABHAAV?$allocator@H@0@U_Scalar_ptr_iterator_tag@0@U_Range_checked_iterator_tag@0@@Z ENDP ; std::_Uninit_fill_n<int *,unsigned int,int,std::allocator<int> >
; Function compile flags: /Ogtpy
; File c:\program files\microsoft visual studio 9.0\vc\include\xmemory
_TEXT	ENDS
;	COMDAT ??$_Allocate@H@std@@YAPAHIPAH@Z
_TEXT	SEGMENT
$T52728 = -16						; size = 4
$T52720 = -12						; size = 12
??$_Allocate@H@std@@YAPAHIPAH@Z PROC			; std::_Allocate<int>, COMDAT
; __Count$ = ecx

; 37   : 	if (_Count <= 0)
; 38   : 		_Count = 0;
; 39   : 	else if (((_SIZT)(-1) / _Count) < sizeof (_Ty))

  00000	83 c8 ff	 or	 eax, -1
  00003	33 d2		 xor	 edx, edx
  00005	f7 f1		 div	 ecx
  00007	83 ec 10	 sub	 esp, 16			; 00000010H
  0000a	83 f8 04	 cmp	 eax, 4
  0000d	73 2c		 jae	 SHORT $LN1@Allocate@2

; 40   : 		_THROW_NCEE(std::bad_alloc, NULL);

  0000f	8d 04 24	 lea	 eax, DWORD PTR $T52728[esp+16]
  00012	50		 push	 eax
  00013	8d 4c 24 08	 lea	 ecx, DWORD PTR $T52720[esp+20]
  00017	c7 44 24 04 00
	00 00 00	 mov	 DWORD PTR $T52728[esp+20], 0
  0001f	e8 00 00 00 00	 call	 ??0exception@std@@QAE@ABQBD@Z ; std::exception::exception
  00024	68 00 00 00 00	 push	 OFFSET __TI2?AVbad_alloc@std@@
  00029	8d 4c 24 08	 lea	 ecx, DWORD PTR $T52720[esp+20]
  0002d	51		 push	 ecx
  0002e	c7 44 24 0c 00
	00 00 00	 mov	 DWORD PTR $T52720[esp+24], OFFSET ??_7bad_alloc@std@@6B@
  00036	e8 00 00 00 00	 call	 __CxxThrowException@8
$LN13@Allocate@2:
$LN1@Allocate@2:

; 41   : 
; 42   : 		// allocate storage for _Count elements of type _Ty
; 43   : 	return ((_Ty _FARQ *)::operator new(_Count * sizeof (_Ty)));

  0003b	8d 14 8d 00 00
	00 00		 lea	 edx, DWORD PTR [ecx*4]
  00042	52		 push	 edx
  00043	e8 00 00 00 00	 call	 ??2@YAPAXI@Z		; operator new
  00048	83 c4 04	 add	 esp, 4

; 44   : 	}

  0004b	83 c4 10	 add	 esp, 16			; 00000010H
  0004e	c3		 ret	 0
$LN12@Allocate@2:
??$_Allocate@H@std@@YAPAHIPAH@Z ENDP			; std::_Allocate<int>
; Function compile flags: /Ogtpy
; File c:\program files\microsoft visual studio 9.0\vc\include\xutility
_TEXT	ENDS
;	COMDAT ??$_Unchecked_move_backward@PAHPAH@stdext@@YAPAHPAH00@Z
_TEXT	SEGMENT
??$_Unchecked_move_backward@PAHPAH@stdext@@YAPAHPAH00@Z PROC ; stdext::_Unchecked_move_backward<int *,int *>, COMDAT
; __First$ = edi
; __Last$ = eax
; __Dest$ = ecx

; 3669 : 		return (_STD _Move_backward_opt(_CHECKED_BASE(_First), _CHECKED_BASE(_Last), _Dest,
; 3670 : 			_STD _Iter_random(_First, _Dest), _STD _Move_cat(_Dest), _STD _Range_checked_iterator_tag()));

  00000	2b c7		 sub	 eax, edi
  00002	c1 f8 02	 sar	 eax, 2
  00005	8d 14 85 00 00
	00 00		 lea	 edx, DWORD PTR [eax*4]
  0000c	2b ca		 sub	 ecx, edx
  0000e	56		 push	 esi
  0000f	8b f1		 mov	 esi, ecx
  00011	85 c0		 test	 eax, eax
  00013	7e 0c		 jle	 SHORT $LN22@Unchecked_@4
  00015	52		 push	 edx
  00016	57		 push	 edi
  00017	52		 push	 edx
  00018	56		 push	 esi
  00019	e8 00 00 00 00	 call	 _memmove_s
  0001e	83 c4 10	 add	 esp, 16			; 00000010H
$LN22@Unchecked_@4:
  00021	8b c6		 mov	 eax, esi
  00023	5e		 pop	 esi

; 3671 : 	}

  00024	c3		 ret	 0
??$_Unchecked_move_backward@PAHPAH@stdext@@YAPAHPAH00@Z ENDP ; stdext::_Unchecked_move_backward<int *,int *>
; Function compile flags: /Ogtpy
; File c:\program files\microsoft visual studio 9.0\vc\include\vector
_TEXT	ENDS
;	COMDAT ??$_Umove@PAH@?$vector@HV?$allocator@H@std@@@std@@IAEPAHPAH00@Z
_TEXT	SEGMENT
??$_Umove@PAH@?$vector@HV?$allocator@H@std@@@std@@IAEPAHPAH00@Z PROC ; std::vector<int,std::allocator<int> >::_Umove<int *>, COMDAT
; __First$ = edi
; __Last$ = eax
; __Ptr$ = edx

; 1151 : 		{	// move initializing [_First, _Last), using allocator
; 1152 : 		return (_STDEXT _Unchecked_uninitialized_move(_First, _Last,
; 1153 : 			_Ptr, this->_Alval));

  00000	2b c7		 sub	 eax, edi
  00002	c1 f8 02	 sar	 eax, 2
  00005	8d 0c 85 00 00
	00 00		 lea	 ecx, DWORD PTR [eax*4]
  0000c	56		 push	 esi
  0000d	8d 34 11	 lea	 esi, DWORD PTR [ecx+edx]
  00010	85 c0		 test	 eax, eax
  00012	76 0c		 jbe	 SHORT $LN32@Umove@2
  00014	51		 push	 ecx
  00015	57		 push	 edi
  00016	51		 push	 ecx
  00017	52		 push	 edx
  00018	e8 00 00 00 00	 call	 _memmove_s
  0001d	83 c4 10	 add	 esp, 16			; 00000010H
$LN32@Umove@2:
  00020	8b c6		 mov	 eax, esi
  00022	5e		 pop	 esi

; 1154 : 		}

  00023	c3		 ret	 0
??$_Umove@PAH@?$vector@HV?$allocator@H@std@@@std@@IAEPAHPAH00@Z ENDP ; std::vector<int,std::allocator<int> >::_Umove<int *>
; Function compile flags: /Ogtpy
; File c:\program files\microsoft visual studio 9.0\vc\include\memory
_TEXT	ENDS
;	COMDAT ??$unchecked_uninitialized_fill_n@PAHIHV?$allocator@H@std@@@stdext@@YAXPAHIABHAAV?$allocator@H@std@@@Z
_TEXT	SEGMENT
__First$ = 8						; size = 4
??$unchecked_uninitialized_fill_n@PAHIHV?$allocator@H@std@@@stdext@@YAXPAHIABHAAV?$allocator@H@std@@@Z PROC ; stdext::unchecked_uninitialized_fill_n<int *,unsigned int,int,std::allocator<int> >, COMDAT
; __Count$ = eax
; __Val$ = edx

; 921  : 		_STD _Uninit_fill_n(_First, _Count, _Val, _Al,
; 922  : 			_STD _Ptr_cat(_First, _First), _STD _Range_checked_iterator_tag());

  00000	8b 4c 24 04	 mov	 ecx, DWORD PTR __First$[esp-4]
  00004	85 c0		 test	 eax, eax
  00006	76 15		 jbe	 SHORT $LN17@unchecked_@8
  00008	56		 push	 esi
  00009	8d a4 24 00 00
	00 00		 npad	 7
$LL19@unchecked_@8:
  00010	8b 32		 mov	 esi, DWORD PTR [edx]
  00012	89 31		 mov	 DWORD PTR [ecx], esi
  00014	48		 dec	 eax
  00015	83 c1 04	 add	 ecx, 4
  00018	85 c0		 test	 eax, eax
  0001a	77 f4		 ja	 SHORT $LL19@unchecked_@8
  0001c	5e		 pop	 esi
$LN17@unchecked_@8:

; 923  : 	}

  0001d	c3		 ret	 0
??$unchecked_uninitialized_fill_n@PAHIHV?$allocator@H@std@@@stdext@@YAXPAHIABHAAV?$allocator@H@std@@@Z ENDP ; stdext::unchecked_uninitialized_fill_n<int *,unsigned int,int,std::allocator<int> >
; Function compile flags: /Ogtpy
_TEXT	ENDS
;	COMDAT ??0?$_Iterator_with_base@Urandom_access_iterator_tag@std@@HHPBHABHV_Iterator_base_aux@2@@std@@QAE@XZ
_TEXT	SEGMENT
??0?$_Iterator_with_base@Urandom_access_iterator_tag@std@@HHPBHABHV_Iterator_base_aux@2@@std@@QAE@XZ PROC ; std::_Iterator_with_base<std::random_access_iterator_tag,int,int,int const *,int const &,std::_Iterator_base_aux>::_Iterator_with_base<std::random_access_iterator_tag,int,int,int const *,int const &,std::_Iterator_base_aux>, COMDAT
; _this$ = eax
  00000	c7 00 00 00 00
	00		 mov	 DWORD PTR [eax], 0
  00006	c3		 ret	 0
??0?$_Iterator_with_base@Urandom_access_iterator_tag@std@@HHPBHABHV_Iterator_base_aux@2@@std@@QAE@XZ ENDP ; std::_Iterator_with_base<std::random_access_iterator_tag,int,int,int const *,int const &,std::_Iterator_base_aux>::_Iterator_with_base<std::random_access_iterator_tag,int,int,int const *,int const &,std::_Iterator_base_aux>
; Function compile flags: /Ogtpy
_TEXT	ENDS
;	COMDAT ??0?$_Ranit@HHPBHABH@std@@QAE@XZ
_TEXT	SEGMENT
??0?$_Ranit@HHPBHABH@std@@QAE@XZ PROC			; std::_Ranit<int,int,int const *,int const &>::_Ranit<int,int,int const *,int const &>, COMDAT
; _this$ = eax
  00000	c7 00 00 00 00
	00		 mov	 DWORD PTR [eax], 0
  00006	c3		 ret	 0
??0?$_Ranit@HHPBHABH@std@@QAE@XZ ENDP			; std::_Ranit<int,int,int const *,int const &>::_Ranit<int,int,int const *,int const &>
; Function compile flags: /Ogtpy
; File c:\program files\microsoft visual studio 9.0\vc\include\vector
_TEXT	ENDS
;	COMDAT ??0?$_Vector_const_iterator@HV?$allocator@H@std@@@std@@QAE@PAHPBV_Container_base_aux@1@@Z
_TEXT	SEGMENT
__Ptr$ = 8						; size = 4
??0?$_Vector_const_iterator@HV?$allocator@H@std@@@std@@QAE@PAHPBV_Container_base_aux@1@@Z PROC ; std::_Vector_const_iterator<int,std::allocator<int> >::_Vector_const_iterator<int,std::allocator<int> >, COMDAT
; _this$ = edi
; __Pvector$ = esi

; 76   : 	_Vector_const_iterator(_Tptr _Ptr, const _Container_base *_Pvector)

  00000	53		 push	 ebx
  00001	8b 5c 24 08	 mov	 ebx, DWORD PTR __Ptr$[esp]
  00005	c7 07 00 00 00
	00		 mov	 DWORD PTR [edi], 0

; 77   : 		{	// construct with pointer _Ptr
; 78   : 		_SCL_SECURE_VALIDATE(_Pvector != NULL && ((_Myvec *)_Pvector)->_Myfirst <= _Ptr && _Ptr <= ((_Myvec *)_Pvector)->_Mylast);

  0000b	85 f6		 test	 esi, esi
  0000d	74 0a		 je	 SHORT $LN1@Vector_con@3
  0000f	39 5e 0c	 cmp	 DWORD PTR [esi+12], ebx
  00012	77 05		 ja	 SHORT $LN1@Vector_con@3
  00014	3b 5e 10	 cmp	 ebx, DWORD PTR [esi+16]
  00017	76 05		 jbe	 SHORT $LN2@Vector_con@3
$LN1@Vector_con@3:
  00019	e8 00 00 00 00	 call	 __invalid_parameter_noinfo
$LN2@Vector_con@3:

; 79   : 		this->_Set_container(_Pvector);

  0001e	8b 06		 mov	 eax, DWORD PTR [esi]
  00020	89 07		 mov	 DWORD PTR [edi], eax

; 80   : 		_Myptr = _Ptr;

  00022	89 5f 04	 mov	 DWORD PTR [edi+4], ebx

; 81   : 		}

  00025	8b c7		 mov	 eax, edi
  00027	5b		 pop	 ebx
  00028	c2 04 00	 ret	 4
??0?$_Vector_const_iterator@HV?$allocator@H@std@@@std@@QAE@PAHPBV_Container_base_aux@1@@Z ENDP ; std::_Vector_const_iterator<int,std::allocator<int> >::_Vector_const_iterator<int,std::allocator<int> >
; Function compile flags: /Ogtpy
_TEXT	ENDS
;	COMDAT ??G?$_Vector_const_iterator@HV?$allocator@H@std@@@std@@QBEHABV01@@Z
_TEXT	SEGMENT
??G?$_Vector_const_iterator@HV?$allocator@H@std@@@std@@QBEHABV01@@Z PROC ; std::_Vector_const_iterator<int,std::allocator<int> >::operator-, COMDAT
; _this$ = edi
; __Right$ = esi

; 187  : 
; 188  :  #if _HAS_ITERATOR_DEBUGGING
; 189  : 		_Compat(_Right);
; 190  :  #else
; 191  : 		_SCL_SECURE_VALIDATE(this->_Has_container() && this->_Same_container(_Right));

  00000	8b 07		 mov	 eax, DWORD PTR [edi]
  00002	85 c0		 test	 eax, eax
  00004	74 04		 je	 SHORT $LN1@operator@7
  00006	3b 06		 cmp	 eax, DWORD PTR [esi]
  00008	74 05		 je	 SHORT $LN2@operator@7
$LN1@operator@7:
  0000a	e8 00 00 00 00	 call	 __invalid_parameter_noinfo
$LN2@operator@7:

; 192  :  #endif /* _HAS_ITERATOR_DEBUGGING */
; 193  : 
; 194  : 		return (_Myptr - _Right._Myptr);

  0000f	8b 47 04	 mov	 eax, DWORD PTR [edi+4]
  00012	2b 46 04	 sub	 eax, DWORD PTR [esi+4]
  00015	c1 f8 02	 sar	 eax, 2

; 195  : 		}

  00018	c3		 ret	 0
??G?$_Vector_const_iterator@HV?$allocator@H@std@@@std@@QBEHABV01@@Z ENDP ; std::_Vector_const_iterator<int,std::allocator<int> >::operator-
; Function compile flags: /Ogtpy
_TEXT	ENDS
;	COMDAT ??0?$_Vector_iterator@HV?$allocator@H@std@@@std@@QAE@PAHPBV_Container_base_aux@1@@Z
_TEXT	SEGMENT
__Ptr$ = 8						; size = 4
??0?$_Vector_iterator@HV?$allocator@H@std@@@std@@QAE@PAHPBV_Container_base_aux@1@@Z PROC ; std::_Vector_iterator<int,std::allocator<int> >::_Vector_iterator<int,std::allocator<int> >, COMDAT
; _this$ = edi
; __Pvector$ = esi

; 327  : 		{	// construct with pointer _Ptr

  00000	53		 push	 ebx
  00001	8b 5c 24 08	 mov	 ebx, DWORD PTR __Ptr$[esp]
  00005	c7 07 00 00 00
	00		 mov	 DWORD PTR [edi], 0
  0000b	85 f6		 test	 esi, esi
  0000d	74 0a		 je	 SHORT $LN3@Vector_ite@3
  0000f	39 5e 0c	 cmp	 DWORD PTR [esi+12], ebx
  00012	77 05		 ja	 SHORT $LN3@Vector_ite@3
  00014	3b 5e 10	 cmp	 ebx, DWORD PTR [esi+16]
  00017	76 05		 jbe	 SHORT $LN4@Vector_ite@3
$LN3@Vector_ite@3:
  00019	e8 00 00 00 00	 call	 __invalid_parameter_noinfo
$LN4@Vector_ite@3:
  0001e	8b 06		 mov	 eax, DWORD PTR [esi]
  00020	89 07		 mov	 DWORD PTR [edi], eax
  00022	89 5f 04	 mov	 DWORD PTR [edi+4], ebx

; 328  : 		}

  00025	8b c7		 mov	 eax, edi
  00027	5b		 pop	 ebx
  00028	c2 04 00	 ret	 4
??0?$_Vector_iterator@HV?$allocator@H@std@@@std@@QAE@PAHPBV_Container_base_aux@1@@Z ENDP ; std::_Vector_iterator<int,std::allocator<int> >::_Vector_iterator<int,std::allocator<int> >
; Function compile flags: /Ogtpy
; File c:\program files\microsoft visual studio 9.0\vc\include\xmemory
_TEXT	ENDS
;	COMDAT ?allocate@?$allocator@H@std@@QAEPAHI@Z
_TEXT	SEGMENT
$T53152 = -16						; size = 4
$T53158 = -12						; size = 12
?allocate@?$allocator@H@std@@QAEPAHI@Z PROC		; std::allocator<int>::allocate, COMDAT
; __Count$ = ecx

; 144  : 		{	// allocate array of _Count elements

  00000	83 ec 10	 sub	 esp, 16			; 00000010H

; 145  : 		return (_Allocate(_Count, (pointer)0));

  00003	85 c9		 test	 ecx, ecx
  00005	77 16		 ja	 SHORT $LN5@allocate@2
  00007	33 c9		 xor	 ecx, ecx
$LN3@allocate@2:
  00009	8d 14 8d 00 00
	00 00		 lea	 edx, DWORD PTR [ecx*4]
  00010	52		 push	 edx
  00011	e8 00 00 00 00	 call	 ??2@YAPAXI@Z		; operator new
  00016	83 c4 04	 add	 esp, 4

; 146  : 		}

  00019	83 c4 10	 add	 esp, 16			; 00000010H
  0001c	c3		 ret	 0

; 145  : 		return (_Allocate(_Count, (pointer)0));

$LN5@allocate@2:
  0001d	83 c8 ff	 or	 eax, -1
  00020	33 d2		 xor	 edx, edx
  00022	f7 f1		 div	 ecx
  00024	83 f8 04	 cmp	 eax, 4
  00027	73 e0		 jae	 SHORT $LN3@allocate@2
  00029	8d 04 24	 lea	 eax, DWORD PTR $T53152[esp+16]
  0002c	50		 push	 eax
  0002d	8d 4c 24 08	 lea	 ecx, DWORD PTR $T53158[esp+20]
  00031	c7 44 24 04 00
	00 00 00	 mov	 DWORD PTR $T53152[esp+20], 0
  00039	e8 00 00 00 00	 call	 ??0exception@std@@QAE@ABQBD@Z ; std::exception::exception
  0003e	68 00 00 00 00	 push	 OFFSET __TI2?AVbad_alloc@std@@
  00043	8d 4c 24 08	 lea	 ecx, DWORD PTR $T53158[esp+20]
  00047	51		 push	 ecx
  00048	c7 44 24 0c 00
	00 00 00	 mov	 DWORD PTR $T53158[esp+24], OFFSET ??_7bad_alloc@std@@6B@
  00050	e8 00 00 00 00	 call	 __CxxThrowException@8
$LN12@allocate@2:
$LN11@allocate@2:
  00055	cc		 int	 3
?allocate@?$allocator@H@std@@QAEPAHI@Z ENDP		; std::allocator<int>::allocate
; Function compile flags: /Ogtpy
; File c:\program files\microsoft visual studio 9.0\vc\include\vector
_TEXT	ENDS
;	COMDAT ?begin@?$vector@HV?$allocator@H@std@@@std@@QAE?AV?$_Vector_iterator@HV?$allocator@H@std@@@2@XZ
_TEXT	SEGMENT
?begin@?$vector@HV?$allocator@H@std@@@std@@QAE?AV?$_Vector_iterator@HV?$allocator@H@std@@@2@XZ PROC ; std::vector<int,std::allocator<int> >::begin, COMDAT
; _this$ = edi
; ___$ReturnUdt$ = esi

; 640  : 		{	// return iterator for beginning of mutable sequence

  00000	53		 push	 ebx

; 641  : 		return (iterator(_Myfirst, this));

  00001	8b 5f 0c	 mov	 ebx, DWORD PTR [edi+12]
  00004	c7 06 00 00 00
	00		 mov	 DWORD PTR [esi], 0
  0000a	3b 5f 10	 cmp	 ebx, DWORD PTR [edi+16]
  0000d	76 05		 jbe	 SHORT $LN6@begin@3
  0000f	e8 00 00 00 00	 call	 __invalid_parameter_noinfo
$LN6@begin@3:
  00014	8b 07		 mov	 eax, DWORD PTR [edi]
  00016	89 06		 mov	 DWORD PTR [esi], eax
  00018	89 5e 04	 mov	 DWORD PTR [esi+4], ebx
  0001b	8b c6		 mov	 eax, esi
  0001d	5b		 pop	 ebx

; 642  : 		}

  0001e	c3		 ret	 0
?begin@?$vector@HV?$allocator@H@std@@@std@@QAE?AV?$_Vector_iterator@HV?$allocator@H@std@@@2@XZ ENDP ; std::vector<int,std::allocator<int> >::begin
; Function compile flags: /Ogtpy
; File c:\program files\microsoft visual studio 9.0\vc\include\xutility
_TEXT	ENDS
;	COMDAT ??1?$_Container_base_aux_alloc_real@V?$allocator@H@std@@@std@@IAE@XZ
_TEXT	SEGMENT
??1?$_Container_base_aux_alloc_real@V?$allocator@H@std@@@std@@IAE@XZ PROC ; std::_Container_base_aux_alloc_real<std::allocator<int> >::~_Container_base_aux_alloc_real<std::allocator<int> >, COMDAT
; _this$ = eax

; 437  : 		_Myownedaux->~_Aux_cont();
; 438  : 
; 439  : 		_Alaux.deallocate(_Myownedaux, 1);

  00000	8b 08		 mov	 ecx, DWORD PTR [eax]
  00002	51		 push	 ecx
  00003	e8 00 00 00 00	 call	 ??3@YAXPAX@Z		; operator delete
  00008	59		 pop	 ecx

; 440  : 		}

  00009	c3		 ret	 0
??1?$_Container_base_aux_alloc_real@V?$allocator@H@std@@@std@@IAE@XZ ENDP ; std::_Container_base_aux_alloc_real<std::allocator<int> >::~_Container_base_aux_alloc_real<std::allocator<int> >
; Function compile flags: /Ogtpy
; File c:\program files\microsoft visual studio 9.0\vc\include\vector
_TEXT	ENDS
;	COMDAT ?_Ufill@?$vector@HV?$allocator@H@std@@@std@@IAEPAHPAHIABH@Z
_TEXT	SEGMENT
?_Ufill@?$vector@HV?$allocator@H@std@@@std@@IAEPAHPAHIABH@Z PROC ; std::vector<int,std::allocator<int> >::_Ufill, COMDAT
; __Ptr$ = edi
; __Count$ = esi
; __Val$ = edx

; 1252 : 		_STDEXT unchecked_uninitialized_fill_n(_Ptr, _Count, _Val, this->_Alval);

  00000	8b c6		 mov	 eax, esi
  00002	8b cf		 mov	 ecx, edi
  00004	85 f6		 test	 esi, esi
  00006	76 15		 jbe	 SHORT $LN26@Ufill@2
  00008	53		 push	 ebx
  00009	8d a4 24 00 00
	00 00		 npad	 7
$LL21@Ufill@2:
  00010	8b 1a		 mov	 ebx, DWORD PTR [edx]
  00012	89 19		 mov	 DWORD PTR [ecx], ebx
  00014	48		 dec	 eax
  00015	83 c1 04	 add	 ecx, 4
  00018	85 c0		 test	 eax, eax
  0001a	77 f4		 ja	 SHORT $LL21@Ufill@2
  0001c	5b		 pop	 ebx
$LN26@Ufill@2:

; 1253 : 		return (_Ptr + _Count);

  0001d	8d 04 b7	 lea	 eax, DWORD PTR [edi+esi*4]

; 1254 : 		}

  00020	c3		 ret	 0
?_Ufill@?$vector@HV?$allocator@H@std@@@std@@IAEPAHPAHIABH@Z ENDP ; std::vector<int,std::allocator<int> >::_Ufill
; Function compile flags: /Ogtpy
_TEXT	ENDS
;	COMDAT ?end@?$vector@HV?$allocator@H@std@@@std@@QAE?AV?$_Vector_iterator@HV?$allocator@H@std@@@2@XZ
_TEXT	SEGMENT
?end@?$vector@HV?$allocator@H@std@@@std@@QAE?AV?$_Vector_iterator@HV?$allocator@H@std@@@2@XZ PROC ; std::vector<int,std::allocator<int> >::end, COMDAT
; _this$ = edi
; ___$ReturnUdt$ = esi

; 650  : 		{	// return iterator for end of mutable sequence

  00000	53		 push	 ebx

; 651  : 		return (iterator(_Mylast, this));

  00001	8b 5f 10	 mov	 ebx, DWORD PTR [edi+16]
  00004	c7 06 00 00 00
	00		 mov	 DWORD PTR [esi], 0
  0000a	39 5f 0c	 cmp	 DWORD PTR [edi+12], ebx
  0000d	76 05		 jbe	 SHORT $LN6@end@3
  0000f	e8 00 00 00 00	 call	 __invalid_parameter_noinfo
$LN6@end@3:
  00014	8b 07		 mov	 eax, DWORD PTR [edi]
  00016	89 06		 mov	 DWORD PTR [esi], eax
  00018	89 5e 04	 mov	 DWORD PTR [esi+4], ebx
  0001b	8b c6		 mov	 eax, esi
  0001d	5b		 pop	 ebx

; 652  : 		}

  0001e	c3		 ret	 0
?end@?$vector@HV?$allocator@H@std@@@std@@QAE?AV?$_Vector_iterator@HV?$allocator@H@std@@@2@XZ ENDP ; std::vector<int,std::allocator<int> >::end
; Function compile flags: /Ogtpy
_TEXT	ENDS
;	COMDAT ??1?$_Vector_val@HV?$allocator@H@std@@@std@@QAE@XZ
_TEXT	SEGMENT
??1?$_Vector_val@HV?$allocator@H@std@@@std@@QAE@XZ PROC	; std::_Vector_val<int,std::allocator<int> >::~_Vector_val<int,std::allocator<int> >, COMDAT
; _this$ = eax
  00000	8b 08		 mov	 ecx, DWORD PTR [eax]
  00002	51		 push	 ecx
  00003	e8 00 00 00 00	 call	 ??3@YAXPAX@Z		; operator delete
  00008	59		 pop	 ecx
  00009	c3		 ret	 0
??1?$_Vector_val@HV?$allocator@H@std@@@std@@QAE@XZ ENDP	; std::_Vector_val<int,std::allocator<int> >::~_Vector_val<int,std::allocator<int> >
; Function compile flags: /Ogtpy
_TEXT	ENDS
;	COMDAT ??A?$vector@IV?$allocator@I@std@@@std@@QAEAAII@Z
_TEXT	SEGMENT
??A?$vector@IV?$allocator@I@std@@@std@@QAEAAII@Z PROC	; std::vector<unsigned int,std::allocator<unsigned int> >::operator[], COMDAT
; _this$ = esi
; __Pos$ = edi

; 775  : 
; 776  :  #if _HAS_ITERATOR_DEBUGGING
; 777  : 		if (size() <= _Pos)
; 778  : 			{
; 779  : 			_DEBUG_ERROR("vector subscript out of range");
; 780  : 			_SCL_SECURE_OUT_OF_RANGE;
; 781  : 			}
; 782  :  #endif /* _HAS_ITERATOR_DEBUGGING */
; 783  : 		_SCL_SECURE_VALIDATE_RANGE(_Pos < size());

  00000	8b 46 10	 mov	 eax, DWORD PTR [esi+16]
  00003	2b 46 0c	 sub	 eax, DWORD PTR [esi+12]
  00006	c1 f8 02	 sar	 eax, 2
  00009	3b f8		 cmp	 edi, eax
  0000b	72 05		 jb	 SHORT $LN1@operator@8
  0000d	e8 00 00 00 00	 call	 __invalid_parameter_noinfo
$LN1@operator@8:

; 784  : 
; 785  : 		return (*(_Myfirst + _Pos));

  00012	8b 4e 0c	 mov	 ecx, DWORD PTR [esi+12]
  00015	8d 04 b9	 lea	 eax, DWORD PTR [ecx+edi*4]

; 786  : 		}

  00018	c3		 ret	 0
??A?$vector@IV?$allocator@I@std@@@std@@QAEAAII@Z ENDP	; std::vector<unsigned int,std::allocator<unsigned int> >::operator[]
; Function compile flags: /Ogtpy
_TEXT	ENDS
;	COMDAT ??1?$vector@HV?$allocator@H@std@@@std@@QAE@XZ
_TEXT	SEGMENT
??1?$vector@HV?$allocator@H@std@@@std@@QAE@XZ PROC	; std::vector<int,std::allocator<int> >::~vector<int,std::allocator<int> >, COMDAT
; _this$ = esi

; 559  : 		_Tidy();

  00000	8b 46 0c	 mov	 eax, DWORD PTR [esi+12]
  00003	85 c0		 test	 eax, eax
  00005	74 09		 je	 SHORT $LN6@vector@3
  00007	50		 push	 eax
  00008	e8 00 00 00 00	 call	 ??3@YAXPAX@Z		; operator delete
  0000d	83 c4 04	 add	 esp, 4
$LN6@vector@3:

; 560  : 		}

  00010	8b 06		 mov	 eax, DWORD PTR [esi]
  00012	50		 push	 eax
  00013	c7 46 0c 00 00
	00 00		 mov	 DWORD PTR [esi+12], 0
  0001a	c7 46 10 00 00
	00 00		 mov	 DWORD PTR [esi+16], 0
  00021	c7 46 14 00 00
	00 00		 mov	 DWORD PTR [esi+20], 0
  00028	e8 00 00 00 00	 call	 ??3@YAXPAX@Z		; operator delete
  0002d	59		 pop	 ecx
  0002e	c3		 ret	 0
??1?$vector@HV?$allocator@H@std@@@std@@QAE@XZ ENDP	; std::vector<int,std::allocator<int> >::~vector<int,std::allocator<int> >
; Function compile flags: /Ogtpy
;	COMDAT ??Y?$_Vector_const_iterator@HV?$allocator@H@std@@@std@@QAEAAV01@H@Z
_TEXT	SEGMENT
__Off$ = 8						; size = 4
??Y?$_Vector_const_iterator@HV?$allocator@H@std@@@std@@QAEAAV01@H@Z PROC ; std::_Vector_const_iterator<int,std::allocator<int> >::operator+=, COMDAT
; _this$ = esi

; 160  : 		_SCL_SECURE_VALIDATE(this->_Has_container());

  00000	8b 06		 mov	 eax, DWORD PTR [esi]
  00002	85 c0		 test	 eax, eax
  00004	75 0b		 jne	 SHORT $LN20@operator@25
  00006	e8 00 00 00 00	 call	 __invalid_parameter_noinfo

; 161  : 		_SCL_SECURE_VALIDATE_RANGE(

  0000b	8b 06		 mov	 eax, DWORD PTR [esi]
  0000d	85 c0		 test	 eax, eax
  0000f	74 04		 je	 SHORT $LN10@operator@25
$LN20@operator@25:
  00011	8b 10		 mov	 edx, DWORD PTR [eax]
  00013	eb 02		 jmp	 SHORT $LN11@operator@25
$LN10@operator@25:
  00015	33 d2		 xor	 edx, edx
$LN11@operator@25:
  00017	8b 4e 04	 mov	 ecx, DWORD PTR [esi+4]
  0001a	57		 push	 edi
  0001b	8b 7c 24 08	 mov	 edi, DWORD PTR __Off$[esp]
  0001f	03 ff		 add	 edi, edi
  00021	03 ff		 add	 edi, edi
  00023	03 cf		 add	 ecx, edi
  00025	3b 4a 10	 cmp	 ecx, DWORD PTR [edx+16]
  00028	77 0f		 ja	 SHORT $LN1@operator@25
  0002a	85 c0		 test	 eax, eax
  0002c	74 04		 je	 SHORT $LN16@operator@25
  0002e	8b 00		 mov	 eax, DWORD PTR [eax]
  00030	eb 02		 jmp	 SHORT $LN17@operator@25
$LN16@operator@25:
  00032	33 c0		 xor	 eax, eax
$LN17@operator@25:
  00034	3b 48 0c	 cmp	 ecx, DWORD PTR [eax+12]
  00037	73 05		 jae	 SHORT $LN21@operator@25
$LN1@operator@25:

; 162  : 			_Myptr + _Off <= ((_Myvec *)(this->_Getmycont()))->_Mylast &&
; 163  : 			_Myptr + _Off >= ((_Myvec *)(this->_Getmycont()))->_Myfirst);

  00039	e8 00 00 00 00	 call	 __invalid_parameter_noinfo
$LN21@operator@25:

; 164  : 		_Myptr += _Off;

  0003e	01 7e 04	 add	 DWORD PTR [esi+4], edi

; 165  : 		return (*this);

  00041	8b c6		 mov	 eax, esi
  00043	5f		 pop	 edi

; 166  : 		}

  00044	c2 04 00	 ret	 4
??Y?$_Vector_const_iterator@HV?$allocator@H@std@@@std@@QAEAAV01@H@Z ENDP ; std::_Vector_const_iterator<int,std::allocator<int> >::operator+=
; Function compile flags: /Ogtpy
_TEXT	ENDS
;	COMDAT ??Y?$_Vector_iterator@HV?$allocator@H@std@@@std@@QAEAAV01@H@Z
_TEXT	SEGMENT
__Off$ = 8						; size = 4
??Y?$_Vector_iterator@HV?$allocator@H@std@@@std@@QAEAAV01@H@Z PROC ; std::_Vector_iterator<int,std::allocator<int> >::operator+=, COMDAT
; _this$ = esi

; 375  : 		(*(_Mybase *)this) += _Off;

  00000	8b 06		 mov	 eax, DWORD PTR [esi]
  00002	85 c0		 test	 eax, eax
  00004	75 0b		 jne	 SHORT $LN22@operator@26
  00006	e8 00 00 00 00	 call	 __invalid_parameter_noinfo
  0000b	8b 06		 mov	 eax, DWORD PTR [esi]
  0000d	85 c0		 test	 eax, eax
  0000f	74 04		 je	 SHORT $LN12@operator@26
$LN22@operator@26:
  00011	8b 10		 mov	 edx, DWORD PTR [eax]
  00013	eb 02		 jmp	 SHORT $LN13@operator@26
$LN12@operator@26:
  00015	33 d2		 xor	 edx, edx
$LN13@operator@26:
  00017	8b 4e 04	 mov	 ecx, DWORD PTR [esi+4]
  0001a	57		 push	 edi
  0001b	8b 7c 24 08	 mov	 edi, DWORD PTR __Off$[esp]
  0001f	03 ff		 add	 edi, edi
  00021	03 ff		 add	 edi, edi
  00023	03 cf		 add	 ecx, edi
  00025	3b 4a 10	 cmp	 ecx, DWORD PTR [edx+16]
  00028	77 0f		 ja	 SHORT $LN3@operator@26
  0002a	85 c0		 test	 eax, eax
  0002c	74 04		 je	 SHORT $LN18@operator@26
  0002e	8b 00		 mov	 eax, DWORD PTR [eax]
  00030	eb 02		 jmp	 SHORT $LN19@operator@26
$LN18@operator@26:
  00032	33 c0		 xor	 eax, eax
$LN19@operator@26:
  00034	3b 48 0c	 cmp	 ecx, DWORD PTR [eax+12]
  00037	73 05		 jae	 SHORT $LN23@operator@26
$LN3@operator@26:
  00039	e8 00 00 00 00	 call	 __invalid_parameter_noinfo
$LN23@operator@26:
  0003e	01 7e 04	 add	 DWORD PTR [esi+4], edi

; 376  : 		return (*this);

  00041	8b c6		 mov	 eax, esi
  00043	5f		 pop	 edi

; 377  : 		}

  00044	c2 04 00	 ret	 4
??Y?$_Vector_iterator@HV?$allocator@H@std@@@std@@QAEAAV01@H@Z ENDP ; std::_Vector_iterator<int,std::allocator<int> >::operator+=
; Function compile flags: /Ogtpy
_TEXT	ENDS
;	COMDAT ??H?$_Vector_iterator@HV?$allocator@H@std@@@std@@QBE?AV01@H@Z
_TEXT	SEGMENT
___$ReturnUdt$ = 8					; size = 4
__Off$ = 12						; size = 4
??H?$_Vector_iterator@HV?$allocator@H@std@@@std@@QBE?AV01@H@Z PROC ; std::_Vector_iterator<int,std::allocator<int> >::operator+, COMDAT
; _this$ = eax

; 380  : 		{	// return this + integer

  00000	53		 push	 ebx
  00001	8b 5c 24 08	 mov	 ebx, DWORD PTR ___$ReturnUdt$[esp]
  00005	56		 push	 esi

; 381  : 		_Myt _Tmp = *this;

  00006	8b 30		 mov	 esi, DWORD PTR [eax]
  00008	57		 push	 edi
  00009	8b 78 04	 mov	 edi, DWORD PTR [eax+4]

; 382  : 		return (_Tmp += _Off);

  0000c	85 f6		 test	 esi, esi
  0000e	75 1b		 jne	 SHORT $LN24@operator@27
  00010	e8 00 00 00 00	 call	 __invalid_parameter_noinfo
  00015	33 c0		 xor	 eax, eax
$LN15@operator@27:
  00017	8b 4c 24 14	 mov	 ecx, DWORD PTR __Off$[esp+8]
  0001b	8d 3c 8f	 lea	 edi, DWORD PTR [edi+ecx*4]
  0001e	3b 78 10	 cmp	 edi, DWORD PTR [eax+16]
  00021	77 13		 ja	 SHORT $LN5@operator@27
  00023	85 f6		 test	 esi, esi
  00025	74 08		 je	 SHORT $LN20@operator@27
  00027	8b 06		 mov	 eax, DWORD PTR [esi]
  00029	eb 06		 jmp	 SHORT $LN21@operator@27
$LN24@operator@27:
  0002b	8b 06		 mov	 eax, DWORD PTR [esi]
  0002d	eb e8		 jmp	 SHORT $LN15@operator@27
$LN20@operator@27:
  0002f	33 c0		 xor	 eax, eax
$LN21@operator@27:
  00031	3b 78 0c	 cmp	 edi, DWORD PTR [eax+12]
  00034	73 05		 jae	 SHORT $LN6@operator@27
$LN5@operator@27:
  00036	e8 00 00 00 00	 call	 __invalid_parameter_noinfo
$LN6@operator@27:
  0003b	89 7b 04	 mov	 DWORD PTR [ebx+4], edi

; 383  : 		}

  0003e	5f		 pop	 edi
  0003f	89 33		 mov	 DWORD PTR [ebx], esi
  00041	5e		 pop	 esi
  00042	8b c3		 mov	 eax, ebx
  00044	5b		 pop	 ebx
  00045	c2 08 00	 ret	 8
??H?$_Vector_iterator@HV?$allocator@H@std@@@std@@QBE?AV01@H@Z ENDP ; std::_Vector_iterator<int,std::allocator<int> >::operator+
; Function compile flags: /Ogtpy
; File c:\program files\microsoft visual studio 9.0\vc\include\xutility
_TEXT	ENDS
;	COMDAT ??0?$_Container_base_aux_alloc_real@V?$allocator@H@std@@@std@@IAE@V?$allocator@H@1@@Z
_TEXT	SEGMENT
__Al$ = 8						; size = 1
??0?$_Container_base_aux_alloc_real@V?$allocator@H@std@@@std@@IAE@V?$allocator@H@1@@Z PROC ; std::_Container_base_aux_alloc_real<std::allocator<int> >::_Container_base_aux_alloc_real<std::allocator<int> >, COMDAT
; _this$ = esi

; 420  : 		_Myownedaux = new (_Alaux.allocate(1)) _Aux_cont(this);

  00000	6a 04		 push	 4
  00002	e8 00 00 00 00	 call	 ??2@YAPAXI@Z		; operator new
  00007	83 c4 04	 add	 esp, 4
  0000a	85 c0		 test	 eax, eax
  0000c	74 09		 je	 SHORT $LN3@Container_@3
  0000e	89 30		 mov	 DWORD PTR [eax], esi
  00010	89 06		 mov	 DWORD PTR [esi], eax

; 421  : 		}

  00012	8b c6		 mov	 eax, esi
  00014	c2 04 00	 ret	 4
$LN3@Container_@3:

; 420  : 		_Myownedaux = new (_Alaux.allocate(1)) _Aux_cont(this);

  00017	33 c0		 xor	 eax, eax
  00019	89 06		 mov	 DWORD PTR [esi], eax

; 421  : 		}

  0001b	8b c6		 mov	 eax, esi
  0001d	c2 04 00	 ret	 4
??0?$_Container_base_aux_alloc_real@V?$allocator@H@std@@@std@@IAE@V?$allocator@H@1@@Z ENDP ; std::_Container_base_aux_alloc_real<std::allocator<int> >::_Container_base_aux_alloc_real<std::allocator<int> >
; Function compile flags: /Ogtpy
; File c:\program files\microsoft visual studio 9.0\vc\include\vector
_TEXT	ENDS
;	COMDAT ??0?$_Vector_val@HV?$allocator@H@std@@@std@@IAE@V?$allocator@H@1@@Z
_TEXT	SEGMENT
__Al$ = 8						; size = 1
??0?$_Vector_val@HV?$allocator@H@std@@@std@@IAE@V?$allocator@H@1@@Z PROC ; std::_Vector_val<int,std::allocator<int> >::_Vector_val<int,std::allocator<int> >, COMDAT
; _this$ = esi

; 425  : 		{	// construct allocator from _Al

  00000	6a 04		 push	 4
  00002	e8 00 00 00 00	 call	 ??2@YAPAXI@Z		; operator new
  00007	83 c4 04	 add	 esp, 4
  0000a	85 c0		 test	 eax, eax
  0000c	74 09		 je	 SHORT $LN8@Vector_val@3
  0000e	89 30		 mov	 DWORD PTR [eax], esi
  00010	89 06		 mov	 DWORD PTR [esi], eax

; 426  : 		}

  00012	8b c6		 mov	 eax, esi
  00014	c2 04 00	 ret	 4

; 425  : 		{	// construct allocator from _Al

$LN8@Vector_val@3:
  00017	33 c0		 xor	 eax, eax
  00019	89 06		 mov	 DWORD PTR [esi], eax

; 426  : 		}

  0001b	8b c6		 mov	 eax, esi
  0001d	c2 04 00	 ret	 4
??0?$_Vector_val@HV?$allocator@H@std@@@std@@IAE@V?$allocator@H@1@@Z ENDP ; std::_Vector_val<int,std::allocator<int> >::_Vector_val<int,std::allocator<int> >
PUBLIC	??1ObjectIdentifier@@QAE@XZ			; ObjectIdentifier::~ObjectIdentifier
; Function compile flags: /Ogtpy
; File i:\nj\my project\cms\cms\asn1\objectidentifier.cpp
;	COMDAT ??1ObjectIdentifier@@QAE@XZ
_TEXT	SEGMENT
??1ObjectIdentifier@@QAE@XZ PROC			; ObjectIdentifier::~ObjectIdentifier, COMDAT
; _this$ = eax

; 39   : {

  00000	57		 push	 edi
  00001	8b f8		 mov	 edi, eax
  00003	c7 07 00 00 00
	00		 mov	 DWORD PTR [edi], OFFSET ??_7ObjectIdentifier@@6B@

; 40   : }

  00009	8b 47 50	 mov	 eax, DWORD PTR [edi+80]
  0000c	85 c0		 test	 eax, eax
  0000e	74 09		 je	 SHORT $LN8@ObjectIden
  00010	50		 push	 eax
  00011	e8 00 00 00 00	 call	 ??3@YAXPAX@Z		; operator delete
  00016	83 c4 04	 add	 esp, 4
$LN8@ObjectIden:
  00019	8b 47 44	 mov	 eax, DWORD PTR [edi+68]
  0001c	50		 push	 eax
  0001d	c7 47 50 00 00
	00 00		 mov	 DWORD PTR [edi+80], 0
  00024	c7 47 54 00 00
	00 00		 mov	 DWORD PTR [edi+84], 0
  0002b	c7 47 58 00 00
	00 00		 mov	 DWORD PTR [edi+88], 0
  00032	e8 00 00 00 00	 call	 ??3@YAXPAX@Z		; operator delete
  00037	83 c4 04	 add	 esp, 4
  0003a	e8 00 00 00 00	 call	 ??1ASN1@@QAE@XZ		; ASN1::~ASN1
  0003f	5f		 pop	 edi
  00040	c3		 ret	 0
??1ObjectIdentifier@@QAE@XZ ENDP			; ObjectIdentifier::~ObjectIdentifier
PUBLIC	__$ArrayPad$
;	COMDAT xdata$x
; File c:\program files\microsoft visual studio 9.0\vc\include\iosfwd
xdata$x	SEGMENT
__unwindtable$?encodeBER@ObjectIdentifier@@UAEXXZ DD 0ffffffffH
	DD	FLAT:__unwindfunclet$?encodeBER@ObjectIdentifier@@UAEXXZ$0
__ehfuncinfo$?encodeBER@ObjectIdentifier@@UAEXXZ DD 019930522H
	DD	01H
	DD	FLAT:__unwindtable$?encodeBER@ObjectIdentifier@@UAEXXZ
	DD	2 DUP(00H)
	DD	2 DUP(00H)
	DD	00H
	DD	01H
; Function compile flags: /Ogtpy
; File i:\nj\my project\cms\cms\asn1\objectidentifier.cpp
xdata$x	ENDS
;	COMDAT ?encodeBER@ObjectIdentifier@@UAEXXZ
_TEXT	SEGMENT
_oid$ = -44						; size = 28
__$ArrayPad$ = -16					; size = 4
__$EHRec$ = -12						; size = 12
?encodeBER@ObjectIdentifier@@UAEXXZ PROC		; ObjectIdentifier::encodeBER, COMDAT
; _this$ = ecx

; 51   : {

  00000	6a ff		 push	 -1
  00002	68 00 00 00 00	 push	 __ehhandler$?encodeBER@ObjectIdentifier@@UAEXXZ
  00007	64 a1 00 00 00
	00		 mov	 eax, DWORD PTR fs:0
  0000d	50		 push	 eax
  0000e	83 ec 20	 sub	 esp, 32			; 00000020H
  00011	a1 00 00 00 00	 mov	 eax, DWORD PTR ___security_cookie
  00016	33 c4		 xor	 eax, esp
  00018	89 44 24 1c	 mov	 DWORD PTR __$ArrayPad$[esp+44], eax
  0001c	53		 push	 ebx
  0001d	55		 push	 ebp
  0001e	56		 push	 esi
  0001f	57		 push	 edi
  00020	a1 00 00 00 00	 mov	 eax, DWORD PTR ___security_cookie
  00025	33 c4		 xor	 eax, esp
  00027	50		 push	 eax
  00028	8d 44 24 34	 lea	 eax, DWORD PTR __$EHRec$[esp+64]
  0002c	64 a3 00 00 00
	00		 mov	 DWORD PTR fs:0, eax

; 52   : 	unsigned	int	iCount	= 2;
; 53   : 	string			oid;

  00032	33 c0		 xor	 eax, eax
  00034	8b f9		 mov	 edi, ecx
  00036	bd 02 00 00 00	 mov	 ebp, 2
  0003b	c7 44 24 2c 0f
	00 00 00	 mov	 DWORD PTR _oid$[esp+88], 15 ; 0000000fH
  00043	89 44 24 28	 mov	 DWORD PTR _oid$[esp+84], eax
  00047	88 44 24 18	 mov	 BYTE PTR _oid$[esp+68], al
  0004b	89 44 24 3c	 mov	 DWORD PTR __$EHRec$[esp+72], eax

; 54   : 
; 55   : 	strBER.assign(1, iValue[0] * 40 + iValue[1]);

  0004f	8b 47 54	 mov	 eax, DWORD PTR [edi+84]
  00052	2b 47 50	 sub	 eax, DWORD PTR [edi+80]
  00055	c1 f8 02	 sar	 eax, 2
  00058	85 c0		 test	 eax, eax
  0005a	77 05		 ja	 SHORT $LN38@encodeBER@2
  0005c	e8 00 00 00 00	 call	 __invalid_parameter_noinfo
$LN38@encodeBER@2:
  00061	8b 5f 50	 mov	 ebx, DWORD PTR [edi+80]
  00064	8b 4f 54	 mov	 ecx, DWORD PTR [edi+84]
  00067	2b cb		 sub	 ecx, ebx
  00069	c1 f9 02	 sar	 ecx, 2
  0006c	83 f9 01	 cmp	 ecx, 1
  0006f	77 05		 ja	 SHORT $LN43@encodeBER@2
  00071	e8 00 00 00 00	 call	 __invalid_parameter_noinfo
$LN43@encodeBER@2:
  00076	8a 03		 mov	 al, BYTE PTR [ebx]
  00078	8b 57 50	 mov	 edx, DWORD PTR [edi+80]
  0007b	b1 28		 mov	 cl, 40			; 00000028H
  0007d	f6 e9		 imul	 cl
  0007f	02 42 04	 add	 al, BYTE PTR [edx+4]
  00082	8d 77 08	 lea	 esi, DWORD PTR [edi+8]
  00085	0f b6 d0	 movzx	 edx, al
  00088	52		 push	 edx
  00089	bb 01 00 00 00	 mov	 ebx, 1
  0008e	53		 push	 ebx
  0008f	8b ce		 mov	 ecx, esi
  00091	e8 00 00 00 00	 call	 ?assign@?$basic_string@DU?$char_traits@D@std@@V?$allocator@D@2@@std@@QAEAAV12@ID@Z ; std::basic_string<char,std::char_traits<char>,std::allocator<char> >::assign

; 56   : 
; 57   : 	while(iCount < iValue.size()){

  00096	8b 47 54	 mov	 eax, DWORD PTR [edi+84]
  00099	2b 47 50	 sub	 eax, DWORD PTR [edi+80]
  0009c	c1 f8 02	 sar	 eax, 2
  0009f	83 f8 02	 cmp	 eax, 2
  000a2	76 2f		 jbe	 SHORT $LN1@encodeBER@2
$LL2@encodeBER@2:

; 58   : 		encodeBER_variable(iValue[iCount]);

  000a4	8b 4f 54	 mov	 ecx, DWORD PTR [edi+84]
  000a7	2b 4f 50	 sub	 ecx, DWORD PTR [edi+80]
  000aa	c1 f9 02	 sar	 ecx, 2
  000ad	3b e9		 cmp	 ebp, ecx
  000af	72 05		 jb	 SHORT $LN56@encodeBER@2
  000b1	e8 00 00 00 00	 call	 __invalid_parameter_noinfo
$LN56@encodeBER@2:
  000b6	8b 57 50	 mov	 edx, DWORD PTR [edi+80]
  000b9	8b 04 aa	 mov	 eax, DWORD PTR [edx+ebp*4]
  000bc	50		 push	 eax
  000bd	8b cf		 mov	 ecx, edi
  000bf	e8 00 00 00 00	 call	 ?encodeBER_variable@ASN1@@QAEXI@Z ; ASN1::encodeBER_variable
  000c4	8b 4f 54	 mov	 ecx, DWORD PTR [edi+84]
  000c7	2b 4f 50	 sub	 ecx, DWORD PTR [edi+80]

; 59   : 		iCount++;

  000ca	03 eb		 add	 ebp, ebx
  000cc	c1 f9 02	 sar	 ecx, 2
  000cf	3b e9		 cmp	 ebp, ecx
  000d1	72 d1		 jb	 SHORT $LL2@encodeBER@2
$LN1@encodeBER@2:

; 60   : 	}
; 61   : 	oid = strBER;	//GR[hf[^U

  000d3	6a ff		 push	 -1
  000d5	6a 00		 push	 0
  000d7	56		 push	 esi
  000d8	8d 4c 24 20	 lea	 ecx, DWORD PTR _oid$[esp+76]
  000dc	e8 00 00 00 00	 call	 ?assign@?$basic_string@DU?$char_traits@D@std@@V?$allocator@D@2@@std@@QAEAAV12@ABV12@II@Z ; std::basic_string<char,std::char_traits<char>,std::allocator<char> >::assign

; 62   : 
; 63   : 	encodeBER_TAG(BER_Class_General, false, BER_TAG_OBJECT_IDENTIFIER, oid.size());

  000e1	8b 6c 24 28	 mov	 ebp, DWORD PTR _oid$[esp+84]
  000e5	39 5f 24	 cmp	 DWORD PTR [edi+36], ebx
  000e8	74 3d		 je	 SHORT $LN69@encodeBER@2
  000ea	39 5e 18	 cmp	 DWORD PTR [esi+24], ebx
  000ed	73 0c		 jae	 SHORT $LN80@encodeBER@2
  000ef	8b 56 14	 mov	 edx, DWORD PTR [esi+20]
  000f2	52		 push	 edx
  000f3	53		 push	 ebx
  000f4	8b ce		 mov	 ecx, esi
  000f6	e8 00 00 00 00	 call	 ?_Copy@?$basic_string@DU?$char_traits@D@std@@V?$allocator@D@2@@std@@IAEXII@Z ; std::basic_string<char,std::char_traits<char>,std::allocator<char> >::_Copy
$LN80@encodeBER@2:
  000fb	ba 10 00 00 00	 mov	 edx, 16			; 00000010H
  00100	8d 46 04	 lea	 eax, DWORD PTR [esi+4]
  00103	39 56 18	 cmp	 DWORD PTR [esi+24], edx
  00106	72 04		 jb	 SHORT $LN132@encodeBER@2
  00108	8b 08		 mov	 ecx, DWORD PTR [eax]
  0010a	eb 02		 jmp	 SHORT $LN133@encodeBER@2
$LN132@encodeBER@2:
  0010c	8b c8		 mov	 ecx, eax
$LN133@encodeBER@2:
  0010e	c6 01 06	 mov	 BYTE PTR [ecx], 6
  00111	89 5e 14	 mov	 DWORD PTR [esi+20], ebx
  00114	39 56 18	 cmp	 DWORD PTR [esi+24], edx
  00117	72 02		 jb	 SHORT $LN146@encodeBER@2
  00119	8b 00		 mov	 eax, DWORD PTR [eax]
$LN146@encodeBER@2:
  0011b	c6 40 01 00	 mov	 BYTE PTR [eax+1], 0
  0011f	55		 push	 ebp
  00120	8b c7		 mov	 eax, edi
  00122	e8 00 00 00 00	 call	 ?encodeBER_size@ASN1@@QAEXI@Z ; ASN1::encodeBER_size
$LN69@encodeBER@2:

; 64   : 	strBER += oid;

  00127	6a ff		 push	 -1
  00129	6a 00		 push	 0
  0012b	8d 44 24 1c	 lea	 eax, DWORD PTR _oid$[esp+72]
  0012f	50		 push	 eax
  00130	e8 00 00 00 00	 call	 ?append@?$basic_string@DU?$char_traits@D@std@@V?$allocator@D@2@@std@@QAEAAV12@ABV12@II@Z ; std::basic_string<char,std::char_traits<char>,std::allocator<char> >::append

; 65   : }

  00135	83 7c 24 2c 10	 cmp	 DWORD PTR _oid$[esp+88], 16 ; 00000010H
  0013a	72 0d		 jb	 SHORT $LN176@encodeBER@2
  0013c	8b 4c 24 18	 mov	 ecx, DWORD PTR _oid$[esp+68]
  00140	51		 push	 ecx
  00141	e8 00 00 00 00	 call	 ??3@YAXPAX@Z		; operator delete
  00146	83 c4 04	 add	 esp, 4
$LN176@encodeBER@2:
  00149	8b 4c 24 34	 mov	 ecx, DWORD PTR __$EHRec$[esp+64]
  0014d	64 89 0d 00 00
	00 00		 mov	 DWORD PTR fs:0, ecx
  00154	59		 pop	 ecx
  00155	5f		 pop	 edi
  00156	5e		 pop	 esi
  00157	5d		 pop	 ebp
  00158	5b		 pop	 ebx
  00159	8b 4c 24 1c	 mov	 ecx, DWORD PTR __$ArrayPad$[esp+44]
  0015d	33 cc		 xor	 ecx, esp
  0015f	e8 00 00 00 00	 call	 @__security_check_cookie@4
  00164	83 c4 2c	 add	 esp, 44			; 0000002cH
  00167	c3		 ret	 0
_TEXT	ENDS
;	COMDAT text$x
text$x	SEGMENT
__unwindfunclet$?encodeBER@ObjectIdentifier@@UAEXXZ$0:
  00000	8d 4d d4	 lea	 ecx, DWORD PTR _oid$[ebp]
  00003	e9 00 00 00 00	 jmp	 ??1?$basic_string@DU?$char_traits@D@std@@V?$allocator@D@2@@std@@QAE@XZ ; std::basic_string<char,std::char_traits<char>,std::allocator<char> >::~basic_string<char,std::char_traits<char>,std::allocator<char> >
__ehhandler$?encodeBER@ObjectIdentifier@@UAEXXZ:
  00008	8b 54 24 08	 mov	 edx, DWORD PTR [esp+8]
  0000c	8d 42 d0	 lea	 eax, DWORD PTR [edx-48]
  0000f	8b 4a cc	 mov	 ecx, DWORD PTR [edx-52]
  00012	33 c8		 xor	 ecx, eax
  00014	e8 00 00 00 00	 call	 @__security_check_cookie@4
  00019	83 c0 10	 add	 eax, 16			; 00000010H
  0001c	8b 4a fc	 mov	 ecx, DWORD PTR [edx-4]
  0001f	33 c8		 xor	 ecx, eax
  00021	e8 00 00 00 00	 call	 @__security_check_cookie@4
  00026	b8 00 00 00 00	 mov	 eax, OFFSET __ehfuncinfo$?encodeBER@ObjectIdentifier@@UAEXXZ
  0002b	e9 00 00 00 00	 jmp	 ___CxxFrameHandler3
text$x	ENDS
?encodeBER@ObjectIdentifier@@UAEXXZ ENDP		; ObjectIdentifier::encodeBER
;	COMDAT xdata$x
; File c:\program files\microsoft visual studio 9.0\vc\include\stdexcept
xdata$x	SEGMENT
__unwindtable$?_Xlen@?$vector@HV?$allocator@H@std@@@std@@KAXXZ DD 0ffffffffH
	DD	FLAT:__unwindfunclet$?_Xlen@?$vector@HV?$allocator@H@std@@@std@@KAXXZ$0
__ehfuncinfo$?_Xlen@?$vector@HV?$allocator@H@std@@@std@@KAXXZ DD 019930522H
	DD	01H
	DD	FLAT:__unwindtable$?_Xlen@?$vector@HV?$allocator@H@std@@@std@@KAXXZ
	DD	2 DUP(00H)
	DD	2 DUP(00H)
	DD	00H
	DD	01H
; Function compile flags: /Ogtpy
; File c:\program files\microsoft visual studio 9.0\vc\include\vector
xdata$x	ENDS
;	COMDAT ?_Xlen@?$vector@HV?$allocator@H@std@@@std@@KAXXZ
_TEXT	SEGMENT
$T84452 = -84						; size = 28
$T84451 = -56						; size = 40
__$EHRec$ = -12						; size = 12
?_Xlen@?$vector@HV?$allocator@H@std@@@std@@KAXXZ PROC	; std::vector<int,std::allocator<int> >::_Xlen, COMDAT

; 1257 : 		{	// report a length_error

  00000	55		 push	 ebp
  00001	8b ec		 mov	 ebp, esp
  00003	83 e4 f8	 and	 esp, -8			; fffffff8H
  00006	6a ff		 push	 -1
  00008	68 00 00 00 00	 push	 __ehhandler$?_Xlen@?$vector@HV?$allocator@H@std@@@std@@KAXXZ
  0000d	64 a1 00 00 00
	00		 mov	 eax, DWORD PTR fs:0
  00013	50		 push	 eax
  00014	83 ec 4c	 sub	 esp, 76			; 0000004cH
  00017	a1 00 00 00 00	 mov	 eax, DWORD PTR ___security_cookie
  0001c	33 c4		 xor	 eax, esp
  0001e	50		 push	 eax
  0001f	8d 44 24 50	 lea	 eax, DWORD PTR __$EHRec$[esp+92]
  00023	64 a3 00 00 00
	00		 mov	 DWORD PTR fs:0, eax

; 1258 : 		_THROW(length_error, "vector<T> too long");

  00029	6a 12		 push	 18			; 00000012H
  0002b	68 00 00 00 00	 push	 OFFSET ??_C@_0BD@OLBABOEK@vector?$DMT?$DO?5too?5long?$AA@
  00030	8d 4c 24 10	 lea	 ecx, DWORD PTR $T84452[esp+100]
  00034	c7 44 24 28 0f
	00 00 00	 mov	 DWORD PTR $T84452[esp+124], 15 ; 0000000fH
  0003c	c7 44 24 24 00
	00 00 00	 mov	 DWORD PTR $T84452[esp+120], 0
  00044	c6 44 24 14 00	 mov	 BYTE PTR $T84452[esp+104], 0
  00049	e8 00 00 00 00	 call	 ?assign@?$basic_string@DU?$char_traits@D@std@@V?$allocator@D@2@@std@@QAEAAV12@PBDI@Z ; std::basic_string<char,std::char_traits<char>,std::allocator<char> >::assign
  0004e	8d 44 24 08	 lea	 eax, DWORD PTR $T84452[esp+92]
  00052	50		 push	 eax
  00053	8d 4c 24 28	 lea	 ecx, DWORD PTR $T84451[esp+96]
  00057	c7 44 24 5c 00
	00 00 00	 mov	 DWORD PTR __$EHRec$[esp+104], 0
  0005f	e8 00 00 00 00	 call	 ??0logic_error@std@@QAE@ABV?$basic_string@DU?$char_traits@D@std@@V?$allocator@D@2@@1@@Z ; std::logic_error::logic_error
  00064	68 00 00 00 00	 push	 OFFSET __TI3?AVlength_error@std@@
  00069	8d 4c 24 28	 lea	 ecx, DWORD PTR $T84451[esp+96]
  0006d	51		 push	 ecx
  0006e	c7 44 24 2c 00
	00 00 00	 mov	 DWORD PTR $T84451[esp+100], OFFSET ??_7length_error@std@@6B@
  00076	e8 00 00 00 00	 call	 __CxxThrowException@8
$LN45@Xlen@3:
$LN44@Xlen@3:
  0007b	cc		 int	 3
_TEXT	ENDS
;	COMDAT text$x
text$x	SEGMENT
__unwindfunclet$?_Xlen@?$vector@HV?$allocator@H@std@@@std@@KAXXZ$0:
  00000	8d 4d ac	 lea	 ecx, DWORD PTR $T84452[ebp]
  00003	e9 00 00 00 00	 jmp	 ??1?$basic_string@DU?$char_traits@D@std@@V?$allocator@D@2@@std@@QAE@XZ ; std::basic_string<char,std::char_traits<char>,std::allocator<char> >::~basic_string<char,std::char_traits<char>,std::allocator<char> >
__ehhandler$?_Xlen@?$vector@HV?$allocator@H@std@@@std@@KAXXZ:
  00008	8b 54 24 08	 mov	 edx, DWORD PTR [esp+8]
  0000c	8d 42 b4	 lea	 eax, DWORD PTR [edx-76]
  0000f	8b 4a b0	 mov	 ecx, DWORD PTR [edx-80]
  00012	33 c8		 xor	 ecx, eax
  00014	e8 00 00 00 00	 call	 @__security_check_cookie@4
  00019	b8 00 00 00 00	 mov	 eax, OFFSET __ehfuncinfo$?_Xlen@?$vector@HV?$allocator@H@std@@@std@@KAXXZ
  0001e	e9 00 00 00 00	 jmp	 ___CxxFrameHandler3
text$x	ENDS
?_Xlen@?$vector@HV?$allocator@H@std@@@std@@KAXXZ ENDP	; std::vector<int,std::allocator<int> >::_Xlen
; Function compile flags: /Ogtpy
;	COMDAT ?_Insert_n@?$vector@HV?$allocator@H@std@@@std@@IAEXV?$_Vector_const_iterator@HV?$allocator@H@std@@@2@IABH@Z
_TEXT	SEGMENT
_this$ = 8						; size = 4
__Tmp$39693 = 12					; size = 4
__Val$ = 12						; size = 4
__Where$ = 16						; size = 8
?_Insert_n@?$vector@HV?$allocator@H@std@@@std@@IAEXV?$_Vector_const_iterator@HV?$allocator@H@std@@@2@IABH@Z PROC ; std::vector<int,std::allocator<int> >::_Insert_n, COMDAT

; 1158 : 		{	// insert _Count * _Val at _Where

  00000	53		 push	 ebx
  00001	8b 5c 24 08	 mov	 ebx, DWORD PTR _this$[esp]

; 1159 : 
; 1160 :  #if _HAS_ITERATOR_DEBUGGING
; 1161 : 		if (_Where._Mycont != this
; 1162 : 			|| _Where._Myptr < _Myfirst || _Mylast < _Where._Myptr)
; 1163 : 			_DEBUG_ERROR("vector insert iterator outside range");
; 1164 :  #endif /* _HAS_ITERATOR_DEBUGGING */
; 1165 : 
; 1166 : 		size_type _Capacity = capacity();

  00005	8b 4b 0c	 mov	 ecx, DWORD PTR [ebx+12]
  00008	55		 push	 ebp
  00009	56		 push	 esi
  0000a	57		 push	 edi
  0000b	85 c9		 test	 ecx, ecx
  0000d	75 04		 jne	 SHORT $LN27@Insert_n@3
  0000f	33 ed		 xor	 ebp, ebp
  00011	eb 08		 jmp	 SHORT $LN199@Insert_n@3
$LN27@Insert_n@3:
  00013	8b 6b 14	 mov	 ebp, DWORD PTR [ebx+20]
  00016	2b e9		 sub	 ebp, ecx
  00018	c1 fd 02	 sar	 ebp, 2
$LN199@Insert_n@3:

; 1167 : 
; 1168 : 		if (_Count == 0)
; 1169 : 			;
; 1170 : 		else if (max_size() - size() < _Count)

  0001b	8b 73 10	 mov	 esi, DWORD PTR [ebx+16]
  0001e	8b c6		 mov	 eax, esi
  00020	2b c1		 sub	 eax, ecx
  00022	c1 f8 02	 sar	 eax, 2
  00025	b9 ff ff ff 3f	 mov	 ecx, 1073741823		; 3fffffffH
  0002a	2b c8		 sub	 ecx, eax
  0002c	83 f9 01	 cmp	 ecx, 1
  0002f	73 05		 jae	 SHORT $LN10@Insert_n@3

; 1171 : 			_Xlen();	// result too long

  00031	e8 00 00 00 00	 call	 ?_Xlen@?$vector@HV?$allocator@H@std@@@std@@KAXXZ ; std::vector<int,std::allocator<int> >::_Xlen
$LN201@Insert_n@3:
$LN10@Insert_n@3:

; 1172 : 		else if (_Capacity < size() + _Count)

  00036	40		 inc	 eax
  00037	3b e8		 cmp	 ebp, eax
  00039	0f 83 a2 00 00
	00		 jae	 $LN8@Insert_n@3

; 1173 : 			{	// not enough room, reallocate
; 1174 : 			_Capacity = max_size() - _Capacity / 2 < _Capacity
; 1175 : 				? 0 : _Capacity + _Capacity / 2;	// try to grow by 50%

  0003f	8b cd		 mov	 ecx, ebp
  00041	d1 e9		 shr	 ecx, 1
  00043	ba ff ff ff 3f	 mov	 edx, 1073741823		; 3fffffffH
  00048	2b d1		 sub	 edx, ecx
  0004a	3b d5		 cmp	 edx, ebp
  0004c	73 04		 jae	 SHORT $LN15@Insert_n@3
  0004e	33 ed		 xor	 ebp, ebp
  00050	eb 02		 jmp	 SHORT $LN16@Insert_n@3
$LN15@Insert_n@3:
  00052	03 e9		 add	 ebp, ecx
$LN16@Insert_n@3:

; 1176 : 			if (_Capacity < size() + _Count)

  00054	3b e8		 cmp	 ebp, eax

; 1177 : 				_Capacity = size() + _Count;

  00056	0f 42 e8	 cmovb	 ebp, eax

; 1178 : 			pointer _Newvec = this->_Alval.allocate(_Capacity);

  00059	8b cd		 mov	 ecx, ebp
  0005b	e8 00 00 00 00	 call	 ?allocate@?$allocator@H@std@@QAEPAHI@Z ; std::allocator<int>::allocate

; 1179 : 			pointer _Ptr = _Newvec;
; 1180 : 
; 1181 : 			_TRY_BEGIN
; 1182 : 			_Ptr = _Umove(_Myfirst, _VEC_ITER_BASE(_Where),
; 1183 : 				_Newvec);	// copy prefix

  00060	8b 4b 0c	 mov	 ecx, DWORD PTR [ebx+12]
  00063	8b f0		 mov	 esi, eax
  00065	8b 44 24 20	 mov	 eax, DWORD PTR __Where$[esp+16]
  00069	2b c1		 sub	 eax, ecx
  0006b	c1 f8 02	 sar	 eax, 2
  0006e	8d 3c 85 00 00
	00 00		 lea	 edi, DWORD PTR [eax*4]
  00075	85 c0		 test	 eax, eax
  00077	76 0c		 jbe	 SHORT $LN77@Insert_n@3
  00079	57		 push	 edi
  0007a	51		 push	 ecx
  0007b	57		 push	 edi
  0007c	56		 push	 esi
  0007d	e8 00 00 00 00	 call	 _memmove_s
  00082	83 c4 10	 add	 esp, 16			; 00000010H
$LN77@Insert_n@3:

; 1184 : 			_Ptr = _Ufill(_Ptr, _Count, _Val);	// add new stuff

  00085	8b 44 24 18	 mov	 eax, DWORD PTR __Val$[esp+12]
  00089	8b 08		 mov	 ecx, DWORD PTR [eax]
  0008b	89 0c 37	 mov	 DWORD PTR [edi+esi], ecx

; 1185 : 			_Umove(_VEC_ITER_BASE(_Where), _Mylast, _Ptr);	// copy suffix

  0008e	8b 43 10	 mov	 eax, DWORD PTR [ebx+16]
  00091	8b 4c 24 20	 mov	 ecx, DWORD PTR __Where$[esp+16]
  00095	2b c1		 sub	 eax, ecx
  00097	c1 f8 02	 sar	 eax, 2
  0009a	85 c0		 test	 eax, eax
  0009c	76 14		 jbe	 SHORT $LN131@Insert_n@3
  0009e	03 c0		 add	 eax, eax
  000a0	03 c0		 add	 eax, eax
  000a2	50		 push	 eax
  000a3	51		 push	 ecx
  000a4	50		 push	 eax
  000a5	8d 54 37 04	 lea	 edx, DWORD PTR [edi+esi+4]
  000a9	52		 push	 edx
  000aa	e8 00 00 00 00	 call	 _memmove_s
  000af	83 c4 10	 add	 esp, 16			; 00000010H
$LN131@Insert_n@3:

; 1186 : 			_CATCH_ALL
; 1187 : 			_Destroy(_Newvec, _Ptr);
; 1188 : 			this->_Alval.deallocate(_Newvec, _Capacity);
; 1189 : 			_RERAISE;
; 1190 : 			_CATCH_END
; 1191 : 
; 1192 : 			_Count += size();

  000b2	8b 43 0c	 mov	 eax, DWORD PTR [ebx+12]
  000b5	8b 7b 10	 mov	 edi, DWORD PTR [ebx+16]
  000b8	2b f8		 sub	 edi, eax
  000ba	c1 ff 02	 sar	 edi, 2
  000bd	47		 inc	 edi

; 1193 : 			if (_Myfirst != 0)

  000be	85 c0		 test	 eax, eax
  000c0	74 09		 je	 SHORT $LN138@Insert_n@3

; 1194 : 				{	// destroy and deallocate old array
; 1195 : 				_Destroy(_Myfirst, _Mylast);
; 1196 : 				this->_Alval.deallocate(_Myfirst, _Myend - _Myfirst);

  000c2	50		 push	 eax
  000c3	e8 00 00 00 00	 call	 ??3@YAXPAX@Z		; operator delete
  000c8	83 c4 04	 add	 esp, 4
$LN138@Insert_n@3:

; 1197 : 				}
; 1198 : 
; 1199 :  #if _HAS_ITERATOR_DEBUGGING
; 1200 : 			this->_Orphan_all();
; 1201 :  #endif /* _HAS_ITERATOR_DEBUGGING */
; 1202 : 
; 1203 : 			_Myend = _Newvec + _Capacity;

  000cb	8d 04 ae	 lea	 eax, DWORD PTR [esi+ebp*4]

; 1204 : 			_Mylast = _Newvec + _Count;

  000ce	8d 0c be	 lea	 ecx, DWORD PTR [esi+edi*4]
  000d1	89 43 14	 mov	 DWORD PTR [ebx+20], eax
  000d4	89 4b 10	 mov	 DWORD PTR [ebx+16], ecx

; 1205 : 			_Myfirst = _Newvec;

  000d7	89 73 0c	 mov	 DWORD PTR [ebx+12], esi

; 1247 : 			}
; 1248 : 		}

  000da	5f		 pop	 edi
  000db	5e		 pop	 esi
  000dc	5d		 pop	 ebp
  000dd	5b		 pop	 ebx
  000de	c2 10 00	 ret	 16			; 00000010H
$LN8@Insert_n@3:

; 1206 : 			}
; 1207 : 		else if ((size_type)(_Mylast - _VEC_ITER_BASE(_Where)) < _Count)

  000e1	8b 4c 24 20	 mov	 ecx, DWORD PTR __Where$[esp+16]
  000e5	8b d6		 mov	 edx, esi
  000e7	2b d1		 sub	 edx, ecx
  000e9	c1 fa 02	 sar	 edx, 2
  000ec	83 fa 01	 cmp	 edx, 1
  000ef	73 54		 jae	 SHORT $LN3@Insert_n@3

; 1208 : 			{	// new stuff spills off end
; 1209 : 			_Ty _Tmp = _Val;	// in case _Val is in sequence

  000f1	8b 44 24 18	 mov	 eax, DWORD PTR __Val$[esp+12]
  000f5	8b 28		 mov	 ebp, DWORD PTR [eax]

; 1210 : 
; 1211 : 			_Umove(_VEC_ITER_BASE(_Where), _Mylast,
; 1212 : 				_VEC_ITER_BASE(_Where) + _Count);	// copy suffix

  000f7	8d 51 04	 lea	 edx, DWORD PTR [ecx+4]
  000fa	8b c6		 mov	 eax, esi
  000fc	8b f9		 mov	 edi, ecx
  000fe	89 6c 24 18	 mov	 DWORD PTR __Tmp$39693[esp+12], ebp
  00102	e8 00 00 00 00	 call	 ??$_Umove@PAH@?$vector@HV?$allocator@H@std@@@std@@IAEPAHPAH00@Z ; std::vector<int,std::allocator<int> >::_Umove<int *>

; 1213 : 
; 1214 : 			_TRY_BEGIN
; 1215 : 			_Ufill(_Mylast, _Count - (_Mylast - _VEC_ITER_BASE(_Where)),
; 1216 : 				_Tmp);	// insert new stuff off end

  00107	8b 7b 10	 mov	 edi, DWORD PTR [ebx+16]
  0010a	8b cf		 mov	 ecx, edi
  0010c	2b 4c 24 20	 sub	 ecx, DWORD PTR __Where$[esp+16]
  00110	be 01 00 00 00	 mov	 esi, 1
  00115	c1 f9 02	 sar	 ecx, 2
  00118	2b f1		 sub	 esi, ecx
  0011a	8d 54 24 18	 lea	 edx, DWORD PTR __Tmp$39693[esp+12]
  0011e	e8 00 00 00 00	 call	 ?_Ufill@?$vector@HV?$allocator@H@std@@@std@@IAEPAHPAHIABH@Z ; std::vector<int,std::allocator<int> >::_Ufill

; 1217 : 			_CATCH_ALL
; 1218 : 			_Destroy(_VEC_ITER_BASE(_Where) + _Count, _Mylast + _Count);
; 1219 : 			_RERAISE;
; 1220 : 			_CATCH_END
; 1221 : 
; 1222 : 			_Mylast += _Count;

  00123	83 43 10 04	 add	 DWORD PTR [ebx+16], 4
  00127	8b 5b 10	 mov	 ebx, DWORD PTR [ebx+16]

; 1223 : 
; 1224 :  #if _HAS_ITERATOR_DEBUGGING
; 1225 : 			_Orphan_range(_Where._Myptr, _Mylast);
; 1226 :  #endif /* _HAS_ITERATOR_DEBUGGING */
; 1227 : 
; 1228 : 			std::fill(_VEC_ITER_BASE(_Where), _Mylast - _Count,
; 1229 : 				_Tmp);	// insert up to old end

  0012a	8b 44 24 20	 mov	 eax, DWORD PTR __Where$[esp+16]
  0012e	8d 4b fc	 lea	 ecx, DWORD PTR [ebx-4]
  00131	3b c1		 cmp	 eax, ecx
  00133	74 5b		 je	 SHORT $LN186@Insert_n@3
$LL152@Insert_n@3:
  00135	89 28		 mov	 DWORD PTR [eax], ebp
  00137	83 c0 04	 add	 eax, 4
  0013a	3b c1		 cmp	 eax, ecx
  0013c	75 f7		 jne	 SHORT $LL152@Insert_n@3

; 1247 : 			}
; 1248 : 		}

  0013e	5f		 pop	 edi
  0013f	5e		 pop	 esi
  00140	5d		 pop	 ebp
  00141	5b		 pop	 ebx
  00142	c2 10 00	 ret	 16			; 00000010H
$LN3@Insert_n@3:

; 1230 : 			}
; 1231 : 		else
; 1232 : 			{	// new stuff can all be assigned
; 1233 : 			_Ty _Tmp = _Val;	// in case _Val is in sequence

  00145	8b 54 24 18	 mov	 edx, DWORD PTR __Val$[esp+12]
  00149	8b 2a		 mov	 ebp, DWORD PTR [edx]

; 1234 : 
; 1235 : 			pointer _Oldend = _Mylast;
; 1236 : 			_Mylast = _Umove(_Oldend - _Count, _Oldend,
; 1237 : 				_Mylast);	// copy suffix

  0014b	8d 7e fc	 lea	 edi, DWORD PTR [esi-4]
  0014e	8b d6		 mov	 edx, esi
  00150	8b c6		 mov	 eax, esi
  00152	e8 00 00 00 00	 call	 ??$_Umove@PAH@?$vector@HV?$allocator@H@std@@@std@@IAEPAHPAH00@Z ; std::vector<int,std::allocator<int> >::_Umove<int *>
  00157	89 43 10	 mov	 DWORD PTR [ebx+16], eax

; 1238 : 
; 1239 :  #if _HAS_ITERATOR_DEBUGGING
; 1240 : 			_Orphan_range(_Where._Myptr, _Mylast);
; 1241 :  #endif /* _HAS_ITERATOR_DEBUGGING */
; 1242 : 
; 1243 : 			_STDEXT _Unchecked_move_backward(_VEC_ITER_BASE(_Where), _Oldend - _Count,
; 1244 : 				_Oldend);	// copy hole

  0015a	8b 44 24 20	 mov	 eax, DWORD PTR __Where$[esp+16]
  0015e	2b f8		 sub	 edi, eax
  00160	c1 ff 02	 sar	 edi, 2
  00163	85 ff		 test	 edi, edi
  00165	7e 19		 jle	 SHORT $LN173@Insert_n@3
  00167	8d 0c bd 00 00
	00 00		 lea	 ecx, DWORD PTR [edi*4]
  0016e	51		 push	 ecx
  0016f	50		 push	 eax
  00170	51		 push	 ecx
  00171	2b f1		 sub	 esi, ecx
  00173	56		 push	 esi
  00174	e8 00 00 00 00	 call	 _memmove_s
  00179	8b 44 24 30	 mov	 eax, DWORD PTR __Where$[esp+32]
  0017d	83 c4 10	 add	 esp, 16			; 00000010H
$LN173@Insert_n@3:

; 1245 : 			std::fill(_VEC_ITER_BASE(_Where), _VEC_ITER_BASE(_Where) + _Count,
; 1246 : 				_Tmp);	// insert into hole

  00180	8d 48 04	 lea	 ecx, DWORD PTR [eax+4]
  00183	3b c1		 cmp	 eax, ecx
  00185	74 09		 je	 SHORT $LN186@Insert_n@3
$LL188@Insert_n@3:
  00187	89 28		 mov	 DWORD PTR [eax], ebp
  00189	83 c0 04	 add	 eax, 4
  0018c	3b c1		 cmp	 eax, ecx
  0018e	75 f7		 jne	 SHORT $LL188@Insert_n@3
$LN186@Insert_n@3:

; 1247 : 			}
; 1248 : 		}

  00190	5f		 pop	 edi
  00191	5e		 pop	 esi
  00192	5d		 pop	 ebp
  00193	5b		 pop	 ebx
  00194	c2 10 00	 ret	 16			; 00000010H
$LN200@Insert_n@3:
?_Insert_n@?$vector@HV?$allocator@H@std@@@std@@IAEXV?$_Vector_const_iterator@HV?$allocator@H@std@@@2@IABH@Z ENDP ; std::vector<int,std::allocator<int> >::_Insert_n
; Function compile flags: /Ogtpy
_TEXT	ENDS
;	COMDAT ?_Buy@?$vector@HV?$allocator@H@std@@@std@@IAE_NI@Z
_TEXT	SEGMENT
?_Buy@?$vector@HV?$allocator@H@std@@@std@@IAE_NI@Z PROC	; std::vector<int,std::allocator<int> >::_Buy, COMDAT
; _this$ = esi
; __Capacity$ = edi

; 1108 : 		_Myfirst = 0, _Mylast = 0, _Myend = 0;
; 1109 : 		if (_Capacity == 0)
; 1110 : 			return (false);
; 1111 : 		else if (max_size() < _Capacity)

  00000	81 ff ff ff ff
	3f		 cmp	 edi, 1073741823		; 3fffffffH
  00006	76 05		 jbe	 SHORT $LN2@Buy@3

; 1112 : 			_Xlen();	// result too long

  00008	e9 00 00 00 00	 jmp	 ?_Xlen@?$vector@HV?$allocator@H@std@@@std@@KAXXZ ; std::vector<int,std::allocator<int> >::_Xlen
$LN2@Buy@3:

; 1113 : 		else
; 1114 : 			{	// nonempty array, allocate storage
; 1115 : 			_Myfirst = this->_Alval.allocate(_Capacity);

  0000d	8b cf		 mov	 ecx, edi
  0000f	e8 00 00 00 00	 call	 ?allocate@?$allocator@H@std@@QAEPAHI@Z ; std::allocator<int>::allocate
  00014	89 46 0c	 mov	 DWORD PTR [esi+12], eax

; 1116 : 			_Mylast = _Myfirst;

  00017	89 46 10	 mov	 DWORD PTR [esi+16], eax

; 1117 : 			_Myend = _Myfirst + _Capacity;

  0001a	8d 04 b8	 lea	 eax, DWORD PTR [eax+edi*4]
  0001d	89 46 14	 mov	 DWORD PTR [esi+20], eax

; 1118 : 			}
; 1119 : 		return (true);

  00020	b0 01		 mov	 al, 1

; 1120 : 		}

  00022	c3		 ret	 0
?_Buy@?$vector@HV?$allocator@H@std@@@std@@IAE_NI@Z ENDP	; std::vector<int,std::allocator<int> >::_Buy
; Function compile flags: /Ogtpy
_TEXT	ENDS
;	COMDAT ?insert@?$vector@HV?$allocator@H@std@@@std@@QAE?AV?$_Vector_iterator@HV?$allocator@H@std@@@2@V?$_Vector_const_iterator@HV?$allocator@H@std@@@2@ABH@Z
_TEXT	SEGMENT
__Tmp$85729 = -8					; size = 8
___$ReturnUdt$ = 8					; size = 4
__Val$ = 12						; size = 4
__Where$ = 16						; size = 8
?insert@?$vector@HV?$allocator@H@std@@@std@@QAE?AV?$_Vector_iterator@HV?$allocator@H@std@@@2@V?$_Vector_const_iterator@HV?$allocator@H@std@@@2@ABH@Z PROC ; std::vector<int,std::allocator<int> >::insert, COMDAT
; _this$ = eax

; 875  : 		{	// insert _Val at _Where

  00000	83 ec 0c	 sub	 esp, 12			; 0000000cH
  00003	53		 push	 ebx
  00004	55		 push	 ebp
  00005	56		 push	 esi
  00006	8b f0		 mov	 esi, eax

; 876  : 		size_type _Off = size() == 0 ? 0 : _Where - begin();

  00008	8b 46 10	 mov	 eax, DWORD PTR [esi+16]
  0000b	57		 push	 edi
  0000c	8b 7e 0c	 mov	 edi, DWORD PTR [esi+12]
  0000f	8b c8		 mov	 ecx, eax
  00011	2b cf		 sub	 ecx, edi
  00013	f7 c1 fc ff ff
	ff		 test	 ecx, -4			; fffffffcH
  00019	75 04		 jne	 SHORT $LN3@insert@4
  0001b	33 db		 xor	 ebx, ebx
  0001d	eb 25		 jmp	 SHORT $LN4@insert@4
$LN3@insert@4:
  0001f	3b f8		 cmp	 edi, eax
  00021	76 05		 jbe	 SHORT $LN12@insert@4
  00023	e8 00 00 00 00	 call	 __invalid_parameter_noinfo
$LN12@insert@4:
  00028	8b 4c 24 28	 mov	 ecx, DWORD PTR __Where$[esp+24]
  0002c	8b 06		 mov	 eax, DWORD PTR [esi]
  0002e	85 c9		 test	 ecx, ecx
  00030	74 04		 je	 SHORT $LN23@insert@4
  00032	3b c8		 cmp	 ecx, eax
  00034	74 05		 je	 SHORT $LN24@insert@4
$LN23@insert@4:
  00036	e8 00 00 00 00	 call	 __invalid_parameter_noinfo
$LN24@insert@4:
  0003b	8b 5c 24 2c	 mov	 ebx, DWORD PTR __Where$[esp+28]
  0003f	2b df		 sub	 ebx, edi
  00041	c1 fb 02	 sar	 ebx, 2
$LN4@insert@4:

; 877  : 		_Insert_n(_Where, (size_type)1, _Val);

  00044	8b 54 24 2c	 mov	 edx, DWORD PTR __Where$[esp+28]
  00048	8b 44 24 28	 mov	 eax, DWORD PTR __Where$[esp+24]
  0004c	8b 4c 24 24	 mov	 ecx, DWORD PTR __Val$[esp+24]
  00050	52		 push	 edx
  00051	50		 push	 eax
  00052	51		 push	 ecx
  00053	56		 push	 esi
  00054	e8 00 00 00 00	 call	 ?_Insert_n@?$vector@HV?$allocator@H@std@@@std@@IAEXV?$_Vector_const_iterator@HV?$allocator@H@std@@@2@IABH@Z ; std::vector<int,std::allocator<int> >::_Insert_n

; 878  : 		return (begin() + _Off);

  00059	8b 7e 0c	 mov	 edi, DWORD PTR [esi+12]
  0005c	3b 7e 10	 cmp	 edi, DWORD PTR [esi+16]
  0005f	76 05		 jbe	 SHORT $LN36@insert@4
  00061	e8 00 00 00 00	 call	 __invalid_parameter_noinfo
$LN36@insert@4:
  00066	8b 36		 mov	 esi, DWORD PTR [esi]
  00068	8b ee		 mov	 ebp, esi
  0006a	89 7c 24 18	 mov	 DWORD PTR __Tmp$85729[esp+32], edi
  0006e	85 f6		 test	 esi, esi
  00070	75 17		 jne	 SHORT $LN70@insert@4
  00072	e8 00 00 00 00	 call	 __invalid_parameter_noinfo
  00077	33 c0		 xor	 eax, eax
$LN61@insert@4:
  00079	8d 3c 9f	 lea	 edi, DWORD PTR [edi+ebx*4]
  0007c	3b 78 10	 cmp	 edi, DWORD PTR [eax+16]
  0007f	77 13		 ja	 SHORT $LN51@insert@4
  00081	85 f6		 test	 esi, esi
  00083	74 08		 je	 SHORT $LN66@insert@4
  00085	8b 36		 mov	 esi, DWORD PTR [esi]
  00087	eb 06		 jmp	 SHORT $LN67@insert@4
$LN70@insert@4:
  00089	8b 06		 mov	 eax, DWORD PTR [esi]
  0008b	eb ec		 jmp	 SHORT $LN61@insert@4
$LN66@insert@4:
  0008d	33 f6		 xor	 esi, esi
$LN67@insert@4:
  0008f	3b 7e 0c	 cmp	 edi, DWORD PTR [esi+12]
  00092	73 05		 jae	 SHORT $LN52@insert@4
$LN51@insert@4:
  00094	e8 00 00 00 00	 call	 __invalid_parameter_noinfo
$LN52@insert@4:
  00099	8b 44 24 20	 mov	 eax, DWORD PTR ___$ReturnUdt$[esp+24]
  0009d	89 78 04	 mov	 DWORD PTR [eax+4], edi

; 879  : 		}

  000a0	5f		 pop	 edi
  000a1	5e		 pop	 esi
  000a2	89 28		 mov	 DWORD PTR [eax], ebp
  000a4	5d		 pop	 ebp
  000a5	5b		 pop	 ebx
  000a6	83 c4 0c	 add	 esp, 12			; 0000000cH
  000a9	c2 10 00	 ret	 16			; 00000010H
?insert@?$vector@HV?$allocator@H@std@@@std@@QAE?AV?$_Vector_iterator@HV?$allocator@H@std@@@2@V?$_Vector_const_iterator@HV?$allocator@H@std@@@2@ABH@Z ENDP ; std::vector<int,std::allocator<int> >::insert
; Function compile flags: /Ogtpy
_TEXT	ENDS
;	COMDAT ?push_back@?$vector@HV?$allocator@H@std@@@std@@QAEXABH@Z
_TEXT	SEGMENT
$T85736 = -8						; size = 8
__Val$ = 8						; size = 4
?push_back@?$vector@HV?$allocator@H@std@@@std@@QAEXABH@Z PROC ; std::vector<int,std::allocator<int> >::push_back, COMDAT
; _this$ = edi

; 810  : 		if (size() < capacity())

  00000	8b 4f 0c	 mov	 ecx, DWORD PTR [edi+12]
  00003	83 ec 08	 sub	 esp, 8
  00006	53		 push	 ebx
  00007	8b 5c 24 10	 mov	 ebx, DWORD PTR __Val$[esp+8]
  0000b	56		 push	 esi
  0000c	85 c9		 test	 ecx, ecx
  0000e	75 04		 jne	 SHORT $LN9@push_back@3
  00010	33 c0		 xor	 eax, eax
  00012	eb 08		 jmp	 SHORT $LN10@push_back@3
$LN9@push_back@3:
  00014	8b 47 14	 mov	 eax, DWORD PTR [edi+20]
  00017	2b c1		 sub	 eax, ecx
  00019	c1 f8 02	 sar	 eax, 2
$LN10@push_back@3:
  0001c	8b 77 10	 mov	 esi, DWORD PTR [edi+16]
  0001f	8b d6		 mov	 edx, esi
  00021	2b d1		 sub	 edx, ecx
  00023	c1 fa 02	 sar	 edx, 2
  00026	3b d0		 cmp	 edx, eax
  00028	73 12		 jae	 SHORT $LN2@push_back@3

; 811  : 
; 812  :  #if _HAS_ITERATOR_DEBUGGING
; 813  : 			{ // room at end, construct it there
; 814  : 			_Orphan_range(_Mylast, _Mylast);
; 815  : 			_Mylast = _Ufill(_Mylast, 1, _Val);
; 816  : 			}
; 817  : 
; 818  :  #else /* _HAS_ITERATOR_DEBUGGING */
; 819  : 			_Mylast = _Ufill(_Mylast, 1, _Val);

  0002a	8b 03		 mov	 eax, DWORD PTR [ebx]
  0002c	89 06		 mov	 DWORD PTR [esi], eax
  0002e	83 c6 04	 add	 esi, 4
  00031	89 77 10	 mov	 DWORD PTR [edi+16], esi

; 824  : 		}

  00034	5e		 pop	 esi
  00035	5b		 pop	 ebx
  00036	83 c4 08	 add	 esp, 8
  00039	c2 04 00	 ret	 4
$LN2@push_back@3:

; 820  :  #endif /* _HAS_ITERATOR_DEBUGGING */
; 821  : 
; 822  : 		else
; 823  : 			insert(end(), _Val);

  0003c	3b ce		 cmp	 ecx, esi
  0003e	76 05		 jbe	 SHORT $LN39@push_back@3
  00040	e8 00 00 00 00	 call	 __invalid_parameter_noinfo
$LN39@push_back@3:
  00045	8b 07		 mov	 eax, DWORD PTR [edi]
  00047	56		 push	 esi
  00048	50		 push	 eax
  00049	53		 push	 ebx
  0004a	8d 4c 24 14	 lea	 ecx, DWORD PTR $T85736[esp+28]
  0004e	51		 push	 ecx
  0004f	8b c7		 mov	 eax, edi
  00051	e8 00 00 00 00	 call	 ?insert@?$vector@HV?$allocator@H@std@@@std@@QAE?AV?$_Vector_iterator@HV?$allocator@H@std@@@2@V?$_Vector_const_iterator@HV?$allocator@H@std@@@2@ABH@Z ; std::vector<int,std::allocator<int> >::insert

; 824  : 		}

  00056	5e		 pop	 esi
  00057	5b		 pop	 ebx
  00058	83 c4 08	 add	 esp, 8
  0005b	c2 04 00	 ret	 4
?push_back@?$vector@HV?$allocator@H@std@@@std@@QAEXABH@Z ENDP ; std::vector<int,std::allocator<int> >::push_back
_TEXT	ENDS
;	COMDAT xdata$x
; File c:\program files\microsoft visual studio 9.0\vc\include\exception
xdata$x	SEGMENT
__unwindtable$??0?$vector@HV?$allocator@H@std@@@std@@QAE@XZ DD 0ffffffffH
	DD	FLAT:__unwindfunclet$??0?$vector@HV?$allocator@H@std@@@std@@QAE@XZ$0
__ehfuncinfo$??0?$vector@HV?$allocator@H@std@@@std@@QAE@XZ DD 019930522H
	DD	01H
	DD	FLAT:__unwindtable$??0?$vector@HV?$allocator@H@std@@@std@@QAE@XZ
	DD	2 DUP(00H)
	DD	2 DUP(00H)
	DD	00H
	DD	01H
; Function compile flags: /Ogtpy
; File c:\program files\microsoft visual studio 9.0\vc\include\vector
xdata$x	ENDS
;	COMDAT ??0?$vector@HV?$allocator@H@std@@@std@@QAE@XZ
_TEXT	SEGMENT
__$EHRec$ = -12						; size = 12
_this$ = 8						; size = 4
??0?$vector@HV?$allocator@H@std@@@std@@QAE@XZ PROC	; std::vector<int,std::allocator<int> >::vector<int,std::allocator<int> >, COMDAT

; 470  : 		{	// construct empty vector

  00000	6a ff		 push	 -1
  00002	68 00 00 00 00	 push	 __ehhandler$??0?$vector@HV?$allocator@H@std@@@std@@QAE@XZ
  00007	64 a1 00 00 00
	00		 mov	 eax, DWORD PTR fs:0
  0000d	50		 push	 eax
  0000e	51		 push	 ecx
  0000f	56		 push	 esi
  00010	a1 00 00 00 00	 mov	 eax, DWORD PTR ___security_cookie
  00015	33 c4		 xor	 eax, esp
  00017	50		 push	 eax
  00018	8d 44 24 0c	 lea	 eax, DWORD PTR __$EHRec$[esp+24]
  0001c	64 a3 00 00 00
	00		 mov	 DWORD PTR fs:0, eax
  00022	8b 74 24 1c	 mov	 esi, DWORD PTR _this$[esp+20]
  00026	6a 04		 push	 4
  00028	e8 00 00 00 00	 call	 ??2@YAPAXI@Z		; operator new
  0002d	33 c9		 xor	 ecx, ecx
  0002f	83 c4 04	 add	 esp, 4
  00032	3b c1		 cmp	 eax, ecx
  00034	74 04		 je	 SHORT $LN13@vector@8
  00036	89 30		 mov	 DWORD PTR [eax], esi
  00038	eb 02		 jmp	 SHORT $LN14@vector@8
$LN13@vector@8:
  0003a	33 c0		 xor	 eax, eax
$LN14@vector@8:
  0003c	89 06		 mov	 DWORD PTR [esi], eax

; 471  : 		_Buy(0);

  0003e	89 4e 0c	 mov	 DWORD PTR [esi+12], ecx
  00041	89 4e 10	 mov	 DWORD PTR [esi+16], ecx
  00044	89 4e 14	 mov	 DWORD PTR [esi+20], ecx

; 472  : 		}

  00047	8b c6		 mov	 eax, esi
  00049	8b 4c 24 0c	 mov	 ecx, DWORD PTR __$EHRec$[esp+24]
  0004d	64 89 0d 00 00
	00 00		 mov	 DWORD PTR fs:0, ecx
  00054	59		 pop	 ecx
  00055	5e		 pop	 esi
  00056	83 c4 10	 add	 esp, 16			; 00000010H
  00059	c2 04 00	 ret	 4
_TEXT	ENDS
;	COMDAT text$x
text$x	SEGMENT
__unwindfunclet$??0?$vector@HV?$allocator@H@std@@@std@@QAE@XZ$0:
  00000	8b 45 04	 mov	 eax, DWORD PTR _this$[ebp-4]
  00003	e9 00 00 00 00	 jmp	 ??1?$_Vector_val@HV?$allocator@H@std@@@std@@QAE@XZ
__ehhandler$??0?$vector@HV?$allocator@H@std@@@std@@QAE@XZ:
  00008	8b 54 24 08	 mov	 edx, DWORD PTR [esp+8]
  0000c	8d 42 f8	 lea	 eax, DWORD PTR [edx-8]
  0000f	8b 4a f4	 mov	 ecx, DWORD PTR [edx-12]
  00012	33 c8		 xor	 ecx, eax
  00014	e8 00 00 00 00	 call	 @__security_check_cookie@4
  00019	b8 00 00 00 00	 mov	 eax, OFFSET __ehfuncinfo$??0?$vector@HV?$allocator@H@std@@@std@@QAE@XZ
  0001e	e9 00 00 00 00	 jmp	 ___CxxFrameHandler3
text$x	ENDS
??0?$vector@HV?$allocator@H@std@@@std@@QAE@XZ ENDP	; std::vector<int,std::allocator<int> >::vector<int,std::allocator<int> >
PUBLIC	?SetVector@ObjectIdentifier@@QAEXV?$vector@IV?$allocator@I@std@@@std@@@Z ; ObjectIdentifier::SetVector
;	COMDAT xdata$x
; File c:\program files\microsoft visual studio 9.0\vc\include\xutility
xdata$x	SEGMENT
__unwindtable$?SetVector@ObjectIdentifier@@QAEXV?$vector@IV?$allocator@I@std@@@std@@@Z DD 0ffffffffH
	DD	FLAT:__unwindfunclet$?SetVector@ObjectIdentifier@@QAEXV?$vector@IV?$allocator@I@std@@@std@@@Z$0
__ehfuncinfo$?SetVector@ObjectIdentifier@@QAEXV?$vector@IV?$allocator@I@std@@@std@@@Z DD 019930522H
	DD	01H
	DD	FLAT:__unwindtable$?SetVector@ObjectIdentifier@@QAEXV?$vector@IV?$allocator@I@std@@@std@@@Z
	DD	2 DUP(00H)
	DD	2 DUP(00H)
	DD	00H
	DD	01H
; Function compile flags: /Ogtpy
; File i:\nj\my project\cms\cms\asn1\objectidentifier.cpp
xdata$x	ENDS
;	COMDAT ?SetVector@ObjectIdentifier@@QAEXV?$vector@IV?$allocator@I@std@@@std@@@Z
_TEXT	SEGMENT
$T86177 = -24						; size = 4
$T86436 = -20						; size = 8
__$EHRec$ = -12						; size = 12
_i$ = 8							; size = 24
?SetVector@ObjectIdentifier@@QAEXV?$vector@IV?$allocator@I@std@@@std@@@Z PROC ; ObjectIdentifier::SetVector, COMDAT
; _this$ = edx

; 94   : {

  00000	6a ff		 push	 -1
  00002	68 00 00 00 00	 push	 __ehhandler$?SetVector@ObjectIdentifier@@QAEXV?$vector@IV?$allocator@I@std@@@std@@@Z
  00007	64 a1 00 00 00
	00		 mov	 eax, DWORD PTR fs:0
  0000d	50		 push	 eax
  0000e	83 ec 0c	 sub	 esp, 12			; 0000000cH
  00011	53		 push	 ebx
  00012	55		 push	 ebp
  00013	56		 push	 esi
  00014	57		 push	 edi
  00015	a1 00 00 00 00	 mov	 eax, DWORD PTR ___security_cookie
  0001a	33 c4		 xor	 eax, esp
  0001c	50		 push	 eax
  0001d	8d 44 24 20	 lea	 eax, DWORD PTR __$EHRec$[esp+44]
  00021	64 a3 00 00 00
	00		 mov	 DWORD PTR fs:0, eax
  00027	33 db		 xor	 ebx, ebx
  00029	89 5c 24 28	 mov	 DWORD PTR __$EHRec$[esp+52], ebx

; 95   : 	unsigned	int	count = 0;
; 96   : 
; 97   : 	while(count < i.size()){

  0002d	8b 44 24 40	 mov	 eax, DWORD PTR _i$[esp+56]
  00031	8b 4c 24 3c	 mov	 ecx, DWORD PTR _i$[esp+52]
  00035	2b c1		 sub	 eax, ecx
  00037	c1 f8 02	 sar	 eax, 2
  0003a	3b c3		 cmp	 eax, ebx
  0003c	76 74		 jbe	 SHORT $LN1@SetVector
  0003e	8b fa		 mov	 edi, edx
  00040	83 c7 44	 add	 edi, 68			; 00000044H

; 98   : 		iValue.push_back(i[count]);

  00043	3b d8		 cmp	 ebx, eax
  00045	72 09		 jb	 SHORT $LN8@SetVector
  00047	e8 00 00 00 00	 call	 __invalid_parameter_noinfo
  0004c	8b 4c 24 3c	 mov	 ecx, DWORD PTR _i$[esp+52]
$LN8@SetVector:
  00050	8b 47 0c	 mov	 eax, DWORD PTR [edi+12]
  00053	8b 14 99	 mov	 edx, DWORD PTR [ecx+ebx*4]
  00056	89 54 24 14	 mov	 DWORD PTR $T86177[esp+44], edx
  0005a	85 c0		 test	 eax, eax
  0005c	75 04		 jne	 SHORT $LN21@SetVector
  0005e	33 c9		 xor	 ecx, ecx
  00060	eb 08		 jmp	 SHORT $LN22@SetVector
$LN21@SetVector:
  00062	8b 4f 14	 mov	 ecx, DWORD PTR [edi+20]
  00065	2b c8		 sub	 ecx, eax
  00067	c1 f9 02	 sar	 ecx, 2
$LN22@SetVector:
  0006a	8b 77 10	 mov	 esi, DWORD PTR [edi+16]
  0006d	8b ee		 mov	 ebp, esi
  0006f	2b e8		 sub	 ebp, eax
  00071	c1 fd 02	 sar	 ebp, 2
  00074	3b e9		 cmp	 ebp, ecx
  00076	73 0a		 jae	 SHORT $LN14@SetVector
  00078	89 16		 mov	 DWORD PTR [esi], edx
  0007a	83 c6 04	 add	 esi, 4
  0007d	89 77 10	 mov	 DWORD PTR [edi+16], esi
  00080	eb 1e		 jmp	 SHORT $LN13@SetVector
$LN14@SetVector:
  00082	3b c6		 cmp	 eax, esi
  00084	76 05		 jbe	 SHORT $LN51@SetVector
  00086	e8 00 00 00 00	 call	 __invalid_parameter_noinfo
$LN51@SetVector:
  0008b	8b 07		 mov	 eax, DWORD PTR [edi]
  0008d	56		 push	 esi
  0008e	50		 push	 eax
  0008f	8d 44 24 1c	 lea	 eax, DWORD PTR $T86177[esp+52]
  00093	50		 push	 eax
  00094	8d 4c 24 24	 lea	 ecx, DWORD PTR $T86436[esp+56]
  00098	51		 push	 ecx
  00099	8b c7		 mov	 eax, edi
  0009b	e8 00 00 00 00	 call	 ?insert@?$vector@HV?$allocator@H@std@@@std@@QAE?AV?$_Vector_iterator@HV?$allocator@H@std@@@2@V?$_Vector_const_iterator@HV?$allocator@H@std@@@2@ABH@Z ; std::vector<int,std::allocator<int> >::insert
$LN13@SetVector:
  000a0	8b 44 24 40	 mov	 eax, DWORD PTR _i$[esp+56]
  000a4	8b 4c 24 3c	 mov	 ecx, DWORD PTR _i$[esp+52]
  000a8	2b c1		 sub	 eax, ecx

; 99   : 		count++;

  000aa	43		 inc	 ebx
  000ab	c1 f8 02	 sar	 eax, 2
  000ae	3b d8		 cmp	 ebx, eax
  000b0	72 9e		 jb	 SHORT $LN8@SetVector
$LN1@SetVector:

; 100  : 	}
; 101  : }

  000b2	33 f6		 xor	 esi, esi
  000b4	3b ce		 cmp	 ecx, esi
  000b6	74 09		 je	 SHORT $LN67@SetVector
  000b8	51		 push	 ecx
  000b9	e8 00 00 00 00	 call	 ??3@YAXPAX@Z		; operator delete
  000be	83 c4 04	 add	 esp, 4
$LN67@SetVector:
  000c1	8b 54 24 30	 mov	 edx, DWORD PTR _i$[esp+40]
  000c5	52		 push	 edx
  000c6	89 74 24 40	 mov	 DWORD PTR _i$[esp+56], esi
  000ca	89 74 24 44	 mov	 DWORD PTR _i$[esp+60], esi
  000ce	89 74 24 48	 mov	 DWORD PTR _i$[esp+64], esi
  000d2	e8 00 00 00 00	 call	 ??3@YAXPAX@Z		; operator delete
  000d7	83 c4 04	 add	 esp, 4
  000da	8b 4c 24 20	 mov	 ecx, DWORD PTR __$EHRec$[esp+44]
  000de	64 89 0d 00 00
	00 00		 mov	 DWORD PTR fs:0, ecx
  000e5	59		 pop	 ecx
  000e6	5f		 pop	 edi
  000e7	5e		 pop	 esi
  000e8	5d		 pop	 ebp
  000e9	5b		 pop	 ebx
  000ea	83 c4 18	 add	 esp, 24			; 00000018H
  000ed	c2 18 00	 ret	 24			; 00000018H
_TEXT	ENDS
;	COMDAT text$x
text$x	SEGMENT
__unwindfunclet$?SetVector@ObjectIdentifier@@QAEXV?$vector@IV?$allocator@I@std@@@std@@@Z$0:
  00000	8d 75 04	 lea	 esi, DWORD PTR _i$[ebp-4]
  00003	e9 00 00 00 00	 jmp	 ??1?$vector@IV?$allocator@I@std@@@std@@QAE@XZ ; std::vector<unsigned int,std::allocator<unsigned int> >::~vector<unsigned int,std::allocator<unsigned int> >
__ehhandler$?SetVector@ObjectIdentifier@@QAEXV?$vector@IV?$allocator@I@std@@@std@@@Z:
  00008	8b 54 24 08	 mov	 edx, DWORD PTR [esp+8]
  0000c	8d 42 e4	 lea	 eax, DWORD PTR [edx-28]
  0000f	8b 4a e0	 mov	 ecx, DWORD PTR [edx-32]
  00012	33 c8		 xor	 ecx, eax
  00014	e8 00 00 00 00	 call	 @__security_check_cookie@4
  00019	b8 00 00 00 00	 mov	 eax, OFFSET __ehfuncinfo$?SetVector@ObjectIdentifier@@QAEXV?$vector@IV?$allocator@I@std@@@std@@@Z
  0001e	e9 00 00 00 00	 jmp	 ___CxxFrameHandler3
text$x	ENDS
?SetVector@ObjectIdentifier@@QAEXV?$vector@IV?$allocator@I@std@@@std@@@Z ENDP ; ObjectIdentifier::SetVector
PUBLIC	?Set@ObjectIdentifier@@QAEXQAII@Z		; ObjectIdentifier::Set
; Function compile flags: /Ogtpy
;	COMDAT ?Set@ObjectIdentifier@@QAEXQAII@Z
_TEXT	SEGMENT
$T86560 = -12						; size = 4
$T86809 = -8						; size = 8
_i$ = 8							; size = 4
_n$ = 12						; size = 4
?Set@ObjectIdentifier@@QAEXQAII@Z PROC			; ObjectIdentifier::Set, COMDAT
; _this$ = eax

; 76   : {

  00000	55		 push	 ebp
  00001	8b ec		 mov	 ebp, esp
  00003	83 e4 f8	 and	 esp, -8			; fffffff8H
  00006	83 ec 0c	 sub	 esp, 12			; 0000000cH
  00009	53		 push	 ebx

; 77   : 	unsigned	int	count = 0;

  0000a	33 db		 xor	 ebx, ebx
  0000c	56		 push	 esi
  0000d	57		 push	 edi

; 78   : 
; 79   : 	while(count < n){

  0000e	39 5d 0c	 cmp	 DWORD PTR _n$[ebp], ebx
  00011	76 62		 jbe	 SHORT $LN1@Set
  00013	8b f0		 mov	 esi, eax
  00015	83 c6 44	 add	 esi, 68			; 00000044H
$LN2@Set:

; 80   : 		iValue.push_back(i[count]);

  00018	8b 45 08	 mov	 eax, DWORD PTR _i$[ebp]
  0001b	8b 0c 98	 mov	 ecx, DWORD PTR [eax+ebx*4]
  0001e	8b 46 0c	 mov	 eax, DWORD PTR [esi+12]
  00021	89 4c 24 0c	 mov	 DWORD PTR $T86560[esp+24], ecx
  00025	85 c0		 test	 eax, eax
  00027	75 04		 jne	 SHORT $LN13@Set
  00029	33 c9		 xor	 ecx, ecx
  0002b	eb 08		 jmp	 SHORT $LN14@Set
$LN13@Set:
  0002d	8b 4e 14	 mov	 ecx, DWORD PTR [esi+20]
  00030	2b c8		 sub	 ecx, eax
  00032	c1 f9 02	 sar	 ecx, 2
$LN14@Set:
  00035	8b 7e 10	 mov	 edi, DWORD PTR [esi+16]
  00038	8b d7		 mov	 edx, edi
  0003a	2b d0		 sub	 edx, eax
  0003c	c1 fa 02	 sar	 edx, 2
  0003f	3b d1		 cmp	 edx, ecx
  00041	73 0e		 jae	 SHORT $LN6@Set
  00043	8b 44 24 0c	 mov	 eax, DWORD PTR $T86560[esp+24]
  00047	89 07		 mov	 DWORD PTR [edi], eax
  00049	83 c7 04	 add	 edi, 4
  0004c	89 7e 10	 mov	 DWORD PTR [esi+16], edi
  0004f	eb 1e		 jmp	 SHORT $LN5@Set
$LN6@Set:
  00051	3b c7		 cmp	 eax, edi
  00053	76 05		 jbe	 SHORT $LN43@Set
  00055	e8 00 00 00 00	 call	 __invalid_parameter_noinfo
$LN43@Set:
  0005a	8b 06		 mov	 eax, DWORD PTR [esi]
  0005c	57		 push	 edi
  0005d	50		 push	 eax
  0005e	8d 4c 24 14	 lea	 ecx, DWORD PTR $T86560[esp+32]
  00062	51		 push	 ecx
  00063	8d 54 24 1c	 lea	 edx, DWORD PTR $T86809[esp+36]
  00067	52		 push	 edx
  00068	8b c6		 mov	 eax, esi
  0006a	e8 00 00 00 00	 call	 ?insert@?$vector@HV?$allocator@H@std@@@std@@QAE?AV?$_Vector_iterator@HV?$allocator@H@std@@@2@V?$_Vector_const_iterator@HV?$allocator@H@std@@@2@ABH@Z ; std::vector<int,std::allocator<int> >::insert
$LN5@Set:

; 81   : 		count++;

  0006f	43		 inc	 ebx
  00070	3b 5d 0c	 cmp	 ebx, DWORD PTR _n$[ebp]
  00073	72 a3		 jb	 SHORT $LN2@Set
$LN1@Set:

; 82   : 	}
; 83   : }

  00075	5f		 pop	 edi
  00076	5e		 pop	 esi
  00077	5b		 pop	 ebx
  00078	8b e5		 mov	 esp, ebp
  0007a	5d		 pop	 ebp
  0007b	c2 08 00	 ret	 8
?Set@ObjectIdentifier@@QAEXQAII@Z ENDP			; ObjectIdentifier::Set
_TEXT	ENDS
PUBLIC	??0ObjectIdentifier@@QAE@QAIIQBD@Z		; ObjectIdentifier::ObjectIdentifier
;	COMDAT xdata$x
xdata$x	SEGMENT
__unwindtable$??0ObjectIdentifier@@QAE@QAIIQBD@Z DD 0ffffffffH
	DD	FLAT:__unwindfunclet$??0ObjectIdentifier@@QAE@QAIIQBD@Z$0
	DD	00H
	DD	FLAT:__unwindfunclet$??0ObjectIdentifier@@QAE@QAIIQBD@Z$1
__ehfuncinfo$??0ObjectIdentifier@@QAE@QAIIQBD@Z DD 019930522H
	DD	02H
	DD	FLAT:__unwindtable$??0ObjectIdentifier@@QAE@QAIIQBD@Z
	DD	2 DUP(00H)
	DD	2 DUP(00H)
	DD	00H
	DD	01H
; Function compile flags: /Ogtpy
xdata$x	ENDS
;	COMDAT ??0ObjectIdentifier@@QAE@QAIIQBD@Z
_TEXT	SEGMENT
__$EHRec$ = -12						; size = 12
_this$ = 8						; size = 4
_i$ = 12						; size = 4
_n$ = 16						; size = 4
??0ObjectIdentifier@@QAE@QAIIQBD@Z PROC			; ObjectIdentifier::ObjectIdentifier, COMDAT

; 27   : {

  00000	6a ff		 push	 -1
  00002	68 00 00 00 00	 push	 __ehhandler$??0ObjectIdentifier@@QAE@QAIIQBD@Z
  00007	64 a1 00 00 00
	00		 mov	 eax, DWORD PTR fs:0
  0000d	50		 push	 eax
  0000e	51		 push	 ecx
  0000f	56		 push	 esi
  00010	a1 00 00 00 00	 mov	 eax, DWORD PTR ___security_cookie
  00015	33 c4		 xor	 eax, esp
  00017	50		 push	 eax
  00018	8d 44 24 0c	 lea	 eax, DWORD PTR __$EHRec$[esp+24]
  0001c	64 a3 00 00 00
	00		 mov	 DWORD PTR fs:0, eax
  00022	8b 74 24 1c	 mov	 esi, DWORD PTR _this$[esp+20]
  00026	68 00 00 00 00	 push	 OFFSET ??_C@_0BC@MPENPPNL@Object?5Identifier?$AA@
  0002b	56		 push	 esi
  0002c	e8 00 00 00 00	 call	 ??0ASN1@@QAE@QBD@Z	; ASN1::ASN1
  00031	8d 46 44	 lea	 eax, DWORD PTR [esi+68]
  00034	c7 44 24 14 00
	00 00 00	 mov	 DWORD PTR __$EHRec$[esp+32], 0
  0003c	50		 push	 eax
  0003d	c7 06 00 00 00
	00		 mov	 DWORD PTR [esi], OFFSET ??_7ObjectIdentifier@@6B@
  00043	e8 00 00 00 00	 call	 ??0?$vector@HV?$allocator@H@std@@@std@@QAE@XZ ; std::vector<int,std::allocator<int> >::vector<int,std::allocator<int> >

; 28   : 	Set(i,n);

  00048	8b 4c 24 24	 mov	 ecx, DWORD PTR _n$[esp+20]
  0004c	8b 54 24 20	 mov	 edx, DWORD PTR _i$[esp+20]
  00050	51		 push	 ecx
  00051	52		 push	 edx
  00052	8b c6		 mov	 eax, esi
  00054	c6 44 24 1c 01	 mov	 BYTE PTR __$EHRec$[esp+40], 1
  00059	e8 00 00 00 00	 call	 ?Set@ObjectIdentifier@@QAEXQAII@Z ; ObjectIdentifier::Set

; 29   : }

  0005e	8b c6		 mov	 eax, esi
  00060	8b 4c 24 0c	 mov	 ecx, DWORD PTR __$EHRec$[esp+24]
  00064	64 89 0d 00 00
	00 00		 mov	 DWORD PTR fs:0, ecx
  0006b	59		 pop	 ecx
  0006c	5e		 pop	 esi
  0006d	83 c4 10	 add	 esp, 16			; 00000010H
  00070	c2 0c 00	 ret	 12			; 0000000cH
_TEXT	ENDS
;	COMDAT text$x
text$x	SEGMENT
__unwindfunclet$??0ObjectIdentifier@@QAE@QAIIQBD@Z$0:
  00000	8b 7d 04	 mov	 edi, DWORD PTR _this$[ebp-4]
  00003	e9 00 00 00 00	 jmp	 ??1ASN1@@QAE@XZ		; ASN1::~ASN1
__unwindfunclet$??0ObjectIdentifier@@QAE@QAIIQBD@Z$1:
  00008	8b 75 04	 mov	 esi, DWORD PTR _this$[ebp-4]
  0000b	83 c6 44	 add	 esi, 68			; 00000044H
  0000e	e9 00 00 00 00	 jmp	 ??1?$vector@HV?$allocator@H@std@@@std@@QAE@XZ ; std::vector<int,std::allocator<int> >::~vector<int,std::allocator<int> >
__ehhandler$??0ObjectIdentifier@@QAE@QAIIQBD@Z:
  00013	8b 54 24 08	 mov	 edx, DWORD PTR [esp+8]
  00017	8d 42 f8	 lea	 eax, DWORD PTR [edx-8]
  0001a	8b 4a f4	 mov	 ecx, DWORD PTR [edx-12]
  0001d	33 c8		 xor	 ecx, eax
  0001f	e8 00 00 00 00	 call	 @__security_check_cookie@4
  00024	b8 00 00 00 00	 mov	 eax, OFFSET __ehfuncinfo$??0ObjectIdentifier@@QAE@QAIIQBD@Z
  00029	e9 00 00 00 00	 jmp	 ___CxxFrameHandler3
text$x	ENDS
??0ObjectIdentifier@@QAE@QAIIQBD@Z ENDP			; ObjectIdentifier::ObjectIdentifier
PUBLIC	??0ObjectIdentifier@@QAE@QBD@Z			; ObjectIdentifier::ObjectIdentifier
;	COMDAT xdata$x
xdata$x	SEGMENT
__unwindtable$??0ObjectIdentifier@@QAE@QBD@Z DD 0ffffffffH
	DD	FLAT:__unwindfunclet$??0ObjectIdentifier@@QAE@QBD@Z$0
__ehfuncinfo$??0ObjectIdentifier@@QAE@QBD@Z DD 019930522H
	DD	01H
	DD	FLAT:__unwindtable$??0ObjectIdentifier@@QAE@QBD@Z
	DD	2 DUP(00H)
	DD	2 DUP(00H)
	DD	00H
	DD	01H
; Function compile flags: /Ogtpy
xdata$x	ENDS
;	COMDAT ??0ObjectIdentifier@@QAE@QBD@Z
_TEXT	SEGMENT
__$EHRec$ = -12						; size = 12
_this$ = 8						; size = 4
??0ObjectIdentifier@@QAE@QBD@Z PROC			; ObjectIdentifier::ObjectIdentifier, COMDAT

; 14   : {

  00000	6a ff		 push	 -1
  00002	68 00 00 00 00	 push	 __ehhandler$??0ObjectIdentifier@@QAE@QBD@Z
  00007	64 a1 00 00 00
	00		 mov	 eax, DWORD PTR fs:0
  0000d	50		 push	 eax
  0000e	51		 push	 ecx
  0000f	56		 push	 esi
  00010	a1 00 00 00 00	 mov	 eax, DWORD PTR ___security_cookie
  00015	33 c4		 xor	 eax, esp
  00017	50		 push	 eax
  00018	8d 44 24 0c	 lea	 eax, DWORD PTR __$EHRec$[esp+24]
  0001c	64 a3 00 00 00
	00		 mov	 DWORD PTR fs:0, eax
  00022	8b 74 24 1c	 mov	 esi, DWORD PTR _this$[esp+20]
  00026	68 00 00 00 00	 push	 OFFSET ??_C@_0BC@MPENPPNL@Object?5Identifier?$AA@
  0002b	56		 push	 esi
  0002c	e8 00 00 00 00	 call	 ??0ASN1@@QAE@QBD@Z	; ASN1::ASN1
  00031	8d 46 44	 lea	 eax, DWORD PTR [esi+68]
  00034	c7 44 24 14 00
	00 00 00	 mov	 DWORD PTR __$EHRec$[esp+32], 0
  0003c	50		 push	 eax
  0003d	c7 06 00 00 00
	00		 mov	 DWORD PTR [esi], OFFSET ??_7ObjectIdentifier@@6B@
  00043	e8 00 00 00 00	 call	 ??0?$vector@HV?$allocator@H@std@@@std@@QAE@XZ ; std::vector<int,std::allocator<int> >::vector<int,std::allocator<int> >

; 15   : }

  00048	8b c6		 mov	 eax, esi
  0004a	8b 4c 24 0c	 mov	 ecx, DWORD PTR __$EHRec$[esp+24]
  0004e	64 89 0d 00 00
	00 00		 mov	 DWORD PTR fs:0, ecx
  00055	59		 pop	 ecx
  00056	5e		 pop	 esi
  00057	83 c4 10	 add	 esp, 16			; 00000010H
  0005a	c2 04 00	 ret	 4
_TEXT	ENDS
;	COMDAT text$x
text$x	SEGMENT
__unwindfunclet$??0ObjectIdentifier@@QAE@QBD@Z$0:
  00000	8b 7d 04	 mov	 edi, DWORD PTR _this$[ebp-4]
  00003	e9 00 00 00 00	 jmp	 ??1ASN1@@QAE@XZ		; ASN1::~ASN1
__ehhandler$??0ObjectIdentifier@@QAE@QBD@Z:
  00008	8b 54 24 08	 mov	 edx, DWORD PTR [esp+8]
  0000c	8d 42 f8	 lea	 eax, DWORD PTR [edx-8]
  0000f	8b 4a f4	 mov	 ecx, DWORD PTR [edx-12]
  00012	33 c8		 xor	 ecx, eax
  00014	e8 00 00 00 00	 call	 @__security_check_cookie@4
  00019	b8 00 00 00 00	 mov	 eax, OFFSET __ehfuncinfo$??0ObjectIdentifier@@QAE@QBD@Z
  0001e	e9 00 00 00 00	 jmp	 ___CxxFrameHandler3
text$x	ENDS
??0ObjectIdentifier@@QAE@QBD@Z ENDP			; ObjectIdentifier::ObjectIdentifier
END
