; Listing generated by Microsoft (R) Optimizing Compiler Version 15.00.30729.01 

	TITLE	i:\?n????j\My Project\CMS\CMS\ASN1\OctetString.cpp
	.686P
	.XMM
	include listing.inc
	.model	flat

INCLUDELIB OLDNAMES

PUBLIC	?encodeBER@OctetString@@UAEXXZ			; OctetString::encodeBER
PUBLIC	??_R4OctetString@@6B@				; OctetString::`RTTI Complete Object Locator'
PUBLIC	??_R3OctetString@@8				; OctetString::`RTTI Class Hierarchy Descriptor'
PUBLIC	??_R2OctetString@@8				; OctetString::`RTTI Base Class Array'
PUBLIC	??_R1A@?0A@EA@OctetString@@8			; OctetString::`RTTI Base Class Descriptor at (0,-1,0,64)'
PUBLIC	??_R0?AVOctetString@@@8				; OctetString `RTTI Type Descriptor'
PUBLIC	??_7OctetString@@6B@				; OctetString::`vftable'
;	COMDAT ??_7OctetString@@6B@
CONST	SEGMENT
??_7OctetString@@6B@ DD FLAT:??_R4OctetString@@6B@	; OctetString::`vftable'
	DD	FLAT:?encodeBER@OctetString@@UAEXXZ
	DD	FLAT:?Get_BERcode@ASN1@@UAEPBDXZ
	DD	FLAT:?Get_BERsize@ASN1@@UAEIXZ
CONST	ENDS
;	COMDAT ??_R4OctetString@@6B@
rdata$r	SEGMENT
??_R4OctetString@@6B@ DD 00H				; OctetString::`RTTI Complete Object Locator'
	DD	00H
	DD	00H
	DD	FLAT:??_R0?AVOctetString@@@8
	DD	FLAT:??_R3OctetString@@8
rdata$r	ENDS
;	COMDAT ??_R3OctetString@@8
rdata$r	SEGMENT
??_R3OctetString@@8 DD 00H				; OctetString::`RTTI Class Hierarchy Descriptor'
	DD	00H
	DD	02H
	DD	FLAT:??_R2OctetString@@8
rdata$r	ENDS
;	COMDAT ??_R2OctetString@@8
rdata$r	SEGMENT
??_R2OctetString@@8 DD FLAT:??_R1A@?0A@EA@OctetString@@8 ; OctetString::`RTTI Base Class Array'
	DD	FLAT:??_R1A@?0A@EA@ASN1@@8
rdata$r	ENDS
;	COMDAT ??_R1A@?0A@EA@OctetString@@8
rdata$r	SEGMENT
??_R1A@?0A@EA@OctetString@@8 DD FLAT:??_R0?AVOctetString@@@8 ; OctetString::`RTTI Base Class Descriptor at (0,-1,0,64)'
	DD	01H
	DD	00H
	DD	0ffffffffH
	DD	00H
	DD	040H
	DD	FLAT:??_R3OctetString@@8
rdata$r	ENDS
;	COMDAT ??_R0?AVOctetString@@@8
_DATA	SEGMENT
??_R0?AVOctetString@@@8 DD FLAT:??_7type_info@@6B@	; OctetString `RTTI Type Descriptor'
	DD	00H
	DB	'.?AVOctetString@@', 00H
PUBLIC	?Set@OctetString@@QAEXQADI@Z			; OctetString::Set
; Function compile flags: /Ogtpy
; File i:\“n•”“ÄŽj\my project\cms\cms\asn1\octetstring.cpp
;	COMDAT ?Set@OctetString@@QAEXQADI@Z
_TEXT	SEGMENT
_this$ = 8						; size = 4
?Set@OctetString@@QAEXQADI@Z PROC			; OctetString::Set, COMDAT
; _c$ = ecx
; _iSize$ = eax

; 51   : 	strValue.assign(c, iSize);

  00000	50		 push	 eax
  00001	51		 push	 ecx
  00002	8b 4c 24 0c	 mov	 ecx, DWORD PTR _this$[esp+4]
  00006	83 c1 44	 add	 ecx, 68			; 00000044H
  00009	e8 00 00 00 00	 call	 ?assign@?$basic_string@DU?$char_traits@D@std@@V?$allocator@D@2@@std@@QAEAAV12@PBDI@Z ; std::basic_string<char,std::char_traits<char>,std::allocator<char> >::assign

; 52   : }

  0000e	c2 04 00	 ret	 4
?Set@OctetString@@QAEXQADI@Z ENDP			; OctetString::Set
_TEXT	ENDS
PUBLIC	??1OctetString@@QAE@XZ				; OctetString::~OctetString
; Function compile flags: /Ogtpy
;	COMDAT ??1OctetString@@QAE@XZ
_TEXT	SEGMENT
??1OctetString@@QAE@XZ PROC				; OctetString::~OctetString, COMDAT
; _this$ = eax

; 25   : {

  00000	57		 push	 edi
  00001	8b f8		 mov	 edi, eax
  00003	c7 07 00 00 00
	00		 mov	 DWORD PTR [edi], OFFSET ??_7OctetString@@6B@

; 26   : }

  00009	83 7f 5c 10	 cmp	 DWORD PTR [edi+92], 16	; 00000010H
  0000d	72 0c		 jb	 SHORT $LN19@OctetStrin
  0000f	8b 47 48	 mov	 eax, DWORD PTR [edi+72]
  00012	50		 push	 eax
  00013	e8 00 00 00 00	 call	 ??3@YAXPAX@Z		; operator delete
  00018	83 c4 04	 add	 esp, 4
$LN19@OctetStrin:
  0001b	33 c0		 xor	 eax, eax
  0001d	c7 47 5c 0f 00
	00 00		 mov	 DWORD PTR [edi+92], 15	; 0000000fH
  00024	89 47 58	 mov	 DWORD PTR [edi+88], eax
  00027	88 47 48	 mov	 BYTE PTR [edi+72], al
  0002a	e8 00 00 00 00	 call	 ??1ASN1@@QAE@XZ		; ASN1::~ASN1
  0002f	5f		 pop	 edi
  00030	c3		 ret	 0
??1OctetString@@QAE@XZ ENDP				; OctetString::~OctetString
; Function compile flags: /Ogtpy
;	COMDAT ?encodeBER@OctetString@@UAEXXZ
_TEXT	SEGMENT
?encodeBER@OctetString@@UAEXXZ PROC			; OctetString::encodeBER, COMDAT
; _this$ = ecx

; 36   : {

  00000	55		 push	 ebp
  00001	56		 push	 esi
  00002	57		 push	 edi
  00003	8b f9		 mov	 edi, ecx

; 37   : 	encodeBER_TAG(BER_Class_General, false, BER_TAG_OCTET_STRING, strValue.size());

  00005	83 7f 24 01	 cmp	 DWORD PTR [edi+36], 1
  00009	8b 6f 58	 mov	 ebp, DWORD PTR [edi+88]
  0000c	74 46		 je	 SHORT $LN7@encodeBER
  0000e	83 7f 20 01	 cmp	 DWORD PTR [edi+32], 1
  00012	8d 77 08	 lea	 esi, DWORD PTR [edi+8]
  00015	73 0d		 jae	 SHORT $LN18@encodeBER
  00017	8b 46 14	 mov	 eax, DWORD PTR [esi+20]
  0001a	50		 push	 eax
  0001b	6a 01		 push	 1
  0001d	8b ce		 mov	 ecx, esi
  0001f	e8 00 00 00 00	 call	 ?_Copy@?$basic_string@DU?$char_traits@D@std@@V?$allocator@D@2@@std@@IAEXII@Z ; std::basic_string<char,std::char_traits<char>,std::allocator<char> >::_Copy
$LN18@encodeBER:
  00024	ba 10 00 00 00	 mov	 edx, 16			; 00000010H
  00029	8d 46 04	 lea	 eax, DWORD PTR [esi+4]
  0002c	39 56 18	 cmp	 DWORD PTR [esi+24], edx
  0002f	72 04		 jb	 SHORT $LN70@encodeBER
  00031	8b 08		 mov	 ecx, DWORD PTR [eax]
  00033	eb 02		 jmp	 SHORT $LN71@encodeBER
$LN70@encodeBER:
  00035	8b c8		 mov	 ecx, eax
$LN71@encodeBER:
  00037	c6 01 04	 mov	 BYTE PTR [ecx], 4
  0003a	c7 46 14 01 00
	00 00		 mov	 DWORD PTR [esi+20], 1
  00041	39 56 18	 cmp	 DWORD PTR [esi+24], edx
  00044	72 02		 jb	 SHORT $LN84@encodeBER
  00046	8b 00		 mov	 eax, DWORD PTR [eax]
$LN84@encodeBER:
  00048	c6 40 01 00	 mov	 BYTE PTR [eax+1], 0
  0004c	55		 push	 ebp
  0004d	8b c7		 mov	 eax, edi
  0004f	e8 00 00 00 00	 call	 ?encodeBER_size@ASN1@@QAEXI@Z ; ASN1::encodeBER_size
$LN7@encodeBER:

; 38   : 	strBER += strValue;

  00054	6a ff		 push	 -1
  00056	6a 00		 push	 0
  00058	8d 4f 44	 lea	 ecx, DWORD PTR [edi+68]
  0005b	51		 push	 ecx
  0005c	8d 77 08	 lea	 esi, DWORD PTR [edi+8]
  0005f	e8 00 00 00 00	 call	 ?append@?$basic_string@DU?$char_traits@D@std@@V?$allocator@D@2@@std@@QAEAAV12@ABV12@II@Z ; std::basic_string<char,std::char_traits<char>,std::allocator<char> >::append
  00064	5f		 pop	 edi
  00065	5e		 pop	 esi
  00066	5d		 pop	 ebp

; 39   : }

  00067	c3		 ret	 0
?encodeBER@OctetString@@UAEXXZ ENDP			; OctetString::encodeBER
PUBLIC	??0OctetString@@QAE@QBD@Z			; OctetString::OctetString
; Function compile flags: /Ogtpy
;	COMDAT ??0OctetString@@QAE@QBD@Z
_TEXT	SEGMENT
??0OctetString@@QAE@QBD@Z PROC				; OctetString::OctetString, COMDAT
; _this$ = esi

; 14   : {

  00000	51		 push	 ecx
  00001	68 00 00 00 00	 push	 OFFSET ??_C@_0N@DHPBPBEA@Octet?5String?$AA@
  00006	56		 push	 esi
  00007	e8 00 00 00 00	 call	 ??0ASN1@@QAE@QBD@Z	; ASN1::ASN1
  0000c	33 c0		 xor	 eax, eax
  0000e	c7 06 00 00 00
	00		 mov	 DWORD PTR [esi], OFFSET ??_7OctetString@@6B@
  00014	89 46 58	 mov	 DWORD PTR [esi+88], eax
  00017	c7 46 5c 0f 00
	00 00		 mov	 DWORD PTR [esi+92], 15	; 0000000fH
  0001e	88 46 48	 mov	 BYTE PTR [esi+72], al

; 15   : }

  00021	8b c6		 mov	 eax, esi
  00023	59		 pop	 ecx
  00024	c3		 ret	 0
??0OctetString@@QAE@QBD@Z ENDP				; OctetString::OctetString
END
