; Listing generated by Microsoft (R) Optimizing Compiler Version 15.00.30729.01 

	TITLE	i:\?n????j\My Project\CMS\CMS\ASN1\Algorithm\PBKDF2.cpp
	.686P
	.XMM
	include listing.inc
	.model	flat

INCLUDELIB OLDNAMES

PUBLIC	?calc@PBKDF2@@UAEXPAX0I@Z			; PBKDF2::calc
PUBLIC	??_R4PBKDF2@@6B@				; PBKDF2::`RTTI Complete Object Locator'
PUBLIC	??_R3PBKDF2@@8					; PBKDF2::`RTTI Class Hierarchy Descriptor'
PUBLIC	??_R2PBKDF2@@8					; PBKDF2::`RTTI Base Class Array'
PUBLIC	??_R1A@?0A@EA@PBKDF2@@8				; PBKDF2::`RTTI Base Class Descriptor at (0,-1,0,64)'
PUBLIC	??_R0?AVPBKDF2@@@8				; PBKDF2 `RTTI Type Descriptor'
PUBLIC	?oid@PBKDF2@@0PAIA				; PBKDF2::oid
PUBLIC	??_7PBKDF2@@6B@					; PBKDF2::`vftable'
EXTRN	__aligned_free:PROC
EXTRN	__aligned_malloc:PROC
;	COMDAT ??_7PBKDF2@@6B@
CONST	SEGMENT
??_7PBKDF2@@6B@ DD FLAT:??_R4PBKDF2@@6B@		; PBKDF2::`vftable'
	DD	FLAT:?encodeBER@Sequence@@UAEXXZ
	DD	FLAT:?Get_BERcode@ASN1@@UAEPBDXZ
	DD	FLAT:?Get_BERsize@ASN1@@UAEIXZ
	DD	FLAT:?calc@PBKDF2@@UAEXPAX0I@Z
CONST	ENDS
;	COMDAT ??_R4PBKDF2@@6B@
rdata$r	SEGMENT
??_R4PBKDF2@@6B@ DD 00H					; PBKDF2::`RTTI Complete Object Locator'
	DD	00H
	DD	00H
	DD	FLAT:??_R0?AVPBKDF2@@@8
	DD	FLAT:??_R3PBKDF2@@8
rdata$r	ENDS
;	COMDAT ??_R3PBKDF2@@8
rdata$r	SEGMENT
??_R3PBKDF2@@8 DD 00H					; PBKDF2::`RTTI Class Hierarchy Descriptor'
	DD	00H
	DD	05H
	DD	FLAT:??_R2PBKDF2@@8
rdata$r	ENDS
;	COMDAT ??_R2PBKDF2@@8
rdata$r	SEGMENT
??_R2PBKDF2@@8 DD FLAT:??_R1A@?0A@EA@PBKDF2@@8		; PBKDF2::`RTTI Base Class Array'
	DD	FLAT:??_R1A@?0A@EA@KeyDerivation@@8
	DD	FLAT:??_R1A@?0A@EA@AlgorithmIdentifier@@8
	DD	FLAT:??_R1A@?0A@EA@Sequence@@8
	DD	FLAT:??_R1A@?0A@EA@ASN1@@8
rdata$r	ENDS
;	COMDAT ??_R1A@?0A@EA@PBKDF2@@8
rdata$r	SEGMENT
??_R1A@?0A@EA@PBKDF2@@8 DD FLAT:??_R0?AVPBKDF2@@@8	; PBKDF2::`RTTI Base Class Descriptor at (0,-1,0,64)'
	DD	04H
	DD	00H
	DD	0ffffffffH
	DD	00H
	DD	040H
	DD	FLAT:??_R3PBKDF2@@8
rdata$r	ENDS
;	COMDAT ??_R0?AVPBKDF2@@@8
_DATA	SEGMENT
??_R0?AVPBKDF2@@@8 DD FLAT:??_7type_info@@6B@		; PBKDF2 `RTTI Type Descriptor'
	DD	00H
	DB	'.?AVPBKDF2@@', 00H
_DATA	ENDS
;	COMDAT ?HMAC_SHA1_oid2@?1??Set_PBKDF2@PBKDF2@@QAEXPAXIII@Z@4QBIB
CONST	SEGMENT
?HMAC_SHA1_oid2@?1??Set_PBKDF2@PBKDF2@@QAEXPAXIII@Z@4QBIB DD 01H ; `PBKDF2::Set_PBKDF2'::`2'::HMAC_SHA1_oid2
	DD	03H
	DD	06H
	DD	01H
	DD	05H
	DD	05H
	DD	08H
	DD	01H
	DD	02H
CONST	ENDS
;	COMDAT ?HMAC_SHA1_oid@?1??Set_PBKDF2@PBKDF2@@QAEXPAXIII@Z@4QBIB
CONST	SEGMENT
?HMAC_SHA1_oid@?1??Set_PBKDF2@PBKDF2@@QAEXPAXIII@Z@4QBIB DD 01H ; `PBKDF2::Set_PBKDF2'::`2'::HMAC_SHA1_oid
	DD	02H
	DD	0348H
	DD	01bb8dH
	DD	02H
	DD	07H
?oid@PBKDF2@@0PAIA DD 01H				; PBKDF2::oid
	DD	02H
	DD	0348H
	DD	01bb8dH
	DD	01H
	DD	05H
	DD	0cH
PUBLIC	_T$GSCopy$
PUBLIC	?F@PBKDF2@@QAEXPAXII@Z				; PBKDF2::F
; Function compile flags: /Ogtpy
; File i:\ìnïîìƒéj\my project\cms\cms\asn1\algorithm\pbkdf2.cpp
;	COMDAT ?F@PBKDF2@@QAEXPAXII@Z
_TEXT	SEGMENT
_cnt$ = -16						; size = 4
__hLen$39116 = -12					; size = 4
__m128_U$ = -12						; size = 4
__m128_hLen$ = -8					; size = 4
_T$GSCopy$ = -4						; size = 4
_szT$ = 8						; size = 4
_n$ = 12						; size = 4
?F@PBKDF2@@QAEXPAXII@Z PROC				; PBKDF2::F, COMDAT
; _this$ = edx
; _T$ = ecx

; 100  : {

  00000	55		 push	 ebp
  00001	8b ec		 mov	 ebp, esp
  00003	83 e4 f0	 and	 esp, -16		; fffffff0H
  00006	83 ec 14	 sub	 esp, 20			; 00000014H
  00009	8b 45 0c	 mov	 eax, DWORD PTR _n$[ebp]
  0000c	53		 push	 ebx
  0000d	56		 push	 esi
  0000e	8b f2		 mov	 esi, edx

; 101  : 	unsigned	int		cnt			= c;				//åJÇËï‘ÇµâÒêî

  00010	8b 96 f8 01 00
	00		 mov	 edx, DWORD PTR [esi+504]
  00016	89 54 24 0c	 mov	 DWORD PTR _cnt$[esp+28], edx

; 102  : 	unsigned	int		_m128_hLen	= __m128_hLen;		//__m128iÇ≈ÇÃÉnÉbÉVÉÖílí∑
; 103  : 			__m128i*	_m128_U		= __m128_U;			//îrëºìIò_óùòaåvéZóp

  0001a	8b 96 0c 02 00
	00		 mov	 edx, DWORD PTR [esi+524]
  00020	89 54 24 10	 mov	 DWORD PTR __m128_U$[esp+28], edx

; 104  : 	unsigned	char*	_U_			= U_;				//íÜä‘ÉoÉbÉtÉ@
; 105  : 
; 106  : 	//------
; 107  : 	//1 times
; 108  : 	{
; 109  : 		unsigned	int		sLen		= S.size();
; 110  : 		unsigned	int*	USi			= (unsigned int *)&US[sLen];	//
; 111  : 
; 112  : 		USi[0] = ((n>>24) & 0xFF) | ((n>>8) & 0xFF00) | ((n & 0xFF00)<<8) | ((n & 0xFF)<<24);

  00024	8b d0		 mov	 edx, eax
  00026	8b d8		 mov	 ebx, eax
  00028	81 e2 00 00 ff
	00		 and	 edx, 16711680		; 00ff0000H
  0002e	c1 eb 10	 shr	 ebx, 16			; 00000010H
  00031	0b d3		 or	 edx, ebx
  00033	8b d8		 mov	 ebx, eax
  00035	89 4c 24 18	 mov	 DWORD PTR _T$GSCopy$[esp+28], ecx
  00039	8b 8e 08 02 00
	00		 mov	 ecx, DWORD PTR [esi+520]
  0003f	c1 e0 10	 shl	 eax, 16			; 00000010H
  00042	81 e3 00 ff 00
	00		 and	 ebx, 65280		; 0000ff00H
  00048	0b d8		 or	 ebx, eax
  0004a	8b 86 04 02 00
	00		 mov	 eax, DWORD PTR [esi+516]
  00050	57		 push	 edi
  00051	8b be 00 02 00
	00		 mov	 edi, DWORD PTR [esi+512]
  00057	89 4c 24 18	 mov	 DWORD PTR __m128_hLen$[esp+32], ecx
  0005b	8b 8e f0 01 00
	00		 mov	 ecx, DWORD PTR [esi+496]
  00061	c1 ea 08	 shr	 edx, 8
  00064	c1 e3 08	 shl	 ebx, 8
  00067	0b d3		 or	 edx, ebx
  00069	89 14 01	 mov	 DWORD PTR [ecx+eax], edx

; 113  : 		cHMAC->calc(_U_, US, sLen+4);

  0006c	8b 96 d8 01 00
	00		 mov	 edx, DWORD PTR [esi+472]
  00072	83 c1 04	 add	 ecx, 4
  00075	51		 push	 ecx
  00076	8b 8e 04 02 00
	00		 mov	 ecx, DWORD PTR [esi+516]
  0007c	51		 push	 ecx
  0007d	57		 push	 edi
  0007e	52		 push	 edx
  0007f	e8 00 00 00 00	 call	 ?calc@HMAC@@QAEXPAX0I@Z	; HMAC::calc

; 114  : 		for(unsigned int i = 0; i < _m128_hLen; i++){

  00084	8b 54 24 18	 mov	 edx, DWORD PTR __m128_hLen$[esp+32]

; 115  : 			_m128_U[i] = _mm_load_si128((__m128i*)&_U_[i * sizeof(__m128i)]);

  00088	8b 5c 24 14	 mov	 ebx, DWORD PTR __m128_U$[esp+32]
  0008c	85 d2		 test	 edx, edx
  0008e	76 21		 jbe	 SHORT $LN8@F
  00090	8b cf		 mov	 ecx, edi
  00092	8b c3		 mov	 eax, ebx
  00094	2b cb		 sub	 ecx, ebx
  00096	eb 08 8d a4 24
	00 00 00 00 90	 npad	 10
$LL10@F:
  000a0	66 0f 6f 04 01	 movdqa	 xmm0, XMMWORD PTR [ecx+eax]
  000a5	66 0f 7f 00	 movdqa	 XMMWORD PTR [eax], xmm0
  000a9	83 c0 10	 add	 eax, 16			; 00000010H
  000ac	83 ea 01	 sub	 edx, 1
  000af	75 ef		 jne	 SHORT $LL10@F
$LN8@F:

; 116  : 		}
; 117  : 		cnt--;

  000b1	83 6c 24 10 01	 sub	 DWORD PTR _cnt$[esp+32], 1

; 118  : 	}
; 119  : 
; 120  : 	//------
; 121  : 	//2 times -
; 122  : 	{
; 123  : 		unsigned	int		_hLen		= hLen;

  000b6	8b 86 fc 01 00
	00		 mov	 eax, DWORD PTR [esi+508]
  000bc	89 44 24 14	 mov	 DWORD PTR __hLen$39116[esp+32], eax

; 124  : 
; 125  : 		while(cnt--){

  000c0	74 4e		 je	 SHORT $LN21@F
$LN7@F:

; 126  : 			cHMAC->calc(_U_, _U_, _hLen);

  000c2	8b 4c 24 14	 mov	 ecx, DWORD PTR __hLen$39116[esp+32]
  000c6	8b 96 d8 01 00
	00		 mov	 edx, DWORD PTR [esi+472]
  000cc	ff 4c 24 10	 dec	 DWORD PTR _cnt$[esp+32]
  000d0	51		 push	 ecx
  000d1	57		 push	 edi
  000d2	57		 push	 edi
  000d3	52		 push	 edx
  000d4	e8 00 00 00 00	 call	 ?calc@HMAC@@QAEXPAX0I@Z	; HMAC::calc

; 127  : 			for(unsigned int i = 0; i < _m128_hLen; i++){

  000d9	8b 54 24 18	 mov	 edx, DWORD PTR __m128_hLen$[esp+32]
  000dd	85 d2		 test	 edx, edx
  000df	76 28		 jbe	 SHORT $LN3@F
  000e1	8b cf		 mov	 ecx, edi
  000e3	8b c3		 mov	 eax, ebx
  000e5	2b cb		 sub	 ecx, ebx
  000e7	eb 07 8d a4 24
	00 00 00 00	 npad	 9
$LL5@F:

; 128  : 				_m128_U[i] = _mm_xor_si128(_m128_U[i] ,_mm_load_si128((__m128i*)&_U_[i * sizeof(__m128i)]));

  000f0	66 0f 6f 00	 movdqa	 xmm0, XMMWORD PTR [eax]
  000f4	66 0f 6f 0c 08	 movdqa	 xmm1, XMMWORD PTR [eax+ecx]
  000f9	66 0f ef c1	 pxor	 xmm0, xmm1
  000fd	66 0f 7f 00	 movdqa	 XMMWORD PTR [eax], xmm0
  00101	83 c0 10	 add	 eax, 16			; 00000010H
  00104	83 ea 01	 sub	 edx, 1
  00107	75 e7		 jne	 SHORT $LL5@F
$LN3@F:

; 124  : 
; 125  : 		while(cnt--){

  00109	83 7c 24 10 00	 cmp	 DWORD PTR _cnt$[esp+32], 0
  0010e	75 b2		 jne	 SHORT $LN7@F
$LN21@F:

; 138  : 
; 139  : 		while((i + sizeof(__m128i)) <= szT){

  00110	8b 55 08	 mov	 edx, DWORD PTR _szT$[ebp]
  00113	8b 74 24 1c	 mov	 esi, DWORD PTR _T$GSCopy$[esp+32]
  00117	33 c0		 xor	 eax, eax
  00119	83 fa 10	 cmp	 edx, 16			; 00000010H
  0011c	72 20		 jb	 SHORT $LN1@F

; 129  : 			}
; 130  : 		}
; 131  : 	}
; 132  : 
; 133  : 	//------
; 134  : 	//åvéZåãâ äiî[
; 135  : 	{
; 136  : 		unsigned	char*	U	=	(unsigned	char*)T;			//ñﬂÇËílÇäiî[Ç∑ÇÈÉ|ÉCÉìÉ^
; 137  : 		unsigned	int		i	=	0;

  0011e	8d 48 10	 lea	 ecx, DWORD PTR [eax+16]
$LL2@F:

; 140  : 			_mm_storeu_si128((__m128i*)&U[i], _m128_U[i / sizeof(__m128i)]);

  00121	8b f8		 mov	 edi, eax
  00123	c1 ef 04	 shr	 edi, 4
  00126	c1 e7 04	 shl	 edi, 4
  00129	66 0f 6f 04 1f	 movdqa	 xmm0, XMMWORD PTR [edi+ebx]
  0012e	f3 0f 7f 44 0e
	f0		 movdqu	 XMMWORD PTR [esi+ecx-16], xmm0

; 141  : 			i += sizeof(__m128i);

  00134	83 c1 10	 add	 ecx, 16			; 00000010H
  00137	83 c0 10	 add	 eax, 16			; 00000010H
  0013a	3b ca		 cmp	 ecx, edx
  0013c	76 e3		 jbe	 SHORT $LL2@F
$LN1@F:

; 142  : 		}
; 143  : 		memcpy(&U[i], &_m128_U[i / sizeof(__m128i)], szT - i);

  0013e	8b c8		 mov	 ecx, eax
  00140	c1 e9 04	 shr	 ecx, 4
  00143	2b d0		 sub	 edx, eax
  00145	c1 e1 04	 shl	 ecx, 4
  00148	52		 push	 edx
  00149	03 cb		 add	 ecx, ebx
  0014b	51		 push	 ecx
  0014c	03 f0		 add	 esi, eax
  0014e	56		 push	 esi
  0014f	e8 00 00 00 00	 call	 _memcpy
  00154	83 c4 0c	 add	 esp, 12			; 0000000cH

; 144  : 	}
; 145  : }

  00157	5f		 pop	 edi
  00158	5e		 pop	 esi
  00159	5b		 pop	 ebx
  0015a	8b e5		 mov	 esp, ebp
  0015c	5d		 pop	 ebp
  0015d	c2 08 00	 ret	 8
?F@PBKDF2@@QAEXPAXII@Z ENDP				; PBKDF2::F
; Function compile flags: /Ogtpy
;	COMDAT ?calc@PBKDF2@@UAEXPAX0I@Z
_TEXT	SEGMENT
_T$39149 = -12						; size = 4
_i$39145 = -8						; size = 4
tv137 = -4						; size = 4
_DK$ = 8						; size = 4
_P$ = 12						; size = 4
_szP$ = 16						; size = 4
?calc@PBKDF2@@UAEXPAX0I@Z PROC				; PBKDF2::calc, COMDAT
; _this$ = ecx

; 157  : {

  00000	55		 push	 ebp
  00001	8b ec		 mov	 ebp, esp
  00003	83 e4 f8	 and	 esp, -8			; fffffff8H
  00006	83 ec 0c	 sub	 esp, 12			; 0000000cH

; 158  : 	//êÊÇ…ÅAHMACä÷êîÇÃåÆÇê›íËÇ∑ÇÈÅB
; 159  : 	cHMAC->SetKey(P, szP);

  00009	8b 55 0c	 mov	 edx, DWORD PTR _P$[ebp]
  0000c	53		 push	 ebx
  0000d	56		 push	 esi
  0000e	8b f1		 mov	 esi, ecx
  00010	8b 86 d8 01 00
	00		 mov	 eax, DWORD PTR [esi+472]
  00016	8b 4d 10	 mov	 ecx, DWORD PTR _szP$[ebp]
  00019	57		 push	 edi
  0001a	50		 push	 eax
  0001b	e8 00 00 00 00	 call	 ?SetKey@HMAC@@QAEXPAXI@Z ; HMAC::SetKey

; 160  : 
; 161  : 	//åvéZ
; 162  : 	{
; 163  : 		unsigned	int		i		= 0;
; 164  : 		unsigned	int		_hLen	= hLen;				//ÉnÉbÉVÉÖílÇÃí∑Ç≥

  00020	8b 9e fc 01 00
	00		 mov	 ebx, DWORD PTR [esi+508]

; 165  : 		unsigned	int		l		= dkLen / _hLen;	//DKÇÃÉuÉçÉbÉNí∑(è≠êîêÿéÃÇƒ)

  00026	8b 86 a0 00 00
	00		 mov	 eax, DWORD PTR [esi+160]
  0002c	33 d2		 xor	 edx, edx
  0002e	f7 f3		 div	 ebx
  00030	33 c9		 xor	 ecx, ecx
  00032	8b f8		 mov	 edi, eax

; 166  : 		unsigned	int		r		= dkLen % _hLen;	//DKÇÃÉuÉçÉbÉNí∑Å@í[êî
; 167  : 		unsigned	char*	T		= (unsigned	char*)DK;

  00034	8b 45 08	 mov	 eax, DWORD PTR _DK$[ebp]
  00037	89 54 24 14	 mov	 DWORD PTR tv137[esp+24], edx
  0003b	89 44 24 0c	 mov	 DWORD PTR _T$39149[esp+24], eax

; 168  : 
; 169  : 		while(l--){

  0003f	85 ff		 test	 edi, edi
  00041	74 23		 je	 SHORT $LN7@calc@4
$LL9@calc@4:

; 170  : 			i++;

  00043	41		 inc	 ecx

; 171  : 			F(T, _hLen, i);	//åãâ Çíºê⁄ì¸ÇÍÇÈÅB

  00044	51		 push	 ecx
  00045	89 4c 24 14	 mov	 DWORD PTR _i$39145[esp+28], ecx
  00049	8b 4c 24 10	 mov	 ecx, DWORD PTR _T$39149[esp+28]
  0004d	53		 push	 ebx
  0004e	8b d6		 mov	 edx, esi
  00050	4f		 dec	 edi
  00051	e8 00 00 00 00	 call	 ?F@PBKDF2@@QAEXPAXII@Z	; PBKDF2::F

; 172  : 			T += _hLen;

  00056	01 5c 24 0c	 add	 DWORD PTR _T$39149[esp+24], ebx
  0005a	8b 4c 24 10	 mov	 ecx, DWORD PTR _i$39145[esp+24]
  0005e	85 ff		 test	 edi, edi
  00060	75 e1		 jne	 SHORT $LL9@calc@4

; 168  : 
; 169  : 		while(l--){

  00062	8b 54 24 14	 mov	 edx, DWORD PTR tv137[esp+24]
$LN7@calc@4:

; 173  : 		}
; 174  : 		if(r > 0){

  00066	85 d2		 test	 edx, edx
  00068	76 0e		 jbe	 SHORT $LN1@calc@4

; 175  : 			i++;

  0006a	41		 inc	 ecx

; 176  : 			F(T, r, i);

  0006b	51		 push	 ecx
  0006c	8b 4c 24 10	 mov	 ecx, DWORD PTR _T$39149[esp+28]
  00070	52		 push	 edx
  00071	8b d6		 mov	 edx, esi
  00073	e8 00 00 00 00	 call	 ?F@PBKDF2@@QAEXPAXII@Z	; PBKDF2::F
$LN1@calc@4:

; 177  : 		}
; 178  : 	}
; 179  : }

  00078	5f		 pop	 edi
  00079	5e		 pop	 esi
  0007a	5b		 pop	 ebx
  0007b	8b e5		 mov	 esp, ebp
  0007d	5d		 pop	 ebp
  0007e	c2 0c 00	 ret	 12			; 0000000cH
?calc@PBKDF2@@UAEXPAX0I@Z ENDP				; PBKDF2::calc
PUBLIC	??1PBKDF2@@QAE@XZ				; PBKDF2::~PBKDF2
; Function compile flags: /Ogtpy
;	COMDAT ??1PBKDF2@@QAE@XZ
_TEXT	SEGMENT
??1PBKDF2@@QAE@XZ PROC					; PBKDF2::~PBKDF2, COMDAT

; 37   : {

  00000	51		 push	 ecx

; 38   : 	_aligned_free(__m128_U);

  00001	a1 0c 02 00 00	 mov	 eax, DWORD PTR ?_pbkdf2@?1??read_KeyDerivationAlgorithm@PKCS7_Input@@QAEPAVKeyDerivation@@XZ@4VPBKDF2@@A+524
  00006	53		 push	 ebx
  00007	57		 push	 edi
  00008	50		 push	 eax
  00009	c7 05 00 00 00
	00 00 00 00 00	 mov	 DWORD PTR ?_pbkdf2@?1??read_KeyDerivationAlgorithm@PKCS7_Input@@QAEPAVKeyDerivation@@XZ@4VPBKDF2@@A, OFFSET ??_7PBKDF2@@6B@
  00013	e8 00 00 00 00	 call	 __aligned_free

; 39   : 	_aligned_free(U_);

  00018	8b 0d 00 02 00
	00		 mov	 ecx, DWORD PTR ?_pbkdf2@?1??read_KeyDerivationAlgorithm@PKCS7_Input@@QAEPAVKeyDerivation@@XZ@4VPBKDF2@@A+512
  0001e	83 c4 04	 add	 esp, 4
  00021	51		 push	 ecx
  00022	e8 00 00 00 00	 call	 __aligned_free
  00027	83 c4 04	 add	 esp, 4

; 40   : }

  0002a	83 3d f4 01 00
	00 10		 cmp	 DWORD PTR ?_pbkdf2@?1??read_KeyDerivationAlgorithm@PKCS7_Input@@QAEPAVKeyDerivation@@XZ@4VPBKDF2@@A+500, 16 ; 00000010H
  00031	72 0f		 jb	 SHORT $LN19@PBKDF2
  00033	8b 15 e0 01 00
	00		 mov	 edx, DWORD PTR ?_pbkdf2@?1??read_KeyDerivationAlgorithm@PKCS7_Input@@QAEPAVKeyDerivation@@XZ@4VPBKDF2@@A+480
  00039	52		 push	 edx
  0003a	e8 00 00 00 00	 call	 ??3@YAXPAX@Z		; operator delete
  0003f	83 c4 04	 add	 esp, 4
$LN19@PBKDF2:
  00042	33 db		 xor	 ebx, ebx
  00044	bf 90 01 00 00	 mov	 edi, OFFSET ?_pbkdf2@?1??read_KeyDerivationAlgorithm@PKCS7_Input@@QAEPAVKeyDerivation@@XZ@4VPBKDF2@@A+400
  00049	c7 05 f4 01 00
	00 0f 00 00 00	 mov	 DWORD PTR ?_pbkdf2@?1??read_KeyDerivationAlgorithm@PKCS7_Input@@QAEPAVKeyDerivation@@XZ@4VPBKDF2@@A+500, 15 ; 0000000fH
  00053	89 1d f0 01 00
	00		 mov	 DWORD PTR ?_pbkdf2@?1??read_KeyDerivationAlgorithm@PKCS7_Input@@QAEPAVKeyDerivation@@XZ@4VPBKDF2@@A+496, ebx
  00059	88 1d e0 01 00
	00		 mov	 BYTE PTR ?_pbkdf2@?1??read_KeyDerivationAlgorithm@PKCS7_Input@@QAEPAVKeyDerivation@@XZ@4VPBKDF2@@A+480, bl
  0005f	c7 05 90 01 00
	00 00 00 00 00	 mov	 DWORD PTR ?_pbkdf2@?1??read_KeyDerivationAlgorithm@PKCS7_Input@@QAEPAVKeyDerivation@@XZ@4VPBKDF2@@A+400, OFFSET ??_7Integer@@6B@
  00069	e8 00 00 00 00	 call	 ??1ASN1@@QAE@XZ		; ASN1::~ASN1
  0006e	bf 48 01 00 00	 mov	 edi, OFFSET ?_pbkdf2@?1??read_KeyDerivationAlgorithm@PKCS7_Input@@QAEPAVKeyDerivation@@XZ@4VPBKDF2@@A+328
  00073	c7 05 48 01 00
	00 00 00 00 00	 mov	 DWORD PTR ?_pbkdf2@?1??read_KeyDerivationAlgorithm@PKCS7_Input@@QAEPAVKeyDerivation@@XZ@4VPBKDF2@@A+328, OFFSET ??_7Integer@@6B@
  0007d	e8 00 00 00 00	 call	 ??1ASN1@@QAE@XZ		; ASN1::~ASN1
  00082	83 3d 44 01 00
	00 10		 cmp	 DWORD PTR ?_pbkdf2@?1??read_KeyDerivationAlgorithm@PKCS7_Input@@QAEPAVKeyDerivation@@XZ@4VPBKDF2@@A+324, 16 ; 00000010H
  00089	c7 05 e8 00 00
	00 00 00 00 00	 mov	 DWORD PTR ?_pbkdf2@?1??read_KeyDerivationAlgorithm@PKCS7_Input@@QAEPAVKeyDerivation@@XZ@4VPBKDF2@@A+232, OFFSET ??_7OctetString@@6B@
  00093	72 0e		 jb	 SHORT $LN51@PBKDF2
  00095	a1 30 01 00 00	 mov	 eax, DWORD PTR ?_pbkdf2@?1??read_KeyDerivationAlgorithm@PKCS7_Input@@QAEPAVKeyDerivation@@XZ@4VPBKDF2@@A+304
  0009a	50		 push	 eax
  0009b	e8 00 00 00 00	 call	 ??3@YAXPAX@Z		; operator delete
  000a0	83 c4 04	 add	 esp, 4
$LN51@PBKDF2:
  000a3	bf e8 00 00 00	 mov	 edi, OFFSET ?_pbkdf2@?1??read_KeyDerivationAlgorithm@PKCS7_Input@@QAEPAVKeyDerivation@@XZ@4VPBKDF2@@A+232
  000a8	c7 05 44 01 00
	00 0f 00 00 00	 mov	 DWORD PTR ?_pbkdf2@?1??read_KeyDerivationAlgorithm@PKCS7_Input@@QAEPAVKeyDerivation@@XZ@4VPBKDF2@@A+324, 15 ; 0000000fH
  000b2	89 1d 40 01 00
	00		 mov	 DWORD PTR ?_pbkdf2@?1??read_KeyDerivationAlgorithm@PKCS7_Input@@QAEPAVKeyDerivation@@XZ@4VPBKDF2@@A+320, ebx
  000b8	88 1d 30 01 00
	00		 mov	 BYTE PTR ?_pbkdf2@?1??read_KeyDerivationAlgorithm@PKCS7_Input@@QAEPAVKeyDerivation@@XZ@4VPBKDF2@@A+304, bl
  000be	e8 00 00 00 00	 call	 ??1ASN1@@QAE@XZ		; ASN1::~ASN1
  000c3	bf a4 00 00 00	 mov	 edi, OFFSET ?_pbkdf2@?1??read_KeyDerivationAlgorithm@PKCS7_Input@@QAEPAVKeyDerivation@@XZ@4VPBKDF2@@A+164
  000c8	c7 05 a4 00 00
	00 00 00 00 00	 mov	 DWORD PTR ?_pbkdf2@?1??read_KeyDerivationAlgorithm@PKCS7_Input@@QAEPAVKeyDerivation@@XZ@4VPBKDF2@@A+164, OFFSET ??_7Sequence@@6B@
  000d2	e8 00 00 00 00	 call	 ??1ASN1@@QAE@XZ		; ASN1::~ASN1
  000d7	a1 94 00 00 00	 mov	 eax, DWORD PTR ?_pbkdf2@?1??read_KeyDerivationAlgorithm@PKCS7_Input@@QAEPAVKeyDerivation@@XZ@4VPBKDF2@@A+148
  000dc	c7 05 00 00 00
	00 00 00 00 00	 mov	 DWORD PTR ?_pbkdf2@?1??read_KeyDerivationAlgorithm@PKCS7_Input@@QAEPAVKeyDerivation@@XZ@4VPBKDF2@@A, OFFSET ??_7AlgorithmIdentifier@@6B@
  000e6	c7 05 44 00 00
	00 00 00 00 00	 mov	 DWORD PTR ?_pbkdf2@?1??read_KeyDerivationAlgorithm@PKCS7_Input@@QAEPAVKeyDerivation@@XZ@4VPBKDF2@@A+68, OFFSET ??_7ObjectIdentifier@@6B@
  000f0	3b c3		 cmp	 eax, ebx
  000f2	74 09		 je	 SHORT $LN74@PBKDF2
  000f4	50		 push	 eax
  000f5	e8 00 00 00 00	 call	 ??3@YAXPAX@Z		; operator delete
  000fa	83 c4 04	 add	 esp, 4
$LN74@PBKDF2:
  000fd	8b 0d 88 00 00
	00		 mov	 ecx, DWORD PTR ?_pbkdf2@?1??read_KeyDerivationAlgorithm@PKCS7_Input@@QAEPAVKeyDerivation@@XZ@4VPBKDF2@@A+136
  00103	51		 push	 ecx
  00104	89 1d 94 00 00
	00		 mov	 DWORD PTR ?_pbkdf2@?1??read_KeyDerivationAlgorithm@PKCS7_Input@@QAEPAVKeyDerivation@@XZ@4VPBKDF2@@A+148, ebx
  0010a	89 1d 98 00 00
	00		 mov	 DWORD PTR ?_pbkdf2@?1??read_KeyDerivationAlgorithm@PKCS7_Input@@QAEPAVKeyDerivation@@XZ@4VPBKDF2@@A+152, ebx
  00110	89 1d 9c 00 00
	00		 mov	 DWORD PTR ?_pbkdf2@?1??read_KeyDerivationAlgorithm@PKCS7_Input@@QAEPAVKeyDerivation@@XZ@4VPBKDF2@@A+156, ebx
  00116	e8 00 00 00 00	 call	 ??3@YAXPAX@Z		; operator delete
  0011b	83 c4 04	 add	 esp, 4
  0011e	bf 44 00 00 00	 mov	 edi, OFFSET ?_pbkdf2@?1??read_KeyDerivationAlgorithm@PKCS7_Input@@QAEPAVKeyDerivation@@XZ@4VPBKDF2@@A+68
  00123	e8 00 00 00 00	 call	 ??1ASN1@@QAE@XZ		; ASN1::~ASN1
  00128	bf 00 00 00 00	 mov	 edi, OFFSET ?_pbkdf2@?1??read_KeyDerivationAlgorithm@PKCS7_Input@@QAEPAVKeyDerivation@@XZ@4VPBKDF2@@A
  0012d	c7 05 00 00 00
	00 00 00 00 00	 mov	 DWORD PTR ?_pbkdf2@?1??read_KeyDerivationAlgorithm@PKCS7_Input@@QAEPAVKeyDerivation@@XZ@4VPBKDF2@@A, OFFSET ??_7Sequence@@6B@
  00137	e8 00 00 00 00	 call	 ??1ASN1@@QAE@XZ		; ASN1::~ASN1
  0013c	5f		 pop	 edi
  0013d	5b		 pop	 ebx
  0013e	59		 pop	 ecx
  0013f	c3		 ret	 0
??1PBKDF2@@QAE@XZ ENDP					; PBKDF2::~PBKDF2
PUBLIC	?Set_PBKDF2@PBKDF2@@QAEXPAXIII@Z		; PBKDF2::Set_PBKDF2
;	COMDAT ?oid2_HMAC_SHA1@?1??Set_PBKDF2@PBKDF2@@QAEXPAXIII@Z@4VObjectIdentifier@@A
; File i:\ìnïîìƒéj\my project\cms\cms\asn1\asn1.cpp
_BSS	SEGMENT
?oid2_HMAC_SHA1@?1??Set_PBKDF2@PBKDF2@@QAEXPAXIII@Z@4VObjectIdentifier@@A DB 05cH DUP (?) ; `PBKDF2::Set_PBKDF2'::`2'::oid2_HMAC_SHA1
_BSS	ENDS
;	COMDAT ?oid1_HMAC_SHA1@?1??Set_PBKDF2@PBKDF2@@QAEXPAXIII@Z@4VObjectIdentifier@@A
_BSS	SEGMENT
?oid1_HMAC_SHA1@?1??Set_PBKDF2@PBKDF2@@QAEXPAXIII@Z@4VObjectIdentifier@@A DB 05cH DUP (?) ; `PBKDF2::Set_PBKDF2'::`2'::oid1_HMAC_SHA1
_BSS	ENDS
;	COMDAT ?$S1@?1??Set_PBKDF2@PBKDF2@@QAEXPAXIII@Z@4IA
_BSS	SEGMENT
?$S1@?1??Set_PBKDF2@PBKDF2@@QAEXPAXIII@Z@4IA DD 01H DUP (?) ; `PBKDF2::Set_PBKDF2'::`2'::$S1
_BSS	ENDS
;	COMDAT xdata$x
xdata$x	SEGMENT
__unwindtable$?Set_PBKDF2@PBKDF2@@QAEXPAXIII@Z DD 0ffffffffH
	DD	FLAT:__unwindfunclet$?Set_PBKDF2@PBKDF2@@QAEXPAXIII@Z$0
	DD	0ffffffffH
	DD	FLAT:__unwindfunclet$?Set_PBKDF2@PBKDF2@@QAEXPAXIII@Z$1
__ehfuncinfo$?Set_PBKDF2@PBKDF2@@QAEXPAXIII@Z DD 019930522H
	DD	02H
	DD	FLAT:__unwindtable$?Set_PBKDF2@PBKDF2@@QAEXPAXIII@Z
	DD	2 DUP(00H)
	DD	2 DUP(00H)
	DD	00H
	DD	01H
; Function compile flags: /Ogtpy
; File i:\ìnïîìƒéj\my project\cms\cms\asn1\algorithm\pbkdf2.cpp
xdata$x	ENDS
;	COMDAT ?Set_PBKDF2@PBKDF2@@QAEXPAXIII@Z
_TEXT	SEGMENT
__$EHRec$ = -12						; size = 12
__S$ = 8						; size = 4
$T89627 = 12						; size = 4
$T89592 = 12						; size = 4
$T89623 = 12						; size = 4
$T89605 = 12						; size = 4
$T89612 = 12						; size = 4
$T89619 = 12						; size = 4
__szS$ = 12						; size = 4
__c$ = 16						; size = 4
__dkLen$ = 20						; size = 4
?Set_PBKDF2@PBKDF2@@QAEXPAXIII@Z PROC			; PBKDF2::Set_PBKDF2, COMDAT
; _this$ = ecx

; 53   : {

  00000	6a ff		 push	 -1
  00002	68 00 00 00 00	 push	 __ehhandler$?Set_PBKDF2@PBKDF2@@QAEXPAXIII@Z
  00007	64 a1 00 00 00
	00		 mov	 eax, DWORD PTR fs:0
  0000d	50		 push	 eax
  0000e	51		 push	 ecx
  0000f	53		 push	 ebx
  00010	55		 push	 ebp
  00011	56		 push	 esi
  00012	57		 push	 edi
  00013	a1 00 00 00 00	 mov	 eax, DWORD PTR ___security_cookie
  00018	33 c4		 xor	 eax, esp
  0001a	50		 push	 eax
  0001b	8d 44 24 18	 lea	 eax, DWORD PTR __$EHRec$[esp+36]
  0001f	64 a3 00 00 00
	00		 mov	 DWORD PTR fs:0, eax
  00025	8b 5c 24 2c	 mov	 ebx, DWORD PTR __szS$[esp+32]
  00029	8b f1		 mov	 esi, ecx

; 54   : 	static	const	unsigned	int		HMAC_SHA1_oid[]		= {1,2,840,113549,2,7};	//RFC 2898 PKCS#5 ver 2.0 
; 55   : 	static	const	unsigned	int		HMAC_SHA1_oid2[]	= {1,3,6,1,5,5,8,1,2};	//RFC 3370 CMS Algorithm
; 56   : 
; 57   : 	static	ObjectIdentifier	oid1_HMAC_SHA1	= ObjectIdentifier((unsigned int*)HMAC_SHA1_oid, sizeof(HMAC_SHA1_oid) / sizeof(unsigned int));

  0002b	83 cf ff	 or	 edi, -1
  0002e	f6 05 00 00 00
	00 01		 test	 BYTE PTR ?$S1@?1??Set_PBKDF2@PBKDF2@@QAEXPAXIII@Z@4IA, 1
  00035	75 31		 jne	 SHORT $LN3@Set_PBKDF2
  00037	83 0d 00 00 00
	00 01		 or	 DWORD PTR ?$S1@?1??Set_PBKDF2@PBKDF2@@QAEXPAXIII@Z@4IA, 1
  0003e	6a 06		 push	 6
  00040	68 00 00 00 00	 push	 OFFSET ?HMAC_SHA1_oid@?1??Set_PBKDF2@PBKDF2@@QAEXPAXIII@Z@4QBIB
  00045	68 00 00 00 00	 push	 OFFSET ?oid1_HMAC_SHA1@?1??Set_PBKDF2@PBKDF2@@QAEXPAXIII@Z@4VObjectIdentifier@@A
  0004a	c7 44 24 2c 00
	00 00 00	 mov	 DWORD PTR __$EHRec$[esp+56], 0
  00052	e8 00 00 00 00	 call	 ??0ObjectIdentifier@@QAE@QAIIQBD@Z ; ObjectIdentifier::ObjectIdentifier
  00057	68 00 00 00 00	 push	 OFFSET ??__Foid1_HMAC_SHA1@?1??Set_PBKDF2@PBKDF2@@QAEXPAXIII@Z@YAXXZ ; `PBKDF2::Set_PBKDF2'::`2'::`dynamic atexit destructor for 'oid1_HMAC_SHA1''
  0005c	e8 00 00 00 00	 call	 _atexit
  00061	83 c4 04	 add	 esp, 4
  00064	89 7c 24 20	 mov	 DWORD PTR __$EHRec$[esp+44], edi
$LN3@Set_PBKDF2:

; 58   : 	static	ObjectIdentifier	oid2_HMAC_SHA1	= ObjectIdentifier((unsigned int*)HMAC_SHA1_oid2, sizeof(HMAC_SHA1_oid2) / sizeof(unsigned int));

  00068	b8 02 00 00 00	 mov	 eax, 2
  0006d	84 05 00 00 00
	00		 test	 BYTE PTR ?$S1@?1??Set_PBKDF2@PBKDF2@@QAEXPAXIII@Z@4IA, al
  00073	75 30		 jne	 SHORT $LN2@Set_PBKDF2
  00075	09 05 00 00 00
	00		 or	 DWORD PTR ?$S1@?1??Set_PBKDF2@PBKDF2@@QAEXPAXIII@Z@4IA, eax
  0007b	6a 09		 push	 9
  0007d	68 00 00 00 00	 push	 OFFSET ?HMAC_SHA1_oid2@?1??Set_PBKDF2@PBKDF2@@QAEXPAXIII@Z@4QBIB
  00082	68 00 00 00 00	 push	 OFFSET ?oid2_HMAC_SHA1@?1??Set_PBKDF2@PBKDF2@@QAEXPAXIII@Z@4VObjectIdentifier@@A
  00087	c7 44 24 2c 01
	00 00 00	 mov	 DWORD PTR __$EHRec$[esp+56], 1
  0008f	e8 00 00 00 00	 call	 ??0ObjectIdentifier@@QAE@QAIIQBD@Z ; ObjectIdentifier::ObjectIdentifier
  00094	68 00 00 00 00	 push	 OFFSET ??__Foid2_HMAC_SHA1@?1??Set_PBKDF2@PBKDF2@@QAEXPAXIII@Z@YAXXZ ; `PBKDF2::Set_PBKDF2'::`2'::`dynamic atexit destructor for 'oid2_HMAC_SHA1''
  00099	e8 00 00 00 00	 call	 _atexit
  0009e	83 c4 04	 add	 esp, 4
  000a1	89 7c 24 20	 mov	 DWORD PTR __$EHRec$[esp+44], edi
$LN2@Set_PBKDF2:

; 59   : 
; 60   : 	//ASN.1ÇÃíËã`
; 61   : 	Set();

  000a5	8d 6e 28	 lea	 ebp, DWORD PTR [esi+40]
  000a8	8b c5		 mov	 eax, ebp
  000aa	e8 00 00 00 00	 call	 ?clear@?$vector@PAVASN1@@V?$allocator@PAVASN1@@@std@@@std@@QAEXXZ ; std::vector<ASN1 *,std::allocator<ASN1 *> >::clear
  000af	8d 4c 24 2c	 lea	 ecx, DWORD PTR $T89592[esp+32]
  000b3	8d 46 44	 lea	 eax, DWORD PTR [esi+68]
  000b6	51		 push	 ecx
  000b7	8b fd		 mov	 edi, ebp
  000b9	89 44 24 30	 mov	 DWORD PTR $T89592[esp+36], eax
  000bd	e8 00 00 00 00	 call	 ?push_back@?$vector@PAVASN1@@V?$allocator@PAVASN1@@@std@@@std@@QAEXABQAVASN1@@@Z ; std::vector<ASN1 *,std::allocator<ASN1 *> >::push_back

; 62   : 
; 63   : 	//salt specified OCTET STRING,
; 64   : 	US	= (unsigned	char*)_aligned_malloc(_szS + sizeof(int), sizeof(__m128i));

  000c2	8d 53 04	 lea	 edx, DWORD PTR [ebx+4]
  000c5	6a 10		 push	 16			; 00000010H
  000c7	52		 push	 edx
  000c8	e8 00 00 00 00	 call	 __aligned_malloc

; 65   : 	memcpy(US, _S, _szS);

  000cd	8b 7c 24 30	 mov	 edi, DWORD PTR __S$[esp+40]
  000d1	53		 push	 ebx
  000d2	57		 push	 edi
  000d3	50		 push	 eax
  000d4	89 86 04 02 00
	00		 mov	 DWORD PTR [esi+516], eax
  000da	e8 00 00 00 00	 call	 _memcpy
  000df	83 c4 14	 add	 esp, 20			; 00000014H

; 66   : 	S.assign((char *)_S, _szS);

  000e2	53		 push	 ebx
  000e3	57		 push	 edi
  000e4	8d 8e dc 01 00
	00		 lea	 ecx, DWORD PTR [esi+476]
  000ea	e8 00 00 00 00	 call	 ?assign@?$basic_string@DU?$char_traits@D@std@@V?$allocator@D@2@@std@@QAEAAV12@PBDI@Z ; std::basic_string<char,std::char_traits<char>,std::allocator<char> >::assign

; 67   : 	salt.Set((char *)_S, _szS);

  000ef	53		 push	 ebx
  000f0	57		 push	 edi
  000f1	8d 8e 2c 01 00
	00		 lea	 ecx, DWORD PTR [esi+300]
  000f7	e8 00 00 00 00	 call	 ?assign@?$basic_string@DU?$char_traits@D@std@@V?$allocator@D@2@@std@@QAEAAV12@PBDI@Z ; std::basic_string<char,std::char_traits<char>,std::allocator<char> >::assign

; 68   : 	parameters.Set_Construct(&salt);

  000fc	8d 4c 24 2c	 lea	 ecx, DWORD PTR $T89605[esp+32]
  00100	8d 86 e8 00 00
	00		 lea	 eax, DWORD PTR [esi+232]
  00106	8d be cc 00 00
	00		 lea	 edi, DWORD PTR [esi+204]
  0010c	51		 push	 ecx
  0010d	89 44 24 30	 mov	 DWORD PTR $T89605[esp+36], eax
  00111	e8 00 00 00 00	 call	 ?push_back@?$vector@PAVASN1@@V?$allocator@PAVASN1@@@std@@@std@@QAEXABQAVASN1@@@Z ; std::vector<ASN1 *,std::allocator<ASN1 *> >::push_back

; 69   : 
; 70   : 	//iterationCount INTEGER (1..MAX),
; 71   : 	c		= _c;

  00116	8b 44 24 30	 mov	 eax, DWORD PTR __c$[esp+32]
  0011a	89 86 f8 01 00
	00		 mov	 DWORD PTR [esi+504], eax

; 72   : 	iterationCount.Set(_c);

  00120	89 86 8c 01 00
	00		 mov	 DWORD PTR [esi+396], eax

; 73   : 	parameters.Set_Construct(&iterationCount);

  00126	8d 44 24 2c	 lea	 eax, DWORD PTR $T89612[esp+32]
  0012a	8d 96 48 01 00
	00		 lea	 edx, DWORD PTR [esi+328]
  00130	50		 push	 eax
  00131	89 54 24 30	 mov	 DWORD PTR $T89612[esp+36], edx
  00135	e8 00 00 00 00	 call	 ?push_back@?$vector@PAVASN1@@V?$allocator@PAVASN1@@@std@@@std@@QAEXABQAVASN1@@@Z ; std::vector<ASN1 *,std::allocator<ASN1 *> >::push_back

; 74   : 
; 75   : 	//keyLength INTEGER (1..MAX) OPTIONAL,
; 76   : 	dkLen	= _dkLen;

  0013a	8b 44 24 34	 mov	 eax, DWORD PTR __dkLen$[esp+32]

; 77   : 	keyLength.Set(_dkLen);
; 78   : 	parameters.Set_Construct(&keyLength);

  0013e	8d 54 24 2c	 lea	 edx, DWORD PTR $T89619[esp+32]
  00142	8d 8e 90 01 00
	00		 lea	 ecx, DWORD PTR [esi+400]
  00148	52		 push	 edx
  00149	89 86 a0 00 00
	00		 mov	 DWORD PTR [esi+160], eax
  0014f	89 86 d4 01 00
	00		 mov	 DWORD PTR [esi+468], eax
  00155	89 4c 24 30	 mov	 DWORD PTR $T89619[esp+36], ecx
  00159	e8 00 00 00 00	 call	 ?push_back@?$vector@PAVASN1@@V?$allocator@PAVASN1@@@std@@@std@@QAEXABQAVASN1@@@Z ; std::vector<ASN1 *,std::allocator<ASN1 *> >::push_back

; 79   : 
; 80   : 	//prf AlgorithmIdentifier
; 81   : 	if ((cHMAC->Check_OID(&oid1_HMAC_SHA1) != 0) && (cHMAC->Check_OID(&oid2_HMAC_SHA1) != 0)){

  0015e	8b 86 d8 01 00
	00		 mov	 eax, DWORD PTR [esi+472]
  00164	68 00 00 00 00	 push	 OFFSET ?oid1_HMAC_SHA1@?1??Set_PBKDF2@PBKDF2@@QAEXPAXIII@Z@4VObjectIdentifier@@A
  00169	50		 push	 eax
  0016a	e8 00 00 00 00	 call	 ?Check_OID@AlgorithmIdentifier@@QAEHPAVObjectIdentifier@@@Z ; AlgorithmIdentifier::Check_OID
  0016f	85 c0		 test	 eax, eax
  00171	74 29		 je	 SHORT $LN60@Set_PBKDF2
  00173	8b 8e d8 01 00
	00		 mov	 ecx, DWORD PTR [esi+472]
  00179	68 00 00 00 00	 push	 OFFSET ?oid2_HMAC_SHA1@?1??Set_PBKDF2@PBKDF2@@QAEXPAXIII@Z@4VObjectIdentifier@@A
  0017e	51		 push	 ecx
  0017f	e8 00 00 00 00	 call	 ?Check_OID@AlgorithmIdentifier@@QAEHPAVObjectIdentifier@@@Z ; AlgorithmIdentifier::Check_OID
  00184	85 c0		 test	 eax, eax
  00186	74 14		 je	 SHORT $LN60@Set_PBKDF2

; 82   : 		//HMAC_SHA1Ç≈Ç»Ç¢èÍçáÇÕÅAHMACÇÃoidÇÉpÉâÉÅÅ[É^Ç…ä‹Çﬁ
; 83   : 		parameters.Set_Construct(cHMAC);

  00188	8b 96 d8 01 00
	00		 mov	 edx, DWORD PTR [esi+472]
  0018e	8d 44 24 2c	 lea	 eax, DWORD PTR $T89623[esp+32]
  00192	50		 push	 eax
  00193	89 54 24 30	 mov	 DWORD PTR $T89623[esp+36], edx
  00197	e8 00 00 00 00	 call	 ?push_back@?$vector@PAVASN1@@V?$allocator@PAVASN1@@@std@@@std@@QAEXABQAVASN1@@@Z ; std::vector<ASN1 *,std::allocator<ASN1 *> >::push_back
$LN60@Set_PBKDF2:

; 84   : 	}
; 85   : 
; 86   : 	//PBKDF2-params ::= SEQUENCE
; 87   : 	Set_Construct(&parameters);

  0019c	8d 4c 24 2c	 lea	 ecx, DWORD PTR $T89627[esp+32]
  001a0	81 c6 a4 00 00
	00		 add	 esi, 164		; 000000a4H
  001a6	51		 push	 ecx
  001a7	8b fd		 mov	 edi, ebp
  001a9	89 74 24 30	 mov	 DWORD PTR $T89627[esp+36], esi
  001ad	e8 00 00 00 00	 call	 ?push_back@?$vector@PAVASN1@@V?$allocator@PAVASN1@@@std@@@std@@QAEXABQAVASN1@@@Z ; std::vector<ASN1 *,std::allocator<ASN1 *> >::push_back

; 88   : }

  001b2	8b 4c 24 18	 mov	 ecx, DWORD PTR __$EHRec$[esp+36]
  001b6	64 89 0d 00 00
	00 00		 mov	 DWORD PTR fs:0, ecx
  001bd	59		 pop	 ecx
  001be	5f		 pop	 edi
  001bf	5e		 pop	 esi
  001c0	5d		 pop	 ebp
  001c1	5b		 pop	 ebx
  001c2	83 c4 10	 add	 esp, 16			; 00000010H
  001c5	c2 10 00	 ret	 16			; 00000010H
_TEXT	ENDS
;	COMDAT text$x
text$x	SEGMENT
__unwindfunclet$?Set_PBKDF2@PBKDF2@@QAEXPAXIII@Z$0:
  00000	a1 00 00 00 00	 mov	 eax, DWORD PTR ?$S1@?1??Set_PBKDF2@PBKDF2@@QAEXPAXIII@Z@4IA
  00005	83 e0 fe	 and	 eax, -2			; fffffffeH
  00008	a3 00 00 00 00	 mov	 DWORD PTR ?$S1@?1??Set_PBKDF2@PBKDF2@@QAEXPAXIII@Z@4IA, eax
  0000d	c3		 ret	 0
__unwindfunclet$?Set_PBKDF2@PBKDF2@@QAEXPAXIII@Z$1:
  0000e	a1 00 00 00 00	 mov	 eax, DWORD PTR ?$S1@?1??Set_PBKDF2@PBKDF2@@QAEXPAXIII@Z@4IA
  00013	83 e0 fd	 and	 eax, -3			; fffffffdH
  00016	a3 00 00 00 00	 mov	 DWORD PTR ?$S1@?1??Set_PBKDF2@PBKDF2@@QAEXPAXIII@Z@4IA, eax
  0001b	c3		 ret	 0
__ehhandler$?Set_PBKDF2@PBKDF2@@QAEXPAXIII@Z:
  0001c	8b 54 24 08	 mov	 edx, DWORD PTR [esp+8]
  00020	8d 42 ec	 lea	 eax, DWORD PTR [edx-20]
  00023	8b 4a e8	 mov	 ecx, DWORD PTR [edx-24]
  00026	33 c8		 xor	 ecx, eax
  00028	e8 00 00 00 00	 call	 @__security_check_cookie@4
  0002d	b8 00 00 00 00	 mov	 eax, OFFSET __ehfuncinfo$?Set_PBKDF2@PBKDF2@@QAEXPAXIII@Z
  00032	e9 00 00 00 00	 jmp	 ___CxxFrameHandler3
text$x	ENDS
?Set_PBKDF2@PBKDF2@@QAEXPAXIII@Z ENDP			; PBKDF2::Set_PBKDF2
PUBLIC	??0PBKDF2@@QAE@PAVHMAC@@QBD@Z			; PBKDF2::PBKDF2
;	COMDAT xdata$x
; File i:\ìnïîìƒéj\my project\cms\cms\asn1\algorithm\algorithmidentifier.cpp
xdata$x	SEGMENT
__unwindtable$??0PBKDF2@@QAE@PAVHMAC@@QBD@Z DD 0ffffffffH
	DD	FLAT:__unwindfunclet$??0PBKDF2@@QAE@PAVHMAC@@QBD@Z$0
	DD	00H
	DD	FLAT:__unwindfunclet$??0PBKDF2@@QAE@PAVHMAC@@QBD@Z$1
	DD	01H
	DD	FLAT:__unwindfunclet$??0PBKDF2@@QAE@PAVHMAC@@QBD@Z$2
	DD	02H
	DD	FLAT:__unwindfunclet$??0PBKDF2@@QAE@PAVHMAC@@QBD@Z$3
	DD	03H
	DD	FLAT:__unwindfunclet$??0PBKDF2@@QAE@PAVHMAC@@QBD@Z$4
	DD	04H
	DD	FLAT:__unwindfunclet$??0PBKDF2@@QAE@PAVHMAC@@QBD@Z$5
__ehfuncinfo$??0PBKDF2@@QAE@PAVHMAC@@QBD@Z DD 019930522H
	DD	06H
	DD	FLAT:__unwindtable$??0PBKDF2@@QAE@PAVHMAC@@QBD@Z
	DD	2 DUP(00H)
	DD	2 DUP(00H)
	DD	00H
	DD	01H
; Function compile flags: /Ogtpy
; File i:\ìnïîìƒéj\my project\cms\cms\asn1\algorithm\pbkdf2.cpp
xdata$x	ENDS
;	COMDAT ??0PBKDF2@@QAE@PAVHMAC@@QBD@Z
_TEXT	SEGMENT
__$EHRec$ = -12						; size = 12
_this$ = 8						; size = 4
__cHMAC$ = 12						; size = 4
??0PBKDF2@@QAE@PAVHMAC@@QBD@Z PROC			; PBKDF2::PBKDF2, COMDAT

; 17   : {

  00000	6a ff		 push	 -1
  00002	68 00 00 00 00	 push	 __ehhandler$??0PBKDF2@@QAE@PAVHMAC@@QBD@Z
  00007	64 a1 00 00 00
	00		 mov	 eax, DWORD PTR fs:0
  0000d	50		 push	 eax
  0000e	53		 push	 ebx
  0000f	56		 push	 esi
  00010	57		 push	 edi
  00011	a1 00 00 00 00	 mov	 eax, DWORD PTR ___security_cookie
  00016	33 c4		 xor	 eax, esp
  00018	50		 push	 eax
  00019	8d 44 24 10	 lea	 eax, DWORD PTR __$EHRec$[esp+28]
  0001d	64 a3 00 00 00
	00		 mov	 DWORD PTR fs:0, eax
  00023	8b 74 24 20	 mov	 esi, DWORD PTR _this$[esp+24]
  00027	68 00 00 00 00	 push	 OFFSET ??_C@_06KBOEGBGA@PBKDF2?$AA@
  0002c	56		 push	 esi
  0002d	e8 00 00 00 00	 call	 ??0AlgorithmIdentifier@@QAE@QBD@Z ; AlgorithmIdentifier::AlgorithmIdentifier
  00032	68 00 00 00 00	 push	 OFFSET ??_C@_08DOCONEG@Sequence?$AA@
  00037	33 db		 xor	 ebx, ebx
  00039	8d be a4 00 00
	00		 lea	 edi, DWORD PTR [esi+164]
  0003f	89 5c 24 1c	 mov	 DWORD PTR __$EHRec$[esp+40], ebx
  00043	57		 push	 edi
  00044	c7 06 00 00 00
	00		 mov	 DWORD PTR [esi], OFFSET ??_7PBKDF2@@6B@
  0004a	e8 00 00 00 00	 call	 ??0ASN1@@QAE@QBD@Z	; ASN1::ASN1
  0004f	c7 07 00 00 00
	00		 mov	 DWORD PTR [edi], OFFSET ??_7Sequence@@6B@
  00055	68 00 00 00 00	 push	 OFFSET ??_C@_0N@DHPBPBEA@Octet?5String?$AA@
  0005a	8d be e8 00 00
	00		 lea	 edi, DWORD PTR [esi+232]
  00060	57		 push	 edi
  00061	c6 44 24 20 01	 mov	 BYTE PTR __$EHRec$[esp+44], 1
  00066	e8 00 00 00 00	 call	 ??0ASN1@@QAE@QBD@Z	; ASN1::ASN1
  0006b	c7 07 00 00 00
	00		 mov	 DWORD PTR [edi], OFFSET ??_7OctetString@@6B@
  00071	c7 47 5c 0f 00
	00 00		 mov	 DWORD PTR [edi+92], 15	; 0000000fH
  00078	89 5f 58	 mov	 DWORD PTR [edi+88], ebx
  0007b	88 5f 48	 mov	 BYTE PTR [edi+72], bl
  0007e	68 00 00 00 00	 push	 OFFSET ??_C@_07EDADKEAH@Integer?$AA@
  00083	8d be 48 01 00
	00		 lea	 edi, DWORD PTR [esi+328]
  00089	57		 push	 edi
  0008a	c6 44 24 20 02	 mov	 BYTE PTR __$EHRec$[esp+44], 2
  0008f	e8 00 00 00 00	 call	 ??0ASN1@@QAE@QBD@Z	; ASN1::ASN1
  00094	c7 07 00 00 00
	00		 mov	 DWORD PTR [edi], OFFSET ??_7Integer@@6B@
  0009a	68 00 00 00 00	 push	 OFFSET ??_C@_07EDADKEAH@Integer?$AA@
  0009f	8d be 90 01 00
	00		 lea	 edi, DWORD PTR [esi+400]
  000a5	57		 push	 edi
  000a6	c6 44 24 20 03	 mov	 BYTE PTR __$EHRec$[esp+44], 3
  000ab	e8 00 00 00 00	 call	 ??0ASN1@@QAE@QBD@Z	; ASN1::ASN1
  000b0	c7 07 00 00 00
	00		 mov	 DWORD PTR [edi], OFFSET ??_7Integer@@6B@
  000b6	8b 44 24 24	 mov	 eax, DWORD PTR __cHMAC$[esp+24]
  000ba	89 86 d8 01 00
	00		 mov	 DWORD PTR [esi+472], eax
  000c0	c7 86 f4 01 00
	00 0f 00 00 00	 mov	 DWORD PTR [esi+500], 15	; 0000000fH
  000ca	89 9e f0 01 00
	00		 mov	 DWORD PTR [esi+496], ebx
  000d0	88 9e e0 01 00
	00		 mov	 BYTE PTR [esi+480], bl

; 18   : 	Set_oid(oid,sizeof(oid)/sizeof(int));

  000d6	6a 07		 push	 7
  000d8	68 00 00 00 00	 push	 OFFSET ?oid@PBKDF2@@0PAIA ; PBKDF2::oid
  000dd	8d 46 44	 lea	 eax, DWORD PTR [esi+68]
  000e0	c6 44 24 20 05	 mov	 BYTE PTR __$EHRec$[esp+44], 5
  000e5	e8 00 00 00 00	 call	 ?Set@ObjectIdentifier@@QAEXQAII@Z ; ObjectIdentifier::Set

; 19   : 
; 20   : 	//åJÇËï‘ÇµåvéZópÉoÉbÉtÉ@
; 21   : 	hLen		= cHMAC->cHash->szHash;

  000ea	8b 8e d8 01 00
	00		 mov	 ecx, DWORD PTR [esi+472]
  000f0	8b 91 a0 00 00
	00		 mov	 edx, DWORD PTR [ecx+160]
  000f6	8b 82 a8 00 00
	00		 mov	 eax, DWORD PTR [edx+168]

; 22   : 	U_			= (unsigned	char*)_aligned_malloc(hLen, sizeof(__m128i));

  000fc	6a 10		 push	 16			; 00000010H
  000fe	50		 push	 eax
  000ff	89 86 fc 01 00
	00		 mov	 DWORD PTR [esi+508], eax
  00105	e8 00 00 00 00	 call	 __aligned_malloc
  0010a	89 86 00 02 00
	00		 mov	 DWORD PTR [esi+512], eax

; 23   : 
; 24   : 	//îrëºìIò_óùòaÇäiî[Ç∑ÇÈÉoÉbÉtÉ@
; 25   : 	__m128_hLen	= (hLen/sizeof(__m128i)) + 1;

  00110	8b 86 fc 01 00
	00		 mov	 eax, DWORD PTR [esi+508]
  00116	c1 e8 04	 shr	 eax, 4
  00119	40		 inc	 eax
  0011a	89 86 08 02 00
	00		 mov	 DWORD PTR [esi+520], eax

; 26   : 	__m128_U	= (__m128i*)_aligned_malloc(__m128_hLen * sizeof(__m128i), sizeof(__m128i));

  00120	c1 e0 04	 shl	 eax, 4
  00123	6a 10		 push	 16			; 00000010H
  00125	50		 push	 eax
  00126	e8 00 00 00 00	 call	 __aligned_malloc
  0012b	89 86 0c 02 00
	00		 mov	 DWORD PTR [esi+524], eax
  00131	83 c4 10	 add	 esp, 16			; 00000010H

; 27   : }

  00134	8b c6		 mov	 eax, esi
  00136	8b 4c 24 10	 mov	 ecx, DWORD PTR __$EHRec$[esp+28]
  0013a	64 89 0d 00 00
	00 00		 mov	 DWORD PTR fs:0, ecx
  00141	59		 pop	 ecx
  00142	5f		 pop	 edi
  00143	5e		 pop	 esi
  00144	5b		 pop	 ebx
  00145	83 c4 0c	 add	 esp, 12			; 0000000cH
  00148	c2 08 00	 ret	 8
_TEXT	ENDS
;	COMDAT text$x
text$x	SEGMENT
__unwindfunclet$??0PBKDF2@@QAE@PAVHMAC@@QBD@Z$0:
  00000	8b 75 04	 mov	 esi, DWORD PTR _this$[ebp-4]
  00003	e9 00 00 00 00	 jmp	 ??1KeyDerivation@@QAE@XZ ; KeyDerivation::~KeyDerivation
__unwindfunclet$??0PBKDF2@@QAE@PAVHMAC@@QBD@Z$1:
  00008	8b 45 04	 mov	 eax, DWORD PTR _this$[ebp-4]
  0000b	05 a4 00 00 00	 add	 eax, 164		; 000000a4H
  00010	e9 00 00 00 00	 jmp	 ??1Sequence@@QAE@XZ	; Sequence::~Sequence
__unwindfunclet$??0PBKDF2@@QAE@PAVHMAC@@QBD@Z$2:
  00015	8b 45 04	 mov	 eax, DWORD PTR _this$[ebp-4]
  00018	05 e8 00 00 00	 add	 eax, 232		; 000000e8H
  0001d	e9 00 00 00 00	 jmp	 ??1OctetString@@QAE@XZ	; OctetString::~OctetString
__unwindfunclet$??0PBKDF2@@QAE@PAVHMAC@@QBD@Z$3:
  00022	8b 45 04	 mov	 eax, DWORD PTR _this$[ebp-4]
  00025	05 48 01 00 00	 add	 eax, 328		; 00000148H
  0002a	e9 00 00 00 00	 jmp	 ??1Integer@@QAE@XZ	; Integer::~Integer
__unwindfunclet$??0PBKDF2@@QAE@PAVHMAC@@QBD@Z$4:
  0002f	8b 45 04	 mov	 eax, DWORD PTR _this$[ebp-4]
  00032	05 90 01 00 00	 add	 eax, 400		; 00000190H
  00037	e9 00 00 00 00	 jmp	 ??1Integer@@QAE@XZ	; Integer::~Integer
__unwindfunclet$??0PBKDF2@@QAE@PAVHMAC@@QBD@Z$5:
  0003c	8b 4d 04	 mov	 ecx, DWORD PTR _this$[ebp-4]
  0003f	81 c1 dc 01 00
	00		 add	 ecx, 476		; 000001dcH
  00045	e9 00 00 00 00	 jmp	 ??1?$basic_string@DU?$char_traits@D@std@@V?$allocator@D@2@@std@@QAE@XZ ; std::basic_string<char,std::char_traits<char>,std::allocator<char> >::~basic_string<char,std::char_traits<char>,std::allocator<char> >
__ehhandler$??0PBKDF2@@QAE@PAVHMAC@@QBD@Z:
  0004a	8b 54 24 08	 mov	 edx, DWORD PTR [esp+8]
  0004e	8d 42 f4	 lea	 eax, DWORD PTR [edx-12]
  00051	8b 4a f0	 mov	 ecx, DWORD PTR [edx-16]
  00054	33 c8		 xor	 ecx, eax
  00056	e8 00 00 00 00	 call	 @__security_check_cookie@4
  0005b	b8 00 00 00 00	 mov	 eax, OFFSET __ehfuncinfo$??0PBKDF2@@QAE@PAVHMAC@@QBD@Z
  00060	e9 00 00 00 00	 jmp	 ___CxxFrameHandler3
text$x	ENDS
??0PBKDF2@@QAE@PAVHMAC@@QBD@Z ENDP			; PBKDF2::PBKDF2
; Function compile flags: /Ogtpy
;	COMDAT ??__Foid1_HMAC_SHA1@?1??Set_PBKDF2@PBKDF2@@QAEXPAXIII@Z@YAXXZ
text$yd	SEGMENT
??__Foid1_HMAC_SHA1@?1??Set_PBKDF2@PBKDF2@@QAEXPAXIII@Z@YAXXZ PROC ; `PBKDF2::Set_PBKDF2'::`2'::`dynamic atexit destructor for 'oid1_HMAC_SHA1'', COMDAT
  00000	a1 50 00 00 00	 mov	 eax, DWORD PTR ?oid1_HMAC_SHA1@?1??Set_PBKDF2@PBKDF2@@QAEXPAXIII@Z@4VObjectIdentifier@@A+80
  00005	57		 push	 edi
  00006	c7 05 00 00 00
	00 00 00 00 00	 mov	 DWORD PTR ?oid1_HMAC_SHA1@?1??Set_PBKDF2@PBKDF2@@QAEXPAXIII@Z@4VObjectIdentifier@@A, OFFSET ??_7ObjectIdentifier@@6B@
  00010	85 c0		 test	 eax, eax
  00012	74 09		 je	 SHORT $LN10@dynamic@2
  00014	50		 push	 eax
  00015	e8 00 00 00 00	 call	 ??3@YAXPAX@Z		; operator delete
  0001a	83 c4 04	 add	 esp, 4
$LN10@dynamic@2:
  0001d	a1 44 00 00 00	 mov	 eax, DWORD PTR ?oid1_HMAC_SHA1@?1??Set_PBKDF2@PBKDF2@@QAEXPAXIII@Z@4VObjectIdentifier@@A+68
  00022	50		 push	 eax
  00023	c7 05 50 00 00
	00 00 00 00 00	 mov	 DWORD PTR ?oid1_HMAC_SHA1@?1??Set_PBKDF2@PBKDF2@@QAEXPAXIII@Z@4VObjectIdentifier@@A+80, 0
  0002d	c7 05 54 00 00
	00 00 00 00 00	 mov	 DWORD PTR ?oid1_HMAC_SHA1@?1??Set_PBKDF2@PBKDF2@@QAEXPAXIII@Z@4VObjectIdentifier@@A+84, 0
  00037	c7 05 58 00 00
	00 00 00 00 00	 mov	 DWORD PTR ?oid1_HMAC_SHA1@?1??Set_PBKDF2@PBKDF2@@QAEXPAXIII@Z@4VObjectIdentifier@@A+88, 0
  00041	e8 00 00 00 00	 call	 ??3@YAXPAX@Z		; operator delete
  00046	83 c4 04	 add	 esp, 4
  00049	bf 00 00 00 00	 mov	 edi, OFFSET ?oid1_HMAC_SHA1@?1??Set_PBKDF2@PBKDF2@@QAEXPAXIII@Z@4VObjectIdentifier@@A
  0004e	e8 00 00 00 00	 call	 ??1ASN1@@QAE@XZ		; ASN1::~ASN1
  00053	5f		 pop	 edi
  00054	c3		 ret	 0
??__Foid1_HMAC_SHA1@?1??Set_PBKDF2@PBKDF2@@QAEXPAXIII@Z@YAXXZ ENDP ; `PBKDF2::Set_PBKDF2'::`2'::`dynamic atexit destructor for 'oid1_HMAC_SHA1''
; Function compile flags: /Ogtpy
text$yd	ENDS
;	COMDAT ??__Foid2_HMAC_SHA1@?1??Set_PBKDF2@PBKDF2@@QAEXPAXIII@Z@YAXXZ
text$yd	SEGMENT
??__Foid2_HMAC_SHA1@?1??Set_PBKDF2@PBKDF2@@QAEXPAXIII@Z@YAXXZ PROC ; `PBKDF2::Set_PBKDF2'::`2'::`dynamic atexit destructor for 'oid2_HMAC_SHA1'', COMDAT
  00000	a1 50 00 00 00	 mov	 eax, DWORD PTR ?oid2_HMAC_SHA1@?1??Set_PBKDF2@PBKDF2@@QAEXPAXIII@Z@4VObjectIdentifier@@A+80
  00005	57		 push	 edi
  00006	c7 05 00 00 00
	00 00 00 00 00	 mov	 DWORD PTR ?oid2_HMAC_SHA1@?1??Set_PBKDF2@PBKDF2@@QAEXPAXIII@Z@4VObjectIdentifier@@A, OFFSET ??_7ObjectIdentifier@@6B@
  00010	85 c0		 test	 eax, eax
  00012	74 09		 je	 SHORT $LN10@dynamic@3
  00014	50		 push	 eax
  00015	e8 00 00 00 00	 call	 ??3@YAXPAX@Z		; operator delete
  0001a	83 c4 04	 add	 esp, 4
$LN10@dynamic@3:
  0001d	a1 44 00 00 00	 mov	 eax, DWORD PTR ?oid2_HMAC_SHA1@?1??Set_PBKDF2@PBKDF2@@QAEXPAXIII@Z@4VObjectIdentifier@@A+68
  00022	50		 push	 eax
  00023	c7 05 50 00 00
	00 00 00 00 00	 mov	 DWORD PTR ?oid2_HMAC_SHA1@?1??Set_PBKDF2@PBKDF2@@QAEXPAXIII@Z@4VObjectIdentifier@@A+80, 0
  0002d	c7 05 54 00 00
	00 00 00 00 00	 mov	 DWORD PTR ?oid2_HMAC_SHA1@?1??Set_PBKDF2@PBKDF2@@QAEXPAXIII@Z@4VObjectIdentifier@@A+84, 0
  00037	c7 05 58 00 00
	00 00 00 00 00	 mov	 DWORD PTR ?oid2_HMAC_SHA1@?1??Set_PBKDF2@PBKDF2@@QAEXPAXIII@Z@4VObjectIdentifier@@A+88, 0
  00041	e8 00 00 00 00	 call	 ??3@YAXPAX@Z		; operator delete
  00046	83 c4 04	 add	 esp, 4
  00049	bf 00 00 00 00	 mov	 edi, OFFSET ?oid2_HMAC_SHA1@?1??Set_PBKDF2@PBKDF2@@QAEXPAXIII@Z@4VObjectIdentifier@@A
  0004e	e8 00 00 00 00	 call	 ??1ASN1@@QAE@XZ		; ASN1::~ASN1
  00053	5f		 pop	 edi
  00054	c3		 ret	 0
??__Foid2_HMAC_SHA1@?1??Set_PBKDF2@PBKDF2@@QAEXPAXIII@Z@YAXXZ ENDP ; `PBKDF2::Set_PBKDF2'::`2'::`dynamic atexit destructor for 'oid2_HMAC_SHA1''
END
