; Listing generated by Microsoft (R) Optimizing Compiler Version 15.00.30729.01 

	TITLE	i:\?n????j\My Project\CMS\CMS\ASN1\PKCS8\PKCS8.cpp
	.686P
	.XMM
	include listing.inc
	.model	flat

INCLUDELIB OLDNAMES

PUBLIC	??_R4PKCS8@@6B@					; PKCS8::`RTTI Complete Object Locator'
PUBLIC	??_R3PKCS8@@8					; PKCS8::`RTTI Class Hierarchy Descriptor'
PUBLIC	??_R2PKCS8@@8					; PKCS8::`RTTI Base Class Array'
PUBLIC	??_R1A@?0A@EA@PrivateKeyInfo@@8			; PrivateKeyInfo::`RTTI Base Class Descriptor at (0,-1,0,64)'
PUBLIC	??_R3PrivateKeyInfo@@8				; PrivateKeyInfo::`RTTI Class Hierarchy Descriptor'
PUBLIC	??_R2PrivateKeyInfo@@8				; PrivateKeyInfo::`RTTI Base Class Array'
PUBLIC	??_R0?AVPrivateKeyInfo@@@8			; PrivateKeyInfo `RTTI Type Descriptor'
PUBLIC	??_R1A@?0A@EA@PKCS8@@8				; PKCS8::`RTTI Base Class Descriptor at (0,-1,0,64)'
PUBLIC	??_R0?AVPKCS8@@@8				; PKCS8 `RTTI Type Descriptor'
PUBLIC	??_7PKCS8@@6B@					; PKCS8::`vftable'
;	COMDAT ??_7PKCS8@@6B@
CONST	SEGMENT
??_7PKCS8@@6B@ DD FLAT:??_R4PKCS8@@6B@			; PKCS8::`vftable'
	DD	FLAT:?encodeBER@Sequence@@UAEXXZ
	DD	FLAT:?Get_BERcode@ASN1@@UAEPBDXZ
	DD	FLAT:?Get_BERsize@ASN1@@UAEIXZ
CONST	ENDS
;	COMDAT ??_R4PKCS8@@6B@
rdata$r	SEGMENT
??_R4PKCS8@@6B@ DD 00H					; PKCS8::`RTTI Complete Object Locator'
	DD	00H
	DD	00H
	DD	FLAT:??_R0?AVPKCS8@@@8
	DD	FLAT:??_R3PKCS8@@8
rdata$r	ENDS
;	COMDAT ??_R3PKCS8@@8
rdata$r	SEGMENT
??_R3PKCS8@@8 DD 00H					; PKCS8::`RTTI Class Hierarchy Descriptor'
	DD	00H
	DD	04H
	DD	FLAT:??_R2PKCS8@@8
rdata$r	ENDS
;	COMDAT ??_R2PKCS8@@8
rdata$r	SEGMENT
??_R2PKCS8@@8 DD FLAT:??_R1A@?0A@EA@PKCS8@@8		; PKCS8::`RTTI Base Class Array'
	DD	FLAT:??_R1A@?0A@EA@PrivateKeyInfo@@8
	DD	FLAT:??_R1A@?0A@EA@Sequence@@8
	DD	FLAT:??_R1A@?0A@EA@ASN1@@8
rdata$r	ENDS
;	COMDAT ??_R1A@?0A@EA@PrivateKeyInfo@@8
rdata$r	SEGMENT
??_R1A@?0A@EA@PrivateKeyInfo@@8 DD FLAT:??_R0?AVPrivateKeyInfo@@@8 ; PrivateKeyInfo::`RTTI Base Class Descriptor at (0,-1,0,64)'
	DD	02H
	DD	00H
	DD	0ffffffffH
	DD	00H
	DD	040H
	DD	FLAT:??_R3PrivateKeyInfo@@8
rdata$r	ENDS
;	COMDAT ??_R3PrivateKeyInfo@@8
rdata$r	SEGMENT
??_R3PrivateKeyInfo@@8 DD 00H				; PrivateKeyInfo::`RTTI Class Hierarchy Descriptor'
	DD	00H
	DD	03H
	DD	FLAT:??_R2PrivateKeyInfo@@8
rdata$r	ENDS
;	COMDAT ??_R2PrivateKeyInfo@@8
rdata$r	SEGMENT
??_R2PrivateKeyInfo@@8 DD FLAT:??_R1A@?0A@EA@PrivateKeyInfo@@8 ; PrivateKeyInfo::`RTTI Base Class Array'
	DD	FLAT:??_R1A@?0A@EA@Sequence@@8
	DD	FLAT:??_R1A@?0A@EA@ASN1@@8
rdata$r	ENDS
;	COMDAT ??_R0?AVPrivateKeyInfo@@@8
_DATA	SEGMENT
??_R0?AVPrivateKeyInfo@@@8 DD FLAT:??_7type_info@@6B@	; PrivateKeyInfo `RTTI Type Descriptor'
	DD	00H
	DB	'.?AVPrivateKeyInfo@@', 00H
_DATA	ENDS
;	COMDAT ??_R1A@?0A@EA@PKCS8@@8
rdata$r	SEGMENT
??_R1A@?0A@EA@PKCS8@@8 DD FLAT:??_R0?AVPKCS8@@@8	; PKCS8::`RTTI Base Class Descriptor at (0,-1,0,64)'
	DD	03H
	DD	00H
	DD	0ffffffffH
	DD	00H
	DD	040H
	DD	FLAT:??_R3PKCS8@@8
rdata$r	ENDS
;	COMDAT ??_R0?AVPKCS8@@@8
_DATA	SEGMENT
??_R0?AVPKCS8@@@8 DD FLAT:??_7type_info@@6B@		; PKCS8 `RTTI Type Descriptor'
	DD	00H
	DB	'.?AVPKCS8@@', 00H
PUBLIC	??1PKCS8@@QAE@XZ				; PKCS8::~PKCS8
; Function compile flags: /Ogtpy
; File i:\“n•”“ÄŽj\my project\cms\cms\asn1\pkcs8\pkcs8.cpp
;	COMDAT ??1PKCS8@@QAE@XZ
_TEXT	SEGMENT
??1PKCS8@@QAE@XZ PROC					; PKCS8::~PKCS8, COMDAT
; _this$ = esi

; 25   : {

  00000	57		 push	 edi

; 26   : }

  00001	8d be 90 00 00
	00		 lea	 edi, DWORD PTR [esi+144]
  00007	c7 06 00 00 00
	00		 mov	 DWORD PTR [esi], OFFSET ??_7PrivateKeyInfo@@6B@
  0000d	c7 07 00 00 00
	00		 mov	 DWORD PTR [edi], OFFSET ??_7OctetString@@6B@
  00013	83 7f 5c 10	 cmp	 DWORD PTR [edi+92], 16	; 00000010H
  00017	72 0c		 jb	 SHORT $LN23@PKCS8
  00019	8b 47 48	 mov	 eax, DWORD PTR [edi+72]
  0001c	50		 push	 eax
  0001d	e8 00 00 00 00	 call	 ??3@YAXPAX@Z		; operator delete
  00022	83 c4 04	 add	 esp, 4
$LN23@PKCS8:
  00025	33 c0		 xor	 eax, eax
  00027	c7 47 5c 0f 00
	00 00		 mov	 DWORD PTR [edi+92], 15	; 0000000fH
  0002e	89 47 58	 mov	 DWORD PTR [edi+88], eax
  00031	88 47 48	 mov	 BYTE PTR [edi+72], al
  00034	e8 00 00 00 00	 call	 ??1ASN1@@QAE@XZ		; ASN1::~ASN1
  00039	8d 7e 44	 lea	 edi, DWORD PTR [esi+68]
  0003c	c7 07 00 00 00
	00		 mov	 DWORD PTR [edi], OFFSET ??_7Integer@@6B@
  00042	e8 00 00 00 00	 call	 ??1ASN1@@QAE@XZ		; ASN1::~ASN1
  00047	8b fe		 mov	 edi, esi
  00049	c7 06 00 00 00
	00		 mov	 DWORD PTR [esi], OFFSET ??_7Sequence@@6B@
  0004f	e8 00 00 00 00	 call	 ??1ASN1@@QAE@XZ		; ASN1::~ASN1
  00054	5f		 pop	 edi
  00055	c3		 ret	 0
??1PKCS8@@QAE@XZ ENDP					; PKCS8::~PKCS8
PUBLIC	??0PKCS8@@QAE@QBD@Z				; PKCS8::PKCS8
; Function compile flags: /Ogtpy
;	COMDAT ??0PKCS8@@QAE@QBD@Z
_TEXT	SEGMENT
??0PKCS8@@QAE@QBD@Z PROC				; PKCS8::PKCS8, COMDAT
; _this$ = esi

; 14   : {

  00000	51		 push	 ecx
  00001	56		 push	 esi
  00002	e8 00 00 00 00	 call	 ??0PrivateKeyInfo@@QAE@QBD@Z ; PrivateKeyInfo::PrivateKeyInfo
  00007	c7 06 00 00 00
	00		 mov	 DWORD PTR [esi], OFFSET ??_7PKCS8@@6B@

; 15   : }

  0000d	8b c6		 mov	 eax, esi
  0000f	59		 pop	 ecx
  00010	c3		 ret	 0
??0PKCS8@@QAE@QBD@Z ENDP				; PKCS8::PKCS8
END
