; Listing generated by Microsoft (R) Optimizing Compiler Version 15.00.30729.01 

	TITLE	i:\?n????j\My Project\CMS\CMS\ASN1\PKCS8\PKCS8_Input.cpp
	.686P
	.XMM
	include listing.inc
	.model	flat

INCLUDELIB OLDNAMES

PUBLIC	??_R4PKCS8_Input@@6BBER_Input@@@		; PKCS8_Input::`RTTI Complete Object Locator'
PUBLIC	??_R4PKCS8_Input@@6BPKCS8@@@			; PKCS8_Input::`RTTI Complete Object Locator'
PUBLIC	??_R3PKCS8_Input@@8				; PKCS8_Input::`RTTI Class Hierarchy Descriptor'
PUBLIC	??_R2PKCS8_Input@@8				; PKCS8_Input::`RTTI Base Class Array'
PUBLIC	??_R13PA@3EA@?$_Iosb@H@std@@8			; std::_Iosb<int>::`RTTI Base Class Descriptor at (4,240,4,64)'
PUBLIC	??_R1A@PA@3EA@ios_base@std@@8			; std::ios_base::`RTTI Base Class Descriptor at (0,240,4,64)'
PUBLIC	??_R1A@PA@3FA@?$basic_ios@DU?$char_traits@D@std@@@std@@8 ; std::basic_ios<char,std::char_traits<char> >::`RTTI Base Class Descriptor at (0,240,4,80)'
PUBLIC	??_R1PA@?0A@EA@?$basic_istream@DU?$char_traits@D@std@@@std@@8 ; std::basic_istream<char,std::char_traits<char> >::`RTTI Base Class Descriptor at (240,-1,0,64)'
PUBLIC	??_R1PA@?0A@EA@?$basic_ifstream@DU?$char_traits@D@std@@@std@@8 ; std::basic_ifstream<char,std::char_traits<char> >::`RTTI Base Class Descriptor at (240,-1,0,64)'
PUBLIC	??_R1PA@?0A@EA@FileInput@@8			; FileInput::`RTTI Base Class Descriptor at (240,-1,0,64)'
PUBLIC	??_R1PA@?0A@EA@BER_Input@@8			; BER_Input::`RTTI Base Class Descriptor at (240,-1,0,64)'
PUBLIC	??_R1A@?0A@EA@PKCS8_Input@@8			; PKCS8_Input::`RTTI Base Class Descriptor at (0,-1,0,64)'
PUBLIC	??_R0?AVPKCS8_Input@@@8				; PKCS8_Input `RTTI Type Descriptor'
PUBLIC	??_DPKCS8_Input@@QAEXXZ				; PKCS8_Input::`vbase destructor'
PUBLIC	??_GPKCS8_Input@@UAEPAXI@Z			; PKCS8_Input::`scalar deleting destructor'
PUBLIC	??_C@_0BE@FMHIPPHM@?3?5unmatch?5key?5size?4?$AA@ ; `string'
PUBLIC	??_C@_03CCEPDEKL@Key?$AA@			; `string'
PUBLIC	??_C@_0CC@BCADGEKP@?3?5Different?5encryption?5algorithm@ ; `string'
PUBLIC	??_C@_0L@JENBINIJ@PrivateKey?$AA@		; `string'
PUBLIC	??_7PKCS8_Input@@6BPKCS8@@@			; PKCS8_Input::`vftable'
PUBLIC	??_7PKCS8_Input@@6BBER_Input@@@			; PKCS8_Input::`vftable'
PUBLIC	??_8PKCS8_Input@@7B@				; PKCS8_Input::`vbtable'
EXTRN	??_EPKCS8_Input@@UAEPAXI@Z:PROC			; PKCS8_Input::`vector deleting destructor'
;	COMDAT ??_8PKCS8_Input@@7B@
CONST	SEGMENT
??_8PKCS8_Input@@7B@ DD 00H				; PKCS8_Input::`vbtable'
	DD	0b4H
CONST	ENDS
;	COMDAT ??_7PKCS8_Input@@6BBER_Input@@@
CONST	SEGMENT
??_7PKCS8_Input@@6BBER_Input@@@ DD FLAT:??_R4PKCS8_Input@@6BBER_Input@@@ ; PKCS8_Input::`vftable'
	DD	FLAT:??_EPKCS8_Input@@UAEPAXI@Z
CONST	ENDS
;	COMDAT ??_R4PKCS8_Input@@6BBER_Input@@@
rdata$r	SEGMENT
??_R4PKCS8_Input@@6BBER_Input@@@ DD 00H			; PKCS8_Input::`RTTI Complete Object Locator'
	DD	01a4H
	DD	00H
	DD	FLAT:??_R0?AVPKCS8_Input@@@8
	DD	FLAT:??_R3PKCS8_Input@@8
rdata$r	ENDS
;	COMDAT ??_7PKCS8_Input@@6BPKCS8@@@
CONST	SEGMENT
??_7PKCS8_Input@@6BPKCS8@@@ DD FLAT:??_R4PKCS8_Input@@6BPKCS8@@@ ; PKCS8_Input::`vftable'
	DD	FLAT:?encodeBER@Sequence@@UAEXXZ
	DD	FLAT:?Get_BERcode@ASN1@@UAEPBDXZ
	DD	FLAT:?Get_BERsize@ASN1@@UAEIXZ
CONST	ENDS
;	COMDAT ??_R4PKCS8_Input@@6BPKCS8@@@
rdata$r	SEGMENT
??_R4PKCS8_Input@@6BPKCS8@@@ DD 00H			; PKCS8_Input::`RTTI Complete Object Locator'
	DD	00H
	DD	00H
	DD	FLAT:??_R0?AVPKCS8_Input@@@8
	DD	FLAT:??_R3PKCS8_Input@@8
rdata$r	ENDS
;	COMDAT ??_R3PKCS8_Input@@8
rdata$r	SEGMENT
??_R3PKCS8_Input@@8 DD 00H				; PKCS8_Input::`RTTI Class Hierarchy Descriptor'
	DD	03H
	DD	0cH
	DD	FLAT:??_R2PKCS8_Input@@8
rdata$r	ENDS
;	COMDAT ??_R2PKCS8_Input@@8
rdata$r	SEGMENT
??_R2PKCS8_Input@@8 DD FLAT:??_R1A@?0A@EA@PKCS8_Input@@8 ; PKCS8_Input::`RTTI Base Class Array'
	DD	FLAT:??_R1PA@?0A@EA@BER_Input@@8
	DD	FLAT:??_R1PA@?0A@EA@FileInput@@8
	DD	FLAT:??_R1PA@?0A@EA@?$basic_ifstream@DU?$char_traits@D@std@@@std@@8
	DD	FLAT:??_R1PA@?0A@EA@?$basic_istream@DU?$char_traits@D@std@@@std@@8
	DD	FLAT:??_R1A@PA@3FA@?$basic_ios@DU?$char_traits@D@std@@@std@@8
	DD	FLAT:??_R1A@PA@3EA@ios_base@std@@8
	DD	FLAT:??_R13PA@3EA@?$_Iosb@H@std@@8
	DD	FLAT:??_R1A@?0A@EA@PKCS8@@8
	DD	FLAT:??_R1A@?0A@EA@PrivateKeyInfo@@8
	DD	FLAT:??_R1A@?0A@EA@Sequence@@8
	DD	FLAT:??_R1A@?0A@EA@ASN1@@8
rdata$r	ENDS
;	COMDAT ??_R13PA@3EA@?$_Iosb@H@std@@8
rdata$r	SEGMENT
??_R13PA@3EA@?$_Iosb@H@std@@8 DD FLAT:??_R0?AV?$_Iosb@H@std@@@8 ; std::_Iosb<int>::`RTTI Base Class Descriptor at (4,240,4,64)'
	DD	00H
	DD	04H
	DD	0f0H
	DD	04H
	DD	040H
	DD	FLAT:??_R3?$_Iosb@H@std@@8
rdata$r	ENDS
;	COMDAT ??_R1A@PA@3EA@ios_base@std@@8
rdata$r	SEGMENT
??_R1A@PA@3EA@ios_base@std@@8 DD FLAT:??_R0?AVios_base@std@@@8 ; std::ios_base::`RTTI Base Class Descriptor at (0,240,4,64)'
	DD	01H
	DD	00H
	DD	0f0H
	DD	04H
	DD	040H
	DD	FLAT:??_R3ios_base@std@@8
rdata$r	ENDS
;	COMDAT ??_R1A@PA@3FA@?$basic_ios@DU?$char_traits@D@std@@@std@@8
rdata$r	SEGMENT
??_R1A@PA@3FA@?$basic_ios@DU?$char_traits@D@std@@@std@@8 DD FLAT:??_R0?AV?$basic_ios@DU?$char_traits@D@std@@@std@@@8 ; std::basic_ios<char,std::char_traits<char> >::`RTTI Base Class Descriptor at (0,240,4,80)'
	DD	02H
	DD	00H
	DD	0f0H
	DD	04H
	DD	050H
	DD	FLAT:??_R3?$basic_ios@DU?$char_traits@D@std@@@std@@8
rdata$r	ENDS
;	COMDAT ??_R1PA@?0A@EA@?$basic_istream@DU?$char_traits@D@std@@@std@@8
rdata$r	SEGMENT
??_R1PA@?0A@EA@?$basic_istream@DU?$char_traits@D@std@@@std@@8 DD FLAT:??_R0?AV?$basic_istream@DU?$char_traits@D@std@@@std@@@8 ; std::basic_istream<char,std::char_traits<char> >::`RTTI Base Class Descriptor at (240,-1,0,64)'
	DD	03H
	DD	0f0H
	DD	0ffffffffH
	DD	00H
	DD	040H
	DD	FLAT:??_R3?$basic_istream@DU?$char_traits@D@std@@@std@@8
rdata$r	ENDS
;	COMDAT ??_R1PA@?0A@EA@?$basic_ifstream@DU?$char_traits@D@std@@@std@@8
rdata$r	SEGMENT
??_R1PA@?0A@EA@?$basic_ifstream@DU?$char_traits@D@std@@@std@@8 DD FLAT:??_R0?AV?$basic_ifstream@DU?$char_traits@D@std@@@std@@@8 ; std::basic_ifstream<char,std::char_traits<char> >::`RTTI Base Class Descriptor at (240,-1,0,64)'
	DD	04H
	DD	0f0H
	DD	0ffffffffH
	DD	00H
	DD	040H
	DD	FLAT:??_R3?$basic_ifstream@DU?$char_traits@D@std@@@std@@8
rdata$r	ENDS
;	COMDAT ??_R1PA@?0A@EA@FileInput@@8
rdata$r	SEGMENT
??_R1PA@?0A@EA@FileInput@@8 DD FLAT:??_R0?AVFileInput@@@8 ; FileInput::`RTTI Base Class Descriptor at (240,-1,0,64)'
	DD	05H
	DD	0f0H
	DD	0ffffffffH
	DD	00H
	DD	040H
	DD	FLAT:??_R3FileInput@@8
rdata$r	ENDS
;	COMDAT ??_R1PA@?0A@EA@BER_Input@@8
rdata$r	SEGMENT
??_R1PA@?0A@EA@BER_Input@@8 DD FLAT:??_R0?AVBER_Input@@@8 ; BER_Input::`RTTI Base Class Descriptor at (240,-1,0,64)'
	DD	06H
	DD	0f0H
	DD	0ffffffffH
	DD	00H
	DD	040H
	DD	FLAT:??_R3BER_Input@@8
rdata$r	ENDS
;	COMDAT ??_R1A@?0A@EA@PKCS8_Input@@8
rdata$r	SEGMENT
??_R1A@?0A@EA@PKCS8_Input@@8 DD FLAT:??_R0?AVPKCS8_Input@@@8 ; PKCS8_Input::`RTTI Base Class Descriptor at (0,-1,0,64)'
	DD	0bH
	DD	00H
	DD	0ffffffffH
	DD	00H
	DD	040H
	DD	FLAT:??_R3PKCS8_Input@@8
rdata$r	ENDS
;	COMDAT ??_R0?AVPKCS8_Input@@@8
_DATA	SEGMENT
??_R0?AVPKCS8_Input@@@8 DD FLAT:??_7type_info@@6B@	; PKCS8_Input `RTTI Type Descriptor'
	DD	00H
	DB	'.?AVPKCS8_Input@@', 00H
_DATA	ENDS
;	COMDAT ??_C@_0L@JENBINIJ@PrivateKey?$AA@
CONST	SEGMENT
??_C@_0L@JENBINIJ@PrivateKey?$AA@ DB 'PrivateKey', 00H	; `string'
CONST	ENDS
;	COMDAT ??_C@_0CC@BCADGEKP@?3?5Different?5encryption?5algorithm@
CONST	SEGMENT
??_C@_0CC@BCADGEKP@?3?5Different?5encryption?5algorithm@ DB ': Different '
	DB	'encryption algorithm.', 00H			; `string'
CONST	ENDS
;	COMDAT ??_C@_03CCEPDEKL@Key?$AA@
CONST	SEGMENT
??_C@_03CCEPDEKL@Key?$AA@ DB 'Key', 00H			; `string'
CONST	ENDS
;	COMDAT ??_C@_0BE@FMHIPPHM@?3?5unmatch?5key?5size?4?$AA@
CONST	SEGMENT
??_C@_0BE@FMHIPPHM@?3?5unmatch?5key?5size?4?$AA@ DB ': unmatch key size.', 00H ; `string'
PUBLIC	??1PKCS8_Input@@UAE@XZ				; PKCS8_Input::~PKCS8_Input
; Function compile flags: /Ogtpy
; File i:\“n•”“ÄŽj\my project\cms\cms\asn1\pkcs8\pkcs8_input.cpp
;	COMDAT ??1PKCS8_Input@@UAE@XZ
_TEXT	SEGMENT
??1PKCS8_Input@@UAE@XZ PROC				; PKCS8_Input::~PKCS8_Input, COMDAT
; _this$ = eax

; 26   : {

  00000	8b 88 4c ff ff
	ff		 mov	 ecx, DWORD PTR [eax-180]
  00006	53		 push	 ebx
  00007	55		 push	 ebp
  00008	8d a8 5c fe ff
	ff		 lea	 ebp, DWORD PTR [eax-420]
  0000e	c7 45 00 00 00
	00 00		 mov	 DWORD PTR [ebp], OFFSET ??_7PKCS8_Input@@6BPKCS8@@@
  00015	8b 51 04	 mov	 edx, DWORD PTR [ecx+4]
  00018	56		 push	 esi

; 27   : }

  00019	8d 70 a4	 lea	 esi, DWORD PTR [eax-92]
  0001c	c7 84 02 4c ff
	ff ff 00 00 00
	00		 mov	 DWORD PTR [edx+eax-180], OFFSET ??_7PKCS8_Input@@6BBER_Input@@@
  00027	c7 06 00 00 00
	00		 mov	 DWORD PTR [esi], OFFSET ??_7ObjectIdentifier@@6B@
  0002d	8b 46 50	 mov	 eax, DWORD PTR [esi+80]
  00030	33 db		 xor	 ebx, ebx
  00032	57		 push	 edi
  00033	3b c3		 cmp	 eax, ebx
  00035	74 09		 je	 SHORT $LN13@PKCS8_Inpu
  00037	50		 push	 eax
  00038	e8 00 00 00 00	 call	 ??3@YAXPAX@Z		; operator delete
  0003d	83 c4 04	 add	 esp, 4
$LN13@PKCS8_Inpu:
  00040	8b 46 44	 mov	 eax, DWORD PTR [esi+68]
  00043	50		 push	 eax
  00044	89 5e 50	 mov	 DWORD PTR [esi+80], ebx
  00047	89 5e 54	 mov	 DWORD PTR [esi+84], ebx
  0004a	89 5e 58	 mov	 DWORD PTR [esi+88], ebx
  0004d	e8 00 00 00 00	 call	 ??3@YAXPAX@Z		; operator delete
  00052	83 c4 04	 add	 esp, 4
  00055	8b fe		 mov	 edi, esi
  00057	e8 00 00 00 00	 call	 ??1ASN1@@QAE@XZ		; ASN1::~ASN1
  0005c	8d bd 90 00 00
	00		 lea	 edi, DWORD PTR [ebp+144]
  00062	c7 45 00 00 00
	00 00		 mov	 DWORD PTR [ebp], OFFSET ??_7PrivateKeyInfo@@6B@
  00069	c7 07 00 00 00
	00		 mov	 DWORD PTR [edi], OFFSET ??_7OctetString@@6B@
  0006f	83 7f 5c 10	 cmp	 DWORD PTR [edi+92], 16	; 00000010H
  00073	72 0c		 jb	 SHORT $LN45@PKCS8_Inpu
  00075	8b 4f 48	 mov	 ecx, DWORD PTR [edi+72]
  00078	51		 push	 ecx
  00079	e8 00 00 00 00	 call	 ??3@YAXPAX@Z		; operator delete
  0007e	83 c4 04	 add	 esp, 4
$LN45@PKCS8_Inpu:
  00081	c7 47 5c 0f 00
	00 00		 mov	 DWORD PTR [edi+92], 15	; 0000000fH
  00088	89 5f 58	 mov	 DWORD PTR [edi+88], ebx
  0008b	88 5f 48	 mov	 BYTE PTR [edi+72], bl
  0008e	e8 00 00 00 00	 call	 ??1ASN1@@QAE@XZ		; ASN1::~ASN1
  00093	8d 7d 44	 lea	 edi, DWORD PTR [ebp+68]
  00096	c7 07 00 00 00
	00		 mov	 DWORD PTR [edi], OFFSET ??_7Integer@@6B@
  0009c	e8 00 00 00 00	 call	 ??1ASN1@@QAE@XZ		; ASN1::~ASN1
  000a1	8b fd		 mov	 edi, ebp
  000a3	c7 45 00 00 00
	00 00		 mov	 DWORD PTR [ebp], OFFSET ??_7Sequence@@6B@
  000aa	e8 00 00 00 00	 call	 ??1ASN1@@QAE@XZ		; ASN1::~ASN1
  000af	8b 56 a8	 mov	 edx, DWORD PTR [esi-88]
  000b2	8b 42 04	 mov	 eax, DWORD PTR [edx+4]
  000b5	56		 push	 esi
  000b6	c7 44 30 a8 00
	00 00 00	 mov	 DWORD PTR [eax+esi-88], OFFSET ??_7BER_Input@@6B@
  000be	e8 00 00 00 00	 call	 ??1FileInput@@UAE@XZ	; FileInput::~FileInput
  000c3	5f		 pop	 edi
  000c4	5e		 pop	 esi
  000c5	5d		 pop	 ebp
  000c6	5b		 pop	 ebx
  000c7	c3		 ret	 0
??1PKCS8_Input@@UAE@XZ ENDP				; PKCS8_Input::~PKCS8_Input
; Function compile flags: /Ogtpy
_TEXT	ENDS
;	COMDAT ??_DPKCS8_Input@@QAEXXZ
_TEXT	SEGMENT
??_DPKCS8_Input@@QAEXXZ PROC				; PKCS8_Input::`vbase destructor', COMDAT
; _this$ = eax
  00000	56		 push	 esi
  00001	8b f0		 mov	 esi, eax
  00003	81 c6 a4 01 00
	00		 add	 esi, 420		; 000001a4H
  00009	8b c6		 mov	 eax, esi
  0000b	e8 00 00 00 00	 call	 ??1PKCS8_Input@@UAE@XZ	; PKCS8_Input::~PKCS8_Input
  00010	56		 push	 esi
  00011	c7 06 00 00 00
	00		 mov	 DWORD PTR [esi], OFFSET ??_7ios_base@std@@6B@
  00017	e8 00 00 00 00	 call	 ?_Ios_base_dtor@ios_base@std@@CAXPAV12@@Z ; std::ios_base::_Ios_base_dtor
  0001c	83 c4 04	 add	 esp, 4
  0001f	5e		 pop	 esi
  00020	c3		 ret	 0
??_DPKCS8_Input@@QAEXXZ ENDP				; PKCS8_Input::`vbase destructor'
; Function compile flags: /Ogtpy
_TEXT	ENDS
;	COMDAT ??_GPKCS8_Input@@UAEPAXI@Z
_TEXT	SEGMENT
___flags$ = 8						; size = 4
??_GPKCS8_Input@@UAEPAXI@Z PROC				; PKCS8_Input::`scalar deleting destructor', COMDAT
; _this$ = ecx
  00000	56		 push	 esi
  00001	57		 push	 edi
  00002	8d b9 5c fe ff
	ff		 lea	 edi, DWORD PTR [ecx-420]
  00008	8d b7 a4 01 00
	00		 lea	 esi, DWORD PTR [edi+420]
  0000e	8b c6		 mov	 eax, esi
  00010	e8 00 00 00 00	 call	 ??1PKCS8_Input@@UAE@XZ	; PKCS8_Input::~PKCS8_Input
  00015	56		 push	 esi
  00016	c7 06 00 00 00
	00		 mov	 DWORD PTR [esi], OFFSET ??_7ios_base@std@@6B@
  0001c	e8 00 00 00 00	 call	 ?_Ios_base_dtor@ios_base@std@@CAXPAV12@@Z ; std::ios_base::_Ios_base_dtor
  00021	83 c4 04	 add	 esp, 4
  00024	f6 44 24 0c 01	 test	 BYTE PTR ___flags$[esp+4], 1
  00029	74 09		 je	 SHORT $LN11@scalar@36
  0002b	57		 push	 edi
  0002c	e8 00 00 00 00	 call	 ??3@YAXPAX@Z		; operator delete
  00031	83 c4 04	 add	 esp, 4
$LN11@scalar@36:
  00034	8b c7		 mov	 eax, edi
  00036	5f		 pop	 edi
  00037	5e		 pop	 esi
  00038	c2 04 00	 ret	 4
??_GPKCS8_Input@@UAEPAXI@Z ENDP				; PKCS8_Input::`scalar deleting destructor'
_TEXT	ENDS
PUBLIC	??0PKCS8_Input@@QAE@PBDQBD@Z			; PKCS8_Input::PKCS8_Input
;	COMDAT xdata$x
; File i:\“n•”“ÄŽj\my project\cms\cms\asn1\pkcs8\pkcs8.cpp
xdata$x	SEGMENT
__unwindtable$??0PKCS8_Input@@QAE@PBDQBD@Z DD 0ffffffffH
	DD	FLAT:__unwindfunclet$??0PKCS8_Input@@QAE@PBDQBD@Z$0
	DD	00H
	DD	FLAT:__unwindfunclet$??0PKCS8_Input@@QAE@PBDQBD@Z$1
	DD	01H
	DD	FLAT:__unwindfunclet$??0PKCS8_Input@@QAE@PBDQBD@Z$2
__ehfuncinfo$??0PKCS8_Input@@QAE@PBDQBD@Z DD 019930522H
	DD	03H
	DD	FLAT:__unwindtable$??0PKCS8_Input@@QAE@PBDQBD@Z
	DD	2 DUP(00H)
	DD	2 DUP(00H)
	DD	00H
	DD	01H
; Function compile flags: /Ogtpy
; File i:\“n•”“ÄŽj\my project\cms\cms\asn1\pkcs8\pkcs8_input.cpp
xdata$x	ENDS
;	COMDAT ??0PKCS8_Input@@QAE@PBDQBD@Z
_TEXT	SEGMENT
$T100175 = -16						; size = 4
__$EHRec$ = -12						; size = 12
_this$ = 8						; size = 4
_strFileName$ = 12					; size = 4
??0PKCS8_Input@@QAE@PBDQBD@Z PROC			; PKCS8_Input::PKCS8_Input, COMDAT

; 15   : {

  00000	6a ff		 push	 -1
  00002	68 00 00 00 00	 push	 __ehhandler$??0PKCS8_Input@@QAE@PBDQBD@Z
  00007	64 a1 00 00 00
	00		 mov	 eax, DWORD PTR fs:0
  0000d	50		 push	 eax
  0000e	51		 push	 ecx
  0000f	56		 push	 esi
  00010	57		 push	 edi
  00011	a1 00 00 00 00	 mov	 eax, DWORD PTR ___security_cookie
  00016	33 c4		 xor	 eax, esp
  00018	50		 push	 eax
  00019	8d 44 24 10	 lea	 eax, DWORD PTR __$EHRec$[esp+28]
  0001d	64 a3 00 00 00
	00		 mov	 DWORD PTR fs:0, eax
  00023	8b 74 24 20	 mov	 esi, DWORD PTR _this$[esp+24]
  00027	33 c0		 xor	 eax, eax
  00029	89 44 24 0c	 mov	 DWORD PTR $T100175[esp+28], eax
  0002d	8d be f0 00 00
	00		 lea	 edi, DWORD PTR [esi+240]
  00033	c7 07 00 00 00
	00		 mov	 DWORD PTR [edi], OFFSET ??_8PKCS8_Input@@7B@
  00039	c7 86 a4 01 00
	00 00 00 00 00	 mov	 DWORD PTR [esi+420], OFFSET ??_7?$basic_ios@DU?$char_traits@D@std@@@std@@6B@
  00043	89 44 24 18	 mov	 DWORD PTR __$EHRec$[esp+36], eax
  00047	8b 44 24 24	 mov	 eax, DWORD PTR _strFileName$[esp+24]
  0004b	50		 push	 eax
  0004c	57		 push	 edi
  0004d	c7 44 24 14 01
	00 00 00	 mov	 DWORD PTR $T100175[esp+36], 1
  00055	e8 00 00 00 00	 call	 ??0BER_Input@@QAE@PBD@Z	; BER_Input::BER_Input
  0005a	56		 push	 esi
  0005b	c7 44 24 1c 01
	00 00 00	 mov	 DWORD PTR __$EHRec$[esp+40], 1
  00063	e8 00 00 00 00	 call	 ??0PrivateKeyInfo@@QAE@QBD@Z ; PrivateKeyInfo::PrivateKeyInfo
  00068	c6 44 24 18 02	 mov	 BYTE PTR __$EHRec$[esp+36], 2
  0006d	8b 0f		 mov	 ecx, DWORD PTR [edi]
  0006f	c7 06 00 00 00
	00		 mov	 DWORD PTR [esi], OFFSET ??_7PKCS8_Input@@6BPKCS8@@@
  00075	8b 51 04	 mov	 edx, DWORD PTR [ecx+4]
  00078	8d 86 48 01 00
	00		 lea	 eax, DWORD PTR [esi+328]
  0007e	50		 push	 eax
  0007f	c7 84 32 f0 00
	00 00 00 00 00
	00		 mov	 DWORD PTR [edx+esi+240], OFFSET ??_7PKCS8_Input@@6BBER_Input@@@
  0008a	e8 00 00 00 00	 call	 ??0ObjectIdentifier@@QAE@QBD@Z ; ObjectIdentifier::ObjectIdentifier

; 16   : }

  0008f	8b c6		 mov	 eax, esi
  00091	8b 4c 24 10	 mov	 ecx, DWORD PTR __$EHRec$[esp+28]
  00095	64 89 0d 00 00
	00 00		 mov	 DWORD PTR fs:0, ecx
  0009c	59		 pop	 ecx
  0009d	5f		 pop	 edi
  0009e	5e		 pop	 esi
  0009f	83 c4 10	 add	 esp, 16			; 00000010H
  000a2	c2 08 00	 ret	 8
_TEXT	ENDS
;	COMDAT text$x
text$x	SEGMENT
__unwindfunclet$??0PKCS8_Input@@QAE@PBDQBD@Z$0:
  00000	8b 45 f0	 mov	 eax, DWORD PTR $T100175[ebp]
  00003	83 e0 01	 and	 eax, 1
  00006	0f 84 12 00 00
	00		 je	 $LN5@PKCS8_Inpu@2
  0000c	83 65 f0 fe	 and	 DWORD PTR $T100175[ebp], -2 ; fffffffeH
  00010	8b 4d 04	 mov	 ecx, DWORD PTR _this$[ebp-4]
  00013	81 c1 a4 01 00
	00		 add	 ecx, 420		; 000001a4H
  00019	e9 00 00 00 00	 jmp	 ??1?$basic_ios@DU?$char_traits@D@std@@@std@@UAE@XZ ; std::basic_ios<char,std::char_traits<char> >::~basic_ios<char,std::char_traits<char> >
$LN5@PKCS8_Inpu@2:
  0001e	c3		 ret	 0
__unwindfunclet$??0PKCS8_Input@@QAE@PBDQBD@Z$1:
  0001f	8b 45 04	 mov	 eax, DWORD PTR _this$[ebp-4]
  00022	05 48 01 00 00	 add	 eax, 328		; 00000148H
  00027	e9 00 00 00 00	 jmp	 ??1BER_Input@@UAE@XZ	; BER_Input::~BER_Input
__unwindfunclet$??0PKCS8_Input@@QAE@PBDQBD@Z$2:
  0002c	8b 75 04	 mov	 esi, DWORD PTR _this$[ebp-4]
  0002f	e9 00 00 00 00	 jmp	 ??1PKCS8@@QAE@XZ	; PKCS8::~PKCS8
__ehhandler$??0PKCS8_Input@@QAE@PBDQBD@Z:
  00034	8b 54 24 08	 mov	 edx, DWORD PTR [esp+8]
  00038	8d 42 f4	 lea	 eax, DWORD PTR [edx-12]
  0003b	8b 4a f0	 mov	 ecx, DWORD PTR [edx-16]
  0003e	33 c8		 xor	 ecx, eax
  00040	e8 00 00 00 00	 call	 @__security_check_cookie@4
  00045	b8 00 00 00 00	 mov	 eax, OFFSET __ehfuncinfo$??0PKCS8_Input@@QAE@PBDQBD@Z
  0004a	e9 00 00 00 00	 jmp	 ___CxxFrameHandler3
text$x	ENDS
??0PKCS8_Input@@QAE@PBDQBD@Z ENDP			; PKCS8_Input::PKCS8_Input
PUBLIC	?Get_PrivateKey@PKCS8_Input@@QAEXPAEI@Z		; PKCS8_Input::Get_PrivateKey
; Function compile flags: /Ogtpy
;	COMDAT ?Get_PrivateKey@PKCS8_Input@@QAEXPAEI@Z
_TEXT	SEGMENT
__key$ = 8						; size = 4
?Get_PrivateKey@PKCS8_Input@@QAEXPAEI@Z PROC		; PKCS8_Input::Get_PrivateKey, COMDAT
; _this$ = eax
; __szKey$ = ecx

; 74   : 	if(privateKey.strValue.size() != _szKey){

  00000	39 88 e8 00 00
	00		 cmp	 DWORD PTR [eax+232], ecx
  00006	74 0f		 je	 SHORT $LN1@Get_Privat

; 75   : 		errPrint("Key",": unmatch key size.");

  00008	b8 00 00 00 00	 mov	 eax, OFFSET ??_C@_0BE@FMHIPPHM@?3?5unmatch?5key?5size?4?$AA@
  0000d	b9 00 00 00 00	 mov	 ecx, OFFSET ??_C@_03CCEPDEKL@Key?$AA@
  00012	e8 00 00 00 00	 call	 ?errPrint@@YAXPBD0@Z	; errPrint
$LN13@Get_Privat:
$LN1@Get_Privat:

; 76   : 	}
; 77   : 	memcpy(_key, privateKey.strValue.c_str(), _szKey);

  00017	83 b8 ec 00 00
	00 10		 cmp	 DWORD PTR [eax+236], 16	; 00000010H
  0001e	72 18		 jb	 SHORT $LN10@Get_Privat
  00020	8b 80 d8 00 00
	00		 mov	 eax, DWORD PTR [eax+216]
  00026	51		 push	 ecx
  00027	50		 push	 eax
  00028	8b 44 24 0c	 mov	 eax, DWORD PTR __key$[esp+4]
  0002c	50		 push	 eax
  0002d	e8 00 00 00 00	 call	 _memcpy
  00032	83 c4 0c	 add	 esp, 12			; 0000000cH

; 78   : }

  00035	c2 04 00	 ret	 4

; 76   : 	}
; 77   : 	memcpy(_key, privateKey.strValue.c_str(), _szKey);

$LN10@Get_Privat:
  00038	05 d8 00 00 00	 add	 eax, 216		; 000000d8H
  0003d	51		 push	 ecx
  0003e	50		 push	 eax
  0003f	8b 44 24 0c	 mov	 eax, DWORD PTR __key$[esp+4]
  00043	50		 push	 eax
  00044	e8 00 00 00 00	 call	 _memcpy
  00049	83 c4 0c	 add	 esp, 12			; 0000000cH

; 78   : }

  0004c	c2 04 00	 ret	 4
$LN12@Get_Privat:
?Get_PrivateKey@PKCS8_Input@@QAEXPAEI@Z ENDP		; PKCS8_Input::Get_PrivateKey
PUBLIC	?Get_PrivateKeyInfo@PKCS8_Input@@QAEXXZ		; PKCS8_Input::Get_PrivateKeyInfo
; Function compile flags: /Ogtpy
;	COMDAT ?Get_PrivateKeyInfo@PKCS8_Input@@QAEXXZ
_TEXT	SEGMENT
_read_fStruct$106362 = -38				; size = 1
_read_class$106339 = -38				; size = 1
_read_class$106361 = -37				; size = 1
_read_fStruct$106340 = -37				; size = 1
_read_tag$106360 = -36					; size = 4
_read_tag$106338 = -36					; size = 4
_iSize$106363 = -32					; size = 4
$T106330 = -28						; size = 24
?Get_PrivateKeyInfo@PKCS8_Input@@QAEXXZ PROC		; PKCS8_Input::Get_PrivateKeyInfo, COMDAT
; _this$ = eax

; 37   : {

  00000	83 ec 2c	 sub	 esp, 44			; 0000002cH
  00003	53		 push	 ebx
  00004	55		 push	 ebp
  00005	56		 push	 esi
  00006	57		 push	 edi
  00007	8b f8		 mov	 edi, eax

; 38   : 	unsigned	int		szAlgorithm;
; 39   : 	unsigned	int		ptAlgorithm;
; 40   : 
; 41   : 	//SEQUENCE
; 42   : 	read_TAG_with_Check(BER_Class_General, true, BER_TAG_SEQUENCE);

  00009	8d 44 24 18	 lea	 eax, DWORD PTR _read_tag$106338[esp+60]
  0000d	50		 push	 eax
  0000e	8d 4c 24 1b	 lea	 ecx, DWORD PTR _read_fStruct$106340[esp+64]
  00012	51		 push	 ecx
  00013	8d 54 24 1e	 lea	 edx, DWORD PTR _read_class$106339[esp+68]
  00017	8d b7 f0 00 00
	00		 lea	 esi, DWORD PTR [edi+240]
  0001d	52		 push	 edx
  0001e	e8 00 00 00 00	 call	 ?read_TAG@BER_Input@@QAEIPAEPA_NPAI@Z ; BER_Input::read_TAG
  00023	80 7c 24 16 00	 cmp	 BYTE PTR _read_class$106339[esp+60], 0
  00028	0f 85 d5 00 00
	00		 jne	 $LN14@Get_Privat@2
  0002e	bd 10 00 00 00	 mov	 ebp, 16			; 00000010H
  00033	39 6c 24 18	 cmp	 DWORD PTR _read_tag$106338[esp+60], ebp
  00037	0f 85 c6 00 00
	00		 jne	 $LN14@Get_Privat@2
  0003d	bb 01 00 00 00	 mov	 ebx, 1
  00042	38 5c 24 17	 cmp	 BYTE PTR _read_fStruct$106340[esp+60], bl
  00046	0f 85 b7 00 00
	00		 jne	 $LN14@Get_Privat@2

; 43   : 
; 44   :  		//version                   Version,
; 45   : 		read_Integer(&version);

  0004c	8d 47 44	 lea	 eax, DWORD PTR [edi+68]
  0004f	50		 push	 eax
  00050	8b c6		 mov	 eax, esi
  00052	e8 00 00 00 00	 call	 ?read_Integer@BER_Input@@QAEIPAVInteger@@@Z ; BER_Input::read_Integer

; 46   : 		if(version.iValue != 0){

  00057	83 bf 88 00 00
	00 00		 cmp	 DWORD PTR [edi+136], 0
  0005e	74 0f		 je	 SHORT $LN1@Get_Privat@2

; 47   : 			error(0);	//–¢‘Î‰ž‚ÌVersion

  00060	a1 00 00 00 00	 mov	 eax, DWORD PTR ?msg_err@?1??error@ASN1@@QAEXI@Z@4QBQBDB
  00065	b9 00 00 00 00	 mov	 ecx, OFFSET ??_C@_0BJ@IMFJFLAM@ASN?41?5BER?5Encode?5Error?5?3?$AA@
  0006a	e8 00 00 00 00	 call	 ?errPrint@@YAXPBD0@Z	; errPrint
$LN40@Get_Privat@2:
$LN1@Get_Privat@2:

; 48   : 		}
; 49   : 
; 50   : 		//privateKeyAlgorithm       PrivateKeyAlgorithmIdentifier,
; 51   : 		szAlgorithm	= read_TAG_with_Check(BER_Class_General, true, BER_TAG_SEQUENCE);

  0006f	8d 4c 24 18	 lea	 ecx, DWORD PTR _read_tag$106360[esp+60]
  00073	51		 push	 ecx
  00074	8d 54 24 1a	 lea	 edx, DWORD PTR _read_fStruct$106362[esp+64]
  00078	52		 push	 edx
  00079	8d 44 24 1f	 lea	 eax, DWORD PTR _read_class$106361[esp+68]
  0007d	50		 push	 eax
  0007e	e8 00 00 00 00	 call	 ?read_TAG@BER_Input@@QAEIPAEPA_NPAI@Z ; BER_Input::read_TAG
  00083	80 7c 24 17 00	 cmp	 BYTE PTR _read_class$106361[esp+60], 0
  00088	89 44 24 1c	 mov	 DWORD PTR _iSize$106363[esp+60], eax
  0008c	75 75		 jne	 SHORT $LN14@Get_Privat@2
  0008e	39 6c 24 18	 cmp	 DWORD PTR _read_tag$106360[esp+60], ebp
  00092	75 6f		 jne	 SHORT $LN14@Get_Privat@2
  00094	38 5c 24 16	 cmp	 BYTE PTR _read_fStruct$106362[esp+60], bl
  00098	75 69		 jne	 SHORT $LN14@Get_Privat@2

; 52   : 		ptAlgorithm	= tellg();

  0009a	8b 0e		 mov	 ecx, DWORD PTR [esi]
  0009c	8b 51 04	 mov	 edx, DWORD PTR [ecx+4]
  0009f	f6 44 32 08 06	 test	 BYTE PTR [edx+esi+8], 6
  000a4	8d 04 32	 lea	 eax, DWORD PTR [edx+esi]
  000a7	75 1d		 jne	 SHORT $LN22@Get_Privat@2
  000a9	8b 48 28	 mov	 ecx, DWORD PTR [eax+40]
  000ac	8b 01		 mov	 eax, DWORD PTR [ecx]
  000ae	8b 40 24	 mov	 eax, DWORD PTR [eax+36]
  000b1	53		 push	 ebx
  000b2	53		 push	 ebx
  000b3	6a 00		 push	 0
  000b5	8d 54 24 2c	 lea	 edx, DWORD PTR $T106330[esp+72]
  000b9	52		 push	 edx
  000ba	ff d0		 call	 eax
  000bc	8b 6c 24 28	 mov	 ebp, DWORD PTR $T106330[esp+68]
  000c0	8b 5c 24 20	 mov	 ebx, DWORD PTR $T106330[esp+60]
  000c4	eb 0c		 jmp	 SHORT $LN21@Get_Privat@2
$LN22@Get_Privat@2:
  000c6	8b 1d 00 00 00
	00		 mov	 ebx, DWORD PTR ?_BADOFF@std@@3JB ; std::_BADOFF
  000cc	33 ed		 xor	 ebp, ebp
  000ce	89 6c 24 2c	 mov	 DWORD PTR $T106330[esp+72], ebp
$LN21@Get_Privat@2:

; 53   : 		read_Object_Identifier(&Algorithm);		//OID‚¾‚¯“Ç‚Þ

  000d2	8d 8f 48 01 00
	00		 lea	 ecx, DWORD PTR [edi+328]
  000d8	51		 push	 ecx
  000d9	56		 push	 esi
  000da	e8 00 00 00 00	 call	 ?read_Object_Identifier@BER_Input@@QAEIPAVObjectIdentifier@@@Z ; BER_Input::read_Object_Identifier
  000df	03 eb		 add	 ebp, ebx

; 54   : 		StreamPointerMove(ptAlgorithm + szAlgorithm);

  000e1	03 6c 24 1c	 add	 ebp, DWORD PTR _iSize$106363[esp+60]
  000e5	6a 00		 push	 0
  000e7	55		 push	 ebp
  000e8	e8 00 00 00 00	 call	 ?seekg@?$basic_istream@DU?$char_traits@D@std@@@std@@QAEAAV12@JH@Z ; std::basic_istream<char,std::char_traits<char> >::seekg

; 55   : 
; 56   : 		//privateKey                PrivateKey,
; 57   : 		read_Octet_Strings(&privateKey);

  000ed	81 c7 90 00 00
	00		 add	 edi, 144		; 00000090H
  000f3	57		 push	 edi
  000f4	8b c6		 mov	 eax, esi
  000f6	e8 00 00 00 00	 call	 ?read_Octet_Strings@BER_Input@@QAEIPAVOctetString@@@Z ; BER_Input::read_Octet_Strings

; 58   : 
; 59   : 		//attributes           [0]  IMPLICIT Attributes OPTIONAL }
; 60   : }

  000fb	5f		 pop	 edi
  000fc	5e		 pop	 esi
  000fd	5d		 pop	 ebp
  000fe	5b		 pop	 ebx
  000ff	83 c4 2c	 add	 esp, 44			; 0000002cH
  00102	c3		 ret	 0

; 48   : 		}
; 49   : 
; 50   : 		//privateKeyAlgorithm       PrivateKeyAlgorithmIdentifier,
; 51   : 		szAlgorithm	= read_TAG_with_Check(BER_Class_General, true, BER_TAG_SEQUENCE);

$LN14@Get_Privat@2:
  00103	a1 00 00 00 00	 mov	 eax, DWORD PTR ?msg_err@?1??DecodeError@BER_Input@@QAEXI@Z@4QBQBDB
  00108	b9 00 00 00 00	 mov	 ecx, OFFSET ??_C@_0BJ@HKJKLLAJ@ASN?41?5BER?5Decode?5Error?5?3?$AA@
  0010d	e8 00 00 00 00	 call	 ?errPrint@@YAXPBD0@Z	; errPrint
$LN41@Get_Privat@2:
$LN39@Get_Privat@2:
  00112	cc		 int	 3
?Get_PrivateKeyInfo@PKCS8_Input@@QAEXXZ ENDP		; PKCS8_Input::Get_PrivateKeyInfo
PUBLIC	?Get_PrivateKey_with_check@PKCS8_Input@@QAEXPAVAlgorithmIdentifier@@PAEI@Z ; PKCS8_Input::Get_PrivateKey_with_check
; Function compile flags: /Ogtpy
;	COMDAT ?Get_PrivateKey_with_check@PKCS8_Input@@QAEXPAVAlgorithmIdentifier@@PAEI@Z
_TEXT	SEGMENT
_this$ = 8						; size = 4
__algorithm$ = 12					; size = 4
__key$ = 16						; size = 4
__szKey$ = 20						; size = 4
?Get_PrivateKey_with_check@PKCS8_Input@@QAEXPAVAlgorithmIdentifier@@PAEI@Z PROC ; PKCS8_Input::Get_PrivateKey_with_check, COMDAT

; 93   : {

  00000	51		 push	 ecx
  00001	53		 push	 ebx
  00002	8b 5c 24 0c	 mov	 ebx, DWORD PTR _this$[esp+4]
  00006	55		 push	 ebp
  00007	8b 6c 24 14	 mov	 ebp, DWORD PTR __algorithm$[esp+8]
  0000b	56		 push	 esi
  0000c	57		 push	 edi

; 94   : 	unsigned	int		i = 0;
; 95   : 
; 96   : 	//ASN.1 \‘¢•ªÍ
; 97   : 	Get_PrivateKeyInfo();

  0000d	8b c3		 mov	 eax, ebx
  0000f	33 f6		 xor	 esi, esi
  00011	e8 00 00 00 00	 call	 ?Get_PrivateKeyInfo@PKCS8_Input@@QAEXXZ ; PKCS8_Input::Get_PrivateKeyInfo
  00016	eb 08 8d a4 24
	00 00 00 00 90	 npad	 10
$LL4@Get_Privat@3:

; 98   : 
; 99   : 	//ˆÃ†ƒAƒ‹ƒSƒŠƒYƒ€@ƒ`ƒFƒbƒN
; 100  : 	do{
; 101  : 		if(_algorithm->algorithm.iValue[i] != Algorithm.iValue[i]){

  00020	8b 85 98 00 00
	00		 mov	 eax, DWORD PTR [ebp+152]
  00026	2b 85 94 00 00
	00		 sub	 eax, DWORD PTR [ebp+148]
  0002c	c1 f8 02	 sar	 eax, 2
  0002f	3b f0		 cmp	 esi, eax
  00031	72 05		 jb	 SHORT $LN7@Get_Privat@3
  00033	e8 00 00 00 00	 call	 __invalid_parameter_noinfo
$LN7@Get_Privat@3:
  00038	8b 8b 9c 01 00
	00		 mov	 ecx, DWORD PTR [ebx+412]
  0003e	2b 8b 98 01 00
	00		 sub	 ecx, DWORD PTR [ebx+408]

; 103  : 		}
; 104  : 		i++;
; 105  : 	} while(i < _algorithm->algorithm.iValue.size());

  00044	8b bd 94 00 00
	00		 mov	 edi, DWORD PTR [ebp+148]
  0004a	8d 04 b5 00 00
	00 00		 lea	 eax, DWORD PTR [esi*4]
  00051	c1 f9 02	 sar	 ecx, 2
  00054	03 f8		 add	 edi, eax
  00056	3b f1		 cmp	 esi, ecx
  00058	72 05		 jb	 SHORT $LN12@Get_Privat@3

; 98   : 
; 99   : 	//ˆÃ†ƒAƒ‹ƒSƒŠƒYƒ€@ƒ`ƒFƒbƒN
; 100  : 	do{
; 101  : 		if(_algorithm->algorithm.iValue[i] != Algorithm.iValue[i]){

  0005a	e8 00 00 00 00	 call	 __invalid_parameter_noinfo
$LN12@Get_Privat@3:
  0005f	8b 93 98 01 00
	00		 mov	 edx, DWORD PTR [ebx+408]
  00065	8b 07		 mov	 eax, DWORD PTR [edi]
  00067	3b 04 b2	 cmp	 eax, DWORD PTR [edx+esi*4]
  0006a	75 2f		 jne	 SHORT $LN32@Get_Privat@3

; 103  : 		}
; 104  : 		i++;
; 105  : 	} while(i < _algorithm->algorithm.iValue.size());

  0006c	8b 8d 98 00 00
	00		 mov	 ecx, DWORD PTR [ebp+152]
  00072	2b 8d 94 00 00
	00		 sub	 ecx, DWORD PTR [ebp+148]
  00078	46		 inc	 esi
  00079	c1 f9 02	 sar	 ecx, 2
  0007c	3b f1		 cmp	 esi, ecx
  0007e	72 a0		 jb	 SHORT $LL4@Get_Privat@3

; 106  : 
; 107  : 	Get_PrivateKey(_key, _szKey);

  00080	8b 44 24 24	 mov	 eax, DWORD PTR __szKey$[esp+16]
  00084	39 83 e8 00 00
	00		 cmp	 DWORD PTR [ebx+232], eax
  0008a	74 1e		 je	 SHORT $LN19@Get_Privat@3
  0008c	b8 00 00 00 00	 mov	 eax, OFFSET ??_C@_0BE@FMHIPPHM@?3?5unmatch?5key?5size?4?$AA@
  00091	b9 00 00 00 00	 mov	 ecx, OFFSET ??_C@_03CCEPDEKL@Key?$AA@
  00096	e8 00 00 00 00	 call	 ?errPrint@@YAXPBD0@Z	; errPrint
$LN35@Get_Privat@3:
$LN32@Get_Privat@3:

; 102  : 			errPrint("PrivateKey",": Different encryption algorithm.");

  0009b	b8 00 00 00 00	 mov	 eax, OFFSET ??_C@_0CC@BCADGEKP@?3?5Different?5encryption?5algorithm@
  000a0	b9 00 00 00 00	 mov	 ecx, OFFSET ??_C@_0L@JENBINIJ@PrivateKey?$AA@
  000a5	e8 00 00 00 00	 call	 ?errPrint@@YAXPBD0@Z	; errPrint
$LN36@Get_Privat@3:

; 106  : 
; 107  : 	Get_PrivateKey(_key, _szKey);

$LN19@Get_Privat@3:
  000aa	83 bb ec 00 00
	00 10		 cmp	 DWORD PTR [ebx+236], 16	; 00000010H
  000b1	72 08		 jb	 SHORT $LN28@Get_Privat@3
  000b3	8b 9b d8 00 00
	00		 mov	 ebx, DWORD PTR [ebx+216]
  000b9	eb 06		 jmp	 SHORT $LN29@Get_Privat@3
$LN28@Get_Privat@3:
  000bb	81 c3 d8 00 00
	00		 add	 ebx, 216		; 000000d8H
$LN29@Get_Privat@3:
  000c1	8b 54 24 20	 mov	 edx, DWORD PTR __key$[esp+16]
  000c5	50		 push	 eax
  000c6	53		 push	 ebx
  000c7	52		 push	 edx
  000c8	e8 00 00 00 00	 call	 _memcpy
  000cd	83 c4 0c	 add	 esp, 12			; 0000000cH

; 108  : }

  000d0	5f		 pop	 edi
  000d1	5e		 pop	 esi
  000d2	5d		 pop	 ebp
  000d3	5b		 pop	 ebx
  000d4	59		 pop	 ecx
  000d5	c2 10 00	 ret	 16			; 00000010H
$LN34@Get_Privat@3:
?Get_PrivateKey_with_check@PKCS8_Input@@QAEXPAVAlgorithmIdentifier@@PAEI@Z ENDP ; PKCS8_Input::Get_PrivateKey_with_check
END
