; Listing generated by Microsoft (R) Optimizing Compiler Version 15.00.30729.01 

	TITLE	i:\?n????j\My Project\CMS\CMS\ASN1\PKCS8\PKCS8_Output.cpp
	.686P
	.XMM
	include listing.inc
	.model	flat

INCLUDELIB OLDNAMES

PUBLIC	??_R4PKCS8_Output@@6BBER_Output@@@		; PKCS8_Output::`RTTI Complete Object Locator'
PUBLIC	??_R4PKCS8_Output@@6BPKCS8@@@			; PKCS8_Output::`RTTI Complete Object Locator'
PUBLIC	??_R3PKCS8_Output@@8				; PKCS8_Output::`RTTI Class Hierarchy Descriptor'
PUBLIC	??_R2PKCS8_Output@@8				; PKCS8_Output::`RTTI Base Class Array'
PUBLIC	??_R1PA@?0A@EA@?$basic_ostream@DU?$char_traits@D@std@@@std@@8 ; std::basic_ostream<char,std::char_traits<char> >::`RTTI Base Class Descriptor at (240,-1,0,64)'
PUBLIC	??_R1PA@?0A@EA@?$basic_ofstream@DU?$char_traits@D@std@@@std@@8 ; std::basic_ofstream<char,std::char_traits<char> >::`RTTI Base Class Descriptor at (240,-1,0,64)'
PUBLIC	??_R1PA@?0A@EA@FileOutput@@8			; FileOutput::`RTTI Base Class Descriptor at (240,-1,0,64)'
PUBLIC	??_R1PA@?0A@EA@BER_Output@@8			; BER_Output::`RTTI Base Class Descriptor at (240,-1,0,64)'
PUBLIC	??_R1A@?0A@EA@PKCS8_Output@@8			; PKCS8_Output::`RTTI Base Class Descriptor at (0,-1,0,64)'
PUBLIC	??_R0?AVPKCS8_Output@@@8			; PKCS8_Output `RTTI Type Descriptor'
PUBLIC	??_DPKCS8_Output@@QAEXXZ			; PKCS8_Output::`vbase destructor'
PUBLIC	??_GPKCS8_Output@@UAEPAXI@Z			; PKCS8_Output::`scalar deleting destructor'
PUBLIC	??_7PKCS8_Output@@6BPKCS8@@@			; PKCS8_Output::`vftable'
PUBLIC	??_7PKCS8_Output@@6BBER_Output@@@		; PKCS8_Output::`vftable'
PUBLIC	??_8PKCS8_Output@@7B@				; PKCS8_Output::`vbtable'
EXTRN	??_EPKCS8_Output@@UAEPAXI@Z:PROC		; PKCS8_Output::`vector deleting destructor'
;	COMDAT ??_8PKCS8_Output@@7B@
CONST	SEGMENT
??_8PKCS8_Output@@7B@ DD 00H				; PKCS8_Output::`vbtable'
	DD	054H
CONST	ENDS
;	COMDAT ??_7PKCS8_Output@@6BBER_Output@@@
CONST	SEGMENT
??_7PKCS8_Output@@6BBER_Output@@@ DD FLAT:??_R4PKCS8_Output@@6BBER_Output@@@ ; PKCS8_Output::`vftable'
	DD	FLAT:??_EPKCS8_Output@@UAEPAXI@Z
CONST	ENDS
;	COMDAT ??_R4PKCS8_Output@@6BBER_Output@@@
rdata$r	SEGMENT
??_R4PKCS8_Output@@6BBER_Output@@@ DD 00H		; PKCS8_Output::`RTTI Complete Object Locator'
	DD	0144H
	DD	00H
	DD	FLAT:??_R0?AVPKCS8_Output@@@8
	DD	FLAT:??_R3PKCS8_Output@@8
rdata$r	ENDS
;	COMDAT ??_7PKCS8_Output@@6BPKCS8@@@
CONST	SEGMENT
??_7PKCS8_Output@@6BPKCS8@@@ DD FLAT:??_R4PKCS8_Output@@6BPKCS8@@@ ; PKCS8_Output::`vftable'
	DD	FLAT:?encodeBER@Sequence@@UAEXXZ
	DD	FLAT:?Get_BERcode@ASN1@@UAEPBDXZ
	DD	FLAT:?Get_BERsize@ASN1@@UAEIXZ
CONST	ENDS
;	COMDAT ??_R4PKCS8_Output@@6BPKCS8@@@
rdata$r	SEGMENT
??_R4PKCS8_Output@@6BPKCS8@@@ DD 00H			; PKCS8_Output::`RTTI Complete Object Locator'
	DD	00H
	DD	00H
	DD	FLAT:??_R0?AVPKCS8_Output@@@8
	DD	FLAT:??_R3PKCS8_Output@@8
rdata$r	ENDS
;	COMDAT ??_R3PKCS8_Output@@8
rdata$r	SEGMENT
??_R3PKCS8_Output@@8 DD 00H				; PKCS8_Output::`RTTI Class Hierarchy Descriptor'
	DD	03H
	DD	0cH
	DD	FLAT:??_R2PKCS8_Output@@8
rdata$r	ENDS
;	COMDAT ??_R2PKCS8_Output@@8
rdata$r	SEGMENT
??_R2PKCS8_Output@@8 DD FLAT:??_R1A@?0A@EA@PKCS8_Output@@8 ; PKCS8_Output::`RTTI Base Class Array'
	DD	FLAT:??_R1PA@?0A@EA@BER_Output@@8
	DD	FLAT:??_R1PA@?0A@EA@FileOutput@@8
	DD	FLAT:??_R1PA@?0A@EA@?$basic_ofstream@DU?$char_traits@D@std@@@std@@8
	DD	FLAT:??_R1PA@?0A@EA@?$basic_ostream@DU?$char_traits@D@std@@@std@@8
	DD	FLAT:??_R1A@PA@3FA@?$basic_ios@DU?$char_traits@D@std@@@std@@8
	DD	FLAT:??_R1A@PA@3EA@ios_base@std@@8
	DD	FLAT:??_R13PA@3EA@?$_Iosb@H@std@@8
	DD	FLAT:??_R1A@?0A@EA@PKCS8@@8
	DD	FLAT:??_R1A@?0A@EA@PrivateKeyInfo@@8
	DD	FLAT:??_R1A@?0A@EA@Sequence@@8
	DD	FLAT:??_R1A@?0A@EA@ASN1@@8
rdata$r	ENDS
;	COMDAT ??_R1PA@?0A@EA@?$basic_ostream@DU?$char_traits@D@std@@@std@@8
rdata$r	SEGMENT
??_R1PA@?0A@EA@?$basic_ostream@DU?$char_traits@D@std@@@std@@8 DD FLAT:??_R0?AV?$basic_ostream@DU?$char_traits@D@std@@@std@@@8 ; std::basic_ostream<char,std::char_traits<char> >::`RTTI Base Class Descriptor at (240,-1,0,64)'
	DD	03H
	DD	0f0H
	DD	0ffffffffH
	DD	00H
	DD	040H
	DD	FLAT:??_R3?$basic_ostream@DU?$char_traits@D@std@@@std@@8
rdata$r	ENDS
;	COMDAT ??_R1PA@?0A@EA@?$basic_ofstream@DU?$char_traits@D@std@@@std@@8
rdata$r	SEGMENT
??_R1PA@?0A@EA@?$basic_ofstream@DU?$char_traits@D@std@@@std@@8 DD FLAT:??_R0?AV?$basic_ofstream@DU?$char_traits@D@std@@@std@@@8 ; std::basic_ofstream<char,std::char_traits<char> >::`RTTI Base Class Descriptor at (240,-1,0,64)'
	DD	04H
	DD	0f0H
	DD	0ffffffffH
	DD	00H
	DD	040H
	DD	FLAT:??_R3?$basic_ofstream@DU?$char_traits@D@std@@@std@@8
rdata$r	ENDS
;	COMDAT ??_R1PA@?0A@EA@FileOutput@@8
rdata$r	SEGMENT
??_R1PA@?0A@EA@FileOutput@@8 DD FLAT:??_R0?AVFileOutput@@@8 ; FileOutput::`RTTI Base Class Descriptor at (240,-1,0,64)'
	DD	05H
	DD	0f0H
	DD	0ffffffffH
	DD	00H
	DD	040H
	DD	FLAT:??_R3FileOutput@@8
rdata$r	ENDS
;	COMDAT ??_R1PA@?0A@EA@BER_Output@@8
rdata$r	SEGMENT
??_R1PA@?0A@EA@BER_Output@@8 DD FLAT:??_R0?AVBER_Output@@@8 ; BER_Output::`RTTI Base Class Descriptor at (240,-1,0,64)'
	DD	06H
	DD	0f0H
	DD	0ffffffffH
	DD	00H
	DD	040H
	DD	FLAT:??_R3BER_Output@@8
rdata$r	ENDS
;	COMDAT ??_R1A@?0A@EA@PKCS8_Output@@8
rdata$r	SEGMENT
??_R1A@?0A@EA@PKCS8_Output@@8 DD FLAT:??_R0?AVPKCS8_Output@@@8 ; PKCS8_Output::`RTTI Base Class Descriptor at (0,-1,0,64)'
	DD	0bH
	DD	00H
	DD	0ffffffffH
	DD	00H
	DD	040H
	DD	FLAT:??_R3PKCS8_Output@@8
rdata$r	ENDS
;	COMDAT ??_R0?AVPKCS8_Output@@@8
_DATA	SEGMENT
??_R0?AVPKCS8_Output@@@8 DD FLAT:??_7type_info@@6B@	; PKCS8_Output `RTTI Type Descriptor'
	DD	00H
	DB	'.?AVPKCS8_Output@@', 00H
PUBLIC	??1PKCS8_Output@@UAE@XZ				; PKCS8_Output::~PKCS8_Output
; Function compile flags: /Ogtpy
; File i:\“n•”“ÄŽj\my project\cms\cms\asn1\pkcs8\pkcs8_output.cpp
;	COMDAT ??1PKCS8_Output@@UAE@XZ
_TEXT	SEGMENT
_this$ = 8						; size = 4
??1PKCS8_Output@@UAE@XZ PROC				; PKCS8_Output::~PKCS8_Output, COMDAT

; 26   : {

  00000	53		 push	 ebx
  00001	8b 5c 24 08	 mov	 ebx, DWORD PTR _this$[esp]
  00005	8b 43 ac	 mov	 eax, DWORD PTR [ebx-84]
  00008	56		 push	 esi
  00009	8d b3 bc fe ff
	ff		 lea	 esi, DWORD PTR [ebx-324]
  0000f	c7 06 00 00 00
	00		 mov	 DWORD PTR [esi], OFFSET ??_7PKCS8_Output@@6BPKCS8@@@
  00015	8b 48 04	 mov	 ecx, DWORD PTR [eax+4]
  00018	c7 44 19 ac 00
	00 00 00	 mov	 DWORD PTR [ecx+ebx-84], OFFSET ??_7PKCS8_Output@@6BBER_Output@@@
  00020	57		 push	 edi

; 27   : }

  00021	8d be 90 00 00
	00		 lea	 edi, DWORD PTR [esi+144]
  00027	c7 06 00 00 00
	00		 mov	 DWORD PTR [esi], OFFSET ??_7PrivateKeyInfo@@6B@
  0002d	c7 07 00 00 00
	00		 mov	 DWORD PTR [edi], OFFSET ??_7OctetString@@6B@
  00033	83 7f 5c 10	 cmp	 DWORD PTR [edi+92], 16	; 00000010H
  00037	72 0c		 jb	 SHORT $LN27@PKCS8_Outp
  00039	8b 57 48	 mov	 edx, DWORD PTR [edi+72]
  0003c	52		 push	 edx
  0003d	e8 00 00 00 00	 call	 ??3@YAXPAX@Z		; operator delete
  00042	83 c4 04	 add	 esp, 4
$LN27@PKCS8_Outp:
  00045	33 c0		 xor	 eax, eax
  00047	c7 47 5c 0f 00
	00 00		 mov	 DWORD PTR [edi+92], 15	; 0000000fH
  0004e	89 47 58	 mov	 DWORD PTR [edi+88], eax
  00051	88 47 48	 mov	 BYTE PTR [edi+72], al
  00054	e8 00 00 00 00	 call	 ??1ASN1@@QAE@XZ		; ASN1::~ASN1
  00059	8d 7e 44	 lea	 edi, DWORD PTR [esi+68]
  0005c	c7 07 00 00 00
	00		 mov	 DWORD PTR [edi], OFFSET ??_7Integer@@6B@
  00062	e8 00 00 00 00	 call	 ??1ASN1@@QAE@XZ		; ASN1::~ASN1
  00067	8b fe		 mov	 edi, esi
  00069	c7 06 00 00 00
	00		 mov	 DWORD PTR [esi], OFFSET ??_7Sequence@@6B@
  0006f	e8 00 00 00 00	 call	 ??1ASN1@@QAE@XZ		; ASN1::~ASN1
  00074	8b 43 ac	 mov	 eax, DWORD PTR [ebx-84]
  00077	8b 48 04	 mov	 ecx, DWORD PTR [eax+4]
  0007a	53		 push	 ebx
  0007b	c7 44 19 ac 00
	00 00 00	 mov	 DWORD PTR [ecx+ebx-84], OFFSET ??_7BER_Output@@6B@
  00083	e8 00 00 00 00	 call	 ??1FileOutput@@UAE@XZ	; FileOutput::~FileOutput
  00088	5f		 pop	 edi
  00089	5e		 pop	 esi
  0008a	5b		 pop	 ebx
  0008b	c2 04 00	 ret	 4
??1PKCS8_Output@@UAE@XZ ENDP				; PKCS8_Output::~PKCS8_Output
; Function compile flags: /Ogtpy
_TEXT	ENDS
;	COMDAT ??_DPKCS8_Output@@QAEXXZ
_TEXT	SEGMENT
??_DPKCS8_Output@@QAEXXZ PROC				; PKCS8_Output::`vbase destructor', COMDAT
; _this$ = eax
  00000	56		 push	 esi
  00001	8b f0		 mov	 esi, eax
  00003	81 c6 44 01 00
	00		 add	 esi, 324		; 00000144H
  00009	56		 push	 esi
  0000a	e8 00 00 00 00	 call	 ??1PKCS8_Output@@UAE@XZ	; PKCS8_Output::~PKCS8_Output
  0000f	56		 push	 esi
  00010	c7 06 00 00 00
	00		 mov	 DWORD PTR [esi], OFFSET ??_7ios_base@std@@6B@
  00016	e8 00 00 00 00	 call	 ?_Ios_base_dtor@ios_base@std@@CAXPAV12@@Z ; std::ios_base::_Ios_base_dtor
  0001b	83 c4 04	 add	 esp, 4
  0001e	5e		 pop	 esi
  0001f	c3		 ret	 0
??_DPKCS8_Output@@QAEXXZ ENDP				; PKCS8_Output::`vbase destructor'
; Function compile flags: /Ogtpy
_TEXT	ENDS
;	COMDAT ??_GPKCS8_Output@@UAEPAXI@Z
_TEXT	SEGMENT
___flags$ = 8						; size = 4
??_GPKCS8_Output@@UAEPAXI@Z PROC			; PKCS8_Output::`scalar deleting destructor', COMDAT
; _this$ = ecx
  00000	56		 push	 esi
  00001	57		 push	 edi
  00002	8d b9 bc fe ff
	ff		 lea	 edi, DWORD PTR [ecx-324]
  00008	8d b7 44 01 00
	00		 lea	 esi, DWORD PTR [edi+324]
  0000e	56		 push	 esi
  0000f	e8 00 00 00 00	 call	 ??1PKCS8_Output@@UAE@XZ	; PKCS8_Output::~PKCS8_Output
  00014	56		 push	 esi
  00015	c7 06 00 00 00
	00		 mov	 DWORD PTR [esi], OFFSET ??_7ios_base@std@@6B@
  0001b	e8 00 00 00 00	 call	 ?_Ios_base_dtor@ios_base@std@@CAXPAV12@@Z ; std::ios_base::_Ios_base_dtor
  00020	83 c4 04	 add	 esp, 4
  00023	f6 44 24 0c 01	 test	 BYTE PTR ___flags$[esp+4], 1
  00028	74 09		 je	 SHORT $LN11@scalar@35
  0002a	57		 push	 edi
  0002b	e8 00 00 00 00	 call	 ??3@YAXPAX@Z		; operator delete
  00030	83 c4 04	 add	 esp, 4
$LN11@scalar@35:
  00033	8b c7		 mov	 eax, edi
  00035	5f		 pop	 edi
  00036	5e		 pop	 esi
  00037	c2 04 00	 ret	 4
??_GPKCS8_Output@@UAEPAXI@Z ENDP			; PKCS8_Output::`scalar deleting destructor'
PUBLIC	?encodeBER_to_File@PKCS8_Output@@QAEXXZ		; PKCS8_Output::encodeBER_to_File
; Function compile flags: /Ogtpy
;	COMDAT ?encodeBER_to_File@PKCS8_Output@@QAEXXZ
_TEXT	SEGMENT
?encodeBER_to_File@PKCS8_Output@@QAEXXZ PROC		; PKCS8_Output::encodeBER_to_File, COMDAT
; _this$ = eax

; 39   : {

  00000	56		 push	 esi
  00001	8b f0		 mov	 esi, eax

; 40   : 	encodeBER();

  00003	8b 06		 mov	 eax, DWORD PTR [esi]
  00005	8b 10		 mov	 edx, DWORD PTR [eax]
  00007	8b ce		 mov	 ecx, esi
  00009	ff d2		 call	 edx

; 41   : 	write(strBER.c_str(), strBER.size());

  0000b	83 7e 20 10	 cmp	 DWORD PTR [esi+32], 16	; 00000010H
  0000f	8b 4e 1c	 mov	 ecx, DWORD PTR [esi+28]
  00012	72 13		 jb	 SHORT $LN9@encodeBER_@5
  00014	8b 46 0c	 mov	 eax, DWORD PTR [esi+12]
  00017	51		 push	 ecx
  00018	50		 push	 eax
  00019	81 c6 f0 00 00
	00		 add	 esi, 240		; 000000f0H
  0001f	56		 push	 esi
  00020	e8 00 00 00 00	 call	 ?write@?$basic_ostream@DU?$char_traits@D@std@@@std@@QAEAAV12@PBDH@Z ; std::basic_ostream<char,std::char_traits<char> >::write

; 42   : }

  00025	5e		 pop	 esi
  00026	c3		 ret	 0

; 41   : 	write(strBER.c_str(), strBER.size());

$LN9@encodeBER_@5:
  00027	8d 46 0c	 lea	 eax, DWORD PTR [esi+12]
  0002a	51		 push	 ecx
  0002b	50		 push	 eax
  0002c	81 c6 f0 00 00
	00		 add	 esi, 240		; 000000f0H
  00032	56		 push	 esi
  00033	e8 00 00 00 00	 call	 ?write@?$basic_ostream@DU?$char_traits@D@std@@@std@@QAEAAV12@PBDH@Z ; std::basic_ostream<char,std::char_traits<char> >::write

; 42   : }

  00038	5e		 pop	 esi
  00039	c3		 ret	 0
?encodeBER_to_File@PKCS8_Output@@QAEXXZ ENDP		; PKCS8_Output::encodeBER_to_File
_TEXT	ENDS
PUBLIC	??0PKCS8_Output@@QAE@PBDQBD@Z			; PKCS8_Output::PKCS8_Output
;	COMDAT xdata$x
; File i:\“n•”“ÄŽj\my project\cms\cms\asn1\pkcs8\pkcs8.cpp
xdata$x	SEGMENT
__unwindtable$??0PKCS8_Output@@QAE@PBDQBD@Z DD 0ffffffffH
	DD	FLAT:__unwindfunclet$??0PKCS8_Output@@QAE@PBDQBD@Z$0
	DD	00H
	DD	FLAT:__unwindfunclet$??0PKCS8_Output@@QAE@PBDQBD@Z$1
__ehfuncinfo$??0PKCS8_Output@@QAE@PBDQBD@Z DD 019930522H
	DD	02H
	DD	FLAT:__unwindtable$??0PKCS8_Output@@QAE@PBDQBD@Z
	DD	2 DUP(00H)
	DD	2 DUP(00H)
	DD	00H
	DD	01H
; Function compile flags: /Ogtpy
; File i:\“n•”“ÄŽj\my project\cms\cms\asn1\pkcs8\pkcs8_output.cpp
xdata$x	ENDS
;	COMDAT ??0PKCS8_Output@@QAE@PBDQBD@Z
_TEXT	SEGMENT
$T101104 = -16						; size = 4
__$EHRec$ = -12						; size = 12
_this$ = 8						; size = 4
_strFileName$ = 12					; size = 4
??0PKCS8_Output@@QAE@PBDQBD@Z PROC			; PKCS8_Output::PKCS8_Output, COMDAT

; 15   : {

  00000	6a ff		 push	 -1
  00002	68 00 00 00 00	 push	 __ehhandler$??0PKCS8_Output@@QAE@PBDQBD@Z
  00007	64 a1 00 00 00
	00		 mov	 eax, DWORD PTR fs:0
  0000d	50		 push	 eax
  0000e	51		 push	 ecx
  0000f	56		 push	 esi
  00010	57		 push	 edi
  00011	a1 00 00 00 00	 mov	 eax, DWORD PTR ___security_cookie
  00016	33 c4		 xor	 eax, esp
  00018	50		 push	 eax
  00019	8d 44 24 10	 lea	 eax, DWORD PTR __$EHRec$[esp+28]
  0001d	64 a3 00 00 00
	00		 mov	 DWORD PTR fs:0, eax
  00023	8b 74 24 20	 mov	 esi, DWORD PTR _this$[esp+24]
  00027	33 c0		 xor	 eax, eax
  00029	89 44 24 0c	 mov	 DWORD PTR $T101104[esp+28], eax
  0002d	8d be f0 00 00
	00		 lea	 edi, DWORD PTR [esi+240]
  00033	c7 07 00 00 00
	00		 mov	 DWORD PTR [edi], OFFSET ??_8PKCS8_Output@@7B@
  00039	c7 86 44 01 00
	00 00 00 00 00	 mov	 DWORD PTR [esi+324], OFFSET ??_7?$basic_ios@DU?$char_traits@D@std@@@std@@6B@
  00043	89 44 24 18	 mov	 DWORD PTR __$EHRec$[esp+36], eax
  00047	8b 44 24 24	 mov	 eax, DWORD PTR _strFileName$[esp+24]
  0004b	50		 push	 eax
  0004c	57		 push	 edi
  0004d	c7 44 24 14 01
	00 00 00	 mov	 DWORD PTR $T101104[esp+36], 1
  00055	e8 00 00 00 00	 call	 ??0BER_Output@@QAE@PBD@Z ; BER_Output::BER_Output
  0005a	56		 push	 esi
  0005b	c7 44 24 1c 01
	00 00 00	 mov	 DWORD PTR __$EHRec$[esp+40], 1
  00063	e8 00 00 00 00	 call	 ??0PrivateKeyInfo@@QAE@QBD@Z ; PrivateKeyInfo::PrivateKeyInfo
  00068	8b 0f		 mov	 ecx, DWORD PTR [edi]
  0006a	c7 06 00 00 00
	00		 mov	 DWORD PTR [esi], OFFSET ??_7PKCS8_Output@@6BPKCS8@@@
  00070	8b 51 04	 mov	 edx, DWORD PTR [ecx+4]
  00073	c7 84 32 f0 00
	00 00 00 00 00
	00		 mov	 DWORD PTR [edx+esi+240], OFFSET ??_7PKCS8_Output@@6BBER_Output@@@

; 16   : }

  0007e	8b c6		 mov	 eax, esi
  00080	8b 4c 24 10	 mov	 ecx, DWORD PTR __$EHRec$[esp+28]
  00084	64 89 0d 00 00
	00 00		 mov	 DWORD PTR fs:0, ecx
  0008b	59		 pop	 ecx
  0008c	5f		 pop	 edi
  0008d	5e		 pop	 esi
  0008e	83 c4 10	 add	 esp, 16			; 00000010H
  00091	c2 08 00	 ret	 8
_TEXT	ENDS
;	COMDAT text$x
text$x	SEGMENT
__unwindfunclet$??0PKCS8_Output@@QAE@PBDQBD@Z$0:
  00000	8b 45 f0	 mov	 eax, DWORD PTR $T101104[ebp]
  00003	83 e0 01	 and	 eax, 1
  00006	0f 84 12 00 00
	00		 je	 $LN5@PKCS8_Outp@2
  0000c	83 65 f0 fe	 and	 DWORD PTR $T101104[ebp], -2 ; fffffffeH
  00010	8b 4d 04	 mov	 ecx, DWORD PTR _this$[ebp-4]
  00013	81 c1 44 01 00
	00		 add	 ecx, 324		; 00000144H
  00019	e9 00 00 00 00	 jmp	 ??1?$basic_ios@DU?$char_traits@D@std@@@std@@UAE@XZ ; std::basic_ios<char,std::char_traits<char> >::~basic_ios<char,std::char_traits<char> >
$LN5@PKCS8_Outp@2:
  0001e	c3		 ret	 0
__unwindfunclet$??0PKCS8_Output@@QAE@PBDQBD@Z$1:
  0001f	8b 45 04	 mov	 eax, DWORD PTR _this$[ebp-4]
  00022	05 44 01 00 00	 add	 eax, 324		; 00000144H
  00027	e9 00 00 00 00	 jmp	 ??1BER_Output@@UAE@XZ	; BER_Output::~BER_Output
__ehhandler$??0PKCS8_Output@@QAE@PBDQBD@Z:
  0002c	8b 54 24 08	 mov	 edx, DWORD PTR [esp+8]
  00030	8d 42 f4	 lea	 eax, DWORD PTR [edx-12]
  00033	8b 4a f0	 mov	 ecx, DWORD PTR [edx-16]
  00036	33 c8		 xor	 ecx, eax
  00038	e8 00 00 00 00	 call	 @__security_check_cookie@4
  0003d	b8 00 00 00 00	 mov	 eax, OFFSET __ehfuncinfo$??0PKCS8_Output@@QAE@PBDQBD@Z
  00042	e9 00 00 00 00	 jmp	 ___CxxFrameHandler3
text$x	ENDS
??0PKCS8_Output@@QAE@PBDQBD@Z ENDP			; PKCS8_Output::PKCS8_Output
END
