; Listing generated by Microsoft (R) Optimizing Compiler Version 15.00.30729.01 

	TITLE	i:\?n????j\My Project\CMS\CMS\ASN1\PKCS7\PKCS7_Input.cpp
	.686P
	.XMM
	include listing.inc
	.model	flat

INCLUDELIB OLDNAMES

PUBLIC	??_R4PKCS7_Input@@6BBER_Input@@@		; PKCS7_Input::`RTTI Complete Object Locator'
PUBLIC	??_R4PKCS7_Input@@6BPKCS7@@@			; PKCS7_Input::`RTTI Complete Object Locator'
PUBLIC	??_DPKCS7_Input@@QAEXXZ				; PKCS7_Input::`vbase destructor'
PUBLIC	??_GPKCS7_Input@@UAEPAXI@Z			; PKCS7_Input::`scalar deleting destructor'
PUBLIC	??_C@_08PIIBCAKG@?3?5?$JG?$KC?$JB?N?$IJ?$JO?$AA@ ; `string'
PUBLIC	??_C@_0BC@EJOPBHAJ@?3?5?$JG?$KC?$JB?N?$IJ?$JO?$IC?LVersion?$AA@ ; `string'
PUBLIC	??_C@_0BG@OLHKPAFH@PasswordRecipientinfo?$AA@	; `string'
PUBLIC	??_C@_0BK@DEOHDADO@?3?5Unknown?5HMAC?5algorithm?4?$AA@ ; `string'
PUBLIC	??_C@_0O@KDEHIPEO@HmacAlgorithm?$AA@		; `string'
PUBLIC	??_C@_0BL@JFGGCGJK@contentEncryptionAlgorithm?$AA@ ; `string'
PUBLIC	??_C@_0BM@DAAFFJKG@?3?5Different?5Parameter?5size?4?$AA@ ; `string'
PUBLIC	??_C@_08LIMCBOKO@PWRI?9KEK?$AA@			; `string'
PUBLIC	??_C@_06KBOEGBGA@PBKDF2?$AA@			; `string'
PUBLIC	??_C@_0CM@BCGECGBA@?3?5Unknown?5KeyDerivationAlgorithm@ ; `string'
PUBLIC	??_C@_0BH@MIGBCDO@KeyDerivationAlgorithm?$AA@	; `string'
PUBLIC	??_7PKCS7_Input@@6BPKCS7@@@			; PKCS7_Input::`vftable'
PUBLIC	??_7PKCS7_Input@@6BBER_Input@@@			; PKCS7_Input::`vftable'
PUBLIC	??_8PKCS7_Input@@7B@				; PKCS7_Input::`vbtable'
EXTRN	??_EPKCS7_Input@@UAEPAXI@Z:PROC			; PKCS7_Input::`vector deleting destructor'
;	COMDAT ??_8PKCS7_Input@@7B@
CONST	SEGMENT
??_8PKCS7_Input@@7B@ DD 00H				; PKCS7_Input::`vbtable'
	DD	058H
CONST	ENDS
;	COMDAT ??_7PKCS7_Input@@6BBER_Input@@@
CONST	SEGMENT
??_7PKCS7_Input@@6BBER_Input@@@ DD FLAT:??_R4PKCS7_Input@@6BBER_Input@@@ ; PKCS7_Input::`vftable'
	DD	FLAT:??_EPKCS7_Input@@UAEPAXI@Z
CONST	ENDS
;	COMDAT ??_R4PKCS7_Input@@6BBER_Input@@@
rdata$r	SEGMENT
??_R4PKCS7_Input@@6BBER_Input@@@ DD 00H			; PKCS7_Input::`RTTI Complete Object Locator'
	DD	0428H
	DD	00H
	DD	FLAT:??_R0?AVPKCS7_Input@@@8
	DD	FLAT:??_R3PKCS7_Input@@8
rdata$r	ENDS
;	COMDAT ??_7PKCS7_Input@@6BPKCS7@@@
CONST	SEGMENT
??_7PKCS7_Input@@6BPKCS7@@@ DD FLAT:??_R4PKCS7_Input@@6BPKCS7@@@ ; PKCS7_Input::`vftable'
	DD	FLAT:?encodeBER@Sequence@@UAEXXZ
	DD	FLAT:?Get_BERcode@ASN1@@UAEPBDXZ
	DD	FLAT:?Get_BERsize@ASN1@@UAEIXZ
CONST	ENDS
;	COMDAT ??_R4PKCS7_Input@@6BPKCS7@@@
rdata$r	SEGMENT
??_R4PKCS7_Input@@6BPKCS7@@@ DD 00H			; PKCS7_Input::`RTTI Complete Object Locator'
	DD	00H
	DD	00H
	DD	FLAT:??_R0?AVPKCS7_Input@@@8
	DD	FLAT:??_R3PKCS7_Input@@8
rdata$r	ENDS
;	COMDAT ??_C@_0BH@MIGBCDO@KeyDerivationAlgorithm?$AA@
CONST	SEGMENT
??_C@_0BH@MIGBCDO@KeyDerivationAlgorithm?$AA@ DB 'KeyDerivationAlgorithm', 00H ; `string'
CONST	ENDS
;	COMDAT ??_C@_0CM@BCGECGBA@?3?5Unknown?5KeyDerivationAlgorithm@
CONST	SEGMENT
??_C@_0CM@BCGECGBA@?3?5Unknown?5KeyDerivationAlgorithm@ DB ': Unknown Key'
	DB	'DerivationAlgorithm algorithm.', 00H	; `string'
CONST	ENDS
;	COMDAT ??_C@_06KBOEGBGA@PBKDF2?$AA@
CONST	SEGMENT
??_C@_06KBOEGBGA@PBKDF2?$AA@ DB 'PBKDF2', 00H		; `string'
CONST	ENDS
;	COMDAT ??_C@_08LIMCBOKO@PWRI?9KEK?$AA@
CONST	SEGMENT
??_C@_08LIMCBOKO@PWRI?9KEK?$AA@ DB 'PWRI-KEK', 00H	; `string'
CONST	ENDS
;	COMDAT ??_C@_0BM@DAAFFJKG@?3?5Different?5Parameter?5size?4?$AA@
CONST	SEGMENT
??_C@_0BM@DAAFFJKG@?3?5Different?5Parameter?5size?4?$AA@ DB ': Different '
	DB	'Parameter size.', 00H			; `string'
CONST	ENDS
;	COMDAT ??_C@_0BL@JFGGCGJK@contentEncryptionAlgorithm?$AA@
CONST	SEGMENT
??_C@_0BL@JFGGCGJK@contentEncryptionAlgorithm?$AA@ DB 'contentEncryptionA'
	DB	'lgorithm', 00H				; `string'
CONST	ENDS
;	COMDAT ??_C@_0O@KDEHIPEO@HmacAlgorithm?$AA@
CONST	SEGMENT
??_C@_0O@KDEHIPEO@HmacAlgorithm?$AA@ DB 'HmacAlgorithm', 00H ; `string'
CONST	ENDS
;	COMDAT ??_C@_0BK@DEOHDADO@?3?5Unknown?5HMAC?5algorithm?4?$AA@
CONST	SEGMENT
??_C@_0BK@DEOHDADO@?3?5Unknown?5HMAC?5algorithm?4?$AA@ DB ': Unknown HMAC'
	DB	' algorithm.', 00H				; `string'
CONST	ENDS
;	COMDAT ??_C@_0BG@OLHKPAFH@PasswordRecipientinfo?$AA@
CONST	SEGMENT
??_C@_0BG@OLHKPAFH@PasswordRecipientinfo?$AA@ DB 'PasswordRecipientinfo', 00H ; `string'
CONST	ENDS
;	COMDAT ??_C@_0BC@EJOPBHAJ@?3?5?$JG?$KC?$JB?N?$IJ?$JO?$IC?LVersion?$AA@
CONST	SEGMENT
??_C@_0BC@EJOPBHAJ@?3?5?$JG?$KC?$JB?N?$IJ?$JO?$IC?LVersion?$AA@ DB ': ', 096H
	DB	0a2H, 091H, 0ceH, 089H, 09eH, 082H, 0ccH, 'Version', 00H ; `string'
CONST	ENDS
;	COMDAT ??_C@_08PIIBCAKG@?3?5?$JG?$KC?$JB?N?$IJ?$JO?$AA@
CONST	SEGMENT
??_C@_08PIIBCAKG@?3?5?$JG?$KC?$JB?N?$IJ?$JO?$AA@ DB ': ', 096H, 0a2H, 091H
	DB	0ceH, 089H, 09eH, 00H			; `string'
CONST	ENDS
;	COMDAT ?oid_pkcs7@?1??read_ContentInfo@PKCS7_Input@@QAEII@Z@4PAIA
_DATA	SEGMENT
?oid_pkcs7@?1??read_ContentInfo@PKCS7_Input@@QAEII@Z@4PAIA DD 01H ; `PKCS7_Input::read_ContentInfo'::`2'::oid_pkcs7
	DD	02H
	DD	0348H
	DD	01bb8dH
	DD	01H
	DD	07H
	ORG $+4
;	COMDAT ?_pbkdf2@?1??read_KeyDerivationAlgorithm@PKCS7_Input@@QAEPAVKeyDerivation@@XZ@4VPBKDF2@@A
; File i:\“n•”“ÄŽj\my project\cms\cms\asn1\sequence.cpp
_BSS	SEGMENT
?_pbkdf2@?1??read_KeyDerivationAlgorithm@PKCS7_Input@@QAEPAVKeyDerivation@@XZ@4VPBKDF2@@A DB 0210H DUP (?) ; `PKCS7_Input::read_KeyDerivationAlgorithm'::`2'::_pbkdf2
PUBLIC	??1PKCS7_Input@@UAE@XZ				; PKCS7_Input::~PKCS7_Input
; Function compile flags: /Ogtpy
; File i:\“n•”“ÄŽj\my project\cms\cms\asn1\pkcs7\pkcs7_input.cpp
;	COMDAT ??1PKCS7_Input@@UAE@XZ
_TEXT	SEGMENT
_this$ = 8						; size = 4
??1PKCS7_Input@@UAE@XZ PROC				; PKCS7_Input::~PKCS7_Input, COMDAT

; 26   : {

  00000	51		 push	 ecx
  00001	53		 push	 ebx
  00002	8b 5c 24 0c	 mov	 ebx, DWORD PTR _this$[esp+4]
  00006	8b 43 a8	 mov	 eax, DWORD PTR [ebx-88]
  00009	56		 push	 esi
  0000a	57		 push	 edi
  0000b	8d bb d8 fb ff
	ff		 lea	 edi, DWORD PTR [ebx-1064]
  00011	c7 07 00 00 00
	00		 mov	 DWORD PTR [edi], OFFSET ??_7PKCS7_Input@@6BPKCS7@@@
  00017	8b 48 04	 mov	 ecx, DWORD PTR [eax+4]
  0001a	c7 44 19 a8 00
	00 00 00	 mov	 DWORD PTR [ecx+ebx-88], OFFSET ??_7PKCS7_Input@@6BBER_Input@@@

; 27   : }

  00022	8d b7 e0 02 00
	00		 lea	 esi, DWORD PTR [edi+736]
  00028	c7 07 00 00 00
	00		 mov	 DWORD PTR [edi], OFFSET ??_7PKCS7@@6B@
  0002e	c7 06 00 00 00
	00		 mov	 DWORD PTR [esi], OFFSET ??_7HMAC_SHA256@@6B@
  00034	e8 00 00 00 00	 call	 ??1HMAC@@QAE@XZ		; HMAC::~HMAC
  00039	8d b7 f0 01 00
	00		 lea	 esi, DWORD PTR [edi+496]
  0003f	c7 06 00 00 00
	00		 mov	 DWORD PTR [esi], OFFSET ??_7HMAC_SHA224@@6B@
  00045	e8 00 00 00 00	 call	 ??1HMAC@@QAE@XZ		; HMAC::~HMAC
  0004a	8d b7 00 01 00
	00		 lea	 esi, DWORD PTR [edi+256]
  00050	c7 06 00 00 00
	00		 mov	 DWORD PTR [esi], OFFSET ??_7HMAC_SHA1@@6B@
  00056	e8 00 00 00 00	 call	 ??1HMAC@@QAE@XZ		; HMAC::~HMAC
  0005b	57		 push	 edi
  0005c	e8 00 00 00 00	 call	 ??1ContentInfo@@QAE@XZ	; ContentInfo::~ContentInfo
  00061	8b 53 a8	 mov	 edx, DWORD PTR [ebx-88]
  00064	8b 42 04	 mov	 eax, DWORD PTR [edx+4]
  00067	53		 push	 ebx
  00068	c7 44 18 a8 00
	00 00 00	 mov	 DWORD PTR [eax+ebx-88], OFFSET ??_7BER_Input@@6B@
  00070	e8 00 00 00 00	 call	 ??1FileInput@@UAE@XZ	; FileInput::~FileInput
  00075	5f		 pop	 edi
  00076	5e		 pop	 esi
  00077	5b		 pop	 ebx
  00078	59		 pop	 ecx
  00079	c2 04 00	 ret	 4
??1PKCS7_Input@@UAE@XZ ENDP				; PKCS7_Input::~PKCS7_Input
; Function compile flags: /Ogtpy
_TEXT	ENDS
;	COMDAT ??_DPKCS7_Input@@QAEXXZ
_TEXT	SEGMENT
??_DPKCS7_Input@@QAEXXZ PROC				; PKCS7_Input::`vbase destructor', COMDAT
; _this$ = eax
  00000	56		 push	 esi
  00001	8b f0		 mov	 esi, eax
  00003	81 c6 28 04 00
	00		 add	 esi, 1064		; 00000428H
  00009	56		 push	 esi
  0000a	e8 00 00 00 00	 call	 ??1PKCS7_Input@@UAE@XZ	; PKCS7_Input::~PKCS7_Input
  0000f	56		 push	 esi
  00010	c7 06 00 00 00
	00		 mov	 DWORD PTR [esi], OFFSET ??_7ios_base@std@@6B@
  00016	e8 00 00 00 00	 call	 ?_Ios_base_dtor@ios_base@std@@CAXPAV12@@Z ; std::ios_base::_Ios_base_dtor
  0001b	83 c4 04	 add	 esp, 4
  0001e	5e		 pop	 esi
  0001f	c3		 ret	 0
??_DPKCS7_Input@@QAEXXZ ENDP				; PKCS7_Input::`vbase destructor'
; Function compile flags: /Ogtpy
_TEXT	ENDS
;	COMDAT ??_GPKCS7_Input@@UAEPAXI@Z
_TEXT	SEGMENT
___flags$ = 8						; size = 4
??_GPKCS7_Input@@UAEPAXI@Z PROC				; PKCS7_Input::`scalar deleting destructor', COMDAT
; _this$ = ecx
  00000	56		 push	 esi
  00001	57		 push	 edi
  00002	8d b9 d8 fb ff
	ff		 lea	 edi, DWORD PTR [ecx-1064]
  00008	8d b7 28 04 00
	00		 lea	 esi, DWORD PTR [edi+1064]
  0000e	56		 push	 esi
  0000f	e8 00 00 00 00	 call	 ??1PKCS7_Input@@UAE@XZ	; PKCS7_Input::~PKCS7_Input
  00014	56		 push	 esi
  00015	c7 06 00 00 00
	00		 mov	 DWORD PTR [esi], OFFSET ??_7ios_base@std@@6B@
  0001b	e8 00 00 00 00	 call	 ?_Ios_base_dtor@ios_base@std@@CAXPAV12@@Z ; std::ios_base::_Ios_base_dtor
  00020	83 c4 04	 add	 esp, 4
  00023	f6 44 24 0c 01	 test	 BYTE PTR ___flags$[esp+4], 1
  00028	74 09		 je	 SHORT $LN11@scalar@30
  0002a	57		 push	 edi
  0002b	e8 00 00 00 00	 call	 ??3@YAXPAX@Z		; operator delete
  00030	83 c4 04	 add	 esp, 4
$LN11@scalar@30:
  00033	8b c7		 mov	 eax, edi
  00035	5f		 pop	 edi
  00036	5e		 pop	 esi
  00037	c2 04 00	 ret	 4
??_GPKCS7_Input@@UAEPAXI@Z ENDP				; PKCS7_Input::`scalar deleting destructor'
_TEXT	ENDS
PUBLIC	??0PKCS7_Input@@QAE@PBDQBD@Z			; PKCS7_Input::PKCS7_Input
;	COMDAT xdata$x
; File c:\program files\microsoft visual studio 9.0\vc\include\xiosbase
xdata$x	SEGMENT
__unwindtable$??0PKCS7_Input@@QAE@PBDQBD@Z DD 0ffffffffH
	DD	00H
	DD	00H
	DD	FLAT:__unwindfunclet$??0PKCS7_Input@@QAE@PBDQBD@Z$1
__ehfuncinfo$??0PKCS7_Input@@QAE@PBDQBD@Z DD 019930522H
	DD	02H
	DD	FLAT:__unwindtable$??0PKCS7_Input@@QAE@PBDQBD@Z
	DD	2 DUP(00H)
	DD	2 DUP(00H)
	DD	00H
	DD	01H
; Function compile flags: /Ogtpy
; File i:\“n•”“ÄŽj\my project\cms\cms\asn1\pkcs7\pkcs7_input.cpp
xdata$x	ENDS
;	COMDAT ??0PKCS7_Input@@QAE@PBDQBD@Z
_TEXT	SEGMENT
$T98383 = -16						; size = 4
__$EHRec$ = -12						; size = 12
_this$ = 8						; size = 4
_strFileName$ = 12					; size = 4
??0PKCS7_Input@@QAE@PBDQBD@Z PROC			; PKCS7_Input::PKCS7_Input, COMDAT

; 15   : {

  00000	6a ff		 push	 -1
  00002	68 00 00 00 00	 push	 __ehhandler$??0PKCS7_Input@@QAE@PBDQBD@Z
  00007	64 a1 00 00 00
	00		 mov	 eax, DWORD PTR fs:0
  0000d	50		 push	 eax
  0000e	51		 push	 ecx
  0000f	56		 push	 esi
  00010	57		 push	 edi
  00011	a1 00 00 00 00	 mov	 eax, DWORD PTR ___security_cookie
  00016	33 c4		 xor	 eax, esp
  00018	50		 push	 eax
  00019	8d 44 24 10	 lea	 eax, DWORD PTR __$EHRec$[esp+28]
  0001d	64 a3 00 00 00
	00		 mov	 DWORD PTR fs:0, eax
  00023	8b 74 24 20	 mov	 esi, DWORD PTR _this$[esp+24]
  00027	8b 44 24 24	 mov	 eax, DWORD PTR _strFileName$[esp+24]
  0002b	50		 push	 eax
  0002c	8d be d0 03 00
	00		 lea	 edi, DWORD PTR [esi+976]
  00032	57		 push	 edi
  00033	c7 44 24 14 00
	00 00 00	 mov	 DWORD PTR $T98383[esp+36], 0
  0003b	e8 00 00 00 00	 call	 ??0BER_Input@@QAE@PBD@Z	; BER_Input::BER_Input
  00040	56		 push	 esi
  00041	c7 44 24 1c 01
	00 00 00	 mov	 DWORD PTR __$EHRec$[esp+40], 1
  00049	e8 00 00 00 00	 call	 ??0PKCS7@@QAE@QBD@Z	; PKCS7::PKCS7
  0004e	8b 0f		 mov	 ecx, DWORD PTR [edi]
  00050	c7 06 00 00 00
	00		 mov	 DWORD PTR [esi], OFFSET ??_7PKCS7_Input@@6BPKCS7@@@
  00056	8b 51 04	 mov	 edx, DWORD PTR [ecx+4]
  00059	c7 84 32 d0 03
	00 00 00 00 00
	00		 mov	 DWORD PTR [edx+esi+976], OFFSET ??_7PKCS7_Input@@6BBER_Input@@@

; 16   : }

  00064	8b c6		 mov	 eax, esi
  00066	8b 4c 24 10	 mov	 ecx, DWORD PTR __$EHRec$[esp+28]
  0006a	64 89 0d 00 00
	00 00		 mov	 DWORD PTR fs:0, ecx
  00071	59		 pop	 ecx
  00072	5f		 pop	 edi
  00073	5e		 pop	 esi
  00074	83 c4 10	 add	 esp, 16			; 00000010H
  00077	c2 08 00	 ret	 8
_TEXT	ENDS
;	COMDAT text$x
text$x	SEGMENT
__unwindfunclet$??0PKCS7_Input@@QAE@PBDQBD@Z$1:
  00000	8b 45 04	 mov	 eax, DWORD PTR _this$[ebp-4]
  00003	05 28 04 00 00	 add	 eax, 1064		; 00000428H
  00008	e9 00 00 00 00	 jmp	 ??1BER_Input@@UAE@XZ	; BER_Input::~BER_Input
__ehhandler$??0PKCS7_Input@@QAE@PBDQBD@Z:
  0000d	8b 54 24 08	 mov	 edx, DWORD PTR [esp+8]
  00011	8d 42 f4	 lea	 eax, DWORD PTR [edx-12]
  00014	8b 4a f0	 mov	 ecx, DWORD PTR [edx-16]
  00017	33 c8		 xor	 ecx, eax
  00019	e8 00 00 00 00	 call	 @__security_check_cookie@4
  0001e	b8 00 00 00 00	 mov	 eax, OFFSET __ehfuncinfo$??0PKCS7_Input@@QAE@PBDQBD@Z
  00023	e9 00 00 00 00	 jmp	 ___CxxFrameHandler3
text$x	ENDS
??0PKCS7_Input@@QAE@PBDQBD@Z ENDP			; PKCS7_Input::PKCS7_Input
PUBLIC	__$ArrayPad$
PUBLIC	?read_KeyWrapAlgorithm@PKCS7_Input@@QAEPAVEncryption@@PAVPWRI_KEK@@@Z ; PKCS7_Input::read_KeyWrapAlgorithm
;	COMDAT xdata$x
; File c:\program files\microsoft visual studio 9.0\vc\include\xutility
xdata$x	SEGMENT
__unwindtable$?read_KeyWrapAlgorithm@PKCS7_Input@@QAEPAVEncryption@@PAVPWRI_KEK@@@Z DD 0ffffffffH
	DD	FLAT:__unwindfunclet$?read_KeyWrapAlgorithm@PKCS7_Input@@QAEPAVEncryption@@PAVPWRI_KEK@@@Z$0
	DD	00H
	DD	FLAT:__unwindfunclet$?read_KeyWrapAlgorithm@PKCS7_Input@@QAEPAVEncryption@@PAVPWRI_KEK@@@Z$1
__ehfuncinfo$?read_KeyWrapAlgorithm@PKCS7_Input@@QAEPAVEncryption@@PAVPWRI_KEK@@@Z DD 019930522H
	DD	02H
	DD	FLAT:__unwindtable$?read_KeyWrapAlgorithm@PKCS7_Input@@QAEPAVEncryption@@PAVPWRI_KEK@@@Z
	DD	2 DUP(00H)
	DD	2 DUP(00H)
	DD	00H
	DD	01H
; Function compile flags: /Ogtpy
; File i:\“n•”“ÄŽj\my project\cms\cms\asn1\pkcs7\pkcs7_input.cpp
xdata$x	ENDS
;	COMDAT ?read_KeyWrapAlgorithm@PKCS7_Input@@QAEPAVEncryption@@PAVPWRI_KEK@@@Z
_TEXT	SEGMENT
_read_class$105188 = -246				; size = 1
_read_fStruct$105189 = -245				; size = 1
_read_tag$105187 = -244					; size = 4
_IV$ = -240						; size = 16
__IV$ = -216						; size = 96
__oid$ = -120						; size = 92
__$ArrayPad$ = -20					; size = 4
__$EHRec$ = -12						; size = 12
?read_KeyWrapAlgorithm@PKCS7_Input@@QAEPAVEncryption@@PAVPWRI_KEK@@@Z PROC ; PKCS7_Input::read_KeyWrapAlgorithm, COMDAT
; _this$ = ecx
; __pwri_kek$ = edx

; 353  : {

  00000	55		 push	 ebp
  00001	8b ec		 mov	 ebp, esp
  00003	83 e4 f0	 and	 esp, -16		; fffffff0H
  00006	6a ff		 push	 -1
  00008	68 00 00 00 00	 push	 __ehhandler$?read_KeyWrapAlgorithm@PKCS7_Input@@QAEPAVEncryption@@PAVPWRI_KEK@@@Z
  0000d	64 a1 00 00 00
	00		 mov	 eax, DWORD PTR fs:0
  00013	50		 push	 eax
  00014	81 ec ec 00 00
	00		 sub	 esp, 236		; 000000ecH
  0001a	a1 00 00 00 00	 mov	 eax, DWORD PTR ___security_cookie
  0001f	33 c4		 xor	 eax, esp
  00021	89 84 24 e4 00
	00 00		 mov	 DWORD PTR __$ArrayPad$[esp+248], eax
  00028	56		 push	 esi
  00029	57		 push	 edi
  0002a	a1 00 00 00 00	 mov	 eax, DWORD PTR ___security_cookie
  0002f	33 c4		 xor	 eax, esp
  00031	50		 push	 eax
  00032	8d 84 24 f8 00
	00 00		 lea	 eax, DWORD PTR __$EHRec$[esp+260]
  00039	64 a3 00 00 00
	00		 mov	 DWORD PTR fs:0, eax

; 354  : 	//contentType ContentType,
; 355  : 	ObjectIdentifier		_oid;

  0003f	8d 84 24 8c 00
	00 00		 lea	 eax, DWORD PTR __oid$[esp+260]
  00046	50		 push	 eax
  00047	8b f1		 mov	 esi, ecx
  00049	8b fa		 mov	 edi, edx
  0004b	e8 00 00 00 00	 call	 ??0ObjectIdentifier@@QAE@QBD@Z ; ObjectIdentifier::ObjectIdentifier

; 356  : 
; 357  : 	OctetString		_IV;

  00050	68 00 00 00 00	 push	 OFFSET ??_C@_0N@DHPBPBEA@Octet?5String?$AA@
  00055	8d 4c 24 30	 lea	 ecx, DWORD PTR __IV$[esp+264]
  00059	51		 push	 ecx
  0005a	c7 84 24 08 01
	00 00 00 00 00
	00		 mov	 DWORD PTR __$EHRec$[esp+276], 0
  00065	e8 00 00 00 00	 call	 ??0ASN1@@QAE@QBD@Z	; ASN1::ASN1
  0006a	c7 44 24 2c 00
	00 00 00	 mov	 DWORD PTR __IV$[esp+260], OFFSET ??_7OctetString@@6B@
  00072	c7 84 24 88 00
	00 00 0f 00 00
	00		 mov	 DWORD PTR __IV$[esp+352], 15 ; 0000000fH
  0007d	c7 84 24 84 00
	00 00 00 00 00
	00		 mov	 DWORD PTR __IV$[esp+348], 0
  00088	c6 44 24 74 00	 mov	 BYTE PTR __IV$[esp+332], 0

; 358  : 	__m128i			IV;
; 359  : 
; 360  : 	Encryption*	cKE;
; 361  : 
; 362  : 	//EncryptionAlgorithm
; 363  : 	//SEQUENCE
; 364  : 	read_TAG_with_Check(BER_Class_General, true, BER_TAG_SEQUENCE);

  0008d	8d 54 24 10	 lea	 edx, DWORD PTR _read_tag$105187[esp+260]
  00091	52		 push	 edx
  00092	8d 44 24 13	 lea	 eax, DWORD PTR _read_fStruct$105189[esp+264]
  00096	50		 push	 eax
  00097	8d 4c 24 16	 lea	 ecx, DWORD PTR _read_class$105188[esp+268]
  0009b	81 c6 d0 03 00
	00		 add	 esi, 976		; 000003d0H
  000a1	51		 push	 ecx
  000a2	c6 84 24 0c 01
	00 00 01	 mov	 BYTE PTR __$EHRec$[esp+280], 1
  000aa	e8 00 00 00 00	 call	 ?read_TAG@BER_Input@@QAEIPAEPA_NPAI@Z ; BER_Input::read_TAG
  000af	80 7c 24 0e 00	 cmp	 BYTE PTR _read_class$105188[esp+260], 0
  000b4	0f 85 e5 02 00
	00		 jne	 $LN52@read_KeyWr
  000ba	83 7c 24 10 10	 cmp	 DWORD PTR _read_tag$105187[esp+260], 16 ; 00000010H
  000bf	0f 85 da 02 00
	00		 jne	 $LN52@read_KeyWr
  000c5	80 7c 24 0f 01	 cmp	 BYTE PTR _read_fStruct$105189[esp+260], 1
  000ca	0f 85 cf 02 00
	00		 jne	 $LN52@read_KeyWr

; 365  : 		//algorithm OBJECT IDENTIFIER
; 366  : 		read_Object_Identifier(&_oid);

  000d0	8d 94 24 8c 00
	00 00		 lea	 edx, DWORD PTR __oid$[esp+260]
  000d7	52		 push	 edx
  000d8	56		 push	 esi
  000d9	e8 00 00 00 00	 call	 ?read_Object_Identifier@BER_Input@@QAEIPAVObjectIdentifier@@@Z ; BER_Input::read_Object_Identifier

; 367  : 		//ˆÃ†—˜—pƒ‚[ƒh, ‰Šú‰»ƒxƒNƒ^IV ‚ðAÝ’è
; 368  : 		//’Ç‰Á‚ÌˆÃ†ƒAƒ‹ƒSƒŠƒYƒ€‚ª‚ ‚éê‡‚ÍA‚±‚±‚É’Ç‰ÁB
; 369  : 		if(_pwri_kek->ke_DES_CBC.Check_OID(&_oid) != -1){

  000de	8d 84 24 8c 00
	00 00		 lea	 eax, DWORD PTR __oid$[esp+260]
  000e5	50		 push	 eax
  000e6	68 00 00 00 00	 push	 OFFSET ?ke_DES_CBC@PWRI_KEK@@2VDES_CBC@@A ; PWRI_KEK::ke_DES_CBC
  000eb	e8 00 00 00 00	 call	 ?Check_OID@AlgorithmIdentifier@@QAEHPAVObjectIdentifier@@@Z ; AlgorithmIdentifier::Check_OID
  000f0	83 f8 ff	 cmp	 eax, -1
  000f3	74 39		 je	 SHORT $LN11@read_KeyWr

; 370  : 			read_Octet_Strings(&_IV);

  000f5	8d 4c 24 2c	 lea	 ecx, DWORD PTR __IV$[esp+260]
  000f9	51		 push	 ecx
  000fa	8b c6		 mov	 eax, esi
  000fc	e8 00 00 00 00	 call	 ?read_Octet_Strings@BER_Input@@QAEIPAVOctetString@@@Z ; BER_Input::read_Octet_Strings

; 371  : 			memcpy(&IV, _IV.strValue.c_str(), sizeof(__int64));

  00101	83 bc 24 88 00
	00 00 10	 cmp	 DWORD PTR __IV$[esp+352], 16 ; 00000010H
  00109	8b 44 24 74	 mov	 eax, DWORD PTR __IV$[esp+332]
  0010d	73 04		 jae	 SHORT $LN65@read_KeyWr
  0010f	8d 44 24 74	 lea	 eax, DWORD PTR __IV$[esp+332]
$LN65@read_KeyWr:
  00113	8b 08		 mov	 ecx, DWORD PTR [eax]
  00115	8b 40 04	 mov	 eax, DWORD PTR [eax+4]

; 372  : 			_pwri_kek->ke_DES_CBC.Set_DES(IV.m128i_i64[0]);

  00118	50		 push	 eax
  00119	51		 push	 ecx
  0011a	68 00 00 00 00	 push	 OFFSET ?ke_DES_CBC@PWRI_KEK@@2VDES_CBC@@A ; PWRI_KEK::ke_DES_CBC
  0011f	e8 00 00 00 00	 call	 ?Set_DES@DES_CBC@@QAEX_K@Z ; DES_CBC::Set_DES

; 373  : 			cKE = &_pwri_kek->ke_DES_CBC;

  00124	be 00 00 00 00	 mov	 esi, OFFSET ?ke_DES_CBC@PWRI_KEK@@2VDES_CBC@@A ; PWRI_KEK::ke_DES_CBC
  00129	e9 78 01 00 00	 jmp	 $LN2@read_KeyWr
$LN11@read_KeyWr:

; 374  : 		} else if(_pwri_kek->ke_TDES_CBC.Check_OID(&_oid) != -1){

  0012e	8d 94 24 8c 00
	00 00		 lea	 edx, DWORD PTR __oid$[esp+260]
  00135	52		 push	 edx
  00136	68 00 00 00 00	 push	 OFFSET ?ke_TDES_CBC@PWRI_KEK@@2VDES_EDE3_CBC@@A ; PWRI_KEK::ke_TDES_CBC
  0013b	e8 00 00 00 00	 call	 ?Check_OID@AlgorithmIdentifier@@QAEHPAVObjectIdentifier@@@Z ; AlgorithmIdentifier::Check_OID
  00140	83 f8 ff	 cmp	 eax, -1
  00143	74 39		 je	 SHORT $LN9@read_KeyWr

; 375  : 			read_Octet_Strings(&_IV);

  00145	8d 44 24 2c	 lea	 eax, DWORD PTR __IV$[esp+260]
  00149	50		 push	 eax
  0014a	8b c6		 mov	 eax, esi
  0014c	e8 00 00 00 00	 call	 ?read_Octet_Strings@BER_Input@@QAEIPAVOctetString@@@Z ; BER_Input::read_Octet_Strings

; 376  : 			memcpy(&IV, _IV.strValue.c_str(), sizeof(__int64));

  00151	83 bc 24 88 00
	00 00 10	 cmp	 DWORD PTR __IV$[esp+352], 16 ; 00000010H
  00159	8b 44 24 74	 mov	 eax, DWORD PTR __IV$[esp+332]
  0015d	73 04		 jae	 SHORT $LN71@read_KeyWr
  0015f	8d 44 24 74	 lea	 eax, DWORD PTR __IV$[esp+332]
$LN71@read_KeyWr:
  00163	8b 08		 mov	 ecx, DWORD PTR [eax]
  00165	8b 40 04	 mov	 eax, DWORD PTR [eax+4]

; 377  : 			_pwri_kek->ke_TDES_CBC.Set_DES(IV.m128i_i64[0]);

  00168	50		 push	 eax
  00169	51		 push	 ecx
  0016a	68 00 00 00 00	 push	 OFFSET ?ke_TDES_CBC@PWRI_KEK@@2VDES_EDE3_CBC@@A ; PWRI_KEK::ke_TDES_CBC
  0016f	e8 00 00 00 00	 call	 ?Set_DES@DES_EDE3_CBC@@QAEX_K@Z ; DES_EDE3_CBC::Set_DES

; 378  : 			cKE = &_pwri_kek->ke_TDES_CBC;

  00174	be 00 00 00 00	 mov	 esi, OFFSET ?ke_TDES_CBC@PWRI_KEK@@2VDES_EDE3_CBC@@A ; PWRI_KEK::ke_TDES_CBC
  00179	e9 28 01 00 00	 jmp	 $LN2@read_KeyWr
$LN9@read_KeyWr:

; 379  : 		} else if(_pwri_kek->ke_AES_CBC128.Check_OID(&_oid) != -1){

  0017e	8d 8c 24 8c 00
	00 00		 lea	 ecx, DWORD PTR __oid$[esp+260]
  00185	51		 push	 ecx
  00186	68 00 00 00 00	 push	 OFFSET ?ke_AES_CBC128@PWRI_KEK@@2VAES_CBC128@@A ; PWRI_KEK::ke_AES_CBC128
  0018b	e8 00 00 00 00	 call	 ?Check_OID@AlgorithmIdentifier@@QAEHPAVObjectIdentifier@@@Z ; AlgorithmIdentifier::Check_OID
  00190	83 f8 ff	 cmp	 eax, -1
  00193	74 4d		 je	 SHORT $LN7@read_KeyWr

; 380  : 			read_Octet_Strings(&_IV);

  00195	8d 54 24 2c	 lea	 edx, DWORD PTR __IV$[esp+260]
  00199	52		 push	 edx
  0019a	8b c6		 mov	 eax, esi
  0019c	e8 00 00 00 00	 call	 ?read_Octet_Strings@BER_Input@@QAEIPAVOctetString@@@Z ; BER_Input::read_Octet_Strings

; 381  : 			memcpy(&IV, _IV.strValue.c_str(), sizeof(__m128i));

  001a1	83 bc 24 88 00
	00 00 10	 cmp	 DWORD PTR __IV$[esp+352], 16 ; 00000010H
  001a9	8b 44 24 74	 mov	 eax, DWORD PTR __IV$[esp+332]
  001ad	73 04		 jae	 SHORT $LN77@read_KeyWr
  001af	8d 44 24 74	 lea	 eax, DWORD PTR __IV$[esp+332]
$LN77@read_KeyWr:
  001b3	f3 0f 7e 00	 movq	 xmm0, QWORD PTR [eax]
  001b7	66 0f d6 44 24
	14		 movq	 QWORD PTR _IV$[esp+260], xmm0
  001bd	f3 0f 7e 40 08	 movq	 xmm0, QWORD PTR [eax+8]
  001c2	66 0f d6 44 24
	1c		 movq	 QWORD PTR _IV$[esp+268], xmm0

; 382  : 			_pwri_kek->ke_AES_CBC128.Set_AES(IV);

  001c8	66 0f 6f 44 24
	14		 movdqa	 xmm0, XMMWORD PTR _IV$[esp+260]
  001ce	68 00 00 00 00	 push	 OFFSET ?ke_AES_CBC128@PWRI_KEK@@2VAES_CBC128@@A ; PWRI_KEK::ke_AES_CBC128
  001d3	e8 00 00 00 00	 call	 ?Set_AES@AES_CBC@@QAEXT__m128i@@@Z ; AES_CBC::Set_AES

; 383  : 			cKE = &_pwri_kek->ke_AES_CBC128;

  001d8	be 00 00 00 00	 mov	 esi, OFFSET ?ke_AES_CBC128@PWRI_KEK@@2VAES_CBC128@@A ; PWRI_KEK::ke_AES_CBC128
  001dd	e9 c4 00 00 00	 jmp	 $LN2@read_KeyWr
$LN7@read_KeyWr:

; 384  : 		} else if(_pwri_kek->ke_AES_CBC192.Check_OID(&_oid) != -1){

  001e2	8d 84 24 8c 00
	00 00		 lea	 eax, DWORD PTR __oid$[esp+260]
  001e9	50		 push	 eax
  001ea	68 00 00 00 00	 push	 OFFSET ?ke_AES_CBC192@PWRI_KEK@@2VAES_CBC192@@A ; PWRI_KEK::ke_AES_CBC192
  001ef	e8 00 00 00 00	 call	 ?Check_OID@AlgorithmIdentifier@@QAEHPAVObjectIdentifier@@@Z ; AlgorithmIdentifier::Check_OID
  001f4	83 f8 ff	 cmp	 eax, -1
  001f7	74 4a		 je	 SHORT $LN5@read_KeyWr

; 385  : 			read_Octet_Strings(&_IV);

  001f9	8d 4c 24 2c	 lea	 ecx, DWORD PTR __IV$[esp+260]
  001fd	51		 push	 ecx
  001fe	8b c6		 mov	 eax, esi
  00200	e8 00 00 00 00	 call	 ?read_Octet_Strings@BER_Input@@QAEIPAVOctetString@@@Z ; BER_Input::read_Octet_Strings

; 386  : 			memcpy(&IV, _IV.strValue.c_str(), sizeof(__m128i));

  00205	83 bc 24 88 00
	00 00 10	 cmp	 DWORD PTR __IV$[esp+352], 16 ; 00000010H
  0020d	8b 44 24 74	 mov	 eax, DWORD PTR __IV$[esp+332]
  00211	73 04		 jae	 SHORT $LN83@read_KeyWr
  00213	8d 44 24 74	 lea	 eax, DWORD PTR __IV$[esp+332]
$LN83@read_KeyWr:
  00217	f3 0f 7e 00	 movq	 xmm0, QWORD PTR [eax]
  0021b	66 0f d6 44 24
	14		 movq	 QWORD PTR _IV$[esp+260], xmm0
  00221	f3 0f 7e 40 08	 movq	 xmm0, QWORD PTR [eax+8]
  00226	66 0f d6 44 24
	1c		 movq	 QWORD PTR _IV$[esp+268], xmm0

; 387  : 			_pwri_kek->ke_AES_CBC192.Set_AES(IV);

  0022c	66 0f 6f 44 24
	14		 movdqa	 xmm0, XMMWORD PTR _IV$[esp+260]
  00232	68 00 00 00 00	 push	 OFFSET ?ke_AES_CBC192@PWRI_KEK@@2VAES_CBC192@@A ; PWRI_KEK::ke_AES_CBC192
  00237	e8 00 00 00 00	 call	 ?Set_AES@AES_CBC@@QAEXT__m128i@@@Z ; AES_CBC::Set_AES

; 388  : 			cKE = &_pwri_kek->ke_AES_CBC192;

  0023c	be 00 00 00 00	 mov	 esi, OFFSET ?ke_AES_CBC192@PWRI_KEK@@2VAES_CBC192@@A ; PWRI_KEK::ke_AES_CBC192
  00241	eb 63		 jmp	 SHORT $LN2@read_KeyWr
$LN5@read_KeyWr:

; 389  : 		} else if(_pwri_kek->ke_AES_CBC256.Check_OID(&_oid) != -1){

  00243	8d 94 24 8c 00
	00 00		 lea	 edx, DWORD PTR __oid$[esp+260]
  0024a	52		 push	 edx
  0024b	68 00 00 00 00	 push	 OFFSET ?ke_AES_CBC256@PWRI_KEK@@2VAES_CBC256@@A ; PWRI_KEK::ke_AES_CBC256
  00250	e8 00 00 00 00	 call	 ?Check_OID@AlgorithmIdentifier@@QAEHPAVObjectIdentifier@@@Z ; AlgorithmIdentifier::Check_OID
  00255	83 f8 ff	 cmp	 eax, -1
  00258	0f 84 32 01 00
	00		 je	 $LN3@read_KeyWr

; 390  : 			read_Octet_Strings(&_IV);

  0025e	8d 44 24 2c	 lea	 eax, DWORD PTR __IV$[esp+260]
  00262	50		 push	 eax
  00263	8b c6		 mov	 eax, esi
  00265	e8 00 00 00 00	 call	 ?read_Octet_Strings@BER_Input@@QAEIPAVOctetString@@@Z ; BER_Input::read_Octet_Strings

; 391  : 			memcpy(&IV, _IV.strValue.c_str(), sizeof(__m128i));

  0026a	83 bc 24 88 00
	00 00 10	 cmp	 DWORD PTR __IV$[esp+352], 16 ; 00000010H
  00272	8b 44 24 74	 mov	 eax, DWORD PTR __IV$[esp+332]
  00276	73 04		 jae	 SHORT $LN89@read_KeyWr
  00278	8d 44 24 74	 lea	 eax, DWORD PTR __IV$[esp+332]
$LN89@read_KeyWr:
  0027c	f3 0f 7e 00	 movq	 xmm0, QWORD PTR [eax]
  00280	66 0f d6 44 24
	14		 movq	 QWORD PTR _IV$[esp+260], xmm0
  00286	f3 0f 7e 40 08	 movq	 xmm0, QWORD PTR [eax+8]
  0028b	66 0f d6 44 24
	1c		 movq	 QWORD PTR _IV$[esp+268], xmm0

; 392  : 			_pwri_kek->ke_AES_CBC256.Set_AES(IV);

  00291	66 0f 6f 44 24
	14		 movdqa	 xmm0, XMMWORD PTR _IV$[esp+260]
  00297	68 00 00 00 00	 push	 OFFSET ?ke_AES_CBC256@PWRI_KEK@@2VAES_CBC256@@A ; PWRI_KEK::ke_AES_CBC256
  0029c	e8 00 00 00 00	 call	 ?Set_AES@AES_CBC@@QAEXT__m128i@@@Z ; AES_CBC::Set_AES

; 393  : 			cKE = &_pwri_kek->ke_AES_CBC256;

  002a1	be 00 00 00 00	 mov	 esi, OFFSET ?ke_AES_CBC256@PWRI_KEK@@2VAES_CBC256@@A ; PWRI_KEK::ke_AES_CBC256
$LN2@read_KeyWr:

; 396  : 		}
; 397  : 
; 398  : 		if(cKE->szBlock != _IV.strValue.size()){

  002a6	8b 8e a0 00 00
	00		 mov	 ecx, DWORD PTR [esi+160]
  002ac	3b 8c 24 84 00
	00 00		 cmp	 ecx, DWORD PTR __IV$[esp+348]
  002b3	74 0f		 je	 SHORT $LN1@read_KeyWr

; 399  : 			errPrint("contentEncryptionAlgorithm",": Different Parameter size.");

  002b5	b8 00 00 00 00	 mov	 eax, OFFSET ??_C@_0BM@DAAFFJKG@?3?5Different?5Parameter?5size?4?$AA@
  002ba	b9 00 00 00 00	 mov	 ecx, OFFSET ??_C@_0BL@JFGGCGJK@contentEncryptionAlgorithm?$AA@
  002bf	e8 00 00 00 00	 call	 ?errPrint@@YAXPBD0@Z	; errPrint
$LN139@read_KeyWr:
$LN1@read_KeyWr:

; 400  : 		}
; 401  : 
; 402  : 	_pwri_kek->keyWrapAlgorithm = cKE;
; 403  : 	_pwri_kek->szKey = cKE->szKey;
; 404  : 
; 405  : 	return(cKE);

  002c4	83 bc 24 88 00
	00 00 10	 cmp	 DWORD PTR __IV$[esp+352], 16 ; 00000010H
  002cc	89 b7 a8 00 00
	00		 mov	 DWORD PTR [edi+168], esi
  002d2	8b 96 a4 00 00
	00		 mov	 edx, DWORD PTR [esi+164]
  002d8	89 97 a4 00 00
	00		 mov	 DWORD PTR [edi+164], edx
  002de	c7 44 24 2c 00
	00 00 00	 mov	 DWORD PTR __IV$[esp+260], OFFSET ??_7OctetString@@6B@
  002e6	72 0d		 jb	 SHORT $LN110@read_KeyWr
  002e8	8b 44 24 74	 mov	 eax, DWORD PTR __IV$[esp+332]
  002ec	50		 push	 eax
  002ed	e8 00 00 00 00	 call	 ??3@YAXPAX@Z		; operator delete
  002f2	83 c4 04	 add	 esp, 4
$LN110@read_KeyWr:
  002f5	8d 7c 24 2c	 lea	 edi, DWORD PTR __IV$[esp+260]
  002f9	c7 84 24 88 00
	00 00 0f 00 00
	00		 mov	 DWORD PTR __IV$[esp+352], 15 ; 0000000fH
  00304	c7 84 24 84 00
	00 00 00 00 00
	00		 mov	 DWORD PTR __IV$[esp+348], 0
  0030f	c6 44 24 74 00	 mov	 BYTE PTR __IV$[esp+332], 0
  00314	e8 00 00 00 00	 call	 ??1ASN1@@QAE@XZ		; ASN1::~ASN1
  00319	8b 84 24 dc 00
	00 00		 mov	 eax, DWORD PTR __oid$[esp+340]
  00320	33 ff		 xor	 edi, edi
  00322	c7 84 24 8c 00
	00 00 00 00 00
	00		 mov	 DWORD PTR __oid$[esp+260], OFFSET ??_7ObjectIdentifier@@6B@
  0032d	3b c7		 cmp	 eax, edi
  0032f	74 09		 je	 SHORT $LN127@read_KeyWr
  00331	50		 push	 eax
  00332	e8 00 00 00 00	 call	 ??3@YAXPAX@Z		; operator delete
  00337	83 c4 04	 add	 esp, 4
$LN127@read_KeyWr:
  0033a	8b 8c 24 d0 00
	00 00		 mov	 ecx, DWORD PTR __oid$[esp+328]
  00341	51		 push	 ecx
  00342	89 bc 24 e0 00
	00 00		 mov	 DWORD PTR __oid$[esp+344], edi
  00349	89 bc 24 e4 00
	00 00		 mov	 DWORD PTR __oid$[esp+348], edi
  00350	89 bc 24 e8 00
	00 00		 mov	 DWORD PTR __oid$[esp+352], edi
  00357	e8 00 00 00 00	 call	 ??3@YAXPAX@Z		; operator delete
  0035c	83 c4 04	 add	 esp, 4
  0035f	8d bc 24 8c 00
	00 00		 lea	 edi, DWORD PTR __oid$[esp+260]
  00366	e8 00 00 00 00	 call	 ??1ASN1@@QAE@XZ		; ASN1::~ASN1
  0036b	8b c6		 mov	 eax, esi

; 406  : }

  0036d	8b 8c 24 f8 00
	00 00		 mov	 ecx, DWORD PTR __$EHRec$[esp+260]
  00374	64 89 0d 00 00
	00 00		 mov	 DWORD PTR fs:0, ecx
  0037b	59		 pop	 ecx
  0037c	5f		 pop	 edi
  0037d	5e		 pop	 esi
  0037e	8b 8c 24 e4 00
	00 00		 mov	 ecx, DWORD PTR __$ArrayPad$[esp+248]
  00385	33 cc		 xor	 ecx, esp
  00387	e8 00 00 00 00	 call	 @__security_check_cookie@4
  0038c	8b e5		 mov	 esp, ebp
  0038e	5d		 pop	 ebp
  0038f	c3		 ret	 0
$LN3@read_KeyWr:

; 394  : 		} else {
; 395  : 			errPrint("contentEncryptionAlgorithm",": Unknown encryption algorithm.");

  00390	b8 00 00 00 00	 mov	 eax, OFFSET ??_C@_0CA@BPHDHPBC@?3?5Unknown?5encryption?5algorithm?4?$AA@
  00395	b9 00 00 00 00	 mov	 ecx, OFFSET ??_C@_0BL@JFGGCGJK@contentEncryptionAlgorithm?$AA@
  0039a	e8 00 00 00 00	 call	 ?errPrint@@YAXPBD0@Z	; errPrint
$LN140@read_KeyWr:

; 358  : 	__m128i			IV;
; 359  : 
; 360  : 	Encryption*	cKE;
; 361  : 
; 362  : 	//EncryptionAlgorithm
; 363  : 	//SEQUENCE
; 364  : 	read_TAG_with_Check(BER_Class_General, true, BER_TAG_SEQUENCE);

$LN52@read_KeyWr:
  0039f	a1 00 00 00 00	 mov	 eax, DWORD PTR ?msg_err@?1??DecodeError@BER_Input@@QAEXI@Z@4QBQBDB
  003a4	b9 00 00 00 00	 mov	 ecx, OFFSET ??_C@_0BJ@HKJKLLAJ@ASN?41?5BER?5Decode?5Error?5?3?$AA@
  003a9	e8 00 00 00 00	 call	 ?errPrint@@YAXPBD0@Z	; errPrint
$LN141@read_KeyWr:
$LN138@read_KeyWr:
  003ae	cc		 int	 3
_TEXT	ENDS
;	COMDAT text$x
text$x	SEGMENT
__unwindfunclet$?read_KeyWrapAlgorithm@PKCS7_Input@@QAEPAVEncryption@@PAVPWRI_KEK@@@Z$0:
  00000	8d 45 88	 lea	 eax, DWORD PTR __oid$[ebp]
  00003	e9 00 00 00 00	 jmp	 ??1ObjectIdentifier@@QAE@XZ ; ObjectIdentifier::~ObjectIdentifier
__unwindfunclet$?read_KeyWrapAlgorithm@PKCS7_Input@@QAEPAVEncryption@@PAVPWRI_KEK@@@Z$1:
  00008	8d 85 28 ff ff
	ff		 lea	 eax, DWORD PTR __IV$[ebp]
  0000e	e9 00 00 00 00	 jmp	 ??1OctetString@@QAE@XZ	; OctetString::~OctetString
__ehhandler$?read_KeyWrapAlgorithm@PKCS7_Input@@QAEPAVEncryption@@PAVPWRI_KEK@@@Z:
  00013	8b 54 24 08	 mov	 edx, DWORD PTR [esp+8]
  00017	8d 82 0c ff ff
	ff		 lea	 eax, DWORD PTR [edx-244]
  0001d	8b 8a 08 ff ff
	ff		 mov	 ecx, DWORD PTR [edx-248]
  00023	33 c8		 xor	 ecx, eax
  00025	e8 00 00 00 00	 call	 @__security_check_cookie@4
  0002a	83 c0 08	 add	 eax, 8
  0002d	8b 4a f8	 mov	 ecx, DWORD PTR [edx-8]
  00030	33 c8		 xor	 ecx, eax
  00032	e8 00 00 00 00	 call	 @__security_check_cookie@4
  00037	b8 00 00 00 00	 mov	 eax, OFFSET __ehfuncinfo$?read_KeyWrapAlgorithm@PKCS7_Input@@QAEPAVEncryption@@PAVPWRI_KEK@@@Z
  0003c	e9 00 00 00 00	 jmp	 ___CxxFrameHandler3
text$x	ENDS
?read_KeyWrapAlgorithm@PKCS7_Input@@QAEPAVEncryption@@PAVPWRI_KEK@@@Z ENDP ; PKCS7_Input::read_KeyWrapAlgorithm
PUBLIC	__$ArrayPad$
PUBLIC	?read_ContentEncryptionAlgorithm@PKCS7_Input@@QAEPAVEncryption@@XZ ; PKCS7_Input::read_ContentEncryptionAlgorithm
;	COMDAT xdata$x
; File c:\program files\microsoft visual studio 9.0\vc\include\xutility
xdata$x	SEGMENT
__unwindtable$?read_ContentEncryptionAlgorithm@PKCS7_Input@@QAEPAVEncryption@@XZ DD 0ffffffffH
	DD	FLAT:__unwindfunclet$?read_ContentEncryptionAlgorithm@PKCS7_Input@@QAEPAVEncryption@@XZ$0
	DD	00H
	DD	FLAT:__unwindfunclet$?read_ContentEncryptionAlgorithm@PKCS7_Input@@QAEPAVEncryption@@XZ$1
__ehfuncinfo$?read_ContentEncryptionAlgorithm@PKCS7_Input@@QAEPAVEncryption@@XZ DD 019930522H
	DD	02H
	DD	FLAT:__unwindtable$?read_ContentEncryptionAlgorithm@PKCS7_Input@@QAEPAVEncryption@@XZ
	DD	2 DUP(00H)
	DD	2 DUP(00H)
	DD	00H
	DD	01H
; Function compile flags: /Ogtpy
; File i:\“n•”“ÄŽj\my project\cms\cms\asn1\pkcs7\pkcs7_input.cpp
xdata$x	ENDS
;	COMDAT ?read_ContentEncryptionAlgorithm@PKCS7_Input@@QAEPAVEncryption@@XZ
_TEXT	SEGMENT
_read_class$105685 = -246				; size = 1
_read_fStruct$105686 = -245				; size = 1
_read_tag$105684 = -244					; size = 4
_IV$ = -240						; size = 16
__IV$ = -216						; size = 96
_oid_algCE$ = -120					; size = 92
__$ArrayPad$ = -20					; size = 4
__$EHRec$ = -12						; size = 12
?read_ContentEncryptionAlgorithm@PKCS7_Input@@QAEPAVEncryption@@XZ PROC ; PKCS7_Input::read_ContentEncryptionAlgorithm, COMDAT
; _this$ = ecx

; 289  : {

  00000	55		 push	 ebp
  00001	8b ec		 mov	 ebp, esp
  00003	83 e4 f0	 and	 esp, -16		; fffffff0H
  00006	6a ff		 push	 -1
  00008	68 00 00 00 00	 push	 __ehhandler$?read_ContentEncryptionAlgorithm@PKCS7_Input@@QAEPAVEncryption@@XZ
  0000d	64 a1 00 00 00
	00		 mov	 eax, DWORD PTR fs:0
  00013	50		 push	 eax
  00014	81 ec ec 00 00
	00		 sub	 esp, 236		; 000000ecH
  0001a	a1 00 00 00 00	 mov	 eax, DWORD PTR ___security_cookie
  0001f	33 c4		 xor	 eax, esp
  00021	89 84 24 e4 00
	00 00		 mov	 DWORD PTR __$ArrayPad$[esp+248], eax
  00028	56		 push	 esi
  00029	57		 push	 edi
  0002a	a1 00 00 00 00	 mov	 eax, DWORD PTR ___security_cookie
  0002f	33 c4		 xor	 eax, esp
  00031	50		 push	 eax
  00032	8d 84 24 f8 00
	00 00		 lea	 eax, DWORD PTR __$EHRec$[esp+260]
  00039	64 a3 00 00 00
	00		 mov	 DWORD PTR fs:0, eax

; 290  : 	//contentType ContentType,
; 291  : 	ObjectIdentifier		oid_algCE;

  0003f	8d 84 24 8c 00
	00 00		 lea	 eax, DWORD PTR _oid_algCE$[esp+260]
  00046	50		 push	 eax
  00047	8b f1		 mov	 esi, ecx
  00049	e8 00 00 00 00	 call	 ??0ObjectIdentifier@@QAE@QBD@Z ; ObjectIdentifier::ObjectIdentifier

; 292  : 
; 293  : 	OctetString		_IV;

  0004e	68 00 00 00 00	 push	 OFFSET ??_C@_0N@DHPBPBEA@Octet?5String?$AA@
  00053	8d 4c 24 30	 lea	 ecx, DWORD PTR __IV$[esp+264]
  00057	33 ff		 xor	 edi, edi
  00059	51		 push	 ecx
  0005a	89 bc 24 08 01
	00 00		 mov	 DWORD PTR __$EHRec$[esp+276], edi
  00061	e8 00 00 00 00	 call	 ??0ASN1@@QAE@QBD@Z	; ASN1::ASN1
  00066	c7 44 24 2c 00
	00 00 00	 mov	 DWORD PTR __IV$[esp+260], OFFSET ??_7OctetString@@6B@
  0006e	c7 84 24 88 00
	00 00 0f 00 00
	00		 mov	 DWORD PTR __IV$[esp+352], 15 ; 0000000fH
  00079	89 bc 24 84 00
	00 00		 mov	 DWORD PTR __IV$[esp+348], edi
  00080	c6 44 24 74 00	 mov	 BYTE PTR __IV$[esp+332], 0

; 294  : 	__m128i			IV;
; 295  : 
; 296  : 	Encryption*	cCE;
; 297  : 
; 298  : 	//EncryptionAlgorithm
; 299  : 	//SEQUENCE
; 300  : 	read_TAG_with_Check(BER_Class_General, true, BER_TAG_SEQUENCE);

  00085	8d 54 24 10	 lea	 edx, DWORD PTR _read_tag$105684[esp+260]
  00089	52		 push	 edx
  0008a	8d 44 24 13	 lea	 eax, DWORD PTR _read_fStruct$105686[esp+264]
  0008e	50		 push	 eax
  0008f	8d 4c 24 16	 lea	 ecx, DWORD PTR _read_class$105685[esp+268]
  00093	81 c6 d0 03 00
	00		 add	 esi, 976		; 000003d0H
  00099	51		 push	 ecx
  0009a	c6 84 24 0c 01
	00 00 01	 mov	 BYTE PTR __$EHRec$[esp+280], 1
  000a2	e8 00 00 00 00	 call	 ?read_TAG@BER_Input@@QAEIPAEPA_NPAI@Z ; BER_Input::read_TAG
  000a7	80 7c 24 0e 00	 cmp	 BYTE PTR _read_class$105685[esp+260], 0
  000ac	0f 85 d1 02 00
	00		 jne	 $LN52@read_Conte
  000b2	bf 10 00 00 00	 mov	 edi, 16			; 00000010H
  000b7	39 7c 24 10	 cmp	 DWORD PTR _read_tag$105684[esp+260], edi
  000bb	0f 85 c2 02 00
	00		 jne	 $LN52@read_Conte
  000c1	80 7c 24 0f 01	 cmp	 BYTE PTR _read_fStruct$105686[esp+260], 1
  000c6	0f 85 b7 02 00
	00		 jne	 $LN52@read_Conte

; 301  : 		//algorithm OBJECT IDENTIFIER
; 302  : 		read_Object_Identifier(&oid_algCE);

  000cc	8d 94 24 8c 00
	00 00		 lea	 edx, DWORD PTR _oid_algCE$[esp+260]
  000d3	52		 push	 edx
  000d4	56		 push	 esi
  000d5	e8 00 00 00 00	 call	 ?read_Object_Identifier@BER_Input@@QAEIPAVObjectIdentifier@@@Z ; BER_Input::read_Object_Identifier

; 303  : 		//ˆÃ†—˜—pƒ‚[ƒh, ‰Šú‰»ƒxƒNƒ^IV ‚ðAÝ’è
; 304  : 		//’Ç‰Á‚ÌˆÃ†ƒAƒ‹ƒSƒŠƒYƒ€‚ª‚ ‚éê‡‚ÍA‚±‚±‚É’Ç‰ÁB
; 305  : 		if(cDES_CBC.Check_OID(&oid_algCE) != -1){

  000da	8d 84 24 8c 00
	00 00		 lea	 eax, DWORD PTR _oid_algCE$[esp+260]
  000e1	50		 push	 eax
  000e2	68 00 00 00 00	 push	 OFFSET ?cDES_CBC@PKCS7@@2VDES_CBC@@A ; PKCS7::cDES_CBC
  000e7	e8 00 00 00 00	 call	 ?Check_OID@AlgorithmIdentifier@@QAEHPAVObjectIdentifier@@@Z ; AlgorithmIdentifier::Check_OID
  000ec	83 f8 ff	 cmp	 eax, -1
  000ef	74 38		 je	 SHORT $LN11@read_Conte

; 306  : 			read_Octet_Strings(&_IV);

  000f1	8d 4c 24 2c	 lea	 ecx, DWORD PTR __IV$[esp+260]
  000f5	51		 push	 ecx
  000f6	8b c6		 mov	 eax, esi
  000f8	e8 00 00 00 00	 call	 ?read_Octet_Strings@BER_Input@@QAEIPAVOctetString@@@Z ; BER_Input::read_Octet_Strings

; 307  : 			memcpy(&IV, _IV.strValue.c_str(), sizeof(__int64));

  000fd	8b 44 24 74	 mov	 eax, DWORD PTR __IV$[esp+332]
  00101	39 bc 24 88 00
	00 00		 cmp	 DWORD PTR __IV$[esp+352], edi
  00108	73 04		 jae	 SHORT $LN65@read_Conte
  0010a	8d 44 24 74	 lea	 eax, DWORD PTR __IV$[esp+332]
$LN65@read_Conte:
  0010e	8b 08		 mov	 ecx, DWORD PTR [eax]
  00110	8b 40 04	 mov	 eax, DWORD PTR [eax+4]

; 308  : 			cDES_CBC.Set_DES(IV.m128i_i64[0]);

  00113	50		 push	 eax
  00114	51		 push	 ecx
  00115	68 00 00 00 00	 push	 OFFSET ?cDES_CBC@PKCS7@@2VDES_CBC@@A ; PKCS7::cDES_CBC
  0011a	e8 00 00 00 00	 call	 ?Set_DES@DES_CBC@@QAEX_K@Z ; DES_CBC::Set_DES

; 309  : 			cCE = &cDES_CBC;

  0011f	be 00 00 00 00	 mov	 esi, OFFSET ?cDES_CBC@PKCS7@@2VDES_CBC@@A ; PKCS7::cDES_CBC
  00124	e9 74 01 00 00	 jmp	 $LN2@read_Conte
$LN11@read_Conte:

; 310  : 		} else if(cTDES_CBC.Check_OID(&oid_algCE) != -1){

  00129	8d 94 24 8c 00
	00 00		 lea	 edx, DWORD PTR _oid_algCE$[esp+260]
  00130	52		 push	 edx
  00131	68 00 00 00 00	 push	 OFFSET ?cTDES_CBC@PKCS7@@2VDES_EDE3_CBC@@A ; PKCS7::cTDES_CBC
  00136	e8 00 00 00 00	 call	 ?Check_OID@AlgorithmIdentifier@@QAEHPAVObjectIdentifier@@@Z ; AlgorithmIdentifier::Check_OID
  0013b	83 f8 ff	 cmp	 eax, -1
  0013e	74 38		 je	 SHORT $LN9@read_Conte

; 311  : 			read_Octet_Strings(&_IV);

  00140	8d 44 24 2c	 lea	 eax, DWORD PTR __IV$[esp+260]
  00144	50		 push	 eax
  00145	8b c6		 mov	 eax, esi
  00147	e8 00 00 00 00	 call	 ?read_Octet_Strings@BER_Input@@QAEIPAVOctetString@@@Z ; BER_Input::read_Octet_Strings

; 312  : 			memcpy(&IV, _IV.strValue.c_str(), sizeof(__int64));

  0014c	8b 44 24 74	 mov	 eax, DWORD PTR __IV$[esp+332]
  00150	39 bc 24 88 00
	00 00		 cmp	 DWORD PTR __IV$[esp+352], edi
  00157	73 04		 jae	 SHORT $LN71@read_Conte
  00159	8d 44 24 74	 lea	 eax, DWORD PTR __IV$[esp+332]
$LN71@read_Conte:
  0015d	8b 08		 mov	 ecx, DWORD PTR [eax]
  0015f	8b 40 04	 mov	 eax, DWORD PTR [eax+4]

; 313  : 			cTDES_CBC.Set_DES(IV.m128i_i64[0]);

  00162	50		 push	 eax
  00163	51		 push	 ecx
  00164	68 00 00 00 00	 push	 OFFSET ?cTDES_CBC@PKCS7@@2VDES_EDE3_CBC@@A ; PKCS7::cTDES_CBC
  00169	e8 00 00 00 00	 call	 ?Set_DES@DES_EDE3_CBC@@QAEX_K@Z ; DES_EDE3_CBC::Set_DES

; 314  : 			cCE = &cTDES_CBC;

  0016e	be 00 00 00 00	 mov	 esi, OFFSET ?cTDES_CBC@PKCS7@@2VDES_EDE3_CBC@@A ; PKCS7::cTDES_CBC
  00173	e9 25 01 00 00	 jmp	 $LN2@read_Conte
$LN9@read_Conte:

; 315  : 		} else if(cAES_CBC128.Check_OID(&oid_algCE) != -1){

  00178	8d 8c 24 8c 00
	00 00		 lea	 ecx, DWORD PTR _oid_algCE$[esp+260]
  0017f	51		 push	 ecx
  00180	68 00 00 00 00	 push	 OFFSET ?cAES_CBC128@PKCS7@@2VAES_CBC128@@A ; PKCS7::cAES_CBC128
  00185	e8 00 00 00 00	 call	 ?Check_OID@AlgorithmIdentifier@@QAEHPAVObjectIdentifier@@@Z ; AlgorithmIdentifier::Check_OID
  0018a	83 f8 ff	 cmp	 eax, -1
  0018d	74 4c		 je	 SHORT $LN7@read_Conte

; 316  : 			read_Octet_Strings(&_IV);

  0018f	8d 54 24 2c	 lea	 edx, DWORD PTR __IV$[esp+260]
  00193	52		 push	 edx
  00194	8b c6		 mov	 eax, esi
  00196	e8 00 00 00 00	 call	 ?read_Octet_Strings@BER_Input@@QAEIPAVOctetString@@@Z ; BER_Input::read_Octet_Strings

; 317  : 			memcpy(&IV, _IV.strValue.c_str(), sizeof(__m128i));

  0019b	8b 44 24 74	 mov	 eax, DWORD PTR __IV$[esp+332]
  0019f	39 bc 24 88 00
	00 00		 cmp	 DWORD PTR __IV$[esp+352], edi
  001a6	73 04		 jae	 SHORT $LN77@read_Conte
  001a8	8d 44 24 74	 lea	 eax, DWORD PTR __IV$[esp+332]
$LN77@read_Conte:
  001ac	f3 0f 7e 00	 movq	 xmm0, QWORD PTR [eax]
  001b0	66 0f d6 44 24
	14		 movq	 QWORD PTR _IV$[esp+260], xmm0
  001b6	f3 0f 7e 40 08	 movq	 xmm0, QWORD PTR [eax+8]
  001bb	66 0f d6 44 24
	1c		 movq	 QWORD PTR _IV$[esp+268], xmm0

; 318  : 			cAES_CBC128.Set_AES(IV);

  001c1	66 0f 6f 44 24
	14		 movdqa	 xmm0, XMMWORD PTR _IV$[esp+260]
  001c7	68 00 00 00 00	 push	 OFFSET ?cAES_CBC128@PKCS7@@2VAES_CBC128@@A ; PKCS7::cAES_CBC128
  001cc	e8 00 00 00 00	 call	 ?Set_AES@AES_CBC@@QAEXT__m128i@@@Z ; AES_CBC::Set_AES

; 319  : 			cCE = &cAES_CBC128;

  001d1	be 00 00 00 00	 mov	 esi, OFFSET ?cAES_CBC128@PKCS7@@2VAES_CBC128@@A ; PKCS7::cAES_CBC128
  001d6	e9 c2 00 00 00	 jmp	 $LN2@read_Conte
$LN7@read_Conte:

; 320  : 		} else if(cAES_CBC192.Check_OID(&oid_algCE) != -1){

  001db	8d 84 24 8c 00
	00 00		 lea	 eax, DWORD PTR _oid_algCE$[esp+260]
  001e2	50		 push	 eax
  001e3	68 00 00 00 00	 push	 OFFSET ?cAES_CBC192@PKCS7@@2VAES_CBC192@@A ; PKCS7::cAES_CBC192
  001e8	e8 00 00 00 00	 call	 ?Check_OID@AlgorithmIdentifier@@QAEHPAVObjectIdentifier@@@Z ; AlgorithmIdentifier::Check_OID
  001ed	83 f8 ff	 cmp	 eax, -1
  001f0	74 49		 je	 SHORT $LN5@read_Conte

; 321  : 			read_Octet_Strings(&_IV);

  001f2	8d 4c 24 2c	 lea	 ecx, DWORD PTR __IV$[esp+260]
  001f6	51		 push	 ecx
  001f7	8b c6		 mov	 eax, esi
  001f9	e8 00 00 00 00	 call	 ?read_Octet_Strings@BER_Input@@QAEIPAVOctetString@@@Z ; BER_Input::read_Octet_Strings

; 322  : 			memcpy(&IV, _IV.strValue.c_str(), sizeof(__m128i));

  001fe	8b 44 24 74	 mov	 eax, DWORD PTR __IV$[esp+332]
  00202	39 bc 24 88 00
	00 00		 cmp	 DWORD PTR __IV$[esp+352], edi
  00209	73 04		 jae	 SHORT $LN83@read_Conte
  0020b	8d 44 24 74	 lea	 eax, DWORD PTR __IV$[esp+332]
$LN83@read_Conte:
  0020f	f3 0f 7e 00	 movq	 xmm0, QWORD PTR [eax]
  00213	66 0f d6 44 24
	14		 movq	 QWORD PTR _IV$[esp+260], xmm0
  00219	f3 0f 7e 40 08	 movq	 xmm0, QWORD PTR [eax+8]
  0021e	66 0f d6 44 24
	1c		 movq	 QWORD PTR _IV$[esp+268], xmm0

; 323  : 			cAES_CBC192.Set_AES(IV);

  00224	66 0f 6f 44 24
	14		 movdqa	 xmm0, XMMWORD PTR _IV$[esp+260]
  0022a	68 00 00 00 00	 push	 OFFSET ?cAES_CBC192@PKCS7@@2VAES_CBC192@@A ; PKCS7::cAES_CBC192
  0022f	e8 00 00 00 00	 call	 ?Set_AES@AES_CBC@@QAEXT__m128i@@@Z ; AES_CBC::Set_AES

; 324  : 			cCE = &cAES_CBC192;

  00234	be 00 00 00 00	 mov	 esi, OFFSET ?cAES_CBC192@PKCS7@@2VAES_CBC192@@A ; PKCS7::cAES_CBC192
  00239	eb 62		 jmp	 SHORT $LN2@read_Conte
$LN5@read_Conte:

; 325  : 		} else if(cAES_CBC256.Check_OID(&oid_algCE) != -1){

  0023b	8d 94 24 8c 00
	00 00		 lea	 edx, DWORD PTR _oid_algCE$[esp+260]
  00242	52		 push	 edx
  00243	68 00 00 00 00	 push	 OFFSET ?cAES_CBC256@PKCS7@@2VAES_CBC256@@A ; PKCS7::cAES_CBC256
  00248	e8 00 00 00 00	 call	 ?Check_OID@AlgorithmIdentifier@@QAEHPAVObjectIdentifier@@@Z ; AlgorithmIdentifier::Check_OID
  0024d	83 f8 ff	 cmp	 eax, -1
  00250	0f 84 1e 01 00
	00		 je	 $LN3@read_Conte

; 326  : 			read_Octet_Strings(&_IV);

  00256	8d 44 24 2c	 lea	 eax, DWORD PTR __IV$[esp+260]
  0025a	50		 push	 eax
  0025b	8b c6		 mov	 eax, esi
  0025d	e8 00 00 00 00	 call	 ?read_Octet_Strings@BER_Input@@QAEIPAVOctetString@@@Z ; BER_Input::read_Octet_Strings

; 327  : 			memcpy(&IV, _IV.strValue.c_str(), sizeof(__m128i));

  00262	8b 44 24 74	 mov	 eax, DWORD PTR __IV$[esp+332]
  00266	39 bc 24 88 00
	00 00		 cmp	 DWORD PTR __IV$[esp+352], edi
  0026d	73 04		 jae	 SHORT $LN89@read_Conte
  0026f	8d 44 24 74	 lea	 eax, DWORD PTR __IV$[esp+332]
$LN89@read_Conte:
  00273	f3 0f 7e 00	 movq	 xmm0, QWORD PTR [eax]
  00277	66 0f d6 44 24
	14		 movq	 QWORD PTR _IV$[esp+260], xmm0
  0027d	f3 0f 7e 40 08	 movq	 xmm0, QWORD PTR [eax+8]
  00282	66 0f d6 44 24
	1c		 movq	 QWORD PTR _IV$[esp+268], xmm0

; 328  : 			cAES_CBC256.Set_AES(IV);

  00288	66 0f 6f 44 24
	14		 movdqa	 xmm0, XMMWORD PTR _IV$[esp+260]
  0028e	68 00 00 00 00	 push	 OFFSET ?cAES_CBC256@PKCS7@@2VAES_CBC256@@A ; PKCS7::cAES_CBC256
  00293	e8 00 00 00 00	 call	 ?Set_AES@AES_CBC@@QAEXT__m128i@@@Z ; AES_CBC::Set_AES

; 329  : 			cCE = &cAES_CBC256;

  00298	be 00 00 00 00	 mov	 esi, OFFSET ?cAES_CBC256@PKCS7@@2VAES_CBC256@@A ; PKCS7::cAES_CBC256
$LN2@read_Conte:

; 332  : 		}
; 333  : 
; 334  : 		if(cCE->szBlock != _IV.strValue.size()){

  0029d	8b 8e a0 00 00
	00		 mov	 ecx, DWORD PTR [esi+160]
  002a3	3b 8c 24 84 00
	00 00		 cmp	 ecx, DWORD PTR __IV$[esp+348]
  002aa	74 0f		 je	 SHORT $LN1@read_Conte

; 335  : 			errPrint("contentEncryptionAlgorithm",": Different Parameter size.");

  002ac	b8 00 00 00 00	 mov	 eax, OFFSET ??_C@_0BM@DAAFFJKG@?3?5Different?5Parameter?5size?4?$AA@
  002b1	b9 00 00 00 00	 mov	 ecx, OFFSET ??_C@_0BL@JFGGCGJK@contentEncryptionAlgorithm?$AA@
  002b6	e8 00 00 00 00	 call	 ?errPrint@@YAXPBD0@Z	; errPrint
$LN139@read_Conte:
$LN1@read_Conte:

; 336  : 		}
; 337  : 
; 338  : 	return(cCE);

  002bb	c7 44 24 2c 00
	00 00 00	 mov	 DWORD PTR __IV$[esp+260], OFFSET ??_7OctetString@@6B@
  002c3	39 bc 24 88 00
	00 00		 cmp	 DWORD PTR __IV$[esp+352], edi
  002ca	72 0d		 jb	 SHORT $LN110@read_Conte
  002cc	8b 54 24 74	 mov	 edx, DWORD PTR __IV$[esp+332]
  002d0	52		 push	 edx
  002d1	e8 00 00 00 00	 call	 ??3@YAXPAX@Z		; operator delete
  002d6	83 c4 04	 add	 esp, 4
$LN110@read_Conte:
  002d9	8d 7c 24 2c	 lea	 edi, DWORD PTR __IV$[esp+260]
  002dd	c7 84 24 88 00
	00 00 0f 00 00
	00		 mov	 DWORD PTR __IV$[esp+352], 15 ; 0000000fH
  002e8	c7 84 24 84 00
	00 00 00 00 00
	00		 mov	 DWORD PTR __IV$[esp+348], 0
  002f3	c6 44 24 74 00	 mov	 BYTE PTR __IV$[esp+332], 0
  002f8	e8 00 00 00 00	 call	 ??1ASN1@@QAE@XZ		; ASN1::~ASN1
  002fd	8b 84 24 dc 00
	00 00		 mov	 eax, DWORD PTR _oid_algCE$[esp+340]
  00304	33 ff		 xor	 edi, edi
  00306	c7 84 24 8c 00
	00 00 00 00 00
	00		 mov	 DWORD PTR _oid_algCE$[esp+260], OFFSET ??_7ObjectIdentifier@@6B@
  00311	3b c7		 cmp	 eax, edi
  00313	74 09		 je	 SHORT $LN127@read_Conte
  00315	50		 push	 eax
  00316	e8 00 00 00 00	 call	 ??3@YAXPAX@Z		; operator delete
  0031b	83 c4 04	 add	 esp, 4
$LN127@read_Conte:
  0031e	8b 84 24 d0 00
	00 00		 mov	 eax, DWORD PTR _oid_algCE$[esp+328]
  00325	50		 push	 eax
  00326	89 bc 24 e0 00
	00 00		 mov	 DWORD PTR _oid_algCE$[esp+344], edi
  0032d	89 bc 24 e4 00
	00 00		 mov	 DWORD PTR _oid_algCE$[esp+348], edi
  00334	89 bc 24 e8 00
	00 00		 mov	 DWORD PTR _oid_algCE$[esp+352], edi
  0033b	e8 00 00 00 00	 call	 ??3@YAXPAX@Z		; operator delete
  00340	83 c4 04	 add	 esp, 4
  00343	8d bc 24 8c 00
	00 00		 lea	 edi, DWORD PTR _oid_algCE$[esp+260]
  0034a	e8 00 00 00 00	 call	 ??1ASN1@@QAE@XZ		; ASN1::~ASN1
  0034f	8b c6		 mov	 eax, esi

; 339  : }

  00351	8b 8c 24 f8 00
	00 00		 mov	 ecx, DWORD PTR __$EHRec$[esp+260]
  00358	64 89 0d 00 00
	00 00		 mov	 DWORD PTR fs:0, ecx
  0035f	59		 pop	 ecx
  00360	5f		 pop	 edi
  00361	5e		 pop	 esi
  00362	8b 8c 24 e4 00
	00 00		 mov	 ecx, DWORD PTR __$ArrayPad$[esp+248]
  00369	33 cc		 xor	 ecx, esp
  0036b	e8 00 00 00 00	 call	 @__security_check_cookie@4
  00370	8b e5		 mov	 esp, ebp
  00372	5d		 pop	 ebp
  00373	c3		 ret	 0
$LN3@read_Conte:

; 330  : 		} else {
; 331  : 			errPrint("contentEncryptionAlgorithm",": Unknown encryption algorithm.");

  00374	b8 00 00 00 00	 mov	 eax, OFFSET ??_C@_0CA@BPHDHPBC@?3?5Unknown?5encryption?5algorithm?4?$AA@
  00379	b9 00 00 00 00	 mov	 ecx, OFFSET ??_C@_0BL@JFGGCGJK@contentEncryptionAlgorithm?$AA@
  0037e	e8 00 00 00 00	 call	 ?errPrint@@YAXPBD0@Z	; errPrint
$LN140@read_Conte:

; 294  : 	__m128i			IV;
; 295  : 
; 296  : 	Encryption*	cCE;
; 297  : 
; 298  : 	//EncryptionAlgorithm
; 299  : 	//SEQUENCE
; 300  : 	read_TAG_with_Check(BER_Class_General, true, BER_TAG_SEQUENCE);

$LN52@read_Conte:
  00383	a1 00 00 00 00	 mov	 eax, DWORD PTR ?msg_err@?1??DecodeError@BER_Input@@QAEXI@Z@4QBQBDB
  00388	b9 00 00 00 00	 mov	 ecx, OFFSET ??_C@_0BJ@HKJKLLAJ@ASN?41?5BER?5Decode?5Error?5?3?$AA@
  0038d	e8 00 00 00 00	 call	 ?errPrint@@YAXPBD0@Z	; errPrint
$LN141@read_Conte:
$LN138@read_Conte:
  00392	cc		 int	 3
_TEXT	ENDS
;	COMDAT text$x
text$x	SEGMENT
__unwindfunclet$?read_ContentEncryptionAlgorithm@PKCS7_Input@@QAEPAVEncryption@@XZ$0:
  00000	8d 45 88	 lea	 eax, DWORD PTR _oid_algCE$[ebp]
  00003	e9 00 00 00 00	 jmp	 ??1ObjectIdentifier@@QAE@XZ ; ObjectIdentifier::~ObjectIdentifier
__unwindfunclet$?read_ContentEncryptionAlgorithm@PKCS7_Input@@QAEPAVEncryption@@XZ$1:
  00008	8d 85 28 ff ff
	ff		 lea	 eax, DWORD PTR __IV$[ebp]
  0000e	e9 00 00 00 00	 jmp	 ??1OctetString@@QAE@XZ	; OctetString::~OctetString
__ehhandler$?read_ContentEncryptionAlgorithm@PKCS7_Input@@QAEPAVEncryption@@XZ:
  00013	8b 54 24 08	 mov	 edx, DWORD PTR [esp+8]
  00017	8d 82 0c ff ff
	ff		 lea	 eax, DWORD PTR [edx-244]
  0001d	8b 8a 08 ff ff
	ff		 mov	 ecx, DWORD PTR [edx-248]
  00023	33 c8		 xor	 ecx, eax
  00025	e8 00 00 00 00	 call	 @__security_check_cookie@4
  0002a	83 c0 08	 add	 eax, 8
  0002d	8b 4a f8	 mov	 ecx, DWORD PTR [edx-8]
  00030	33 c8		 xor	 ecx, eax
  00032	e8 00 00 00 00	 call	 @__security_check_cookie@4
  00037	b8 00 00 00 00	 mov	 eax, OFFSET __ehfuncinfo$?read_ContentEncryptionAlgorithm@PKCS7_Input@@QAEPAVEncryption@@XZ
  0003c	e9 00 00 00 00	 jmp	 ___CxxFrameHandler3
text$x	ENDS
?read_ContentEncryptionAlgorithm@PKCS7_Input@@QAEPAVEncryption@@XZ ENDP ; PKCS7_Input::read_ContentEncryptionAlgorithm
PUBLIC	__$ArrayPad$
PUBLIC	?read_HmacAlgorithm@PKCS7_Input@@QAEPAVHMAC@@XZ	; PKCS7_Input::read_HmacAlgorithm
;	COMDAT xdata$x
; File c:\program files\microsoft visual studio 9.0\vc\include\xutility
xdata$x	SEGMENT
__unwindtable$?read_HmacAlgorithm@PKCS7_Input@@QAEPAVHMAC@@XZ DD 0ffffffffH
	DD	FLAT:__unwindfunclet$?read_HmacAlgorithm@PKCS7_Input@@QAEPAVHMAC@@XZ$0
__ehfuncinfo$?read_HmacAlgorithm@PKCS7_Input@@QAEPAVHMAC@@XZ DD 019930522H
	DD	01H
	DD	FLAT:__unwindtable$?read_HmacAlgorithm@PKCS7_Input@@QAEPAVHMAC@@XZ
	DD	2 DUP(00H)
	DD	2 DUP(00H)
	DD	00H
	DD	01H
; Function compile flags: /Ogtpy
; File i:\“n•”“ÄŽj\my project\cms\cms\asn1\pkcs7\pkcs7_input.cpp
xdata$x	ENDS
;	COMDAT ?read_HmacAlgorithm@PKCS7_Input@@QAEPAVHMAC@@XZ
_TEXT	SEGMENT
_read_class$106041 = -118				; size = 1
_read_class$106024 = -118				; size = 1
_read_fStruct$106007 = -118				; size = 1
_read_fStruct$106042 = -117				; size = 1
_read_fStruct$106025 = -117				; size = 1
_read_class$106006 = -117				; size = 1
_read_tag$106040 = -116					; size = 4
_read_tag$106023 = -116					; size = 4
_read_tag$106005 = -116					; size = 4
__oid$ = -112						; size = 92
__$ArrayPad$ = -16					; size = 4
__$EHRec$ = -12						; size = 12
?read_HmacAlgorithm@PKCS7_Input@@QAEPAVHMAC@@XZ PROC	; PKCS7_Input::read_HmacAlgorithm, COMDAT
; _this$ = ecx

; 254  : {

  00000	6a ff		 push	 -1
  00002	68 00 00 00 00	 push	 __ehhandler$?read_HmacAlgorithm@PKCS7_Input@@QAEPAVHMAC@@XZ
  00007	64 a1 00 00 00
	00		 mov	 eax, DWORD PTR fs:0
  0000d	50		 push	 eax
  0000e	83 ec 6c	 sub	 esp, 108		; 0000006cH
  00011	a1 00 00 00 00	 mov	 eax, DWORD PTR ___security_cookie
  00016	33 c4		 xor	 eax, esp
  00018	89 44 24 68	 mov	 DWORD PTR __$ArrayPad$[esp+120], eax
  0001c	53		 push	 ebx
  0001d	55		 push	 ebp
  0001e	56		 push	 esi
  0001f	57		 push	 edi
  00020	a1 00 00 00 00	 mov	 eax, DWORD PTR ___security_cookie
  00025	33 c4		 xor	 eax, esp
  00027	50		 push	 eax
  00028	8d 84 24 80 00
	00 00		 lea	 eax, DWORD PTR __$EHRec$[esp+140]
  0002f	64 a3 00 00 00
	00		 mov	 DWORD PTR fs:0, eax

; 255  : 	//contentType ContentType,
; 256  : 	ObjectIdentifier		_oid;

  00035	8d 44 24 1c	 lea	 eax, DWORD PTR __oid$[esp+140]
  00039	50		 push	 eax
  0003a	8b f9		 mov	 edi, ecx
  0003c	e8 00 00 00 00	 call	 ??0ObjectIdentifier@@QAE@QBD@Z ; ObjectIdentifier::ObjectIdentifier

; 257  : 
; 258  : 	HMAC*					cHMAC;
; 259  : 
; 260  : 	//HMAC Algorithm
; 261  : 	//SEQUENCE
; 262  : 	read_TAG_with_Check(BER_Class_General, true, BER_TAG_SEQUENCE);

  00041	8d 4c 24 18	 lea	 ecx, DWORD PTR _read_tag$106005[esp+140]
  00045	51		 push	 ecx
  00046	8d 54 24 1a	 lea	 edx, DWORD PTR _read_fStruct$106007[esp+144]
  0004a	52		 push	 edx
  0004b	8d 44 24 1f	 lea	 eax, DWORD PTR _read_class$106006[esp+148]
  0004f	33 db		 xor	 ebx, ebx
  00051	8d b7 d0 03 00
	00		 lea	 esi, DWORD PTR [edi+976]
  00057	50		 push	 eax
  00058	89 9c 24 94 00
	00 00		 mov	 DWORD PTR __$EHRec$[esp+160], ebx
  0005f	e8 00 00 00 00	 call	 ?read_TAG@BER_Input@@QAEIPAEPA_NPAI@Z ; BER_Input::read_TAG
  00064	38 5c 24 17	 cmp	 BYTE PTR _read_class$106006[esp+140], bl
  00068	75 56		 jne	 SHORT $LN18@read_HmacA
  0006a	83 7c 24 18 10	 cmp	 DWORD PTR _read_tag$106005[esp+140], 16 ; 00000010H
  0006f	75 4f		 jne	 SHORT $LN18@read_HmacA
  00071	80 7c 24 16 01	 cmp	 BYTE PTR _read_fStruct$106007[esp+140], 1
  00076	75 48		 jne	 SHORT $LN18@read_HmacA

; 263  : 		//algorithm OBJECT IDENTIFIER
; 264  : 		read_Object_Identifier(&_oid);

  00078	8d 4c 24 1c	 lea	 ecx, DWORD PTR __oid$[esp+140]
  0007c	51		 push	 ecx
  0007d	56		 push	 esi
  0007e	e8 00 00 00 00	 call	 ?read_Object_Identifier@BER_Input@@QAEIPAVObjectIdentifier@@@Z ; BER_Input::read_Object_Identifier

; 265  : 		if(cHMAC_SHA1.Check_OID(&_oid) != -1){

  00083	8d 54 24 1c	 lea	 edx, DWORD PTR __oid$[esp+140]
  00087	52		 push	 edx
  00088	8d af 00 01 00
	00		 lea	 ebp, DWORD PTR [edi+256]
  0008e	55		 push	 ebp
  0008f	e8 00 00 00 00	 call	 ?Check_OID@AlgorithmIdentifier@@QAEHPAVObjectIdentifier@@@Z ; AlgorithmIdentifier::Check_OID
  00094	83 f8 ff	 cmp	 eax, -1
  00097	74 36		 je	 SHORT $LN6@read_HmacA

; 266  : 			cHMAC = &cHMAC_SHA1;
; 267  : 			read_TAG_with_Check(BER_Class_General, false, BER_TAG_NULL);

  00099	8d 44 24 18	 lea	 eax, DWORD PTR _read_tag$106023[esp+140]
  0009d	50		 push	 eax
  0009e	8d 4c 24 1b	 lea	 ecx, DWORD PTR _read_fStruct$106025[esp+144]
  000a2	51		 push	 ecx
  000a3	8d 54 24 1e	 lea	 edx, DWORD PTR _read_class$106024[esp+148]
  000a7	52		 push	 edx
  000a8	e8 00 00 00 00	 call	 ?read_TAG@BER_Input@@QAEIPAEPA_NPAI@Z ; BER_Input::read_TAG
  000ad	38 5c 24 16	 cmp	 BYTE PTR _read_class$106024[esp+140], bl
  000b1	75 0d		 jne	 SHORT $LN18@read_HmacA
  000b3	83 7c 24 18 05	 cmp	 DWORD PTR _read_tag$106023[esp+140], 5
  000b8	75 06		 jne	 SHORT $LN18@read_HmacA
  000ba	38 5c 24 17	 cmp	 BYTE PTR _read_fStruct$106025[esp+140], bl
$LN51@read_HmacA:
  000be	74 6b		 je	 SHORT $LN1@read_HmacA
$LN18@read_HmacA:
  000c0	a1 00 00 00 00	 mov	 eax, DWORD PTR ?msg_err@?1??DecodeError@BER_Input@@QAEXI@Z@4QBQBDB
  000c5	b9 00 00 00 00	 mov	 ecx, OFFSET ??_C@_0BJ@HKJKLLAJ@ASN?41?5BER?5Decode?5Error?5?3?$AA@
$LN52@read_HmacA:
  000ca	e8 00 00 00 00	 call	 ?errPrint@@YAXPBD0@Z	; errPrint
$LN53@read_HmacA:
$LN6@read_HmacA:

; 268  : 		} else if(cHMAC_SHA224.Check_OID(&_oid) != -1){

  000cf	8d 44 24 1c	 lea	 eax, DWORD PTR __oid$[esp+140]
  000d3	50		 push	 eax
  000d4	8d af f0 01 00
	00		 lea	 ebp, DWORD PTR [edi+496]
  000da	55		 push	 ebp
  000db	e8 00 00 00 00	 call	 ?Check_OID@AlgorithmIdentifier@@QAEHPAVObjectIdentifier@@@Z ; AlgorithmIdentifier::Check_OID
  000e0	83 f8 ff	 cmp	 eax, -1
  000e3	74 27		 je	 SHORT $LN4@read_HmacA

; 269  : 			cHMAC = &cHMAC_SHA224;
; 270  : 			read_TAG_with_Check(BER_Class_General, false, BER_TAG_NULL);

  000e5	8d 4c 24 18	 lea	 ecx, DWORD PTR _read_tag$106040[esp+140]
  000e9	51		 push	 ecx
  000ea	8d 54 24 1b	 lea	 edx, DWORD PTR _read_fStruct$106042[esp+144]
  000ee	52		 push	 edx
  000ef	8d 44 24 1e	 lea	 eax, DWORD PTR _read_class$106041[esp+148]
  000f3	50		 push	 eax
  000f4	e8 00 00 00 00	 call	 ?read_TAG@BER_Input@@QAEIPAEPA_NPAI@Z ; BER_Input::read_TAG
  000f9	38 5c 24 16	 cmp	 BYTE PTR _read_class$106041[esp+140], bl
  000fd	75 c1		 jne	 SHORT $LN18@read_HmacA
  000ff	83 7c 24 18 05	 cmp	 DWORD PTR _read_tag$106040[esp+140], 5
  00104	75 ba		 jne	 SHORT $LN18@read_HmacA
  00106	38 5c 24 17	 cmp	 BYTE PTR _read_fStruct$106042[esp+140], bl
  0010a	eb b2		 jmp	 SHORT $LN51@read_HmacA
$LN4@read_HmacA:

; 271  : 		} else if(cHMAC_SHA256.Check_OID(&_oid) != -1){

  0010c	8d 4c 24 1c	 lea	 ecx, DWORD PTR __oid$[esp+140]
  00110	51		 push	 ecx
  00111	8d af e0 02 00
	00		 lea	 ebp, DWORD PTR [edi+736]
  00117	55		 push	 ebp
  00118	e8 00 00 00 00	 call	 ?Check_OID@AlgorithmIdentifier@@QAEHPAVObjectIdentifier@@@Z ; AlgorithmIdentifier::Check_OID
  0011d	83 f8 ff	 cmp	 eax, -1
  00120	74 68		 je	 SHORT $LN2@read_HmacA

; 272  : 			cHMAC = &cHMAC_SHA256;
; 273  : 			read_TAG_with_Check(BER_Class_General, false, BER_TAG_NULL);

  00122	6a 05		 push	 5
  00124	53		 push	 ebx
  00125	53		 push	 ebx
  00126	e8 00 00 00 00	 call	 ?read_TAG_with_Check@BER_Input@@QAEIE_NI@Z ; BER_Input::read_TAG_with_Check
$LN1@read_HmacA:

; 276  : 		}
; 277  : 
; 278  : 	return(cHMAC);

  0012b	8b 44 24 6c	 mov	 eax, DWORD PTR __oid$[esp+220]
  0012f	c7 44 24 1c 00
	00 00 00	 mov	 DWORD PTR __oid$[esp+140], OFFSET ??_7ObjectIdentifier@@6B@
  00137	3b c3		 cmp	 eax, ebx
  00139	74 09		 je	 SHORT $LN39@read_HmacA
  0013b	50		 push	 eax
  0013c	e8 00 00 00 00	 call	 ??3@YAXPAX@Z		; operator delete
  00141	83 c4 04	 add	 esp, 4
$LN39@read_HmacA:
  00144	8b 54 24 60	 mov	 edx, DWORD PTR __oid$[esp+208]
  00148	52		 push	 edx
  00149	89 5c 24 70	 mov	 DWORD PTR __oid$[esp+224], ebx
  0014d	89 5c 24 74	 mov	 DWORD PTR __oid$[esp+228], ebx
  00151	89 5c 24 78	 mov	 DWORD PTR __oid$[esp+232], ebx
  00155	e8 00 00 00 00	 call	 ??3@YAXPAX@Z		; operator delete
  0015a	83 c4 04	 add	 esp, 4
  0015d	8d 7c 24 1c	 lea	 edi, DWORD PTR __oid$[esp+140]
  00161	e8 00 00 00 00	 call	 ??1ASN1@@QAE@XZ		; ASN1::~ASN1
  00166	8b c5		 mov	 eax, ebp

; 279  : }

  00168	8b 8c 24 80 00
	00 00		 mov	 ecx, DWORD PTR __$EHRec$[esp+140]
  0016f	64 89 0d 00 00
	00 00		 mov	 DWORD PTR fs:0, ecx
  00176	59		 pop	 ecx
  00177	5f		 pop	 edi
  00178	5e		 pop	 esi
  00179	5d		 pop	 ebp
  0017a	5b		 pop	 ebx
  0017b	8b 4c 24 68	 mov	 ecx, DWORD PTR __$ArrayPad$[esp+120]
  0017f	33 cc		 xor	 ecx, esp
  00181	e8 00 00 00 00	 call	 @__security_check_cookie@4
  00186	83 c4 78	 add	 esp, 120		; 00000078H
  00189	c3		 ret	 0
$LN2@read_HmacA:

; 274  : 		} else {
; 275  : 			errPrint("HmacAlgorithm",": Unknown HMAC algorithm.");

  0018a	b8 00 00 00 00	 mov	 eax, OFFSET ??_C@_0BK@DEOHDADO@?3?5Unknown?5HMAC?5algorithm?4?$AA@
  0018f	b9 00 00 00 00	 mov	 ecx, OFFSET ??_C@_0O@KDEHIPEO@HmacAlgorithm?$AA@
  00194	e9 31 ff ff ff	 jmp	 $LN52@read_HmacA
$LN50@read_HmacA:
_TEXT	ENDS
;	COMDAT text$x
text$x	SEGMENT
__unwindfunclet$?read_HmacAlgorithm@PKCS7_Input@@QAEPAVHMAC@@XZ$0:
  00000	8d 45 90	 lea	 eax, DWORD PTR __oid$[ebp]
  00003	e9 00 00 00 00	 jmp	 ??1ObjectIdentifier@@QAE@XZ ; ObjectIdentifier::~ObjectIdentifier
__ehhandler$?read_HmacAlgorithm@PKCS7_Input@@QAEPAVHMAC@@XZ:
  00008	8b 54 24 08	 mov	 edx, DWORD PTR [esp+8]
  0000c	8d 42 84	 lea	 eax, DWORD PTR [edx-124]
  0000f	8b 4a 80	 mov	 ecx, DWORD PTR [edx-128]
  00012	33 c8		 xor	 ecx, eax
  00014	e8 00 00 00 00	 call	 @__security_check_cookie@4
  00019	83 c0 10	 add	 eax, 16			; 00000010H
  0001c	8b 4a fc	 mov	 ecx, DWORD PTR [edx-4]
  0001f	33 c8		 xor	 ecx, eax
  00021	e8 00 00 00 00	 call	 @__security_check_cookie@4
  00026	b8 00 00 00 00	 mov	 eax, OFFSET __ehfuncinfo$?read_HmacAlgorithm@PKCS7_Input@@QAEPAVHMAC@@XZ
  0002b	e9 00 00 00 00	 jmp	 ___CxxFrameHandler3
text$x	ENDS
?read_HmacAlgorithm@PKCS7_Input@@QAEPAVHMAC@@XZ ENDP	; PKCS7_Input::read_HmacAlgorithm
PUBLIC	__$ArrayPad$
PUBLIC	?read_EncryptedContentInfo@PKCS7_Input@@QAEIPAVEncryptedContentInfo@@@Z ; PKCS7_Input::read_EncryptedContentInfo
;	COMDAT xdata$x
; File c:\program files\microsoft visual studio 9.0\vc\include\xutility
xdata$x	SEGMENT
__unwindtable$?read_EncryptedContentInfo@PKCS7_Input@@QAEIPAVEncryptedContentInfo@@@Z DD 0ffffffffH
	DD	FLAT:__unwindfunclet$?read_EncryptedContentInfo@PKCS7_Input@@QAEIPAVEncryptedContentInfo@@@Z$0
__ehfuncinfo$?read_EncryptedContentInfo@PKCS7_Input@@QAEIPAVEncryptedContentInfo@@@Z DD 019930522H
	DD	01H
	DD	FLAT:__unwindtable$?read_EncryptedContentInfo@PKCS7_Input@@QAEIPAVEncryptedContentInfo@@@Z
	DD	2 DUP(00H)
	DD	2 DUP(00H)
	DD	00H
	DD	01H
; Function compile flags: /Ogtpy
; File i:\“n•”“ÄŽj\my project\cms\cms\asn1\pkcs7\pkcs7_input.cpp
xdata$x	ENDS
;	COMDAT ?read_EncryptedContentInfo@PKCS7_Input@@QAEIPAVEncryptedContentInfo@@@Z
_TEXT	SEGMENT
_read_fStruct$106164 = -142				; size = 1
_read_class$106145 = -142				; size = 1
_read_class$106163 = -141				; size = 1
_read_fStruct$106146 = -141				; size = 1
_read_tag$106162 = -140					; size = 4
_read_tag$106144 = -140					; size = 4
$T106135 = -136						; size = 24
_contentType$ = -112					; size = 92
__$ArrayPad$ = -16					; size = 4
__$EHRec$ = -12						; size = 12
_this$ = 8						; size = 4
_ECinfo$ = 12						; size = 4
?read_EncryptedContentInfo@PKCS7_Input@@QAEIPAVEncryptedContentInfo@@@Z PROC ; PKCS7_Input::read_EncryptedContentInfo, COMDAT

; 132  : {

  00000	6a ff		 push	 -1
  00002	68 00 00 00 00	 push	 __ehhandler$?read_EncryptedContentInfo@PKCS7_Input@@QAEIPAVEncryptedContentInfo@@@Z
  00007	64 a1 00 00 00
	00		 mov	 eax, DWORD PTR fs:0
  0000d	50		 push	 eax
  0000e	81 ec 84 00 00
	00		 sub	 esp, 132		; 00000084H
  00014	a1 00 00 00 00	 mov	 eax, DWORD PTR ___security_cookie
  00019	33 c4		 xor	 eax, esp
  0001b	89 84 24 80 00
	00 00		 mov	 DWORD PTR __$ArrayPad$[esp+144], eax
  00022	53		 push	 ebx
  00023	55		 push	 ebp
  00024	56		 push	 esi
  00025	57		 push	 edi
  00026	a1 00 00 00 00	 mov	 eax, DWORD PTR ___security_cookie
  0002b	33 c4		 xor	 eax, esp
  0002d	50		 push	 eax
  0002e	8d 84 24 98 00
	00 00		 lea	 eax, DWORD PTR __$EHRec$[esp+164]
  00035	64 a3 00 00 00
	00		 mov	 DWORD PTR fs:0, eax
  0003b	8b ac 24 a8 00
	00 00		 mov	 ebp, DWORD PTR _this$[esp+160]
  00042	8b 9c 24 ac 00
	00 00		 mov	 ebx, DWORD PTR _ECinfo$[esp+160]

; 133  : 	//contentType ContentType,
; 134  : 	ObjectIdentifier		contentType;					//ˆÃ†•¶‚ÌType

  00049	8d 44 24 34	 lea	 eax, DWORD PTR _contentType$[esp+164]
  0004d	50		 push	 eax
  0004e	e8 00 00 00 00	 call	 ??0ObjectIdentifier@@QAE@QBD@Z ; ObjectIdentifier::ObjectIdentifier

; 135  : 	Encryption*				cCE;
; 136  : 	unsigned	int			szEncryptedContent;
; 137  : 
; 138  : 	//encryptedContentInfo
; 139  : 	read_TAG_with_Check(BER_Class_General, true, BER_TAG_SEQUENCE);

  00053	8d 4c 24 18	 lea	 ecx, DWORD PTR _read_tag$106144[esp+164]
  00057	51		 push	 ecx
  00058	8d 54 24 1b	 lea	 edx, DWORD PTR _read_fStruct$106146[esp+168]
  0005c	52		 push	 edx
  0005d	8d 44 24 1e	 lea	 eax, DWORD PTR _read_class$106145[esp+172]
  00061	8d bd d0 03 00
	00		 lea	 edi, DWORD PTR [ebp+976]
  00067	50		 push	 eax
  00068	8b f7		 mov	 esi, edi
  0006a	c7 84 24 ac 00
	00 00 00 00 00
	00		 mov	 DWORD PTR __$EHRec$[esp+184], 0
  00075	e8 00 00 00 00	 call	 ?read_TAG@BER_Input@@QAEIPAEPA_NPAI@Z ; BER_Input::read_TAG
  0007a	80 7c 24 16 00	 cmp	 BYTE PTR _read_class$106145[esp+164], 0
  0007f	0f 85 28 01 00
	00		 jne	 $LN12@read_Encry
  00085	83 7c 24 18 10	 cmp	 DWORD PTR _read_tag$106144[esp+164], 16 ; 00000010H
  0008a	0f 85 1d 01 00
	00		 jne	 $LN12@read_Encry
  00090	80 7c 24 17 01	 cmp	 BYTE PTR _read_fStruct$106146[esp+164], 1
  00095	0f 85 12 01 00
	00		 jne	 $LN12@read_Encry

; 140  : 
; 141  : 		//contentType 
; 142  : 		read_Object_Identifier(&contentType);

  0009b	8d 4c 24 34	 lea	 ecx, DWORD PTR _contentType$[esp+164]
  0009f	51		 push	 ecx
  000a0	57		 push	 edi
  000a1	e8 00 00 00 00	 call	 ?read_Object_Identifier@BER_Input@@QAEIPAVObjectIdentifier@@@Z ; BER_Input::read_Object_Identifier

; 143  : 
; 144  : 		//contentEncryptionAlgorithm
; 145  : 		cCE = read_ContentEncryptionAlgorithm();

  000a6	8b cd		 mov	 ecx, ebp
  000a8	e8 00 00 00 00	 call	 ?read_ContentEncryptionAlgorithm@PKCS7_Input@@QAEPAVEncryption@@XZ ; PKCS7_Input::read_ContentEncryptionAlgorithm

; 146  : 
; 147  : 		//‚±‚±‚É“ü‚Á‚Ä‚¢‚é‚Ì‚ªAˆÃ†•¶ŽÀ‘Ì‚ÌƒTƒCƒY
; 148  : 		szEncryptedContent	= read_TAG_with_Check(BER_Class_Context, false, 0);

  000ad	8d 54 24 18	 lea	 edx, DWORD PTR _read_tag$106162[esp+164]
  000b1	8b e8		 mov	 ebp, eax
  000b3	52		 push	 edx
  000b4	8d 44 24 1a	 lea	 eax, DWORD PTR _read_fStruct$106164[esp+168]
  000b8	50		 push	 eax
  000b9	8d 4c 24 1f	 lea	 ecx, DWORD PTR _read_class$106163[esp+172]
  000bd	51		 push	 ecx
  000be	e8 00 00 00 00	 call	 ?read_TAG@BER_Input@@QAEIPAEPA_NPAI@Z ; BER_Input::read_TAG
  000c3	80 7c 24 17 02	 cmp	 BYTE PTR _read_class$106163[esp+164], 2
  000c8	0f 85 df 00 00
	00		 jne	 $LN12@read_Encry
  000ce	83 7c 24 18 00	 cmp	 DWORD PTR _read_tag$106162[esp+164], 0
  000d3	0f 85 d4 00 00
	00		 jne	 $LN12@read_Encry
  000d9	80 7c 24 16 00	 cmp	 BYTE PTR _read_fStruct$106164[esp+164], 0
  000de	0f 85 c9 00 00
	00		 jne	 $LN12@read_Encry

; 149  : 
; 150  : 	//EncryptedContentInfo‚ðÝ’è
; 151  : 	ECinfo->Set(&contentType, cCE, szEncryptedContent);

  000e4	50		 push	 eax
  000e5	55		 push	 ebp
  000e6	8d 44 24 3c	 lea	 eax, DWORD PTR _contentType$[esp+172]
  000ea	8b f3		 mov	 esi, ebx
  000ec	e8 00 00 00 00	 call	 ?Set@EncryptedContentInfo@@QAEXPAVObjectIdentifier@@PAVEncryption@@I@Z ; EncryptedContentInfo::Set

; 152  : 	return(tellg());

  000f1	8b 17		 mov	 edx, DWORD PTR [edi]
  000f3	8b 42 04	 mov	 eax, DWORD PTR [edx+4]
  000f6	03 c7		 add	 eax, edi
  000f8	f6 40 08 06	 test	 BYTE PTR [eax+8], 6
  000fc	75 18		 jne	 SHORT $LN20@read_Encry
  000fe	8b 48 28	 mov	 ecx, DWORD PTR [eax+40]
  00101	8b 11		 mov	 edx, DWORD PTR [ecx]
  00103	8b 52 24	 mov	 edx, DWORD PTR [edx+36]
  00106	6a 01		 push	 1
  00108	6a 01		 push	 1
  0010a	33 ff		 xor	 edi, edi
  0010c	57		 push	 edi
  0010d	8d 44 24 28	 lea	 eax, DWORD PTR $T106135[esp+176]
  00111	50		 push	 eax
  00112	ff d2		 call	 edx
  00114	eb 19		 jmp	 SHORT $LN19@read_Encry
$LN20@read_Encry:
  00116	a1 00 00 00 00	 mov	 eax, DWORD PTR ?_BADOFF@std@@3JB ; std::_BADOFF
  0011b	89 44 24 1c	 mov	 DWORD PTR $T106135[esp+164], eax
  0011f	33 c0		 xor	 eax, eax
  00121	89 44 24 24	 mov	 DWORD PTR $T106135[esp+172], eax
  00125	89 44 24 28	 mov	 DWORD PTR $T106135[esp+176], eax
  00129	89 44 24 2c	 mov	 DWORD PTR $T106135[esp+180], eax
  0012d	33 ff		 xor	 edi, edi
$LN19@read_Encry:
  0012f	8b 84 24 84 00
	00 00		 mov	 eax, DWORD PTR _contentType$[esp+244]
  00136	8b 4c 24 24	 mov	 ecx, DWORD PTR $T106135[esp+172]
  0013a	8b 54 24 1c	 mov	 edx, DWORD PTR $T106135[esp+164]
  0013e	8d 34 11	 lea	 esi, DWORD PTR [ecx+edx]
  00141	c7 44 24 34 00
	00 00 00	 mov	 DWORD PTR _contentType$[esp+164], OFFSET ??_7ObjectIdentifier@@6B@
  00149	3b c7		 cmp	 eax, edi
  0014b	74 09		 je	 SHORT $LN42@read_Encry
  0014d	50		 push	 eax
  0014e	e8 00 00 00 00	 call	 ??3@YAXPAX@Z		; operator delete
  00153	83 c4 04	 add	 esp, 4
$LN42@read_Encry:
  00156	8b 44 24 78	 mov	 eax, DWORD PTR _contentType$[esp+232]
  0015a	50		 push	 eax
  0015b	89 bc 24 88 00
	00 00		 mov	 DWORD PTR _contentType$[esp+248], edi
  00162	89 bc 24 8c 00
	00 00		 mov	 DWORD PTR _contentType$[esp+252], edi
  00169	89 bc 24 90 00
	00 00		 mov	 DWORD PTR _contentType$[esp+256], edi
  00170	e8 00 00 00 00	 call	 ??3@YAXPAX@Z		; operator delete
  00175	83 c4 04	 add	 esp, 4
  00178	8d 7c 24 34	 lea	 edi, DWORD PTR _contentType$[esp+164]
  0017c	e8 00 00 00 00	 call	 ??1ASN1@@QAE@XZ		; ASN1::~ASN1
  00181	8b c6		 mov	 eax, esi

; 153  : }

  00183	8b 8c 24 98 00
	00 00		 mov	 ecx, DWORD PTR __$EHRec$[esp+164]
  0018a	64 89 0d 00 00
	00 00		 mov	 DWORD PTR fs:0, ecx
  00191	59		 pop	 ecx
  00192	5f		 pop	 edi
  00193	5e		 pop	 esi
  00194	5d		 pop	 ebp
  00195	5b		 pop	 ebx
  00196	8b 8c 24 80 00
	00 00		 mov	 ecx, DWORD PTR __$ArrayPad$[esp+144]
  0019d	33 cc		 xor	 ecx, esp
  0019f	e8 00 00 00 00	 call	 @__security_check_cookie@4
  001a4	81 c4 90 00 00
	00		 add	 esp, 144		; 00000090H
  001aa	c2 08 00	 ret	 8

; 146  : 
; 147  : 		//‚±‚±‚É“ü‚Á‚Ä‚¢‚é‚Ì‚ªAˆÃ†•¶ŽÀ‘Ì‚ÌƒTƒCƒY
; 148  : 		szEncryptedContent	= read_TAG_with_Check(BER_Class_Context, false, 0);

$LN12@read_Encry:
  001ad	a1 00 00 00 00	 mov	 eax, DWORD PTR ?msg_err@?1??DecodeError@BER_Input@@QAEXI@Z@4QBQBDB
  001b2	b9 00 00 00 00	 mov	 ecx, OFFSET ??_C@_0BJ@HKJKLLAJ@ASN?41?5BER?5Decode?5Error?5?3?$AA@
  001b7	e8 00 00 00 00	 call	 ?errPrint@@YAXPBD0@Z	; errPrint
$LN54@read_Encry:
$LN53@read_Encry:
  001bc	cc		 int	 3
_TEXT	ENDS
;	COMDAT text$x
text$x	SEGMENT
__unwindfunclet$?read_EncryptedContentInfo@PKCS7_Input@@QAEIPAVEncryptedContentInfo@@@Z$0:
  00000	8d 45 90	 lea	 eax, DWORD PTR _contentType$[ebp]
  00003	e9 00 00 00 00	 jmp	 ??1ObjectIdentifier@@QAE@XZ ; ObjectIdentifier::~ObjectIdentifier
__ehhandler$?read_EncryptedContentInfo@PKCS7_Input@@QAEIPAVEncryptedContentInfo@@@Z:
  00008	8b 54 24 08	 mov	 edx, DWORD PTR [esp+8]
  0000c	8d 82 6c ff ff
	ff		 lea	 eax, DWORD PTR [edx-148]
  00012	8b 8a 68 ff ff
	ff		 mov	 ecx, DWORD PTR [edx-152]
  00018	33 c8		 xor	 ecx, eax
  0001a	e8 00 00 00 00	 call	 @__security_check_cookie@4
  0001f	83 c0 10	 add	 eax, 16			; 00000010H
  00022	8b 4a fc	 mov	 ecx, DWORD PTR [edx-4]
  00025	33 c8		 xor	 ecx, eax
  00027	e8 00 00 00 00	 call	 @__security_check_cookie@4
  0002c	b8 00 00 00 00	 mov	 eax, OFFSET __ehfuncinfo$?read_EncryptedContentInfo@PKCS7_Input@@QAEIPAVEncryptedContentInfo@@@Z
  00031	e9 00 00 00 00	 jmp	 ___CxxFrameHandler3
text$x	ENDS
?read_EncryptedContentInfo@PKCS7_Input@@QAEIPAVEncryptedContentInfo@@@Z ENDP ; PKCS7_Input::read_EncryptedContentInfo
PUBLIC	?read_EncryptedData@PKCS7_Input@@QAEIPAVEncryptedData@@@Z ; PKCS7_Input::read_EncryptedData
; Function compile flags: /Ogtpy
;	COMDAT ?read_EncryptedData@PKCS7_Input@@QAEIPAVEncryptedData@@@Z
_TEXT	SEGMENT
_read_tag$106301 = -4					; size = 4
_read_fStruct$106303 = 8				; size = 1
_this$ = 8						; size = 4
_read_class$106302 = 12					; size = 1
$T106323 = 12						; size = 4
$T106319 = 12						; size = 4
__encryptedData$ = 12					; size = 4
?read_EncryptedData@PKCS7_Input@@QAEIPAVEncryptedData@@@Z PROC ; PKCS7_Input::read_EncryptedData, COMDAT

; 99   : {

  00000	51		 push	 ecx
  00001	53		 push	 ebx
  00002	8b 5c 24 10	 mov	 ebx, DWORD PTR __encryptedData$[esp+4]
  00006	55		 push	 ebp
  00007	8b 6c 24 10	 mov	 ebp, DWORD PTR _this$[esp+8]
  0000b	56		 push	 esi
  0000c	57		 push	 edi

; 100  : 	unsigned	int	ptEncryptedContent;
; 101  : 
; 102  : 	//EncryptedData
; 103  : 	read_TAG_with_Check(BER_Class_General, true, BER_TAG_SEQUENCE);

  0000d	8d 44 24 10	 lea	 eax, DWORD PTR _read_tag$106301[esp+20]
  00011	50		 push	 eax
  00012	8d 4c 24 1c	 lea	 ecx, DWORD PTR _read_fStruct$106303[esp+20]
  00016	51		 push	 ecx
  00017	8d 54 24 24	 lea	 edx, DWORD PTR _read_class$106302[esp+24]
  0001b	8d b5 d0 03 00
	00		 lea	 esi, DWORD PTR [ebp+976]
  00021	52		 push	 edx
  00022	e8 00 00 00 00	 call	 ?read_TAG@BER_Input@@QAEIPAEPA_NPAI@Z ; BER_Input::read_TAG
  00027	80 7c 24 1c 00	 cmp	 BYTE PTR _read_class$106302[esp+16], 0
  0002c	75 6f		 jne	 SHORT $LN4@read_Encry@2
  0002e	83 7c 24 10 10	 cmp	 DWORD PTR _read_tag$106301[esp+20], 16 ; 00000010H
  00033	75 68		 jne	 SHORT $LN4@read_Encry@2
  00035	80 7c 24 18 01	 cmp	 BYTE PTR _read_fStruct$106303[esp+16], 1
  0003a	75 61		 jne	 SHORT $LN4@read_Encry@2

; 104  : 
; 105  : 		//version
; 106  : 		read_Integer(&_encryptedData->version);

  0003c	8d 7b 44	 lea	 edi, DWORD PTR [ebx+68]
  0003f	57		 push	 edi
  00040	8b c6		 mov	 eax, esi
  00042	e8 00 00 00 00	 call	 ?read_Integer@BER_Input@@QAEIPAVInteger@@@Z ; BER_Input::read_Integer

; 107  : 		if(_encryptedData->version.iValue != 0){

  00047	83 bb 88 00 00
	00 00		 cmp	 DWORD PTR [ebx+136], 0
  0004e	74 0f		 je	 SHORT $LN1@read_Encry@2

; 108  : 			error(0);	//–¢‘Î‰ž‚ÌVersion

  00050	a1 00 00 00 00	 mov	 eax, DWORD PTR ?msg_err@?1??error@ASN1@@QAEXI@Z@4QBQBDB
  00055	b9 00 00 00 00	 mov	 ecx, OFFSET ??_C@_0BJ@IMFJFLAM@ASN?41?5BER?5Encode?5Error?5?3?$AA@
  0005a	e8 00 00 00 00	 call	 ?errPrint@@YAXPBD0@Z	; errPrint
$LN19@read_Encry@2:
$LN1@read_Encry@2:

; 109  : 		}
; 110  : 		_encryptedData->Set_Construct(&_encryptedData->version);

  0005f	8d 44 24 1c	 lea	 eax, DWORD PTR $T106319[esp+16]
  00063	89 7c 24 1c	 mov	 DWORD PTR $T106319[esp+16], edi
  00067	50		 push	 eax
  00068	8d 7b 28	 lea	 edi, DWORD PTR [ebx+40]
  0006b	e8 00 00 00 00	 call	 ?push_back@?$vector@PAVASN1@@V?$allocator@PAVASN1@@@std@@@std@@QAEXABQAVASN1@@@Z ; std::vector<ASN1 *,std::allocator<ASN1 *> >::push_back

; 111  : 
; 112  : 		//encryptedContentInfo
; 113  : 		ptEncryptedContent = read_EncryptedContentInfo(&_encryptedData->encryptedContentInfo);

  00070	8d 8b 8c 00 00
	00		 lea	 ecx, DWORD PTR [ebx+140]
  00076	51		 push	 ecx
  00077	55		 push	 ebp
  00078	e8 00 00 00 00	 call	 ?read_EncryptedContentInfo@PKCS7_Input@@QAEIPAVEncryptedContentInfo@@@Z ; PKCS7_Input::read_EncryptedContentInfo

; 114  : 		//ˆÃ†ƒ‚ƒWƒ…[ƒ‹‚Ìƒ|ƒCƒ“ƒ^‚ðŽæ“¾‚µ‚Ä‚¨‚­B
; 115  : 	//	cCE = _encryptedData->encryptedContentInfo.contentEncryptionAlgorithm;
; 116  : 
; 117  : 	//------
; 118  : 	//ˆ—
; 119  : 	context.Set_Construct(_encryptedData);		//ContentInfoƒNƒ‰ƒX‚Ìmember

  0007d	8d 54 24 1c	 lea	 edx, DWORD PTR $T106323[esp+16]
  00081	52		 push	 edx
  00082	8d bd c8 00 00
	00		 lea	 edi, DWORD PTR [ebp+200]
  00088	8b f0		 mov	 esi, eax
  0008a	89 5c 24 20	 mov	 DWORD PTR $T106323[esp+20], ebx
  0008e	e8 00 00 00 00	 call	 ?push_back@?$vector@PAVASN1@@V?$allocator@PAVASN1@@@std@@@std@@QAEXABQAVASN1@@@Z ; std::vector<ASN1 *,std::allocator<ASN1 *> >::push_back

; 120  : 
; 121  : 	return(ptEncryptedContent);
; 122  : }

  00093	5f		 pop	 edi
  00094	8b c6		 mov	 eax, esi
  00096	5e		 pop	 esi
  00097	5d		 pop	 ebp
  00098	5b		 pop	 ebx
  00099	59		 pop	 ecx
  0009a	c2 08 00	 ret	 8

; 100  : 	unsigned	int	ptEncryptedContent;
; 101  : 
; 102  : 	//EncryptedData
; 103  : 	read_TAG_with_Check(BER_Class_General, true, BER_TAG_SEQUENCE);

$LN4@read_Encry@2:
  0009d	a1 00 00 00 00	 mov	 eax, DWORD PTR ?msg_err@?1??DecodeError@BER_Input@@QAEXI@Z@4QBQBDB
  000a2	b9 00 00 00 00	 mov	 ecx, OFFSET ??_C@_0BJ@HKJKLLAJ@ASN?41?5BER?5Decode?5Error?5?3?$AA@
  000a7	e8 00 00 00 00	 call	 ?errPrint@@YAXPBD0@Z	; errPrint
$LN20@read_Encry@2:
$LN18@read_Encry@2:
  000ac	cc		 int	 3
?read_EncryptedData@PKCS7_Input@@QAEIPAVEncryptedData@@@Z ENDP ; PKCS7_Input::read_EncryptedData
PUBLIC	_this$GSCopy$
PUBLIC	__$ArrayPad$
PUBLIC	?read_KeyDerivationAlgorithm@PKCS7_Input@@QAEPAVKeyDerivation@@XZ ; PKCS7_Input::read_KeyDerivationAlgorithm
;	COMDAT ?$S2@?1??read_KeyDerivationAlgorithm@PKCS7_Input@@QAEPAVKeyDerivation@@XZ@4IA
; File c:\program files\microsoft visual studio 9.0\vc\include\xutility
_BSS	SEGMENT
?$S2@?1??read_KeyDerivationAlgorithm@PKCS7_Input@@QAEPAVKeyDerivation@@XZ@4IA DD 01H DUP (?) ; `PKCS7_Input::read_KeyDerivationAlgorithm'::`2'::$S2
_BSS	ENDS
;	COMDAT xdata$x
xdata$x	SEGMENT
__unwindtable$?read_KeyDerivationAlgorithm@PKCS7_Input@@QAEPAVKeyDerivation@@XZ DD 0ffffffffH
	DD	FLAT:__unwindfunclet$?read_KeyDerivationAlgorithm@PKCS7_Input@@QAEPAVKeyDerivation@@XZ$0
	DD	0ffffffffH
	DD	FLAT:__unwindfunclet$?read_KeyDerivationAlgorithm@PKCS7_Input@@QAEPAVKeyDerivation@@XZ$1
	DD	01H
	DD	FLAT:__unwindfunclet$?read_KeyDerivationAlgorithm@PKCS7_Input@@QAEPAVKeyDerivation@@XZ$2
	DD	02H
	DD	FLAT:__unwindfunclet$?read_KeyDerivationAlgorithm@PKCS7_Input@@QAEPAVKeyDerivation@@XZ$3
	DD	03H
	DD	FLAT:__unwindfunclet$?read_KeyDerivationAlgorithm@PKCS7_Input@@QAEPAVKeyDerivation@@XZ$4
	DD	04H
	DD	FLAT:__unwindfunclet$?read_KeyDerivationAlgorithm@PKCS7_Input@@QAEPAVKeyDerivation@@XZ$5
__ehfuncinfo$?read_KeyDerivationAlgorithm@PKCS7_Input@@QAEPAVKeyDerivation@@XZ DD 019930522H
	DD	06H
	DD	FLAT:__unwindtable$?read_KeyDerivationAlgorithm@PKCS7_Input@@QAEPAVKeyDerivation@@XZ
	DD	2 DUP(00H)
	DD	2 DUP(00H)
	DD	00H
	DD	01H
; Function compile flags: /Ogtpy
; File i:\“n•”“ÄŽj\my project\cms\cms\asn1\pkcs7\pkcs7_input.cpp
xdata$x	ENDS
;	COMDAT ?read_KeyDerivationAlgorithm@PKCS7_Input@@QAEPAVKeyDerivation@@XZ
_TEXT	SEGMENT
_read_class$106678 = -386				; size = 1
_read_class$106660 = -386				; size = 1
_read_fStruct$ = -386					; size = 1
_read_fStruct$106679 = -385				; size = 1
_read_fStruct$106661 = -385				; size = 1
_read_class$ = -385					; size = 1
_read_tag$106677 = -384					; size = 4
_read_tag$106659 = -384					; size = 4
_read_tag$ = -384					; size = 4
_this$GSCopy$ = -380					; size = 4
$T106456 = -380						; size = 4
$T106454 = -376						; size = 24
$T106453 = -376						; size = 24
__Salt$ = -352						; size = 96
__oid$ = -256						; size = 92
__dkLen$ = -160						; size = 72
__Count$ = -88						; size = 72
__$ArrayPad$ = -16					; size = 4
__$EHRec$ = -12						; size = 12
?read_KeyDerivationAlgorithm@PKCS7_Input@@QAEPAVKeyDerivation@@XZ PROC ; PKCS7_Input::read_KeyDerivationAlgorithm, COMDAT
; _this$ = ecx

; 448  : {

  00000	6a ff		 push	 -1
  00002	68 00 00 00 00	 push	 __ehhandler$?read_KeyDerivationAlgorithm@PKCS7_Input@@QAEPAVKeyDerivation@@XZ
  00007	64 a1 00 00 00
	00		 mov	 eax, DWORD PTR fs:0
  0000d	50		 push	 eax
  0000e	81 ec 7c 01 00
	00		 sub	 esp, 380		; 0000017cH
  00014	a1 00 00 00 00	 mov	 eax, DWORD PTR ___security_cookie
  00019	33 c4		 xor	 eax, esp
  0001b	89 84 24 78 01
	00 00		 mov	 DWORD PTR __$ArrayPad$[esp+392], eax
  00022	53		 push	 ebx
  00023	55		 push	 ebp
  00024	56		 push	 esi
  00025	57		 push	 edi
  00026	a1 00 00 00 00	 mov	 eax, DWORD PTR ___security_cookie
  0002b	33 c4		 xor	 eax, esp
  0002d	50		 push	 eax
  0002e	8d 84 24 90 01
	00 00		 lea	 eax, DWORD PTR __$EHRec$[esp+412]
  00035	64 a3 00 00 00
	00		 mov	 DWORD PTR fs:0, eax
  0003b	8b f1		 mov	 esi, ecx

; 449  : 	unsigned	int		ptTemp;				//ƒtƒ@ƒCƒ‹ƒ|ƒCƒ“ƒ^ˆêŽŸ•Û‘¶—p
; 450  : 
; 451  : 	unsigned	int		read_tag;			//ASN.1 ƒ^ƒO
; 452  : 	unsigned	char	read_class;			//ASN.1 ƒNƒ‰ƒX
; 453  : 				bool	read_fStruct;		//ASN.1 \‘¢‰»
; 454  : 	unsigned	int		iSize;				//ASN.1 ƒTƒCƒY
; 455  : 
; 456  : 	static	PBKDF2	_pbkdf2	=	PBKDF2(&cHMAC_SHA256);

  0003d	33 db		 xor	 ebx, ebx
  0003f	f6 05 00 00 00
	00 01		 test	 BYTE PTR ?$S2@?1??read_KeyDerivationAlgorithm@PKCS7_Input@@QAEPAVKeyDerivation@@XZ@4IA, 1

; 504  : 		}
; 505  : 	return(_keyDerivation);

  00046	89 74 24 20	 mov	 DWORD PTR _this$GSCopy$[esp+412], esi
  0004a	75 37		 jne	 SHORT $LN8@read_KeyDe
  0004c	83 0d 00 00 00
	00 01		 or	 DWORD PTR ?$S2@?1??read_KeyDerivationAlgorithm@PKCS7_Input@@QAEPAVKeyDerivation@@XZ@4IA, 1
  00053	8d 86 e0 02 00
	00		 lea	 eax, DWORD PTR [esi+736]
  00059	50		 push	 eax
  0005a	68 00 00 00 00	 push	 OFFSET ?_pbkdf2@?1??read_KeyDerivationAlgorithm@PKCS7_Input@@QAEPAVKeyDerivation@@XZ@4VPBKDF2@@A
  0005f	89 9c 24 a0 01
	00 00		 mov	 DWORD PTR __$EHRec$[esp+428], ebx
  00066	e8 00 00 00 00	 call	 ??0PBKDF2@@QAE@PAVHMAC@@QBD@Z ; PBKDF2::PBKDF2
  0006b	68 00 00 00 00	 push	 OFFSET ??__F_pbkdf2@?1??read_KeyDerivationAlgorithm@PKCS7_Input@@QAEPAVKeyDerivation@@XZ@YAXXZ ; `PKCS7_Input::read_KeyDerivationAlgorithm'::`2'::`dynamic atexit destructor for '_pbkdf2''
  00070	e8 00 00 00 00	 call	 _atexit
  00075	83 c4 04	 add	 esp, 4
  00078	c7 84 24 98 01
	00 00 ff ff ff
	ff		 mov	 DWORD PTR __$EHRec$[esp+420], -1
$LN8@read_KeyDe:
  00083	8d 8c 24 9c 00
	00 00		 lea	 ecx, DWORD PTR __oid$[esp+412]
  0008a	51		 push	 ecx
  0008b	e8 00 00 00 00	 call	 ??0ObjectIdentifier@@QAE@QBD@Z ; ObjectIdentifier::ObjectIdentifier
  00090	68 00 00 00 00	 push	 OFFSET ??_C@_0N@DHPBPBEA@Octet?5String?$AA@
  00095	8d 54 24 40	 lea	 edx, DWORD PTR __Salt$[esp+416]
  00099	52		 push	 edx
  0009a	c7 84 24 a0 01
	00 00 01 00 00
	00		 mov	 DWORD PTR __$EHRec$[esp+428], 1
  000a5	e8 00 00 00 00	 call	 ??0ASN1@@QAE@QBD@Z	; ASN1::ASN1
  000aa	c7 44 24 3c 00
	00 00 00	 mov	 DWORD PTR __Salt$[esp+412], OFFSET ??_7OctetString@@6B@
  000b2	c7 84 24 98 00
	00 00 0f 00 00
	00		 mov	 DWORD PTR __Salt$[esp+504], 15 ; 0000000fH
  000bd	89 9c 24 94 00
	00 00		 mov	 DWORD PTR __Salt$[esp+500], ebx
  000c4	88 9c 24 84 00
	00 00		 mov	 BYTE PTR __Salt$[esp+484], bl
  000cb	68 00 00 00 00	 push	 OFFSET ??_C@_07EDADKEAH@Integer?$AA@
  000d0	8d 84 24 48 01
	00 00		 lea	 eax, DWORD PTR __Count$[esp+416]
  000d7	50		 push	 eax
  000d8	c6 84 24 a0 01
	00 00 02	 mov	 BYTE PTR __$EHRec$[esp+428], 2
  000e0	e8 00 00 00 00	 call	 ??0ASN1@@QAE@QBD@Z	; ASN1::ASN1
  000e5	bf 00 00 00 00	 mov	 edi, OFFSET ??_7Integer@@6B@
  000ea	89 bc 24 44 01
	00 00		 mov	 DWORD PTR __Count$[esp+412], edi
  000f1	68 00 00 00 00	 push	 OFFSET ??_C@_07EDADKEAH@Integer?$AA@
  000f6	8d 8c 24 00 01
	00 00		 lea	 ecx, DWORD PTR __dkLen$[esp+416]
  000fd	51		 push	 ecx
  000fe	c6 84 24 a0 01
	00 00 03	 mov	 BYTE PTR __$EHRec$[esp+428], 3
  00106	e8 00 00 00 00	 call	 ??0ASN1@@QAE@QBD@Z	; ASN1::ASN1
  0010b	89 bc 24 fc 00
	00 00		 mov	 DWORD PTR __dkLen$[esp+412], edi
  00112	8d 54 24 1c	 lea	 edx, DWORD PTR _read_tag$106659[esp+412]
  00116	52		 push	 edx
  00117	8d 44 24 1f	 lea	 eax, DWORD PTR _read_fStruct$106661[esp+416]
  0011b	50		 push	 eax
  0011c	8d 4c 24 22	 lea	 ecx, DWORD PTR _read_class$106660[esp+420]
  00120	81 c6 d0 03 00
	00		 add	 esi, 976		; 000003d0H
  00126	51		 push	 ecx
  00127	c6 84 24 a4 01
	00 00 04	 mov	 BYTE PTR __$EHRec$[esp+432], 4
  0012f	e8 00 00 00 00	 call	 ?read_TAG@BER_Input@@QAEIPAEPA_NPAI@Z ; BER_Input::read_TAG
  00134	80 7c 24 1a 02	 cmp	 BYTE PTR _read_class$106660[esp+412], 2
  00139	0f 85 e3 02 00
	00		 jne	 $LN69@read_KeyDe

; 457  : 	PBKDF2*					_pbkdf;
; 458  : 	HMAC*					cHMAC;
; 459  : 
; 460  : 	//contentType ContentType,
; 461  : 	ObjectIdentifier		_oid;
; 462  : 
; 463  : 	//¦keyDerivation‚ÍAƒNƒ‰ƒX"PasswordRecipientInfo"‚Åƒƒ‚ƒŠŠJ•ú‚ðs‚¤B
; 464  : 	KeyDerivation*			_keyDerivation;
; 465  : 
; 466  : 	OctetString	_Salt;
; 467  : 	Integer		_Count;
; 468  : 	Integer		_dkLen;
; 469  : 
; 470  : 	read_TAG_with_Check(BER_Class_Context, true, 0);

  0013f	39 5c 24 1c	 cmp	 DWORD PTR _read_tag$106659[esp+412], ebx
  00143	0f 85 d9 02 00
	00		 jne	 $LN69@read_KeyDe
  00149	80 7c 24 1b 01	 cmp	 BYTE PTR _read_fStruct$106661[esp+412], 1
  0014e	0f 85 ce 02 00
	00		 jne	 $LN69@read_KeyDe

; 471  : 		//algorithm OBJECT IDENTIFIER
; 472  : 		read_Object_Identifier(&_oid);

  00154	8d 94 24 9c 00
	00 00		 lea	 edx, DWORD PTR __oid$[esp+412]
  0015b	52		 push	 edx
  0015c	56		 push	 esi
  0015d	e8 00 00 00 00	 call	 ?read_Object_Identifier@BER_Input@@QAEIPAVObjectIdentifier@@@Z ; BER_Input::read_Object_Identifier

; 473  : 		if(_pbkdf2.Check_OID(&_oid) != -1){

  00162	8d 84 24 9c 00
	00 00		 lea	 eax, DWORD PTR __oid$[esp+412]
  00169	50		 push	 eax
  0016a	68 00 00 00 00	 push	 OFFSET ?_pbkdf2@?1??read_KeyDerivationAlgorithm@PKCS7_Input@@QAEPAVKeyDerivation@@XZ@4VPBKDF2@@A
  0016f	e8 00 00 00 00	 call	 ?Check_OID@AlgorithmIdentifier@@QAEHPAVObjectIdentifier@@@Z ; AlgorithmIdentifier::Check_OID
  00174	83 f8 ff	 cmp	 eax, -1
  00177	0f 84 b4 02 00
	00		 je	 $LN7@read_KeyDe

; 474  : 			//PBKDF2-params ::= SEQUENCE {
; 475  : 			read_TAG_with_Check(BER_Class_General, true, BER_TAG_SEQUENCE);

  0017d	8d 4c 24 1c	 lea	 ecx, DWORD PTR _read_tag$106677[esp+412]
  00181	51		 push	 ecx
  00182	8d 54 24 1f	 lea	 edx, DWORD PTR _read_fStruct$106679[esp+416]
  00186	52		 push	 edx
  00187	8d 44 24 22	 lea	 eax, DWORD PTR _read_class$106678[esp+420]
  0018b	50		 push	 eax
  0018c	e8 00 00 00 00	 call	 ?read_TAG@BER_Input@@QAEIPAEPA_NPAI@Z ; BER_Input::read_TAG
  00191	38 5c 24 1a	 cmp	 BYTE PTR _read_class$106678[esp+412], bl
  00195	0f 85 87 02 00
	00		 jne	 $LN69@read_KeyDe
  0019b	83 7c 24 1c 10	 cmp	 DWORD PTR _read_tag$106677[esp+412], 16 ; 00000010H
  001a0	0f 85 7c 02 00
	00		 jne	 $LN69@read_KeyDe
  001a6	80 7c 24 1b 01	 cmp	 BYTE PTR _read_fStruct$106679[esp+412], 1
  001ab	0f 85 71 02 00
	00		 jne	 $LN69@read_KeyDe

; 476  : 				//salt	pecified OCTET STRING
; 477  : 				read_Octet_Strings(&_Salt);

  001b1	8d 4c 24 3c	 lea	 ecx, DWORD PTR __Salt$[esp+412]
  001b5	51		 push	 ecx
  001b6	8b c6		 mov	 eax, esi
  001b8	e8 00 00 00 00	 call	 ?read_Octet_Strings@BER_Input@@QAEIPAVOctetString@@@Z ; BER_Input::read_Octet_Strings

; 478  : 				//iterationCount INTEGER (1..MAX)
; 479  : 				read_Integer(&_Count);

  001bd	8d 94 24 44 01
	00 00		 lea	 edx, DWORD PTR __Count$[esp+412]
  001c4	52		 push	 edx
  001c5	8b c6		 mov	 eax, esi
  001c7	e8 00 00 00 00	 call	 ?read_Integer@BER_Input@@QAEIPAVInteger@@@Z ; BER_Input::read_Integer

; 480  : 				//keyLength INTEGER (1..MAX) OPTIONAL
; 481  : 				ptTemp = tellg();

  001cc	8b 06		 mov	 eax, DWORD PTR [esi]
  001ce	8b 48 04	 mov	 ecx, DWORD PTR [eax+4]
  001d1	8d 04 31	 lea	 eax, DWORD PTR [ecx+esi]
  001d4	8b 48 08	 mov	 ecx, DWORD PTR [eax+8]
  001d7	f6 c1 06	 test	 cl, 6
  001da	75 1e		 jne	 SHORT $LN77@read_KeyDe
  001dc	8b 48 28	 mov	 ecx, DWORD PTR [eax+40]
  001df	8b 11		 mov	 edx, DWORD PTR [ecx]
  001e1	8b 52 24	 mov	 edx, DWORD PTR [edx+36]
  001e4	6a 01		 push	 1
  001e6	6a 01		 push	 1
  001e8	53		 push	 ebx
  001e9	8d 44 24 30	 lea	 eax, DWORD PTR $T106453[esp+424]
  001ed	50		 push	 eax
  001ee	ff d2		 call	 edx
  001f0	8b 6c 24 2c	 mov	 ebp, DWORD PTR $T106453[esp+420]
  001f4	8b 7c 24 24	 mov	 edi, DWORD PTR $T106453[esp+412]
  001f8	eb 0c		 jmp	 SHORT $LN76@read_KeyDe
$LN77@read_KeyDe:
  001fa	8b 3d 00 00 00
	00		 mov	 edi, DWORD PTR ?_BADOFF@std@@3JB ; std::_BADOFF
  00200	33 ed		 xor	 ebp, ebp
  00202	89 5c 24 30	 mov	 DWORD PTR $T106453[esp+424], ebx
$LN76@read_KeyDe:

; 482  : 				iSize = read_TAG(&read_class, &read_fStruct, &read_tag);

  00206	8d 44 24 1c	 lea	 eax, DWORD PTR _read_tag$[esp+412]
  0020a	50		 push	 eax
  0020b	8d 4c 24 1e	 lea	 ecx, DWORD PTR _read_fStruct$[esp+416]
  0020f	51		 push	 ecx
  00210	8d 54 24 23	 lea	 edx, DWORD PTR _read_class$[esp+420]
  00214	52		 push	 edx
  00215	e8 00 00 00 00	 call	 ?read_TAG@BER_Input@@QAEIPAEPA_NPAI@Z ; BER_Input::read_TAG

; 483  : 				StreamPointerMove(ptTemp);

  0021a	53		 push	 ebx
  0021b	03 ef		 add	 ebp, edi
  0021d	55		 push	 ebp
  0021e	e8 00 00 00 00	 call	 ?seekg@?$basic_istream@DU?$char_traits@D@std@@@std@@QAEAAV12@JH@Z ; std::basic_istream<char,std::char_traits<char> >::seekg

; 484  : 				if((read_class == BER_Class_General)&&(read_tag == BER_TAG_INTEGER)&&(read_fStruct == false)){

  00223	38 5c 24 1b	 cmp	 BYTE PTR _read_class$[esp+412], bl
  00227	75 1e		 jne	 SHORT $LN6@read_KeyDe
  00229	83 7c 24 1c 02	 cmp	 DWORD PTR _read_tag$[esp+412], 2
  0022e	75 17		 jne	 SHORT $LN6@read_KeyDe
  00230	38 5c 24 1a	 cmp	 BYTE PTR _read_fStruct$[esp+412], bl
  00234	75 11		 jne	 SHORT $LN6@read_KeyDe

; 485  : 					read_Integer(&_dkLen);

  00236	8d 84 24 fc 00
	00 00		 lea	 eax, DWORD PTR __dkLen$[esp+412]
  0023d	50		 push	 eax
  0023e	8b c6		 mov	 eax, esi
  00240	e8 00 00 00 00	 call	 ?read_Integer@BER_Input@@QAEIPAVInteger@@@Z ; BER_Input::read_Integer

; 486  : 				} else {

  00245	eb 07		 jmp	 SHORT $LN94@read_KeyDe
$LN6@read_KeyDe:

; 487  : 					_dkLen.Set(0);

  00247	89 9c 24 40 01
	00 00		 mov	 DWORD PTR __dkLen$[esp+480], ebx
$LN94@read_KeyDe:

; 488  : 				}
; 489  : 				//prf AlgorithmIdentifier {{PBKDF2-PRFs}}
; 490  : 				ptTemp = tellg();

  0024e	8b 0e		 mov	 ecx, DWORD PTR [esi]
  00250	8b 51 04	 mov	 edx, DWORD PTR [ecx+4]
  00253	f6 44 32 08 06	 test	 BYTE PTR [edx+esi+8], 6
  00258	8d 04 32	 lea	 eax, DWORD PTR [edx+esi]
  0025b	75 1e		 jne	 SHORT $LN97@read_KeyDe
  0025d	8b 48 28	 mov	 ecx, DWORD PTR [eax+40]
  00260	8b 01		 mov	 eax, DWORD PTR [ecx]
  00262	8b 40 24	 mov	 eax, DWORD PTR [eax+36]
  00265	6a 01		 push	 1
  00267	6a 01		 push	 1
  00269	53		 push	 ebx
  0026a	8d 54 24 30	 lea	 edx, DWORD PTR $T106454[esp+424]
  0026e	52		 push	 edx
  0026f	ff d0		 call	 eax
  00271	8b 4c 24 2c	 mov	 ecx, DWORD PTR $T106454[esp+420]
  00275	8b 44 24 24	 mov	 eax, DWORD PTR $T106454[esp+412]
  00279	eb 0b		 jmp	 SHORT $LN96@read_KeyDe
$LN97@read_KeyDe:
  0027b	a1 00 00 00 00	 mov	 eax, DWORD PTR ?_BADOFF@std@@3JB ; std::_BADOFF
  00280	33 c9		 xor	 ecx, ecx
  00282	89 5c 24 30	 mov	 DWORD PTR $T106454[esp+424], ebx
$LN96@read_KeyDe:
  00286	8d 3c 01	 lea	 edi, DWORD PTR [ecx+eax]

; 491  : 				iSize = read_TAG(&read_class, &read_fStruct, &read_tag);

  00289	8d 4c 24 1c	 lea	 ecx, DWORD PTR _read_tag$[esp+412]
  0028d	51		 push	 ecx
  0028e	8d 54 24 1e	 lea	 edx, DWORD PTR _read_fStruct$[esp+416]
  00292	52		 push	 edx
  00293	8d 44 24 23	 lea	 eax, DWORD PTR _read_class$[esp+420]
  00297	50		 push	 eax
  00298	e8 00 00 00 00	 call	 ?read_TAG@BER_Input@@QAEIPAEPA_NPAI@Z ; BER_Input::read_TAG

; 492  : 				StreamPointerMove(ptTemp);

  0029d	53		 push	 ebx
  0029e	57		 push	 edi
  0029f	e8 00 00 00 00	 call	 ?seekg@?$basic_istream@DU?$char_traits@D@std@@@std@@QAEAAV12@JH@Z ; std::basic_istream<char,std::char_traits<char> >::seekg

; 493  : 				if((read_class != BER_Class_General)||(read_tag != BER_TAG_SEQUENCE)||(read_fStruct != true)){

  002a4	38 5c 24 1b	 cmp	 BYTE PTR _read_class$[esp+412], bl
  002a8	75 1b		 jne	 SHORT $LN3@read_KeyDe
  002aa	83 7c 24 1c 10	 cmp	 DWORD PTR _read_tag$[esp+412], 16 ; 00000010H
  002af	75 14		 jne	 SHORT $LN3@read_KeyDe
  002b1	80 7c 24 1a 01	 cmp	 BYTE PTR _read_fStruct$[esp+412], 1
  002b6	75 0d		 jne	 SHORT $LN3@read_KeyDe

; 496  : 				} else {
; 497  : 					cHMAC = read_HmacAlgorithm();

  002b8	8b 4c 24 20	 mov	 ecx, DWORD PTR _this$GSCopy$[esp+412]
  002bc	e8 00 00 00 00	 call	 ?read_HmacAlgorithm@PKCS7_Input@@QAEPAVHMAC@@XZ ; PKCS7_Input::read_HmacAlgorithm
  002c1	8b f0		 mov	 esi, eax
  002c3	eb 0a		 jmp	 SHORT $LN2@read_KeyDe
$LN3@read_KeyDe:

; 494  : 					//DEFAULT algid-hmacWithSHA1
; 495  : 					cHMAC = &cHMAC_SHA1;

  002c5	8b 74 24 20	 mov	 esi, DWORD PTR _this$GSCopy$[esp+412]
  002c9	81 c6 00 01 00
	00		 add	 esi, 256		; 00000100H
$LN2@read_KeyDe:

; 498  : 				}
; 499  : 			_pbkdf = new PBKDF2(cHMAC);

  002cf	68 10 02 00 00	 push	 528			; 00000210H
  002d4	e8 00 00 00 00	 call	 ??2@YAPAXI@Z		; operator new
  002d9	83 c4 04	 add	 esp, 4
  002dc	89 44 24 20	 mov	 DWORD PTR $T106456[esp+412], eax
  002e0	c6 84 24 98 01
	00 00 05	 mov	 BYTE PTR __$EHRec$[esp+420], 5
  002e8	3b c3		 cmp	 eax, ebx
  002ea	74 0b		 je	 SHORT $LN11@read_KeyDe
  002ec	56		 push	 esi
  002ed	50		 push	 eax
  002ee	e8 00 00 00 00	 call	 ??0PBKDF2@@QAE@PAVHMAC@@QBD@Z ; PBKDF2::PBKDF2
  002f3	8b f0		 mov	 esi, eax
  002f5	eb 02		 jmp	 SHORT $LN12@read_KeyDe
$LN11@read_KeyDe:
  002f7	33 f6		 xor	 esi, esi
$LN12@read_KeyDe:
  002f9	c6 84 24 98 01
	00 00 04	 mov	 BYTE PTR __$EHRec$[esp+420], 4

; 500  : 			_pbkdf->Set_PBKDF2((void *)_Salt.strValue.c_str(), _Salt.strValue.size(), _Count.iValue, _dkLen.iValue);

  00301	83 bc 24 98 00
	00 00 10	 cmp	 DWORD PTR __Salt$[esp+504], 16 ; 00000010H
  00309	8b 84 24 84 00
	00 00		 mov	 eax, DWORD PTR __Salt$[esp+484]
  00310	73 07		 jae	 SHORT $LN121@read_KeyDe
  00312	8d 84 24 84 00
	00 00		 lea	 eax, DWORD PTR __Salt$[esp+484]
$LN121@read_KeyDe:
  00319	8b 8c 24 40 01
	00 00		 mov	 ecx, DWORD PTR __dkLen$[esp+480]
  00320	8b 94 24 88 01
	00 00		 mov	 edx, DWORD PTR __Count$[esp+480]
  00327	51		 push	 ecx
  00328	8b 8c 24 98 00
	00 00		 mov	 ecx, DWORD PTR __Salt$[esp+504]
  0032f	52		 push	 edx
  00330	51		 push	 ecx
  00331	50		 push	 eax
  00332	8b ce		 mov	 ecx, esi
  00334	e8 00 00 00 00	 call	 ?Set_PBKDF2@PBKDF2@@QAEXPAXIII@Z ; PBKDF2::Set_PBKDF2

; 504  : 		}
; 505  : 	return(_keyDerivation);

  00339	bd 00 00 00 00	 mov	 ebp, OFFSET ??_7Integer@@6B@
  0033e	8d bc 24 fc 00
	00 00		 lea	 edi, DWORD PTR __dkLen$[esp+412]
  00345	89 ac 24 fc 00
	00 00		 mov	 DWORD PTR __dkLen$[esp+412], ebp
  0034c	e8 00 00 00 00	 call	 ??1ASN1@@QAE@XZ		; ASN1::~ASN1
  00351	8d bc 24 44 01
	00 00		 lea	 edi, DWORD PTR __Count$[esp+412]
  00358	89 ac 24 44 01
	00 00		 mov	 DWORD PTR __Count$[esp+412], ebp
  0035f	e8 00 00 00 00	 call	 ??1ASN1@@QAE@XZ		; ASN1::~ASN1
  00364	83 bc 24 98 00
	00 00 10	 cmp	 DWORD PTR __Salt$[esp+504], 16 ; 00000010H
  0036c	c7 44 24 3c 00
	00 00 00	 mov	 DWORD PTR __Salt$[esp+412], OFFSET ??_7OctetString@@6B@
  00374	72 10		 jb	 SHORT $LN144@read_KeyDe
  00376	8b 94 24 84 00
	00 00		 mov	 edx, DWORD PTR __Salt$[esp+484]
  0037d	52		 push	 edx
  0037e	e8 00 00 00 00	 call	 ??3@YAXPAX@Z		; operator delete
  00383	83 c4 04	 add	 esp, 4
$LN144@read_KeyDe:
  00386	8d 7c 24 3c	 lea	 edi, DWORD PTR __Salt$[esp+412]
  0038a	c7 84 24 98 00
	00 00 0f 00 00
	00		 mov	 DWORD PTR __Salt$[esp+504], 15 ; 0000000fH
  00395	89 9c 24 94 00
	00 00		 mov	 DWORD PTR __Salt$[esp+500], ebx
  0039c	88 9c 24 84 00
	00 00		 mov	 BYTE PTR __Salt$[esp+484], bl
  003a3	e8 00 00 00 00	 call	 ??1ASN1@@QAE@XZ		; ASN1::~ASN1
  003a8	8b 84 24 ec 00
	00 00		 mov	 eax, DWORD PTR __oid$[esp+492]
  003af	c7 84 24 9c 00
	00 00 00 00 00
	00		 mov	 DWORD PTR __oid$[esp+412], OFFSET ??_7ObjectIdentifier@@6B@
  003ba	3b c3		 cmp	 eax, ebx
  003bc	74 09		 je	 SHORT $LN161@read_KeyDe
  003be	50		 push	 eax
  003bf	e8 00 00 00 00	 call	 ??3@YAXPAX@Z		; operator delete
  003c4	83 c4 04	 add	 esp, 4
$LN161@read_KeyDe:
  003c7	8b 84 24 e0 00
	00 00		 mov	 eax, DWORD PTR __oid$[esp+480]
  003ce	50		 push	 eax
  003cf	89 9c 24 f0 00
	00 00		 mov	 DWORD PTR __oid$[esp+496], ebx
  003d6	89 9c 24 f4 00
	00 00		 mov	 DWORD PTR __oid$[esp+500], ebx
  003dd	89 9c 24 f8 00
	00 00		 mov	 DWORD PTR __oid$[esp+504], ebx
  003e4	e8 00 00 00 00	 call	 ??3@YAXPAX@Z		; operator delete
  003e9	83 c4 04	 add	 esp, 4
  003ec	8d bc 24 9c 00
	00 00		 lea	 edi, DWORD PTR __oid$[esp+412]
  003f3	e8 00 00 00 00	 call	 ??1ASN1@@QAE@XZ		; ASN1::~ASN1
  003f8	8b c6		 mov	 eax, esi

; 506  : }

  003fa	8b 8c 24 90 01
	00 00		 mov	 ecx, DWORD PTR __$EHRec$[esp+412]
  00401	64 89 0d 00 00
	00 00		 mov	 DWORD PTR fs:0, ecx
  00408	59		 pop	 ecx
  00409	5f		 pop	 edi
  0040a	5e		 pop	 esi
  0040b	5d		 pop	 ebp
  0040c	5b		 pop	 ebx
  0040d	8b 8c 24 78 01
	00 00		 mov	 ecx, DWORD PTR __$ArrayPad$[esp+392]
  00414	33 cc		 xor	 ecx, esp
  00416	e8 00 00 00 00	 call	 @__security_check_cookie@4
  0041b	81 c4 88 01 00
	00		 add	 esp, 392		; 00000188H
  00421	c3		 ret	 0

; 474  : 			//PBKDF2-params ::= SEQUENCE {
; 475  : 			read_TAG_with_Check(BER_Class_General, true, BER_TAG_SEQUENCE);

$LN69@read_KeyDe:
  00422	a1 00 00 00 00	 mov	 eax, DWORD PTR ?msg_err@?1??DecodeError@BER_Input@@QAEXI@Z@4QBQBDB
  00427	b9 00 00 00 00	 mov	 ecx, OFFSET ??_C@_0BJ@HKJKLLAJ@ASN?41?5BER?5Decode?5Error?5?3?$AA@
  0042c	e8 00 00 00 00	 call	 ?errPrint@@YAXPBD0@Z	; errPrint
$LN175@read_KeyDe:
$LN7@read_KeyDe:

; 501  : 			_keyDerivation = _pbkdf;
; 502  : 		} else {
; 503  : 			errPrint("KeyDerivationAlgorithm",": Unknown KeyDerivationAlgorithm algorithm.");

  00431	b8 00 00 00 00	 mov	 eax, OFFSET ??_C@_0CM@BCGECGBA@?3?5Unknown?5KeyDerivationAlgorithm@
  00436	b9 00 00 00 00	 mov	 ecx, OFFSET ??_C@_0BH@MIGBCDO@KeyDerivationAlgorithm?$AA@
  0043b	e8 00 00 00 00	 call	 ?errPrint@@YAXPBD0@Z	; errPrint
$LN176@read_KeyDe:
$LN174@read_KeyDe:
  00440	cc		 int	 3
_TEXT	ENDS
;	COMDAT text$x
text$x	SEGMENT
__unwindfunclet$?read_KeyDerivationAlgorithm@PKCS7_Input@@QAEPAVKeyDerivation@@XZ$0:
  00000	a1 00 00 00 00	 mov	 eax, DWORD PTR ?$S2@?1??read_KeyDerivationAlgorithm@PKCS7_Input@@QAEPAVKeyDerivation@@XZ@4IA
  00005	83 e0 fe	 and	 eax, -2			; fffffffeH
  00008	a3 00 00 00 00	 mov	 DWORD PTR ?$S2@?1??read_KeyDerivationAlgorithm@PKCS7_Input@@QAEPAVKeyDerivation@@XZ@4IA, eax
  0000d	c3		 ret	 0
__unwindfunclet$?read_KeyDerivationAlgorithm@PKCS7_Input@@QAEPAVKeyDerivation@@XZ$1:
  0000e	8d 85 00 ff ff
	ff		 lea	 eax, DWORD PTR __oid$[ebp]
  00014	e9 00 00 00 00	 jmp	 ??1ObjectIdentifier@@QAE@XZ ; ObjectIdentifier::~ObjectIdentifier
__unwindfunclet$?read_KeyDerivationAlgorithm@PKCS7_Input@@QAEPAVKeyDerivation@@XZ$2:
  00019	8d 85 a0 fe ff
	ff		 lea	 eax, DWORD PTR __Salt$[ebp]
  0001f	e9 00 00 00 00	 jmp	 ??1OctetString@@QAE@XZ	; OctetString::~OctetString
__unwindfunclet$?read_KeyDerivationAlgorithm@PKCS7_Input@@QAEPAVKeyDerivation@@XZ$3:
  00024	8d 45 a8	 lea	 eax, DWORD PTR __Count$[ebp]
  00027	e9 00 00 00 00	 jmp	 ??1Integer@@QAE@XZ	; Integer::~Integer
__unwindfunclet$?read_KeyDerivationAlgorithm@PKCS7_Input@@QAEPAVKeyDerivation@@XZ$4:
  0002c	8d 85 60 ff ff
	ff		 lea	 eax, DWORD PTR __dkLen$[ebp]
  00032	e9 00 00 00 00	 jmp	 ??1Integer@@QAE@XZ	; Integer::~Integer
__unwindfunclet$?read_KeyDerivationAlgorithm@PKCS7_Input@@QAEPAVKeyDerivation@@XZ$5:
  00037	8b 85 84 fe ff
	ff		 mov	 eax, DWORD PTR $T106456[ebp]
  0003d	50		 push	 eax
  0003e	e8 00 00 00 00	 call	 ??3@YAXPAX@Z		; operator delete
  00043	59		 pop	 ecx
  00044	c3		 ret	 0
__ehhandler$?read_KeyDerivationAlgorithm@PKCS7_Input@@QAEPAVKeyDerivation@@XZ:
  00045	8b 54 24 08	 mov	 edx, DWORD PTR [esp+8]
  00049	8d 82 74 fe ff
	ff		 lea	 eax, DWORD PTR [edx-396]
  0004f	8b 8a 70 fe ff
	ff		 mov	 ecx, DWORD PTR [edx-400]
  00055	33 c8		 xor	 ecx, eax
  00057	e8 00 00 00 00	 call	 @__security_check_cookie@4
  0005c	83 c0 10	 add	 eax, 16			; 00000010H
  0005f	8b 4a fc	 mov	 ecx, DWORD PTR [edx-4]
  00062	33 c8		 xor	 ecx, eax
  00064	e8 00 00 00 00	 call	 @__security_check_cookie@4
  00069	b8 00 00 00 00	 mov	 eax, OFFSET __ehfuncinfo$?read_KeyDerivationAlgorithm@PKCS7_Input@@QAEPAVKeyDerivation@@XZ
  0006e	e9 00 00 00 00	 jmp	 ___CxxFrameHandler3
text$x	ENDS
?read_KeyDerivationAlgorithm@PKCS7_Input@@QAEPAVKeyDerivation@@XZ ENDP ; PKCS7_Input::read_KeyDerivationAlgorithm
PUBLIC	__$ArrayPad$
PUBLIC	?read_keyEncryptionAlgorithm@PKCS7_Input@@QAEPAVEncryption@@XZ ; PKCS7_Input::read_keyEncryptionAlgorithm
;	COMDAT xdata$x
; File c:\program files\microsoft visual studio 9.0\vc\include\xutility
xdata$x	SEGMENT
__unwindtable$?read_keyEncryptionAlgorithm@PKCS7_Input@@QAEPAVEncryption@@XZ DD 0ffffffffH
	DD	FLAT:__unwindfunclet$?read_keyEncryptionAlgorithm@PKCS7_Input@@QAEPAVEncryption@@XZ$0
	DD	00H
	DD	FLAT:__unwindfunclet$?read_keyEncryptionAlgorithm@PKCS7_Input@@QAEPAVEncryption@@XZ$1
__ehfuncinfo$?read_keyEncryptionAlgorithm@PKCS7_Input@@QAEPAVEncryption@@XZ DD 019930522H
	DD	02H
	DD	FLAT:__unwindtable$?read_keyEncryptionAlgorithm@PKCS7_Input@@QAEPAVEncryption@@XZ
	DD	2 DUP(00H)
	DD	2 DUP(00H)
	DD	00H
	DD	01H
; Function compile flags: /Ogtpy
; File i:\“n•”“ÄŽj\my project\cms\cms\asn1\pkcs7\pkcs7_input.cpp
xdata$x	ENDS
;	COMDAT ?read_keyEncryptionAlgorithm@PKCS7_Input@@QAEPAVEncryption@@XZ
_TEXT	SEGMENT
_read_fStruct$107041 = -118				; size = 1
_read_class$107040 = -117				; size = 1
_read_tag$107039 = -116					; size = 4
$T107026 = -116						; size = 4
__oid$ = -112						; size = 92
__$ArrayPad$ = -16					; size = 4
__$EHRec$ = -12						; size = 12
?read_keyEncryptionAlgorithm@PKCS7_Input@@QAEPAVEncryption@@XZ PROC ; PKCS7_Input::read_keyEncryptionAlgorithm, COMDAT
; _this$ = ecx

; 416  : {

  00000	6a ff		 push	 -1
  00002	68 00 00 00 00	 push	 __ehhandler$?read_keyEncryptionAlgorithm@PKCS7_Input@@QAEPAVEncryption@@XZ
  00007	64 a1 00 00 00
	00		 mov	 eax, DWORD PTR fs:0
  0000d	50		 push	 eax
  0000e	83 ec 6c	 sub	 esp, 108		; 0000006cH
  00011	a1 00 00 00 00	 mov	 eax, DWORD PTR ___security_cookie
  00016	33 c4		 xor	 eax, esp
  00018	89 44 24 68	 mov	 DWORD PTR __$ArrayPad$[esp+120], eax
  0001c	53		 push	 ebx
  0001d	55		 push	 ebp
  0001e	56		 push	 esi
  0001f	57		 push	 edi
  00020	a1 00 00 00 00	 mov	 eax, DWORD PTR ___security_cookie
  00025	33 c4		 xor	 eax, esp
  00027	50		 push	 eax
  00028	8d 84 24 80 00
	00 00		 lea	 eax, DWORD PTR __$EHRec$[esp+140]
  0002f	64 a3 00 00 00
	00		 mov	 DWORD PTR fs:0, eax

; 417  : 	//contentType ContentType,
; 418  : 	ObjectIdentifier		_oid;

  00035	8d 44 24 1c	 lea	 eax, DWORD PTR __oid$[esp+140]
  00039	50		 push	 eax
  0003a	8b f9		 mov	 edi, ecx
  0003c	e8 00 00 00 00	 call	 ??0ObjectIdentifier@@QAE@QBD@Z ; ObjectIdentifier::ObjectIdentifier
  00041	33 db		 xor	 ebx, ebx

; 419  : 	PWRI_KEK*				_pwri_kek	= new PWRI_KEK();

  00043	68 e4 00 00 00	 push	 228			; 000000e4H
  00048	89 9c 24 8c 00
	00 00		 mov	 DWORD PTR __$EHRec$[esp+152], ebx
  0004f	e8 00 00 00 00	 call	 ??2@YAPAXI@Z		; operator new
  00054	83 c4 04	 add	 esp, 4
  00057	89 44 24 18	 mov	 DWORD PTR $T107026[esp+140], eax
  0005b	c6 84 24 88 00
	00 00 01	 mov	 BYTE PTR __$EHRec$[esp+148], 1
  00063	3b c3		 cmp	 eax, ebx
  00065	74 0a		 je	 SHORT $LN5@read_keyEn
  00067	50		 push	 eax
  00068	e8 00 00 00 00	 call	 ??0PWRI_KEK@@QAE@QBD@Z	; PWRI_KEK::PWRI_KEK
  0006d	8b e8		 mov	 ebp, eax
  0006f	eb 02		 jmp	 SHORT $LN6@read_keyEn
$LN5@read_keyEn:
  00071	33 ed		 xor	 ebp, ebp
$LN6@read_keyEn:

; 420  : 
; 421  : 	Encryption*	cKE;
; 422  : 
; 423  : 	//EncryptionAlgorithm
; 424  : 	//SEQUENCE
; 425  : 	read_TAG_with_Check(BER_Class_General, true, BER_TAG_SEQUENCE);

  00073	8d 4c 24 18	 lea	 ecx, DWORD PTR _read_tag$107039[esp+140]
  00077	51		 push	 ecx
  00078	8d 54 24 1a	 lea	 edx, DWORD PTR _read_fStruct$107041[esp+144]
  0007c	52		 push	 edx
  0007d	8d 44 24 1f	 lea	 eax, DWORD PTR _read_class$107040[esp+148]
  00081	8d b7 d0 03 00
	00		 lea	 esi, DWORD PTR [edi+976]
  00087	50		 push	 eax
  00088	88 9c 24 94 00
	00 00		 mov	 BYTE PTR __$EHRec$[esp+160], bl
  0008f	e8 00 00 00 00	 call	 ?read_TAG@BER_Input@@QAEIPAEPA_NPAI@Z ; BER_Input::read_TAG
  00094	38 5c 24 17	 cmp	 BYTE PTR _read_class$107040[esp+140], bl
  00098	0f 85 a8 00 00
	00		 jne	 $LN9@read_keyEn
  0009e	83 7c 24 18 10	 cmp	 DWORD PTR _read_tag$107039[esp+140], 16 ; 00000010H
  000a3	0f 85 9d 00 00
	00		 jne	 $LN9@read_keyEn
  000a9	80 7c 24 16 01	 cmp	 BYTE PTR _read_fStruct$107041[esp+140], 1
  000ae	0f 85 92 00 00
	00		 jne	 $LN9@read_keyEn

; 426  : 		//algorithm OBJECT IDENTIFIER
; 427  : 		read_Object_Identifier(&_oid);

  000b4	8d 4c 24 1c	 lea	 ecx, DWORD PTR __oid$[esp+140]
  000b8	51		 push	 ecx
  000b9	56		 push	 esi
  000ba	e8 00 00 00 00	 call	 ?read_Object_Identifier@BER_Input@@QAEIPAVObjectIdentifier@@@Z ; BER_Input::read_Object_Identifier

; 428  : 		//ˆÃ†—˜—pƒ‚[ƒh, ‰Šú‰»ƒxƒNƒ^IV ‚ðAÝ’è
; 429  : 		//’Ç‰Á‚ÌˆÃ†ƒAƒ‹ƒSƒŠƒYƒ€‚ª‚ ‚éê‡‚ÍA‚±‚±‚É’Ç‰ÁB
; 430  : 		if(_pwri_kek->Check_OID(&_oid) != -1){

  000bf	8d 54 24 1c	 lea	 edx, DWORD PTR __oid$[esp+140]
  000c3	52		 push	 edx
  000c4	55		 push	 ebp
  000c5	e8 00 00 00 00	 call	 ?Check_OID@AlgorithmIdentifier@@QAEHPAVObjectIdentifier@@@Z ; AlgorithmIdentifier::Check_OID
  000ca	83 f8 ff	 cmp	 eax, -1
  000cd	74 68		 je	 SHORT $LN2@read_keyEn

; 431  : 			read_KeyWrapAlgorithm(_pwri_kek);

  000cf	8b d5		 mov	 edx, ebp
  000d1	8b cf		 mov	 ecx, edi
  000d3	e8 00 00 00 00	 call	 ?read_KeyWrapAlgorithm@PKCS7_Input@@QAEPAVEncryption@@PAVPWRI_KEK@@@Z ; PKCS7_Input::read_KeyWrapAlgorithm

; 435  : 		}
; 436  : 
; 437  : 	return(cKE);

  000d8	8b 44 24 6c	 mov	 eax, DWORD PTR __oid$[esp+220]
  000dc	c7 44 24 1c 00
	00 00 00	 mov	 DWORD PTR __oid$[esp+140], OFFSET ??_7ObjectIdentifier@@6B@
  000e4	3b c3		 cmp	 eax, ebx
  000e6	74 09		 je	 SHORT $LN24@read_keyEn
  000e8	50		 push	 eax
  000e9	e8 00 00 00 00	 call	 ??3@YAXPAX@Z		; operator delete
  000ee	83 c4 04	 add	 esp, 4
$LN24@read_keyEn:
  000f1	8b 44 24 60	 mov	 eax, DWORD PTR __oid$[esp+208]
  000f5	50		 push	 eax
  000f6	89 5c 24 70	 mov	 DWORD PTR __oid$[esp+224], ebx
  000fa	89 5c 24 74	 mov	 DWORD PTR __oid$[esp+228], ebx
  000fe	89 5c 24 78	 mov	 DWORD PTR __oid$[esp+232], ebx
  00102	e8 00 00 00 00	 call	 ??3@YAXPAX@Z		; operator delete
  00107	83 c4 04	 add	 esp, 4
  0010a	8d 7c 24 1c	 lea	 edi, DWORD PTR __oid$[esp+140]
  0010e	e8 00 00 00 00	 call	 ??1ASN1@@QAE@XZ		; ASN1::~ASN1
  00113	8b c5		 mov	 eax, ebp

; 438  : }

  00115	8b 8c 24 80 00
	00 00		 mov	 ecx, DWORD PTR __$EHRec$[esp+140]
  0011c	64 89 0d 00 00
	00 00		 mov	 DWORD PTR fs:0, ecx
  00123	59		 pop	 ecx
  00124	5f		 pop	 edi
  00125	5e		 pop	 esi
  00126	5d		 pop	 ebp
  00127	5b		 pop	 ebx
  00128	8b 4c 24 68	 mov	 ecx, DWORD PTR __$ArrayPad$[esp+120]
  0012c	33 cc		 xor	 ecx, esp
  0012e	e8 00 00 00 00	 call	 @__security_check_cookie@4
  00133	83 c4 78	 add	 esp, 120		; 00000078H
  00136	c3		 ret	 0
$LN2@read_keyEn:

; 432  : 			cKE = _pwri_kek;
; 433  : 		} else {
; 434  : 			errPrint("contentEncryptionAlgorithm",": Unknown encryption algorithm.");

  00137	b8 00 00 00 00	 mov	 eax, OFFSET ??_C@_0CA@BPHDHPBC@?3?5Unknown?5encryption?5algorithm?4?$AA@
  0013c	b9 00 00 00 00	 mov	 ecx, OFFSET ??_C@_0BL@JFGGCGJK@contentEncryptionAlgorithm?$AA@
  00141	e8 00 00 00 00	 call	 ?errPrint@@YAXPBD0@Z	; errPrint
$LN36@read_keyEn:

; 420  : 
; 421  : 	Encryption*	cKE;
; 422  : 
; 423  : 	//EncryptionAlgorithm
; 424  : 	//SEQUENCE
; 425  : 	read_TAG_with_Check(BER_Class_General, true, BER_TAG_SEQUENCE);

$LN9@read_keyEn:
  00146	a1 00 00 00 00	 mov	 eax, DWORD PTR ?msg_err@?1??DecodeError@BER_Input@@QAEXI@Z@4QBQBDB
  0014b	b9 00 00 00 00	 mov	 ecx, OFFSET ??_C@_0BJ@HKJKLLAJ@ASN?41?5BER?5Decode?5Error?5?3?$AA@
  00150	e8 00 00 00 00	 call	 ?errPrint@@YAXPBD0@Z	; errPrint
$LN37@read_keyEn:
$LN35@read_keyEn:
  00155	cc		 int	 3
_TEXT	ENDS
;	COMDAT text$x
text$x	SEGMENT
__unwindfunclet$?read_keyEncryptionAlgorithm@PKCS7_Input@@QAEPAVEncryption@@XZ$0:
  00000	8d 45 90	 lea	 eax, DWORD PTR __oid$[ebp]
  00003	e9 00 00 00 00	 jmp	 ??1ObjectIdentifier@@QAE@XZ ; ObjectIdentifier::~ObjectIdentifier
__unwindfunclet$?read_keyEncryptionAlgorithm@PKCS7_Input@@QAEPAVEncryption@@XZ$1:
  00008	8b 45 8c	 mov	 eax, DWORD PTR $T107026[ebp]
  0000b	50		 push	 eax
  0000c	e8 00 00 00 00	 call	 ??3@YAXPAX@Z		; operator delete
  00011	59		 pop	 ecx
  00012	c3		 ret	 0
__ehhandler$?read_keyEncryptionAlgorithm@PKCS7_Input@@QAEPAVEncryption@@XZ:
  00013	8b 54 24 08	 mov	 edx, DWORD PTR [esp+8]
  00017	8d 42 84	 lea	 eax, DWORD PTR [edx-124]
  0001a	8b 4a 80	 mov	 ecx, DWORD PTR [edx-128]
  0001d	33 c8		 xor	 ecx, eax
  0001f	e8 00 00 00 00	 call	 @__security_check_cookie@4
  00024	83 c0 10	 add	 eax, 16			; 00000010H
  00027	8b 4a fc	 mov	 ecx, DWORD PTR [edx-4]
  0002a	33 c8		 xor	 ecx, eax
  0002c	e8 00 00 00 00	 call	 @__security_check_cookie@4
  00031	b8 00 00 00 00	 mov	 eax, OFFSET __ehfuncinfo$?read_keyEncryptionAlgorithm@PKCS7_Input@@QAEPAVEncryption@@XZ
  00036	e9 00 00 00 00	 jmp	 ___CxxFrameHandler3
text$x	ENDS
?read_keyEncryptionAlgorithm@PKCS7_Input@@QAEPAVEncryption@@XZ ENDP ; PKCS7_Input::read_keyEncryptionAlgorithm
PUBLIC	?read_PasswordRecipientInfo@PKCS7_Input@@QAEXPAVPasswordRecipientInfo@@@Z ; PKCS7_Input::read_PasswordRecipientInfo
; Function compile flags: /Ogtpy
;	COMDAT ?read_PasswordRecipientInfo@PKCS7_Input@@QAEXPAVPasswordRecipientInfo@@@Z
_TEXT	SEGMENT
?read_PasswordRecipientInfo@PKCS7_Input@@QAEXPAVPasswordRecipientInfo@@@Z PROC ; PKCS7_Input::read_PasswordRecipientInfo, COMDAT
; _this$ = edi
; __passwordRecipientInfo$ = eax

; 223  : {

  00000	53		 push	 ebx
  00001	55		 push	 ebp
  00002	56		 push	 esi
  00003	8b f0		 mov	 esi, eax

; 224  : 	KeyDerivation*			_keyDerivation;
; 225  : 	Encryption*				_keyEncryption;
; 226  : 
; 227  : 	//version CMSVersion,   -- Always set to 0
; 228  : 	read_Integer(&_passwordRecipientInfo->version);

  00005	8d 46 44	 lea	 eax, DWORD PTR [esi+68]
  00008	8d 9f d0 03 00
	00		 lea	 ebx, DWORD PTR [edi+976]
  0000e	50		 push	 eax
  0000f	8b c3		 mov	 eax, ebx
  00011	e8 00 00 00 00	 call	 ?read_Integer@BER_Input@@QAEIPAVInteger@@@Z ; BER_Input::read_Integer

; 229  : 	if(_passwordRecipientInfo->version.iValue != 0){

  00016	83 be 88 00 00
	00 00		 cmp	 DWORD PTR [esi+136], 0
  0001d	74 0f		 je	 SHORT $LN1@read_Passw@2

; 230  : 		errPrint("PasswordRecipientinfo",": –¢‘Î‰ž‚ÌVersion");

  0001f	b8 00 00 00 00	 mov	 eax, OFFSET ??_C@_0BC@EJOPBHAJ@?3?5?$JG?$KC?$JB?N?$IJ?$JO?$IC?LVersion?$AA@
  00024	b9 00 00 00 00	 mov	 ecx, OFFSET ??_C@_0BG@OLHKPAFH@PasswordRecipientinfo?$AA@
  00029	e8 00 00 00 00	 call	 ?errPrint@@YAXPBD0@Z	; errPrint
$LN5@read_Passw@2:
$LN1@read_Passw@2:

; 231  : 	}
; 232  : 
; 233  : 	//keyDerivationAlgorithm [0] KeyDerivationAlgorithmIdentifier OPTIONAL,
; 234  : 	_keyDerivation = read_KeyDerivationAlgorithm();

  0002e	8b cf		 mov	 ecx, edi
  00030	e8 00 00 00 00	 call	 ?read_KeyDerivationAlgorithm@PKCS7_Input@@QAEPAVKeyDerivation@@XZ ; PKCS7_Input::read_KeyDerivationAlgorithm

; 235  : 
; 236  : 	//keyEncryptionAlgorithm KeyEncryptionAlgorithmIdentifier,
; 237  : 	_keyEncryption = read_keyEncryptionAlgorithm();

  00035	8b cf		 mov	 ecx, edi
  00037	8b e8		 mov	 ebp, eax
  00039	e8 00 00 00 00	 call	 ?read_keyEncryptionAlgorithm@PKCS7_Input@@QAEPAVEncryption@@XZ ; PKCS7_Input::read_keyEncryptionAlgorithm

; 238  : 
; 239  : 	_passwordRecipientInfo->SetInfo(_keyDerivation, _keyEncryption);

  0003e	50		 push	 eax
  0003f	55		 push	 ebp
  00040	e8 00 00 00 00	 call	 ?SetInfo@PasswordRecipientInfo@@QAEXPAVKeyDerivation@@PAVEncryption@@@Z ; PasswordRecipientInfo::SetInfo

; 240  : 
; 241  : 	//encryptedKey EncryptedKey }
; 242  : 	read_Octet_Strings(&_passwordRecipientInfo->EncryptedKey);

  00045	81 c6 f4 00 00
	00		 add	 esi, 244		; 000000f4H
  0004b	56		 push	 esi
  0004c	8b c3		 mov	 eax, ebx
  0004e	e8 00 00 00 00	 call	 ?read_Octet_Strings@BER_Input@@QAEIPAVOctetString@@@Z ; BER_Input::read_Octet_Strings

; 243  : }

  00053	5e		 pop	 esi
  00054	5d		 pop	 ebp
  00055	5b		 pop	 ebx
  00056	c3		 ret	 0
$LN4@read_Passw@2:
?read_PasswordRecipientInfo@PKCS7_Input@@QAEXPAVPasswordRecipientInfo@@@Z ENDP ; PKCS7_Input::read_PasswordRecipientInfo
_TEXT	ENDS
PUBLIC	?read_RecipientInfos@PKCS7_Input@@QAEXPAVRecipientInfos@@@Z ; PKCS7_Input::read_RecipientInfos
; Function compile flags: /Ogtpy
;	COMDAT ?read_RecipientInfos@PKCS7_Input@@QAEXPAVRecipientInfos@@@Z
_TEXT	SEGMENT
_cData$107253 = -45					; size = 1
_cData$107267 = -44					; size = 1
_cData$107272 = -43					; size = 1
_read_class$107574 = -42				; size = 1
_read_class$ = -42					; size = 1
_cData$107366 = -41					; size = 1
_cData$107380 = -40					; size = 1
_cData$107385 = -39					; size = 1
_cData$107396 = -38					; size = 1
_cData$107588 = -37					; size = 1
_cData$107593 = -36					; size = 1
_cData$107607 = -35					; size = 1
_cData$107612 = -34					; size = 1
_cData$107283 = -33					; size = 1
_read_tag$107573 = -32					; size = 4
_read_tag$ = -32					; size = 4
_ptTemp$ = -32						; size = 4
$T107137 = -28						; size = 24
_this$ = 8						; size = 4
__recipientInfos$ = 12					; size = 4
?read_RecipientInfos@PKCS7_Input@@QAEXPAVRecipientInfos@@@Z PROC ; PKCS7_Input::read_RecipientInfos, COMDAT

; 163  : {

  00000	83 ec 34	 sub	 esp, 52			; 00000034H
  00003	53		 push	 ebx
  00004	55		 push	 ebp
  00005	56		 push	 esi
  00006	57		 push	 edi

; 182  : 			break;
; 183  : 		}
; 184  : 		
; 185  : 		//RecipientInfo ::= CHOICE {
; 186  : 		iSize = read_TAG(&read_class, &read_fStruct, &read_tag);

  00007	8b 7c 24 48	 mov	 edi, DWORD PTR _this$[esp+64]
  0000b	81 c7 d0 03 00
	00		 add	 edi, 976		; 000003d0H
$LL13@read_Recip:
  00011	8b 07		 mov	 eax, DWORD PTR [edi]
  00013	8b 48 04	 mov	 ecx, DWORD PTR [eax+4]
  00016	f6 44 39 08 06	 test	 BYTE PTR [ecx+edi+8], 6
  0001b	8d 04 39	 lea	 eax, DWORD PTR [ecx+edi]
  0001e	75 1f		 jne	 SHORT $LN17@read_Recip
  00020	8b 48 28	 mov	 ecx, DWORD PTR [eax+40]
  00023	8b 11		 mov	 edx, DWORD PTR [ecx]
  00025	8b 52 24	 mov	 edx, DWORD PTR [edx+36]
  00028	6a 01		 push	 1
  0002a	6a 01		 push	 1
  0002c	6a 00		 push	 0
  0002e	8d 44 24 34	 lea	 eax, DWORD PTR $T107137[esp+80]
  00032	50		 push	 eax
  00033	ff d2		 call	 edx
  00035	8b 4c 24 30	 mov	 ecx, DWORD PTR $T107137[esp+76]
  00039	8b 44 24 28	 mov	 eax, DWORD PTR $T107137[esp+68]
  0003d	eb 0b		 jmp	 SHORT $LN16@read_Recip

; 164  : 	unsigned	int		ptTemp;				//ƒtƒ@ƒCƒ‹ƒ|ƒCƒ“ƒ^ˆêŽŸ•Û‘¶—p
; 165  : 
; 166  : 	unsigned	int		read_tag;			//ASN.1 ƒ^ƒO
; 167  : 	unsigned	char	read_class;			//ASN.1 ƒNƒ‰ƒX
; 168  : 				bool	read_fStruct;		//ASN.1 \‘¢‰»
; 169  : 	unsigned	int		iSize;				//ASN.1 ƒTƒCƒY
; 170  : 
; 171  : 	//----------
; 172  : 	//"SET RecipientInfo"‚Å‚È‚­‚È‚é‚Ü‚ÅŒJ‚è•Ô‚·B
; 173  : 	while(1){
; 174  : 		//Œ»Ý‚Ìƒtƒ@ƒCƒ‹ƒ|ƒCƒ“ƒ^‚ðŽæ“¾
; 175  : 		ptTemp = tellg();

$LN17@read_Recip:
  0003f	a1 00 00 00 00	 mov	 eax, DWORD PTR ?_BADOFF@std@@3JB ; std::_BADOFF
  00044	33 c9		 xor	 ecx, ecx
  00046	89 4c 24 34	 mov	 DWORD PTR $T107137[esp+80], ecx
$LN16@read_Recip:
  0004a	03 c8		 add	 ecx, eax

; 176  : 
; 177  : 		//RecipientInfos ::= SET SIZE (1..MAX) OF RecipientInfo
; 178  : 		iSize = read_TAG(&read_class, &read_fStruct, &read_tag);

  0004c	6a 01		 push	 1
  0004e	8d 44 24 1b	 lea	 eax, DWORD PTR _cData$107253[esp+72]
  00052	50		 push	 eax
  00053	57		 push	 edi
  00054	89 4c 24 30	 mov	 DWORD PTR _ptTemp$[esp+80], ecx
  00058	e8 00 00 00 00	 call	 ?_Read_s@?$basic_istream@DU?$char_traits@D@std@@@std@@QAEAAV12@PADIH@Z ; std::basic_istream<char,std::char_traits<char> >::_Read_s
  0005d	8a 44 24 17	 mov	 al, BYTE PTR _cData$107253[esp+68]
  00061	8a d8		 mov	 bl, al
  00063	8a c8		 mov	 cl, al
  00065	c0 eb 05	 shr	 bl, 5
  00068	c0 e9 06	 shr	 cl, 6
  0006b	24 1f		 and	 al, 31			; 0000001fH
  0006d	80 e3 01	 and	 bl, 1
  00070	88 4c 24 1a	 mov	 BYTE PTR _read_class$[esp+68], cl
  00074	3c 1e		 cmp	 al, 30			; 0000001eH
  00076	77 05		 ja	 SHORT $LN35@read_Recip
  00078	0f b6 e8	 movzx	 ebp, al
  0007b	eb 2c		 jmp	 SHORT $LN36@read_Recip
$LN35@read_Recip:
  0007d	33 f6		 xor	 esi, esi
  0007f	8d 6e 09	 lea	 ebp, DWORD PTR [esi+9]
$LL44@read_Recip:
  00082	6a 01		 push	 1
  00084	8d 4c 24 1c	 lea	 ecx, DWORD PTR _cData$107267[esp+72]
  00088	51		 push	 ecx
  00089	57		 push	 edi
  0008a	e8 00 00 00 00	 call	 ?_Read_s@?$basic_istream@DU?$char_traits@D@std@@@std@@QAEAAV12@PADIH@Z ; std::basic_istream<char,std::char_traits<char> >::_Read_s
  0008f	8a 44 24 18	 mov	 al, BYTE PTR _cData$107267[esp+68]
  00093	0f b6 d0	 movzx	 edx, al
  00096	83 e2 7f	 and	 edx, 127		; 0000007fH
  00099	c1 e6 07	 shl	 esi, 7
  0009c	0b f2		 or	 esi, edx
  0009e	83 ed 01	 sub	 ebp, 1
  000a1	74 04		 je	 SHORT $LN41@read_Recip
  000a3	84 c0		 test	 al, al
  000a5	78 db		 js	 SHORT $LL44@read_Recip
$LN41@read_Recip:
  000a7	8b ee		 mov	 ebp, esi
$LN36@read_Recip:
  000a9	6a 01		 push	 1
  000ab	8d 44 24 1d	 lea	 eax, DWORD PTR _cData$107272[esp+72]
  000af	50		 push	 eax
  000b0	57		 push	 edi
  000b1	e8 00 00 00 00	 call	 ?_Read_s@?$basic_istream@DU?$char_traits@D@std@@@std@@QAEAAV12@PADIH@Z ; std::basic_istream<char,std::char_traits<char> >::_Read_s
  000b6	0f b6 74 24 19	 movzx	 esi, BYTE PTR _cData$107272[esp+68]
  000bb	81 fe 81 00 00
	00		 cmp	 esi, 129		; 00000081H
  000c1	72 15		 jb	 SHORT $LN32@read_Recip
  000c3	83 e6 7f	 and	 esi, 127		; 0000007fH
$LL57@read_Recip:
  000c6	6a 01		 push	 1
  000c8	8d 4c 24 27	 lea	 ecx, DWORD PTR _cData$107283[esp+72]
  000cc	51		 push	 ecx
  000cd	57		 push	 edi
  000ce	e8 00 00 00 00	 call	 ?_Read_s@?$basic_istream@DU?$char_traits@D@std@@@std@@QAEAAV12@PADIH@Z ; std::basic_istream<char,std::char_traits<char> >::_Read_s
  000d3	4e		 dec	 esi
  000d4	85 f6		 test	 esi, esi
  000d6	7f ee		 jg	 SHORT $LL57@read_Recip
$LN32@read_Recip:

; 179  : 		//SET‚Å‚È‚©‚Á‚½‚çAƒ|ƒCƒ“ƒ^[‚ð–ß‚µ‚ÄI—¹
; 180  : 		if((read_class != BER_Class_General)||(read_tag != BER_TAG_SET)||(read_fStruct != true)){

  000d8	80 7c 24 1a 00	 cmp	 BYTE PTR _read_class$[esp+68], 0
  000dd	0f 85 01 02 00
	00		 jne	 $LN10@read_Recip
  000e3	83 fd 11	 cmp	 ebp, 17			; 00000011H
  000e6	0f 85 f8 01 00
	00		 jne	 $LN10@read_Recip
  000ec	80 fb 01	 cmp	 bl, 1
  000ef	0f 85 ef 01 00
	00		 jne	 $LN10@read_Recip

; 182  : 			break;
; 183  : 		}
; 184  : 		
; 185  : 		//RecipientInfo ::= CHOICE {
; 186  : 		iSize = read_TAG(&read_class, &read_fStruct, &read_tag);

  000f5	6a 01		 push	 1
  000f7	8d 54 24 1f	 lea	 edx, DWORD PTR _cData$107366[esp+72]
  000fb	52		 push	 edx
  000fc	57		 push	 edi
  000fd	e8 00 00 00 00	 call	 ?_Read_s@?$basic_istream@DU?$char_traits@D@std@@@std@@QAEAAV12@PADIH@Z ; std::basic_istream<char,std::char_traits<char> >::_Read_s
  00102	8a 44 24 1b	 mov	 al, BYTE PTR _cData$107366[esp+68]
  00106	8a d8		 mov	 bl, al
  00108	24 1f		 and	 al, 31			; 0000001fH
  0010a	c0 eb 06	 shr	 bl, 6
  0010d	3c 1e		 cmp	 al, 30			; 0000001eH
  0010f	77 09		 ja	 SHORT $LN69@read_Recip
  00111	0f b6 c0	 movzx	 eax, al
  00114	89 44 24 24	 mov	 DWORD PTR _read_tag$[esp+68], eax
  00118	eb 2f		 jmp	 SHORT $LN70@read_Recip
$LN69@read_Recip:
  0011a	33 f6		 xor	 esi, esi
  0011c	8d 6e 09	 lea	 ebp, DWORD PTR [esi+9]
  0011f	90		 npad	 1
$LL78@read_Recip:
  00120	6a 01		 push	 1
  00122	8d 4c 24 20	 lea	 ecx, DWORD PTR _cData$107380[esp+72]
  00126	51		 push	 ecx
  00127	57		 push	 edi
  00128	e8 00 00 00 00	 call	 ?_Read_s@?$basic_istream@DU?$char_traits@D@std@@@std@@QAEAAV12@PADIH@Z ; std::basic_istream<char,std::char_traits<char> >::_Read_s
  0012d	8a 44 24 1c	 mov	 al, BYTE PTR _cData$107380[esp+68]
  00131	0f b6 d0	 movzx	 edx, al
  00134	83 e2 7f	 and	 edx, 127		; 0000007fH
  00137	c1 e6 07	 shl	 esi, 7
  0013a	0b f2		 or	 esi, edx
  0013c	83 ed 01	 sub	 ebp, 1
  0013f	74 04		 je	 SHORT $LN75@read_Recip
  00141	84 c0		 test	 al, al
  00143	78 db		 js	 SHORT $LL78@read_Recip
$LN75@read_Recip:
  00145	89 74 24 24	 mov	 DWORD PTR _read_tag$[esp+68], esi
$LN70@read_Recip:
  00149	6a 01		 push	 1
  0014b	8d 44 24 21	 lea	 eax, DWORD PTR _cData$107385[esp+72]
  0014f	50		 push	 eax
  00150	57		 push	 edi
  00151	e8 00 00 00 00	 call	 ?_Read_s@?$basic_istream@DU?$char_traits@D@std@@@std@@QAEAAV12@PADIH@Z ; std::basic_istream<char,std::char_traits<char> >::_Read_s
  00156	0f b6 44 24 1d	 movzx	 eax, BYTE PTR _cData$107385[esp+68]
  0015b	3d 81 00 00 00	 cmp	 eax, 129		; 00000081H
  00160	72 2c		 jb	 SHORT $LN66@read_Recip
  00162	83 e0 7f	 and	 eax, 127		; 0000007fH
  00165	8b e8		 mov	 ebp, eax
  00167	33 f6		 xor	 esi, esi
  00169	8d a4 24 00 00
	00 00		 npad	 7
$LL91@read_Recip:
  00170	6a 01		 push	 1
  00172	8d 4c 24 22	 lea	 ecx, DWORD PTR _cData$107396[esp+72]
  00176	51		 push	 ecx
  00177	57		 push	 edi
  00178	e8 00 00 00 00	 call	 ?_Read_s@?$basic_istream@DU?$char_traits@D@std@@@std@@QAEAAV12@PADIH@Z ; std::basic_istream<char,std::char_traits<char> >::_Read_s
  0017d	0f b6 54 24 1e	 movzx	 edx, BYTE PTR _cData$107396[esp+68]
  00182	c1 e6 08	 shl	 esi, 8
  00185	4d		 dec	 ebp
  00186	0b f2		 or	 esi, edx
  00188	85 ed		 test	 ebp, ebp
  0018a	7f e4		 jg	 SHORT $LL91@read_Recip
  0018c	8b c6		 mov	 eax, esi
$LN66@read_Recip:

; 187  : 		switch(read_class){

  0018e	0f b6 cb	 movzx	 ecx, bl
  00191	83 e9 00	 sub	 ecx, 0
  00194	74 10		 je	 SHORT $LN7@read_Recip
  00196	83 e9 02	 sub	 ecx, 2
  00199	0f 85 18 01 00
	00		 jne	 $LN155@read_Recip

; 188  : 			//[SEQUENCE]	ktri KeyTransRecipientInfo
; 189  : 			case(BER_Class_General):
; 190  : 			//	Get_KeyTransRecipientInfo();
; 191  : 				StreamPointerAdd(iSize);
; 192  : 				break;
; 193  : 			//[CONTEXT]		
; 194  : 			case(BER_Class_Context):
; 195  : 				switch(read_tag){

  0019f	83 7c 24 24 03	 cmp	 DWORD PTR _read_tag$[esp+68], 3
  001a4	74 0f		 je	 SHORT $LN3@read_Recip
$LN7@read_Recip:

; 200  : 						break;
; 201  : 					default:
; 202  : 						StreamPointerAdd(iSize);

  001a6	6a 01		 push	 1
  001a8	50		 push	 eax
  001a9	8b f7		 mov	 esi, edi
  001ab	e8 00 00 00 00	 call	 ?seekg@?$basic_istream@DU?$char_traits@D@std@@@std@@QAEAAV12@JH@Z ; std::basic_istream<char,std::char_traits<char> >::seekg

; 203  : 						break;

  001b0	e9 5c fe ff ff	 jmp	 $LL13@read_Recip
$LN3@read_Recip:

; 196  : 					//pwri [3] PasswordRecipientinfo
; 197  : 					case(3):
; 198  : 						_recipientInfos->fPassword = true;

  001b5	8b 44 24 4c	 mov	 eax, DWORD PTR __recipientInfos$[esp+64]
  001b9	c6 40 5c 01	 mov	 BYTE PTR [eax+92], 1

; 199  : 						read_PasswordRecipientInfo(&_recipientInfos->cPassword);

  001bd	8d 68 60	 lea	 ebp, DWORD PTR [eax+96]
  001c0	6a 01		 push	 1
  001c2	8d 44 24 23	 lea	 eax, DWORD PTR _cData$107588[esp+72]
  001c6	50		 push	 eax
  001c7	57		 push	 edi
  001c8	e8 00 00 00 00	 call	 ?_Read_s@?$basic_istream@DU?$char_traits@D@std@@@std@@QAEAAV12@PADIH@Z ; std::basic_istream<char,std::char_traits<char> >::_Read_s
  001cd	8a 44 24 1f	 mov	 al, BYTE PTR _cData$107588[esp+68]
  001d1	8a d8		 mov	 bl, al
  001d3	8a c8		 mov	 cl, al
  001d5	c0 eb 05	 shr	 bl, 5
  001d8	c0 e9 06	 shr	 cl, 6
  001db	24 1f		 and	 al, 31			; 0000001fH
  001dd	80 e3 01	 and	 bl, 1
  001e0	88 4c 24 1a	 mov	 BYTE PTR _read_class$107574[esp+68], cl
  001e4	3c 1e		 cmp	 al, 30			; 0000001eH
  001e6	77 09		 ja	 SHORT $LN112@read_Recip
  001e8	0f b6 c8	 movzx	 ecx, al
  001eb	89 4c 24 24	 mov	 DWORD PTR _read_tag$107573[esp+68], ecx
  001ef	eb 0a		 jmp	 SHORT $LN113@read_Recip
$LN112@read_Recip:
  001f1	57		 push	 edi
  001f2	e8 00 00 00 00	 call	 ?read_variable@BER_Input@@QAEIXZ ; BER_Input::read_variable
  001f7	89 44 24 24	 mov	 DWORD PTR _read_tag$107573[esp+68], eax
$LN113@read_Recip:
  001fb	6a 01		 push	 1
  001fd	8d 54 24 24	 lea	 edx, DWORD PTR _cData$107593[esp+72]
  00201	52		 push	 edx
  00202	57		 push	 edi
  00203	e8 00 00 00 00	 call	 ?_Read_s@?$basic_istream@DU?$char_traits@D@std@@@std@@QAEAAV12@PADIH@Z ; std::basic_istream<char,std::char_traits<char> >::_Read_s
  00208	0f b6 74 24 20	 movzx	 esi, BYTE PTR _cData$107593[esp+68]
  0020d	81 fe 81 00 00
	00		 cmp	 esi, 129		; 00000081H
  00213	72 0d		 jb	 SHORT $LN109@read_Recip
  00215	8b c6		 mov	 eax, esi
  00217	83 e0 7f	 and	 eax, 127		; 0000007fH
  0021a	57		 push	 edi
  0021b	e8 00 00 00 00	 call	 ?read_uint@BER_Input@@QAEIH@Z ; BER_Input::read_uint
  00220	8b f0		 mov	 esi, eax
$LN109@read_Recip:
  00222	80 7c 24 1a 00	 cmp	 BYTE PTR _read_class$107574[esp+68], 0
  00227	0f 85 a8 00 00
	00		 jne	 $LN105@read_Recip
  0022d	83 7c 24 24 02	 cmp	 DWORD PTR _read_tag$107573[esp+68], 2
  00232	0f 85 9d 00 00
	00		 jne	 $LN105@read_Recip
  00238	84 db		 test	 bl, bl
  0023a	0f 85 95 00 00
	00		 jne	 $LN105@read_Recip
  00240	6a 01		 push	 1
  00242	8d 44 24 25	 lea	 eax, DWORD PTR _cData$107607[esp+72]
  00246	50		 push	 eax
  00247	57		 push	 edi
  00248	e8 00 00 00 00	 call	 ?_Read_s@?$basic_istream@DU?$char_traits@D@std@@@std@@QAEAAV12@PADIH@Z ; std::basic_istream<char,std::char_traits<char> >::_Read_s
  0024d	0f b6 5c 24 21	 movzx	 ebx, BYTE PTR _cData$107607[esp+68]
  00252	84 db		 test	 bl, bl
  00254	79 06		 jns	 SHORT $LN128@read_Recip
  00256	81 cb 00 ff ff
	ff		 or	 ebx, -256		; ffffff00H
$LN128@read_Recip:
  0025c	4e		 dec	 esi
  0025d	85 f6		 test	 esi, esi
  0025f	7e 1c		 jle	 SHORT $LN126@read_Recip
$LL127@read_Recip:
  00261	6a 01		 push	 1
  00263	8d 4c 24 26	 lea	 ecx, DWORD PTR _cData$107612[esp+72]
  00267	51		 push	 ecx
  00268	57		 push	 edi
  00269	e8 00 00 00 00	 call	 ?_Read_s@?$basic_istream@DU?$char_traits@D@std@@@std@@QAEAAV12@PADIH@Z ; std::basic_istream<char,std::char_traits<char> >::_Read_s
  0026e	0f b6 54 24 22	 movzx	 edx, BYTE PTR _cData$107612[esp+68]
  00273	c1 e3 08	 shl	 ebx, 8
  00276	4e		 dec	 esi
  00277	0b da		 or	 ebx, edx
  00279	85 f6		 test	 esi, esi
  0027b	7f e4		 jg	 SHORT $LL127@read_Recip
$LN126@read_Recip:
  0027d	89 9d 88 00 00
	00		 mov	 DWORD PTR [ebp+136], ebx
  00283	85 db		 test	 ebx, ebx
  00285	75 3f		 jne	 SHORT $LN153@read_Recip
  00287	8b 5c 24 48	 mov	 ebx, DWORD PTR _this$[esp+64]
  0028b	8b cb		 mov	 ecx, ebx
  0028d	e8 00 00 00 00	 call	 ?read_KeyDerivationAlgorithm@PKCS7_Input@@QAEPAVKeyDerivation@@XZ ; PKCS7_Input::read_KeyDerivationAlgorithm
  00292	8b cb		 mov	 ecx, ebx
  00294	8b f0		 mov	 esi, eax
  00296	e8 00 00 00 00	 call	 ?read_keyEncryptionAlgorithm@PKCS7_Input@@QAEPAVEncryption@@XZ ; PKCS7_Input::read_keyEncryptionAlgorithm
  0029b	50		 push	 eax
  0029c	56		 push	 esi
  0029d	8b f5		 mov	 esi, ebp
  0029f	e8 00 00 00 00	 call	 ?SetInfo@PasswordRecipientInfo@@QAEXPAVKeyDerivation@@PAVEncryption@@@Z ; PasswordRecipientInfo::SetInfo
  002a4	81 c5 f4 00 00
	00		 add	 ebp, 244		; 000000f4H
  002aa	55		 push	 ebp
  002ab	8b c7		 mov	 eax, edi
  002ad	e8 00 00 00 00	 call	 ?read_Octet_Strings@BER_Input@@QAEIPAVOctetString@@@Z ; BER_Input::read_Octet_Strings

; 204  : 				}
; 205  : 				break;

  002b2	e9 5a fd ff ff	 jmp	 $LL13@read_Recip
$LN155@read_Recip:

; 206  : 			default:
; 207  : 				errPrint("RecipientInfos",": –¢‘Î‰ž");

  002b7	b8 00 00 00 00	 mov	 eax, OFFSET ??_C@_08PIIBCAKG@?3?5?$JG?$KC?$JB?N?$IJ?$JO?$AA@
  002bc	b9 00 00 00 00	 mov	 ecx, OFFSET ??_C@_0P@EPGMMLJK@RecipientInfos?$AA@
  002c1	e8 00 00 00 00	 call	 ?errPrint@@YAXPBD0@Z	; errPrint
$LN158@read_Recip:
$LN153@read_Recip:

; 199  : 						read_PasswordRecipientInfo(&_recipientInfos->cPassword);

  002c6	b8 00 00 00 00	 mov	 eax, OFFSET ??_C@_0BC@EJOPBHAJ@?3?5?$JG?$KC?$JB?N?$IJ?$JO?$IC?LVersion?$AA@
  002cb	b9 00 00 00 00	 mov	 ecx, OFFSET ??_C@_0BG@OLHKPAFH@PasswordRecipientinfo?$AA@
  002d0	e8 00 00 00 00	 call	 ?errPrint@@YAXPBD0@Z	; errPrint
$LN159@read_Recip:
$LN105@read_Recip:
  002d5	a1 00 00 00 00	 mov	 eax, DWORD PTR ?msg_err@?1??DecodeError@BER_Input@@QAEXI@Z@4QBQBDB
  002da	b9 00 00 00 00	 mov	 ecx, OFFSET ??_C@_0BJ@HKJKLLAJ@ASN?41?5BER?5Decode?5Error?5?3?$AA@
  002df	e8 00 00 00 00	 call	 ?errPrint@@YAXPBD0@Z	; errPrint
$LN160@read_Recip:
$LN10@read_Recip:

; 181  : 			StreamPointerMove(ptTemp);

  002e4	8b 44 24 24	 mov	 eax, DWORD PTR _ptTemp$[esp+68]
  002e8	6a 00		 push	 0
  002ea	50		 push	 eax
  002eb	8b f7		 mov	 esi, edi
  002ed	e8 00 00 00 00	 call	 ?seekg@?$basic_istream@DU?$char_traits@D@std@@@std@@QAEAAV12@JH@Z ; std::basic_istream<char,std::char_traits<char> >::seekg

; 208  : 				break;
; 209  : 		}
; 210  : 	}
; 211  : 
; 212  : }

  002f2	5f		 pop	 edi
  002f3	5e		 pop	 esi
  002f4	5d		 pop	 ebp
  002f5	5b		 pop	 ebx
  002f6	83 c4 34	 add	 esp, 52			; 00000034H
  002f9	c2 08 00	 ret	 8
$LN157@read_Recip:
?read_RecipientInfos@PKCS7_Input@@QAEXPAVRecipientInfos@@@Z ENDP ; PKCS7_Input::read_RecipientInfos
_TEXT	ENDS
PUBLIC	?read_EnvelopedData@PKCS7_Input@@QAEIPAVEnvelopedData@@@Z ; PKCS7_Input::read_EnvelopedData
; Function compile flags: /Ogtpy
;	COMDAT ?read_EnvelopedData@PKCS7_Input@@QAEIPAVEnvelopedData@@@Z
_TEXT	SEGMENT
_read_tag$107659 = -4					; size = 4
_read_fStruct$107661 = 8				; size = 1
_this$ = 8						; size = 4
_read_class$107660 = 12					; size = 1
$T107677 = 12						; size = 4
$T107673 = 12						; size = 4
__envelopedData$ = 12					; size = 4
?read_EnvelopedData@PKCS7_Input@@QAEIPAVEnvelopedData@@@Z PROC ; PKCS7_Input::read_EnvelopedData, COMDAT

; 60   : {

  00000	51		 push	 ecx
  00001	53		 push	 ebx
  00002	8b 5c 24 10	 mov	 ebx, DWORD PTR __envelopedData$[esp+4]
  00006	55		 push	 ebp
  00007	8b 6c 24 10	 mov	 ebp, DWORD PTR _this$[esp+8]
  0000b	56		 push	 esi
  0000c	57		 push	 edi

; 61   : 	unsigned	int	ptEncryptedContent;
; 62   : 
; 63   : 	//EnvelopedData
; 64   : 	read_TAG_with_Check(BER_Class_General, true, BER_TAG_SEQUENCE);

  0000d	8d 44 24 10	 lea	 eax, DWORD PTR _read_tag$107659[esp+20]
  00011	50		 push	 eax
  00012	8d 4c 24 1c	 lea	 ecx, DWORD PTR _read_fStruct$107661[esp+20]
  00016	51		 push	 ecx
  00017	8d 54 24 24	 lea	 edx, DWORD PTR _read_class$107660[esp+24]
  0001b	8d b5 d0 03 00
	00		 lea	 esi, DWORD PTR [ebp+976]
  00021	52		 push	 edx
  00022	e8 00 00 00 00	 call	 ?read_TAG@BER_Input@@QAEIPAEPA_NPAI@Z ; BER_Input::read_TAG
  00027	80 7c 24 1c 00	 cmp	 BYTE PTR _read_class$107660[esp+16], 0
  0002c	75 7c		 jne	 SHORT $LN4@read_Envel
  0002e	83 7c 24 10 10	 cmp	 DWORD PTR _read_tag$107659[esp+20], 16 ; 00000010H
  00033	75 75		 jne	 SHORT $LN4@read_Envel
  00035	80 7c 24 18 01	 cmp	 BYTE PTR _read_fStruct$107661[esp+16], 1
  0003a	75 6e		 jne	 SHORT $LN4@read_Envel

; 65   : 
; 66   : 		//version
; 67   : 		read_Integer(&_envelopedData->version);

  0003c	8d 7b 44	 lea	 edi, DWORD PTR [ebx+68]
  0003f	57		 push	 edi
  00040	8b c6		 mov	 eax, esi
  00042	e8 00 00 00 00	 call	 ?read_Integer@BER_Input@@QAEIPAVInteger@@@Z ; BER_Input::read_Integer

; 68   : 		if(_envelopedData->version.iValue != 3){

  00047	83 bb 88 00 00
	00 03		 cmp	 DWORD PTR [ebx+136], 3
  0004e	74 0f		 je	 SHORT $LN1@read_Envel

; 69   : 			error(0);	//–¢‘Î‰ž‚ÌVersion

  00050	a1 00 00 00 00	 mov	 eax, DWORD PTR ?msg_err@?1??error@ASN1@@QAEXI@Z@4QBQBDB
  00055	b9 00 00 00 00	 mov	 ecx, OFFSET ??_C@_0BJ@IMFJFLAM@ASN?41?5BER?5Encode?5Error?5?3?$AA@
  0005a	e8 00 00 00 00	 call	 ?errPrint@@YAXPBD0@Z	; errPrint
$LN19@read_Envel:
$LN1@read_Envel:

; 70   : 		}
; 71   : 		_envelopedData->Set_Construct(&_envelopedData->version);

  0005f	8d 44 24 1c	 lea	 eax, DWORD PTR $T107673[esp+16]
  00063	89 7c 24 1c	 mov	 DWORD PTR $T107673[esp+16], edi
  00067	50		 push	 eax
  00068	8d 7b 28	 lea	 edi, DWORD PTR [ebx+40]
  0006b	e8 00 00 00 00	 call	 ?push_back@?$vector@PAVASN1@@V?$allocator@PAVASN1@@@std@@@std@@QAEXABQAVASN1@@@Z ; std::vector<ASN1 *,std::allocator<ASN1 *> >::push_back

; 72   : 
; 73   : 		//originatorInfo
; 74   : 		
; 75   : 
; 76   : 		//recipientInfos
; 77   : 		read_RecipientInfos(&_envelopedData->recipientInfos);

  00070	8d 8b ec 00 00
	00		 lea	 ecx, DWORD PTR [ebx+236]
  00076	51		 push	 ecx
  00077	55		 push	 ebp
  00078	e8 00 00 00 00	 call	 ?read_RecipientInfos@PKCS7_Input@@QAEXPAVRecipientInfos@@@Z ; PKCS7_Input::read_RecipientInfos

; 78   : 
; 79   : 		//encryptedContentInfo
; 80   : 		ptEncryptedContent = read_EncryptedContentInfo(&_envelopedData->encryptedContentInfo);

  0007d	8d 93 a8 02 00
	00		 lea	 edx, DWORD PTR [ebx+680]
  00083	52		 push	 edx
  00084	55		 push	 ebp
  00085	e8 00 00 00 00	 call	 ?read_EncryptedContentInfo@PKCS7_Input@@QAEIPAVEncryptedContentInfo@@@Z ; PKCS7_Input::read_EncryptedContentInfo
  0008a	8b f0		 mov	 esi, eax

; 81   : 		//ˆÃ†ƒ‚ƒWƒ…[ƒ‹‚Ìƒ|ƒCƒ“ƒ^‚ðŽæ“¾‚µ‚Ä‚¨‚­B
; 82   : 	//	cCE = _envelopedData->encryptedContentInfo.contentEncryptionAlgorithm;
; 83   : 
; 84   : 	//------
; 85   : 	//ˆ—
; 86   : 	context.Set_Construct(_envelopedData);		//ContentInfoƒNƒ‰ƒX‚Ìmember

  0008c	8d 44 24 1c	 lea	 eax, DWORD PTR $T107677[esp+16]
  00090	50		 push	 eax
  00091	8d bd c8 00 00
	00		 lea	 edi, DWORD PTR [ebp+200]
  00097	89 5c 24 20	 mov	 DWORD PTR $T107677[esp+20], ebx
  0009b	e8 00 00 00 00	 call	 ?push_back@?$vector@PAVASN1@@V?$allocator@PAVASN1@@@std@@@std@@QAEXABQAVASN1@@@Z ; std::vector<ASN1 *,std::allocator<ASN1 *> >::push_back

; 87   : 
; 88   : 	return(ptEncryptedContent);
; 89   : }

  000a0	5f		 pop	 edi
  000a1	8b c6		 mov	 eax, esi
  000a3	5e		 pop	 esi
  000a4	5d		 pop	 ebp
  000a5	5b		 pop	 ebx
  000a6	59		 pop	 ecx
  000a7	c2 08 00	 ret	 8

; 61   : 	unsigned	int	ptEncryptedContent;
; 62   : 
; 63   : 	//EnvelopedData
; 64   : 	read_TAG_with_Check(BER_Class_General, true, BER_TAG_SEQUENCE);

$LN4@read_Envel:
  000aa	a1 00 00 00 00	 mov	 eax, DWORD PTR ?msg_err@?1??DecodeError@BER_Input@@QAEXI@Z@4QBQBDB
  000af	b9 00 00 00 00	 mov	 ecx, OFFSET ??_C@_0BJ@HKJKLLAJ@ASN?41?5BER?5Decode?5Error?5?3?$AA@
  000b4	e8 00 00 00 00	 call	 ?errPrint@@YAXPBD0@Z	; errPrint
$LN20@read_Envel:
$LN18@read_Envel:
  000b9	cc		 int	 3
?read_EnvelopedData@PKCS7_Input@@QAEIPAVEnvelopedData@@@Z ENDP ; PKCS7_Input::read_EnvelopedData
_TEXT	ENDS
PUBLIC	?read_ContentInfo@PKCS7_Input@@QAEII@Z		; PKCS7_Input::read_ContentInfo
;	COMDAT ?$S1@?1??read_ContentInfo@PKCS7_Input@@QAEII@Z@4IA
; File i:\“n•”“ÄŽj\my project\cms\cms\asn1\ber_input.cpp
_BSS	SEGMENT
?$S1@?1??read_ContentInfo@PKCS7_Input@@QAEII@Z@4IA DD 01H DUP (?) ; `PKCS7_Input::read_ContentInfo'::`2'::$S1
; Function compile flags: /Ogtpy
; File i:\“n•”“ÄŽj\my project\cms\cms\asn1\pkcs7\pkcs7_input.cpp
_BSS	ENDS
;	COMDAT ?read_ContentInfo@PKCS7_Input@@QAEII@Z
_TEXT	SEGMENT
_read_fStruct$107716 = -5				; size = 1
_read_fStruct$107698 = -5				; size = 1
_read_tag$107714 = -4					; size = 4
_read_tag$107696 = -4					; size = 4
_read_class$107715 = 8					; size = 1
_read_class$107697 = 8					; size = 1
_this$ = 8						; size = 4
?read_ContentInfo@PKCS7_Input@@QAEII@Z PROC		; PKCS7_Input::read_ContentInfo, COMDAT
; _type$ = eax

; 37   : {

  00000	83 ec 08	 sub	 esp, 8
  00003	53		 push	 ebx
  00004	55		 push	 ebp
  00005	8b 6c 24 14	 mov	 ebp, DWORD PTR _this$[esp+12]

; 38   : 	static	unsigned	int		oid_pkcs7[]	=	{1,2,840,113549,1,7,type};

  00009	bb 01 00 00 00	 mov	 ebx, 1
  0000e	56		 push	 esi
  0000f	57		 push	 edi
  00010	84 1d 00 00 00
	00		 test	 BYTE PTR ?$S1@?1??read_ContentInfo@PKCS7_Input@@QAEII@Z@4IA, bl
  00016	75 0b		 jne	 SHORT $LN1@read_Conte@2
  00018	09 1d 00 00 00
	00		 or	 DWORD PTR ?$S1@?1??read_ContentInfo@PKCS7_Input@@QAEII@Z@4IA, ebx
  0001e	a3 18 00 00 00	 mov	 DWORD PTR ?oid_pkcs7@?1??read_ContentInfo@PKCS7_Input@@QAEII@Z@4PAIA+24, eax
$LN1@read_Conte@2:

; 39   : 
; 40   : 	//SEQUENCE
; 41   : 	read_TAG_with_Check(BER_Class_General, true, BER_TAG_SEQUENCE);

  00023	8d 4c 24 14	 lea	 ecx, DWORD PTR _read_tag$107696[esp+24]
  00027	51		 push	 ecx
  00028	8d 54 24 17	 lea	 edx, DWORD PTR _read_fStruct$107698[esp+28]
  0002c	52		 push	 edx
  0002d	8d 44 24 24	 lea	 eax, DWORD PTR _read_class$107697[esp+28]
  00031	8d b5 d0 03 00
	00		 lea	 esi, DWORD PTR [ebp+976]
  00037	50		 push	 eax
  00038	e8 00 00 00 00	 call	 ?read_TAG@BER_Input@@QAEIPAEPA_NPAI@Z ; BER_Input::read_TAG
  0003d	80 7c 24 1c 00	 cmp	 BYTE PTR _read_class$107697[esp+20], 0
  00042	75 51		 jne	 SHORT $LN13@read_Conte@2
  00044	83 7c 24 14 10	 cmp	 DWORD PTR _read_tag$107696[esp+24], 16 ; 00000010H
  00049	75 4a		 jne	 SHORT $LN13@read_Conte@2
  0004b	38 5c 24 13	 cmp	 BYTE PTR _read_fStruct$107698[esp+24], bl
  0004f	75 44		 jne	 SHORT $LN13@read_Conte@2

; 42   : 
; 43   : 		//OID
; 44   : 		read_Object_Identifier_with_Check(&contentType, oid_pkcs7, sizeof(oid_pkcs7)/sizeof(int));

  00051	68 00 00 00 00	 push	 OFFSET ?oid_pkcs7@?1??read_ContentInfo@PKCS7_Input@@QAEII@Z@4PAIA
  00056	8d 7d 44	 lea	 edi, DWORD PTR [ebp+68]
  00059	8b c6		 mov	 eax, esi
  0005b	e8 00 00 00 00	 call	 ?read_Object_Identifier_with_Check@BER_Input@@QAEIPAVObjectIdentifier@@QAII@Z ; BER_Input::read_Object_Identifier_with_Check

; 45   : 
; 46   : 		//Content Info
; 47   : 		szAddValue = read_TAG_with_Check(BER_Class_Context, true, 0);

  00060	8d 4c 24 14	 lea	 ecx, DWORD PTR _read_tag$107714[esp+24]
  00064	51		 push	 ecx
  00065	8d 54 24 17	 lea	 edx, DWORD PTR _read_fStruct$107716[esp+28]
  00069	52		 push	 edx
  0006a	8d 44 24 24	 lea	 eax, DWORD PTR _read_class$107715[esp+28]
  0006e	50		 push	 eax
  0006f	e8 00 00 00 00	 call	 ?read_TAG@BER_Input@@QAEIPAEPA_NPAI@Z ; BER_Input::read_TAG
  00074	80 7c 24 1c 02	 cmp	 BYTE PTR _read_class$107715[esp+20], 2
  00079	75 1a		 jne	 SHORT $LN13@read_Conte@2
  0007b	83 7c 24 14 00	 cmp	 DWORD PTR _read_tag$107714[esp+24], 0
  00080	75 13		 jne	 SHORT $LN13@read_Conte@2
  00082	38 5c 24 13	 cmp	 BYTE PTR _read_fStruct$107716[esp+24], bl
  00086	75 0d		 jne	 SHORT $LN13@read_Conte@2

; 48   : 
; 49   : 	return(szAddValue);
; 50   : }

  00088	5f		 pop	 edi
  00089	5e		 pop	 esi
  0008a	89 45 40	 mov	 DWORD PTR [ebp+64], eax
  0008d	5d		 pop	 ebp
  0008e	5b		 pop	 ebx
  0008f	83 c4 08	 add	 esp, 8
  00092	c2 04 00	 ret	 4

; 45   : 
; 46   : 		//Content Info
; 47   : 		szAddValue = read_TAG_with_Check(BER_Class_Context, true, 0);

$LN13@read_Conte@2:
  00095	a1 00 00 00 00	 mov	 eax, DWORD PTR ?msg_err@?1??DecodeError@BER_Input@@QAEXI@Z@4QBQBDB
  0009a	b9 00 00 00 00	 mov	 ecx, OFFSET ??_C@_0BJ@HKJKLLAJ@ASN?41?5BER?5Decode?5Error?5?3?$AA@
  0009f	e8 00 00 00 00	 call	 ?errPrint@@YAXPBD0@Z	; errPrint
$LN21@read_Conte@2:
$LN20@read_Conte@2:
  000a4	cc		 int	 3
?read_ContentInfo@PKCS7_Input@@QAEII@Z ENDP		; PKCS7_Input::read_ContentInfo
; Function compile flags: /Ogtpy
;	COMDAT ??__F_pbkdf2@?1??read_KeyDerivationAlgorithm@PKCS7_Input@@QAEPAVKeyDerivation@@XZ@YAXXZ
text$yd	SEGMENT
??__F_pbkdf2@?1??read_KeyDerivationAlgorithm@PKCS7_Input@@QAEPAVKeyDerivation@@XZ@YAXXZ PROC ; `PKCS7_Input::read_KeyDerivationAlgorithm'::`2'::`dynamic atexit destructor for '_pbkdf2'', COMDAT
  00000	51		 push	 ecx
  00001	e8 00 00 00 00	 call	 ??1PBKDF2@@QAE@XZ	; PBKDF2::~PBKDF2
  00006	59		 pop	 ecx
  00007	c3		 ret	 0
??__F_pbkdf2@?1??read_KeyDerivationAlgorithm@PKCS7_Input@@QAEPAVKeyDerivation@@XZ@YAXXZ ENDP ; `PKCS7_Input::read_KeyDerivationAlgorithm'::`2'::`dynamic atexit destructor for '_pbkdf2''
END
