; Listing generated by Microsoft (R) Optimizing Compiler Version 15.00.30729.01 

	TITLE	i:\?n????j\My Project\CMS\CMS\ASN1\PKCS7\PKCS7_Output.cpp
	.686P
	.XMM
	include listing.inc
	.model	flat

INCLUDELIB OLDNAMES

PUBLIC	??_R4PKCS7_Output@@6BBER_Output@@@		; PKCS7_Output::`RTTI Complete Object Locator'
PUBLIC	??_R4PKCS7_Output@@6BPKCS7@@@			; PKCS7_Output::`RTTI Complete Object Locator'
PUBLIC	??_DPKCS7_Output@@QAEXXZ			; PKCS7_Output::`vbase destructor'
PUBLIC	??_GPKCS7_Output@@UAEPAXI@Z			; PKCS7_Output::`scalar deleting destructor'
PUBLIC	??_7PKCS7_Output@@6BPKCS7@@@			; PKCS7_Output::`vftable'
PUBLIC	??_7PKCS7_Output@@6BBER_Output@@@		; PKCS7_Output::`vftable'
PUBLIC	??_8PKCS7_Output@@7B@				; PKCS7_Output::`vbtable'
EXTRN	??_EPKCS7_Output@@UAEPAXI@Z:PROC		; PKCS7_Output::`vector deleting destructor'
;	COMDAT ??_8PKCS7_Output@@7B@
CONST	SEGMENT
??_8PKCS7_Output@@7B@ DD 00H				; PKCS7_Output::`vbtable'
	DD	054H
CONST	ENDS
;	COMDAT ??_7PKCS7_Output@@6BBER_Output@@@
CONST	SEGMENT
??_7PKCS7_Output@@6BBER_Output@@@ DD FLAT:??_R4PKCS7_Output@@6BBER_Output@@@ ; PKCS7_Output::`vftable'
	DD	FLAT:??_EPKCS7_Output@@UAEPAXI@Z
CONST	ENDS
;	COMDAT ??_R4PKCS7_Output@@6BBER_Output@@@
rdata$r	SEGMENT
??_R4PKCS7_Output@@6BBER_Output@@@ DD 00H		; PKCS7_Output::`RTTI Complete Object Locator'
	DD	0424H
	DD	00H
	DD	FLAT:??_R0?AVPKCS7_Output@@@8
	DD	FLAT:??_R3PKCS7_Output@@8
rdata$r	ENDS
;	COMDAT ??_7PKCS7_Output@@6BPKCS7@@@
CONST	SEGMENT
??_7PKCS7_Output@@6BPKCS7@@@ DD FLAT:??_R4PKCS7_Output@@6BPKCS7@@@ ; PKCS7_Output::`vftable'
	DD	FLAT:?encodeBER@Sequence@@UAEXXZ
	DD	FLAT:?Get_BERcode@ASN1@@UAEPBDXZ
	DD	FLAT:?Get_BERsize@ASN1@@UAEIXZ
CONST	ENDS
;	COMDAT ??_R4PKCS7_Output@@6BPKCS7@@@
rdata$r	SEGMENT
??_R4PKCS7_Output@@6BPKCS7@@@ DD 00H			; PKCS7_Output::`RTTI Complete Object Locator'
	DD	00H
	DD	00H
	DD	FLAT:??_R0?AVPKCS7_Output@@@8
	DD	FLAT:??_R3PKCS7_Output@@8
PUBLIC	??1PKCS7_Output@@UAE@XZ				; PKCS7_Output::~PKCS7_Output
; Function compile flags: /Ogtpy
; File i:\“n•”“ÄŽj\my project\cms\cms\asn1\pkcs7\pkcs7_output.cpp
;	COMDAT ??1PKCS7_Output@@UAE@XZ
_TEXT	SEGMENT
_this$ = 8						; size = 4
??1PKCS7_Output@@UAE@XZ PROC				; PKCS7_Output::~PKCS7_Output, COMDAT

; 26   : {

  00000	51		 push	 ecx
  00001	53		 push	 ebx
  00002	8b 5c 24 0c	 mov	 ebx, DWORD PTR _this$[esp+4]
  00006	8b 43 ac	 mov	 eax, DWORD PTR [ebx-84]
  00009	56		 push	 esi
  0000a	57		 push	 edi
  0000b	8d bb dc fb ff
	ff		 lea	 edi, DWORD PTR [ebx-1060]
  00011	c7 07 00 00 00
	00		 mov	 DWORD PTR [edi], OFFSET ??_7PKCS7_Output@@6BPKCS7@@@
  00017	8b 48 04	 mov	 ecx, DWORD PTR [eax+4]
  0001a	c7 44 19 ac 00
	00 00 00	 mov	 DWORD PTR [ecx+ebx-84], OFFSET ??_7PKCS7_Output@@6BBER_Output@@@

; 27   : }

  00022	8d b7 e0 02 00
	00		 lea	 esi, DWORD PTR [edi+736]
  00028	c7 07 00 00 00
	00		 mov	 DWORD PTR [edi], OFFSET ??_7PKCS7@@6B@
  0002e	c7 06 00 00 00
	00		 mov	 DWORD PTR [esi], OFFSET ??_7HMAC_SHA256@@6B@
  00034	e8 00 00 00 00	 call	 ??1HMAC@@QAE@XZ		; HMAC::~HMAC
  00039	8d b7 f0 01 00
	00		 lea	 esi, DWORD PTR [edi+496]
  0003f	c7 06 00 00 00
	00		 mov	 DWORD PTR [esi], OFFSET ??_7HMAC_SHA224@@6B@
  00045	e8 00 00 00 00	 call	 ??1HMAC@@QAE@XZ		; HMAC::~HMAC
  0004a	8d b7 00 01 00
	00		 lea	 esi, DWORD PTR [edi+256]
  00050	c7 06 00 00 00
	00		 mov	 DWORD PTR [esi], OFFSET ??_7HMAC_SHA1@@6B@
  00056	e8 00 00 00 00	 call	 ??1HMAC@@QAE@XZ		; HMAC::~HMAC
  0005b	57		 push	 edi
  0005c	e8 00 00 00 00	 call	 ??1ContentInfo@@QAE@XZ	; ContentInfo::~ContentInfo
  00061	8b 53 ac	 mov	 edx, DWORD PTR [ebx-84]
  00064	8b 42 04	 mov	 eax, DWORD PTR [edx+4]
  00067	53		 push	 ebx
  00068	c7 44 18 ac 00
	00 00 00	 mov	 DWORD PTR [eax+ebx-84], OFFSET ??_7BER_Output@@6B@
  00070	e8 00 00 00 00	 call	 ??1FileOutput@@UAE@XZ	; FileOutput::~FileOutput
  00075	5f		 pop	 edi
  00076	5e		 pop	 esi
  00077	5b		 pop	 ebx
  00078	59		 pop	 ecx
  00079	c2 04 00	 ret	 4
??1PKCS7_Output@@UAE@XZ ENDP				; PKCS7_Output::~PKCS7_Output
; Function compile flags: /Ogtpy
_TEXT	ENDS
;	COMDAT ??_DPKCS7_Output@@QAEXXZ
_TEXT	SEGMENT
??_DPKCS7_Output@@QAEXXZ PROC				; PKCS7_Output::`vbase destructor', COMDAT
; _this$ = eax
  00000	56		 push	 esi
  00001	8b f0		 mov	 esi, eax
  00003	81 c6 24 04 00
	00		 add	 esi, 1060		; 00000424H
  00009	56		 push	 esi
  0000a	e8 00 00 00 00	 call	 ??1PKCS7_Output@@UAE@XZ	; PKCS7_Output::~PKCS7_Output
  0000f	56		 push	 esi
  00010	c7 06 00 00 00
	00		 mov	 DWORD PTR [esi], OFFSET ??_7ios_base@std@@6B@
  00016	e8 00 00 00 00	 call	 ?_Ios_base_dtor@ios_base@std@@CAXPAV12@@Z ; std::ios_base::_Ios_base_dtor
  0001b	83 c4 04	 add	 esp, 4
  0001e	5e		 pop	 esi
  0001f	c3		 ret	 0
??_DPKCS7_Output@@QAEXXZ ENDP				; PKCS7_Output::`vbase destructor'
; Function compile flags: /Ogtpy
_TEXT	ENDS
;	COMDAT ??_GPKCS7_Output@@UAEPAXI@Z
_TEXT	SEGMENT
___flags$ = 8						; size = 4
??_GPKCS7_Output@@UAEPAXI@Z PROC			; PKCS7_Output::`scalar deleting destructor', COMDAT
; _this$ = ecx
  00000	56		 push	 esi
  00001	57		 push	 edi
  00002	8d b9 dc fb ff
	ff		 lea	 edi, DWORD PTR [ecx-1060]
  00008	8d b7 24 04 00
	00		 lea	 esi, DWORD PTR [edi+1060]
  0000e	56		 push	 esi
  0000f	e8 00 00 00 00	 call	 ??1PKCS7_Output@@UAE@XZ	; PKCS7_Output::~PKCS7_Output
  00014	56		 push	 esi
  00015	c7 06 00 00 00
	00		 mov	 DWORD PTR [esi], OFFSET ??_7ios_base@std@@6B@
  0001b	e8 00 00 00 00	 call	 ?_Ios_base_dtor@ios_base@std@@CAXPAV12@@Z ; std::ios_base::_Ios_base_dtor
  00020	83 c4 04	 add	 esp, 4
  00023	f6 44 24 0c 01	 test	 BYTE PTR ___flags$[esp+4], 1
  00028	74 09		 je	 SHORT $LN11@scalar@29
  0002a	57		 push	 edi
  0002b	e8 00 00 00 00	 call	 ??3@YAXPAX@Z		; operator delete
  00030	83 c4 04	 add	 esp, 4
$LN11@scalar@29:
  00033	8b c7		 mov	 eax, edi
  00035	5f		 pop	 edi
  00036	5e		 pop	 esi
  00037	c2 04 00	 ret	 4
??_GPKCS7_Output@@UAEPAXI@Z ENDP			; PKCS7_Output::`scalar deleting destructor'
PUBLIC	?write_header@PKCS7_Output@@QAEXXZ		; PKCS7_Output::write_header
; Function compile flags: /Ogtpy
;	COMDAT ?write_header@PKCS7_Output@@QAEXXZ
_TEXT	SEGMENT
?write_header@PKCS7_Output@@QAEXXZ PROC			; PKCS7_Output::write_header, COMDAT
; _this$ = eax

; 39   : {

  00000	51		 push	 ecx
  00001	56		 push	 esi
  00002	8b f0		 mov	 esi, eax

; 40   : 	encodeBER();

  00004	8b 06		 mov	 eax, DWORD PTR [esi]
  00006	8b 10		 mov	 edx, DWORD PTR [eax]
  00008	57		 push	 edi
  00009	8b ce		 mov	 ecx, esi
  0000b	ff d2		 call	 edx

; 41   : 	write_BERcode(Get_BERcode(), Get_BERsize());

  0000d	8b 06		 mov	 eax, DWORD PTR [esi]
  0000f	8b 50 08	 mov	 edx, DWORD PTR [eax+8]
  00012	8b ce		 mov	 ecx, esi
  00014	ff d2		 call	 edx
  00016	8b f8		 mov	 edi, eax
  00018	8b 06		 mov	 eax, DWORD PTR [esi]
  0001a	8b 50 04	 mov	 edx, DWORD PTR [eax+4]
  0001d	8b ce		 mov	 ecx, esi
  0001f	ff d2		 call	 edx
  00021	57		 push	 edi
  00022	50		 push	 eax
  00023	81 c6 d0 03 00
	00		 add	 esi, 976		; 000003d0H
  00029	56		 push	 esi
  0002a	e8 00 00 00 00	 call	 ?write@?$basic_ostream@DU?$char_traits@D@std@@@std@@QAEAAV12@PBDH@Z ; std::basic_ostream<char,std::char_traits<char> >::write

; 42   : }

  0002f	5f		 pop	 edi
  00030	5e		 pop	 esi
  00031	59		 pop	 ecx
  00032	c3		 ret	 0
?write_header@PKCS7_Output@@QAEXXZ ENDP			; PKCS7_Output::write_header
_TEXT	ENDS
PUBLIC	??0PKCS7_Output@@QAE@PBDQBD@Z			; PKCS7_Output::PKCS7_Output
;	COMDAT xdata$x
; File c:\program files\microsoft visual studio 9.0\vc\include\xiosbase
xdata$x	SEGMENT
__unwindtable$??0PKCS7_Output@@QAE@PBDQBD@Z DD 0ffffffffH
	DD	00H
	DD	00H
	DD	FLAT:__unwindfunclet$??0PKCS7_Output@@QAE@PBDQBD@Z$1
__ehfuncinfo$??0PKCS7_Output@@QAE@PBDQBD@Z DD 019930522H
	DD	02H
	DD	FLAT:__unwindtable$??0PKCS7_Output@@QAE@PBDQBD@Z
	DD	2 DUP(00H)
	DD	2 DUP(00H)
	DD	00H
	DD	01H
; Function compile flags: /Ogtpy
; File i:\“n•”“ÄŽj\my project\cms\cms\asn1\pkcs7\pkcs7_output.cpp
xdata$x	ENDS
;	COMDAT ??0PKCS7_Output@@QAE@PBDQBD@Z
_TEXT	SEGMENT
$T100647 = -16						; size = 4
__$EHRec$ = -12						; size = 12
_this$ = 8						; size = 4
_strFileName$ = 12					; size = 4
??0PKCS7_Output@@QAE@PBDQBD@Z PROC			; PKCS7_Output::PKCS7_Output, COMDAT

; 15   : {

  00000	6a ff		 push	 -1
  00002	68 00 00 00 00	 push	 __ehhandler$??0PKCS7_Output@@QAE@PBDQBD@Z
  00007	64 a1 00 00 00
	00		 mov	 eax, DWORD PTR fs:0
  0000d	50		 push	 eax
  0000e	51		 push	 ecx
  0000f	56		 push	 esi
  00010	57		 push	 edi
  00011	a1 00 00 00 00	 mov	 eax, DWORD PTR ___security_cookie
  00016	33 c4		 xor	 eax, esp
  00018	50		 push	 eax
  00019	8d 44 24 10	 lea	 eax, DWORD PTR __$EHRec$[esp+28]
  0001d	64 a3 00 00 00
	00		 mov	 DWORD PTR fs:0, eax
  00023	8b 74 24 20	 mov	 esi, DWORD PTR _this$[esp+24]
  00027	8b 44 24 24	 mov	 eax, DWORD PTR _strFileName$[esp+24]
  0002b	50		 push	 eax
  0002c	8d be d0 03 00
	00		 lea	 edi, DWORD PTR [esi+976]
  00032	57		 push	 edi
  00033	c7 44 24 14 00
	00 00 00	 mov	 DWORD PTR $T100647[esp+36], 0
  0003b	e8 00 00 00 00	 call	 ??0BER_Output@@QAE@PBD@Z ; BER_Output::BER_Output
  00040	56		 push	 esi
  00041	c7 44 24 1c 01
	00 00 00	 mov	 DWORD PTR __$EHRec$[esp+40], 1
  00049	e8 00 00 00 00	 call	 ??0PKCS7@@QAE@QBD@Z	; PKCS7::PKCS7
  0004e	8b 0f		 mov	 ecx, DWORD PTR [edi]
  00050	c7 06 00 00 00
	00		 mov	 DWORD PTR [esi], OFFSET ??_7PKCS7_Output@@6BPKCS7@@@
  00056	8b 51 04	 mov	 edx, DWORD PTR [ecx+4]
  00059	c7 84 32 d0 03
	00 00 00 00 00
	00		 mov	 DWORD PTR [edx+esi+976], OFFSET ??_7PKCS7_Output@@6BBER_Output@@@

; 16   : }

  00064	8b c6		 mov	 eax, esi
  00066	8b 4c 24 10	 mov	 ecx, DWORD PTR __$EHRec$[esp+28]
  0006a	64 89 0d 00 00
	00 00		 mov	 DWORD PTR fs:0, ecx
  00071	59		 pop	 ecx
  00072	5f		 pop	 edi
  00073	5e		 pop	 esi
  00074	83 c4 10	 add	 esp, 16			; 00000010H
  00077	c2 08 00	 ret	 8
_TEXT	ENDS
;	COMDAT text$x
text$x	SEGMENT
__unwindfunclet$??0PKCS7_Output@@QAE@PBDQBD@Z$1:
  00000	8b 45 04	 mov	 eax, DWORD PTR _this$[ebp-4]
  00003	05 24 04 00 00	 add	 eax, 1060		; 00000424H
  00008	e9 00 00 00 00	 jmp	 ??1BER_Output@@UAE@XZ	; BER_Output::~BER_Output
__ehhandler$??0PKCS7_Output@@QAE@PBDQBD@Z:
  0000d	8b 54 24 08	 mov	 edx, DWORD PTR [esp+8]
  00011	8d 42 f4	 lea	 eax, DWORD PTR [edx-12]
  00014	8b 4a f0	 mov	 ecx, DWORD PTR [edx-16]
  00017	33 c8		 xor	 ecx, eax
  00019	e8 00 00 00 00	 call	 @__security_check_cookie@4
  0001e	b8 00 00 00 00	 mov	 eax, OFFSET __ehfuncinfo$??0PKCS7_Output@@QAE@PBDQBD@Z
  00023	e9 00 00 00 00	 jmp	 ___CxxFrameHandler3
text$x	ENDS
??0PKCS7_Output@@QAE@PBDQBD@Z ENDP			; PKCS7_Output::PKCS7_Output
END
