; Listing generated by Microsoft (R) Optimizing Compiler Version 15.00.30729.01 

	TITLE	i:\?n????j\My Project\CMS\CMS\ASN1\PKCS7\PKCS7.cpp
	.686P
	.XMM
	include listing.inc
	.model	flat

INCLUDELIB OLDNAMES

PUBLIC	??_R4PKCS7@@6B@					; PKCS7::`RTTI Complete Object Locator'
PUBLIC	??_R3PKCS7@@8					; PKCS7::`RTTI Class Hierarchy Descriptor'
PUBLIC	??_R2PKCS7@@8					; PKCS7::`RTTI Base Class Array'
PUBLIC	??_R1A@?0A@EA@PKCS7@@8				; PKCS7::`RTTI Base Class Descriptor at (0,-1,0,64)'
PUBLIC	??_R0?AVPKCS7@@@8				; PKCS7 `RTTI Type Descriptor'
PUBLIC	??_C@_07LDJJJFAI@DES?9CBC?$AA@			; `string'
PUBLIC	??_C@_0N@MLDFENGJ@DES?9EDE3?9CBC?$AA@		; `string'
PUBLIC	??_C@_0M@BFJCAPPF@AES?9CBC?9128?$AA@		; `string'
PUBLIC	??_C@_0M@ODCIAIJO@AES?9CBC?9192?$AA@		; `string'
PUBLIC	??_C@_0M@JMOLJLBA@AES?9CBC?9256?$AA@		; `string'
PUBLIC	??_C@_05HJMENKNE@SHA?91?$AA@			; `string'
PUBLIC	??_C@_07NCCCPPC@SHA?9224?$AA@			; `string'
PUBLIC	??_C@_07DKFLFLPF@SHA?9256?$AA@			; `string'
PUBLIC	??_C@_0L@GENPDEDH@HMAC?9SHA?91?$AA@		; `string'
PUBLIC	??_C@_0N@DPMDFNLJ@HMAC?9SHA?9224?$AA@		; `string'
PUBLIC	??_C@_0N@ILKCJLO@HMAC?9SHA?9256?$AA@		; `string'
PUBLIC	??_7PKCS7@@6B@					; PKCS7::`vftable'
;	COMDAT ??_7PKCS7@@6B@
CONST	SEGMENT
??_7PKCS7@@6B@ DD FLAT:??_R4PKCS7@@6B@			; PKCS7::`vftable'
	DD	FLAT:?encodeBER@Sequence@@UAEXXZ
	DD	FLAT:?Get_BERcode@ASN1@@UAEPBDXZ
	DD	FLAT:?Get_BERsize@ASN1@@UAEIXZ
CONST	ENDS
;	COMDAT ??_R4PKCS7@@6B@
rdata$r	SEGMENT
??_R4PKCS7@@6B@ DD 00H					; PKCS7::`RTTI Complete Object Locator'
	DD	00H
	DD	00H
	DD	FLAT:??_R0?AVPKCS7@@@8
	DD	FLAT:??_R3PKCS7@@8
rdata$r	ENDS
;	COMDAT ??_R3PKCS7@@8
rdata$r	SEGMENT
??_R3PKCS7@@8 DD 00H					; PKCS7::`RTTI Class Hierarchy Descriptor'
	DD	00H
	DD	04H
	DD	FLAT:??_R2PKCS7@@8
rdata$r	ENDS
;	COMDAT ??_R2PKCS7@@8
rdata$r	SEGMENT
??_R2PKCS7@@8 DD FLAT:??_R1A@?0A@EA@PKCS7@@8		; PKCS7::`RTTI Base Class Array'
	DD	FLAT:??_R1A@?0A@EA@ContentInfo@@8
	DD	FLAT:??_R1A@?0A@EA@Sequence@@8
	DD	FLAT:??_R1A@?0A@EA@ASN1@@8
rdata$r	ENDS
;	COMDAT ??_R1A@?0A@EA@PKCS7@@8
rdata$r	SEGMENT
??_R1A@?0A@EA@PKCS7@@8 DD FLAT:??_R0?AVPKCS7@@@8	; PKCS7::`RTTI Base Class Descriptor at (0,-1,0,64)'
	DD	03H
	DD	00H
	DD	0ffffffffH
	DD	00H
	DD	040H
	DD	FLAT:??_R3PKCS7@@8
rdata$r	ENDS
;	COMDAT ??_R0?AVPKCS7@@@8
_DATA	SEGMENT
??_R0?AVPKCS7@@@8 DD FLAT:??_7type_info@@6B@		; PKCS7 `RTTI Type Descriptor'
	DD	00H
	DB	'.?AVPKCS7@@', 00H
_DATA	ENDS
;	COMDAT ?oid_pkcs7@?1??Set_Type@PKCS7@@QAEXI@Z@4PAIA
_DATA	SEGMENT
?oid_pkcs7@?1??Set_Type@PKCS7@@QAEXI@Z@4PAIA DD 01H	; `PKCS7::Set_Type'::`2'::oid_pkcs7
	DD	02H
	DD	0348H
	DD	01bb8dH
	DD	01H
	DD	07H
	ORG $+4
_DATA	ENDS
;	COMDAT ??_C@_0N@ILKCJLO@HMAC?9SHA?9256?$AA@
CONST	SEGMENT
??_C@_0N@ILKCJLO@HMAC?9SHA?9256?$AA@ DB 'HMAC-SHA-256', 00H ; `string'
CONST	ENDS
;	COMDAT ??_C@_0N@DPMDFNLJ@HMAC?9SHA?9224?$AA@
CONST	SEGMENT
??_C@_0N@DPMDFNLJ@HMAC?9SHA?9224?$AA@ DB 'HMAC-SHA-224', 00H ; `string'
CONST	ENDS
;	COMDAT ??_C@_0L@GENPDEDH@HMAC?9SHA?91?$AA@
CONST	SEGMENT
??_C@_0L@GENPDEDH@HMAC?9SHA?91?$AA@ DB 'HMAC-SHA-1', 00H ; `string'
CONST	ENDS
;	COMDAT ??_C@_07DKFLFLPF@SHA?9256?$AA@
CONST	SEGMENT
??_C@_07DKFLFLPF@SHA?9256?$AA@ DB 'SHA-256', 00H	; `string'
CONST	ENDS
;	COMDAT ??_C@_07NCCCPPC@SHA?9224?$AA@
CONST	SEGMENT
??_C@_07NCCCPPC@SHA?9224?$AA@ DB 'SHA-224', 00H		; `string'
CONST	ENDS
;	COMDAT ??_C@_05HJMENKNE@SHA?91?$AA@
CONST	SEGMENT
??_C@_05HJMENKNE@SHA?91?$AA@ DB 'SHA-1', 00H		; `string'
CONST	ENDS
;	COMDAT ??_C@_0M@JMOLJLBA@AES?9CBC?9256?$AA@
CONST	SEGMENT
??_C@_0M@JMOLJLBA@AES?9CBC?9256?$AA@ DB 'AES-CBC-256', 00H ; `string'
CONST	ENDS
;	COMDAT ??_C@_0M@ODCIAIJO@AES?9CBC?9192?$AA@
CONST	SEGMENT
??_C@_0M@ODCIAIJO@AES?9CBC?9192?$AA@ DB 'AES-CBC-192', 00H ; `string'
CONST	ENDS
;	COMDAT ??_C@_0M@BFJCAPPF@AES?9CBC?9128?$AA@
CONST	SEGMENT
??_C@_0M@BFJCAPPF@AES?9CBC?9128?$AA@ DB 'AES-CBC-128', 00H ; `string'
CONST	ENDS
;	COMDAT ??_C@_0N@MLDFENGJ@DES?9EDE3?9CBC?$AA@
CONST	SEGMENT
??_C@_0N@MLDFENGJ@DES?9EDE3?9CBC?$AA@ DB 'DES-EDE3-CBC', 00H ; `string'
CONST	ENDS
;	COMDAT ??_C@_07LDJJJFAI@DES?9CBC?$AA@
CONST	SEGMENT
??_C@_07LDJJJFAI@DES?9CBC?$AA@ DB 'DES-CBC', 00H	; `string'
PUBLIC	??1PKCS7@@QAE@XZ				; PKCS7::~PKCS7
; Function compile flags: /Ogtpy
; File i:\渡部篤史\my project\cms\cms\asn1\pkcs7\pkcs7.cpp
;	COMDAT ??1PKCS7@@QAE@XZ
_TEXT	SEGMENT
??1PKCS7@@QAE@XZ PROC					; PKCS7::~PKCS7, COMDAT
; _this$ = edi

; 41   : {

  00000	56		 push	 esi

; 42   : }

  00001	8d b7 e0 02 00
	00		 lea	 esi, DWORD PTR [edi+736]
  00007	c7 07 00 00 00
	00		 mov	 DWORD PTR [edi], OFFSET ??_7PKCS7@@6B@
  0000d	c7 06 00 00 00
	00		 mov	 DWORD PTR [esi], OFFSET ??_7HMAC_SHA256@@6B@
  00013	e8 00 00 00 00	 call	 ??1HMAC@@QAE@XZ		; HMAC::~HMAC
  00018	8d b7 f0 01 00
	00		 lea	 esi, DWORD PTR [edi+496]
  0001e	c7 06 00 00 00
	00		 mov	 DWORD PTR [esi], OFFSET ??_7HMAC_SHA224@@6B@
  00024	e8 00 00 00 00	 call	 ??1HMAC@@QAE@XZ		; HMAC::~HMAC
  00029	8d b7 00 01 00
	00		 lea	 esi, DWORD PTR [edi+256]
  0002f	c7 06 00 00 00
	00		 mov	 DWORD PTR [esi], OFFSET ??_7HMAC_SHA1@@6B@
  00035	e8 00 00 00 00	 call	 ??1HMAC@@QAE@XZ		; HMAC::~HMAC
  0003a	57		 push	 edi
  0003b	e8 00 00 00 00	 call	 ??1ContentInfo@@QAE@XZ	; ContentInfo::~ContentInfo
  00040	5e		 pop	 esi
  00041	c3		 ret	 0
??1PKCS7@@QAE@XZ ENDP					; PKCS7::~PKCS7
PUBLIC	__$ArrayPad$
PUBLIC	?Get_Encryption@PKCS7@@QAEPAVEncryption@@I@Z	; PKCS7::Get_Encryption
; Function compile flags: /Ogtpy
;	COMDAT ?Get_Encryption@PKCS7@@QAEPAVEncryption@@I@Z
_TEXT	SEGMENT
_IV$ = -32						; size = 16
__$ArrayPad$ = -4					; size = 4
_mode$ = 8						; size = 4
?Get_Encryption@PKCS7@@QAEPAVEncryption@@I@Z PROC	; PKCS7::Get_Encryption, COMDAT

; 68   : {

  00000	55		 push	 ebp
  00001	8b ec		 mov	 ebp, esp
  00003	83 e4 f0	 and	 esp, -16		; fffffff0H
  00006	83 ec 2c	 sub	 esp, 44			; 0000002cH
  00009	a1 00 00 00 00	 mov	 eax, DWORD PTR ___security_cookie
  0000e	33 c4		 xor	 eax, esp
  00010	89 44 24 28	 mov	 DWORD PTR __$ArrayPad$[esp+44], eax
  00014	56		 push	 esi

; 69   : 		__m128i	IV	= cRandom->get__m128i();

  00015	8d 74 24 10	 lea	 esi, DWORD PTR _IV$[esp+48]
  00019	e8 00 00 00 00	 call	 ?get__m128i@MT_SHA@@QAE?AT__m128i@@XZ ; MT_SHA::get__m128i

; 70   : 
; 71   : 	Encryption*	cCE;
; 72   : 
; 73   : 	//暗号アルゴリズム＆利用モードの設定
; 74   : 	switch(mode){

  0001e	8b 45 08	 mov	 eax, DWORD PTR _mode$[ebp]
  00021	48		 dec	 eax
  00022	83 f8 03	 cmp	 eax, 3
  00025	0f 87 ab 00 00
	00		 ja	 $LN1@Get_Encryp
  0002b	ff 24 85 00 00
	00 00		 jmp	 DWORD PTR $LN10@Get_Encryp[eax*4]
$LN5@Get_Encryp:

; 75   : 		//追加の暗号アルゴリズムがある場合は、ここに追加。
; 76   : 		//DES-CBC
; 77   : 		case(1):
; 78   : 			cDES_CBC.Set_DES(IV.m128i_i64[0]);

  00032	8b 44 24 14	 mov	 eax, DWORD PTR _IV$[esp+52]
  00036	8b 4c 24 10	 mov	 ecx, DWORD PTR _IV$[esp+48]
  0003a	50		 push	 eax
  0003b	51		 push	 ecx
  0003c	68 00 00 00 00	 push	 OFFSET ?cDES_CBC@PKCS7@@2VDES_CBC@@A ; PKCS7::cDES_CBC
  00041	e8 00 00 00 00	 call	 ?Set_DES@DES_CBC@@QAEX_K@Z ; DES_CBC::Set_DES

; 79   : 			cCE = &cDES_CBC;

  00046	b8 00 00 00 00	 mov	 eax, OFFSET ?cDES_CBC@PKCS7@@2VDES_CBC@@A ; PKCS7::cDES_CBC

; 99   : 			cCE = &cAES_CBC256;
; 100  : 			break;
; 101  : 	}
; 102  : 
; 103  : 	return(cCE);
; 104  : }

  0004b	5e		 pop	 esi
  0004c	8b 4c 24 28	 mov	 ecx, DWORD PTR __$ArrayPad$[esp+44]
  00050	33 cc		 xor	 ecx, esp
  00052	e8 00 00 00 00	 call	 @__security_check_cookie@4
  00057	8b e5		 mov	 esp, ebp
  00059	5d		 pop	 ebp
  0005a	c2 04 00	 ret	 4
$LN4@Get_Encryp:

; 80   : 			break;
; 81   : 		//DES-EDE3-CBC
; 82   : 		case(2):
; 83   : 			cTDES_CBC.Set_DES(IV.m128i_i64[0]);

  0005d	8b 54 24 14	 mov	 edx, DWORD PTR _IV$[esp+52]
  00061	8b 44 24 10	 mov	 eax, DWORD PTR _IV$[esp+48]
  00065	52		 push	 edx
  00066	50		 push	 eax
  00067	68 00 00 00 00	 push	 OFFSET ?cTDES_CBC@PKCS7@@2VDES_EDE3_CBC@@A ; PKCS7::cTDES_CBC
  0006c	e8 00 00 00 00	 call	 ?Set_DES@DES_EDE3_CBC@@QAEX_K@Z ; DES_EDE3_CBC::Set_DES

; 84   : 			cCE = &cTDES_CBC;

  00071	b8 00 00 00 00	 mov	 eax, OFFSET ?cTDES_CBC@PKCS7@@2VDES_EDE3_CBC@@A ; PKCS7::cTDES_CBC

; 99   : 			cCE = &cAES_CBC256;
; 100  : 			break;
; 101  : 	}
; 102  : 
; 103  : 	return(cCE);
; 104  : }

  00076	5e		 pop	 esi
  00077	8b 4c 24 28	 mov	 ecx, DWORD PTR __$ArrayPad$[esp+44]
  0007b	33 cc		 xor	 ecx, esp
  0007d	e8 00 00 00 00	 call	 @__security_check_cookie@4
  00082	8b e5		 mov	 esp, ebp
  00084	5d		 pop	 ebp
  00085	c2 04 00	 ret	 4
$LN3@Get_Encryp:

; 85   : 			break;
; 86   : 		//AES-CBC-128
; 87   : 		case(3):
; 88   : 			cAES_CBC128.Set_AES(IV);

  00088	66 0f 6f 44 24
	10		 movdqa	 xmm0, XMMWORD PTR _IV$[esp+48]
  0008e	68 00 00 00 00	 push	 OFFSET ?cAES_CBC128@PKCS7@@2VAES_CBC128@@A ; PKCS7::cAES_CBC128
  00093	e8 00 00 00 00	 call	 ?Set_AES@AES_CBC@@QAEXT__m128i@@@Z ; AES_CBC::Set_AES

; 89   : 			cCE = &cAES_CBC128;

  00098	b8 00 00 00 00	 mov	 eax, OFFSET ?cAES_CBC128@PKCS7@@2VAES_CBC128@@A ; PKCS7::cAES_CBC128

; 99   : 			cCE = &cAES_CBC256;
; 100  : 			break;
; 101  : 	}
; 102  : 
; 103  : 	return(cCE);
; 104  : }

  0009d	5e		 pop	 esi
  0009e	8b 4c 24 28	 mov	 ecx, DWORD PTR __$ArrayPad$[esp+44]
  000a2	33 cc		 xor	 ecx, esp
  000a4	e8 00 00 00 00	 call	 @__security_check_cookie@4
  000a9	8b e5		 mov	 esp, ebp
  000ab	5d		 pop	 ebp
  000ac	c2 04 00	 ret	 4
$LN2@Get_Encryp:

; 90   : 			break;
; 91   : 		//AES-CBC-192
; 92   : 		case(4):
; 93   : 			cAES_CBC192.Set_AES(IV);

  000af	66 0f 6f 44 24
	10		 movdqa	 xmm0, XMMWORD PTR _IV$[esp+48]
  000b5	68 00 00 00 00	 push	 OFFSET ?cAES_CBC192@PKCS7@@2VAES_CBC192@@A ; PKCS7::cAES_CBC192
  000ba	e8 00 00 00 00	 call	 ?Set_AES@AES_CBC@@QAEXT__m128i@@@Z ; AES_CBC::Set_AES

; 94   : 			cCE = &cAES_CBC192;

  000bf	b8 00 00 00 00	 mov	 eax, OFFSET ?cAES_CBC192@PKCS7@@2VAES_CBC192@@A ; PKCS7::cAES_CBC192

; 99   : 			cCE = &cAES_CBC256;
; 100  : 			break;
; 101  : 	}
; 102  : 
; 103  : 	return(cCE);
; 104  : }

  000c4	5e		 pop	 esi
  000c5	8b 4c 24 28	 mov	 ecx, DWORD PTR __$ArrayPad$[esp+44]
  000c9	33 cc		 xor	 ecx, esp
  000cb	e8 00 00 00 00	 call	 @__security_check_cookie@4
  000d0	8b e5		 mov	 esp, ebp
  000d2	5d		 pop	 ebp
  000d3	c2 04 00	 ret	 4
$LN1@Get_Encryp:

; 95   : 			break;
; 96   : 		//AES-CBC-256
; 97   : 		default:
; 98   : 			cAES_CBC256.Set_AES(IV);

  000d6	66 0f 6f 44 24
	10		 movdqa	 xmm0, XMMWORD PTR _IV$[esp+48]
  000dc	68 00 00 00 00	 push	 OFFSET ?cAES_CBC256@PKCS7@@2VAES_CBC256@@A ; PKCS7::cAES_CBC256
  000e1	e8 00 00 00 00	 call	 ?Set_AES@AES_CBC@@QAEXT__m128i@@@Z ; AES_CBC::Set_AES

; 99   : 			cCE = &cAES_CBC256;
; 100  : 			break;
; 101  : 	}
; 102  : 
; 103  : 	return(cCE);
; 104  : }

  000e6	8b 4c 24 2c	 mov	 ecx, DWORD PTR __$ArrayPad$[esp+48]
  000ea	5e		 pop	 esi
  000eb	33 cc		 xor	 ecx, esp
  000ed	b8 00 00 00 00	 mov	 eax, OFFSET ?cAES_CBC256@PKCS7@@2VAES_CBC256@@A ; PKCS7::cAES_CBC256
  000f2	e8 00 00 00 00	 call	 @__security_check_cookie@4
  000f7	8b e5		 mov	 esp, ebp
  000f9	5d		 pop	 ebp
  000fa	c2 04 00	 ret	 4
  000fd	8d 49 00	 npad	 3
$LN10@Get_Encryp:
  00100	00 00 00 00	 DD	 $LN5@Get_Encryp
  00104	00 00 00 00	 DD	 $LN4@Get_Encryp
  00108	00 00 00 00	 DD	 $LN3@Get_Encryp
  0010c	00 00 00 00	 DD	 $LN2@Get_Encryp
?Get_Encryption@PKCS7@@QAEPAVEncryption@@I@Z ENDP	; PKCS7::Get_Encryption
PUBLIC	?Set_Type@PKCS7@@QAEXI@Z			; PKCS7::Set_Type
;	COMDAT ?$S1@?1??Set_Type@PKCS7@@QAEXI@Z@4IA
; File i:\渡部篤史\my project\cms\cms\asn1\asn1.cpp
_BSS	SEGMENT
?$S1@?1??Set_Type@PKCS7@@QAEXI@Z@4IA DD 01H DUP (?)	; `PKCS7::Set_Type'::`2'::$S1
; Function compile flags: /Ogtpy
; File i:\渡部篤史\my project\cms\cms\asn1\pkcs7\pkcs7.cpp
_BSS	ENDS
;	COMDAT ?Set_Type@PKCS7@@QAEXI@Z
_TEXT	SEGMENT
$T94317 = 8						; size = 4
$T94313 = 8						; size = 4
_this$ = 8						; size = 4
_type$ = 12						; size = 4
?Set_Type@PKCS7@@QAEXI@Z PROC				; PKCS7::Set_Type, COMDAT

; 52   : {

  00000	53		 push	 ebx
  00001	8b 5c 24 08	 mov	 ebx, DWORD PTR _this$[esp]

; 53   : 	static	unsigned	int		oid_pkcs7[]	=	{1,2,840,113549,1,7,type};

  00005	b8 01 00 00 00	 mov	 eax, 1
  0000a	56		 push	 esi
  0000b	57		 push	 edi
  0000c	84 05 00 00 00
	00		 test	 BYTE PTR ?$S1@?1??Set_Type@PKCS7@@QAEXI@Z@4IA, al
  00012	75 0f		 jne	 SHORT $LN1@Set_Type
  00014	09 05 00 00 00
	00		 or	 DWORD PTR ?$S1@?1??Set_Type@PKCS7@@QAEXI@Z@4IA, eax
  0001a	8b 44 24 14	 mov	 eax, DWORD PTR _type$[esp+8]
  0001e	a3 18 00 00 00	 mov	 DWORD PTR ?oid_pkcs7@?1??Set_Type@PKCS7@@QAEXI@Z@4PAIA+24, eax
$LN1@Set_Type:

; 54   : 
; 55   : 	Set(oid_pkcs7, sizeof(oid_pkcs7)/sizeof(int));

  00023	6a 07		 push	 7
  00025	8d 73 44	 lea	 esi, DWORD PTR [ebx+68]
  00028	68 00 00 00 00	 push	 OFFSET ?oid_pkcs7@?1??Set_Type@PKCS7@@QAEXI@Z@4PAIA
  0002d	8b c6		 mov	 eax, esi
  0002f	e8 00 00 00 00	 call	 ?Set@ObjectIdentifier@@QAEXQAII@Z ; ObjectIdentifier::Set
  00034	8d 4c 24 10	 lea	 ecx, DWORD PTR $T94313[esp+8]
  00038	8d 7b 28	 lea	 edi, DWORD PTR [ebx+40]
  0003b	51		 push	 ecx
  0003c	89 74 24 14	 mov	 DWORD PTR $T94313[esp+12], esi
  00040	e8 00 00 00 00	 call	 ?push_back@?$vector@PAVASN1@@V?$allocator@PAVASN1@@@std@@@std@@QAEXABQAVASN1@@@Z ; std::vector<ASN1 *,std::allocator<ASN1 *> >::push_back
  00045	8d 54 24 10	 lea	 edx, DWORD PTR $T94317[esp+8]
  00049	81 c3 a0 00 00
	00		 add	 ebx, 160		; 000000a0H
  0004f	52		 push	 edx
  00050	89 5c 24 14	 mov	 DWORD PTR $T94317[esp+12], ebx
  00054	e8 00 00 00 00	 call	 ?push_back@?$vector@PAVASN1@@V?$allocator@PAVASN1@@@std@@@std@@QAEXABQAVASN1@@@Z ; std::vector<ASN1 *,std::allocator<ASN1 *> >::push_back

; 56   : }

  00059	5f		 pop	 edi
  0005a	5e		 pop	 esi
  0005b	5b		 pop	 ebx
  0005c	c2 08 00	 ret	 8
?Set_Type@PKCS7@@QAEXI@Z ENDP				; PKCS7::Set_Type
_TEXT	ENDS
PUBLIC	??0PKCS7@@QAE@QBD@Z				; PKCS7::PKCS7
;	COMDAT xdata$x
xdata$x	SEGMENT
__unwindtable$??0PKCS7@@QAE@QBD@Z DD 0ffffffffH
	DD	FLAT:__unwindfunclet$??0PKCS7@@QAE@QBD@Z$0
	DD	00H
	DD	FLAT:__unwindfunclet$??0PKCS7@@QAE@QBD@Z$1
	DD	01H
	DD	FLAT:__unwindfunclet$??0PKCS7@@QAE@QBD@Z$2
__ehfuncinfo$??0PKCS7@@QAE@QBD@Z DD 019930522H
	DD	03H
	DD	FLAT:__unwindtable$??0PKCS7@@QAE@QBD@Z
	DD	2 DUP(00H)
	DD	2 DUP(00H)
	DD	00H
	DD	01H
; Function compile flags: /Ogtpy
xdata$x	ENDS
;	COMDAT ??0PKCS7@@QAE@QBD@Z
_TEXT	SEGMENT
__$EHRec$ = -12						; size = 12
_this$ = 8						; size = 4
??0PKCS7@@QAE@QBD@Z PROC				; PKCS7::PKCS7, COMDAT

; 30   : {

  00000	6a ff		 push	 -1
  00002	68 00 00 00 00	 push	 __ehhandler$??0PKCS7@@QAE@QBD@Z
  00007	64 a1 00 00 00
	00		 mov	 eax, DWORD PTR fs:0
  0000d	50		 push	 eax
  0000e	51		 push	 ecx
  0000f	56		 push	 esi
  00010	a1 00 00 00 00	 mov	 eax, DWORD PTR ___security_cookie
  00015	33 c4		 xor	 eax, esp
  00017	50		 push	 eax
  00018	8d 44 24 0c	 lea	 eax, DWORD PTR __$EHRec$[esp+24]
  0001c	64 a3 00 00 00
	00		 mov	 DWORD PTR fs:0, eax
  00022	8b 74 24 1c	 mov	 esi, DWORD PTR _this$[esp+20]
  00026	56		 push	 esi
  00027	e8 00 00 00 00	 call	 ??0ContentInfo@@QAE@QBD@Z ; ContentInfo::ContentInfo
  0002c	8d 86 00 01 00
	00		 lea	 eax, DWORD PTR [esi+256]
  00032	c7 44 24 14 00
	00 00 00	 mov	 DWORD PTR __$EHRec$[esp+32], 0
  0003a	50		 push	 eax
  0003b	c7 06 00 00 00
	00		 mov	 DWORD PTR [esi], OFFSET ??_7PKCS7@@6B@
  00041	e8 00 00 00 00	 call	 ??0HMAC_SHA1@@QAE@PAVSHA1@@QBD@Z ; HMAC_SHA1::HMAC_SHA1
  00046	8d 8e f0 01 00
	00		 lea	 ecx, DWORD PTR [esi+496]
  0004c	51		 push	 ecx
  0004d	c6 44 24 18 01	 mov	 BYTE PTR __$EHRec$[esp+36], 1
  00052	e8 00 00 00 00	 call	 ??0HMAC_SHA224@@QAE@PAVSHA224@@QBD@Z ; HMAC_SHA224::HMAC_SHA224
  00057	8d 96 e0 02 00
	00		 lea	 edx, DWORD PTR [esi+736]
  0005d	52		 push	 edx
  0005e	c6 44 24 18 02	 mov	 BYTE PTR __$EHRec$[esp+36], 2
  00063	e8 00 00 00 00	 call	 ??0HMAC_SHA256@@QAE@PAVSHA256@@QBD@Z ; HMAC_SHA256::HMAC_SHA256

; 31   : }

  00068	8b c6		 mov	 eax, esi
  0006a	8b 4c 24 0c	 mov	 ecx, DWORD PTR __$EHRec$[esp+24]
  0006e	64 89 0d 00 00
	00 00		 mov	 DWORD PTR fs:0, ecx
  00075	59		 pop	 ecx
  00076	5e		 pop	 esi
  00077	83 c4 10	 add	 esp, 16			; 00000010H
  0007a	c2 04 00	 ret	 4
_TEXT	ENDS
;	COMDAT text$x
text$x	SEGMENT
__unwindfunclet$??0PKCS7@@QAE@QBD@Z$0:
  00000	8b 45 04	 mov	 eax, DWORD PTR _this$[ebp-4]
  00003	50		 push	 eax
  00004	e8 00 00 00 00	 call	 ??1ContentInfo@@QAE@XZ	; ContentInfo::~ContentInfo
  00009	c3		 ret	 0
__unwindfunclet$??0PKCS7@@QAE@QBD@Z$1:
  0000a	8b 45 04	 mov	 eax, DWORD PTR _this$[ebp-4]
  0000d	05 00 01 00 00	 add	 eax, 256		; 00000100H
  00012	e9 00 00 00 00	 jmp	 ??1HMAC_SHA1@@QAE@XZ	; HMAC_SHA1::~HMAC_SHA1
__unwindfunclet$??0PKCS7@@QAE@QBD@Z$2:
  00017	8b 45 04	 mov	 eax, DWORD PTR _this$[ebp-4]
  0001a	05 f0 01 00 00	 add	 eax, 496		; 000001f0H
  0001f	e9 00 00 00 00	 jmp	 ??1HMAC_SHA224@@QAE@XZ	; HMAC_SHA224::~HMAC_SHA224
__ehhandler$??0PKCS7@@QAE@QBD@Z:
  00024	8b 54 24 08	 mov	 edx, DWORD PTR [esp+8]
  00028	8d 42 f8	 lea	 eax, DWORD PTR [edx-8]
  0002b	8b 4a f4	 mov	 ecx, DWORD PTR [edx-12]
  0002e	33 c8		 xor	 ecx, eax
  00030	e8 00 00 00 00	 call	 @__security_check_cookie@4
  00035	b8 00 00 00 00	 mov	 eax, OFFSET __ehfuncinfo$??0PKCS7@@QAE@QBD@Z
  0003a	e9 00 00 00 00	 jmp	 ___CxxFrameHandler3
text$x	ENDS
??0PKCS7@@QAE@QBD@Z ENDP				; PKCS7::PKCS7
; Function compile flags: /Ogtpy
;	COMDAT ??__E?cDES_CBC@PKCS7@@2VDES_CBC@@A@@YAXXZ
text$yc	SEGMENT
??__E?cDES_CBC@PKCS7@@2VDES_CBC@@A@@YAXXZ PROC		; `dynamic initializer for 'PKCS7::cDES_CBC'', COMDAT

; 6    : 	__declspec(align(16))	DES_CBC			PKCS7::cDES_CBC;

  00000	68 00 00 00 00	 push	 OFFSET ?cDES_CBC@PKCS7@@2VDES_CBC@@A ; PKCS7::cDES_CBC
  00005	e8 00 00 00 00	 call	 ??0DES_CBC@@QAE@QBD@Z	; DES_CBC::DES_CBC
  0000a	68 00 00 00 00	 push	 OFFSET ??__F?cDES_CBC@PKCS7@@2VDES_CBC@@A@@YAXXZ ; `dynamic atexit destructor for 'PKCS7::cDES_CBC''
  0000f	e8 00 00 00 00	 call	 _atexit
  00014	59		 pop	 ecx
  00015	c3		 ret	 0
??__E?cDES_CBC@PKCS7@@2VDES_CBC@@A@@YAXXZ ENDP		; `dynamic initializer for 'PKCS7::cDES_CBC''
; Function compile flags: /Ogtpy
text$yc	ENDS
;	COMDAT ??__E?cTDES_CBC@PKCS7@@2VDES_EDE3_CBC@@A@@YAXXZ
text$yc	SEGMENT
??__E?cTDES_CBC@PKCS7@@2VDES_EDE3_CBC@@A@@YAXXZ PROC	; `dynamic initializer for 'PKCS7::cTDES_CBC'', COMDAT

; 7    : 	__declspec(align(16))	DES_EDE3_CBC	PKCS7::cTDES_CBC;

  00000	68 00 00 00 00	 push	 OFFSET ?cTDES_CBC@PKCS7@@2VDES_EDE3_CBC@@A ; PKCS7::cTDES_CBC
  00005	e8 00 00 00 00	 call	 ??0DES_EDE3_CBC@@QAE@QBD@Z ; DES_EDE3_CBC::DES_EDE3_CBC
  0000a	68 00 00 00 00	 push	 OFFSET ??__F?cTDES_CBC@PKCS7@@2VDES_EDE3_CBC@@A@@YAXXZ ; `dynamic atexit destructor for 'PKCS7::cTDES_CBC''
  0000f	e8 00 00 00 00	 call	 _atexit
  00014	59		 pop	 ecx
  00015	c3		 ret	 0
??__E?cTDES_CBC@PKCS7@@2VDES_EDE3_CBC@@A@@YAXXZ ENDP	; `dynamic initializer for 'PKCS7::cTDES_CBC''
; Function compile flags: /Ogtpy
text$yc	ENDS
;	COMDAT ??__E?cAES_CBC128@PKCS7@@2VAES_CBC128@@A@@YAXXZ
text$yc	SEGMENT
??__E?cAES_CBC128@PKCS7@@2VAES_CBC128@@A@@YAXXZ PROC	; `dynamic initializer for 'PKCS7::cAES_CBC128'', COMDAT

; 8    : 	__declspec(align(16))	AES_CBC128		PKCS7::cAES_CBC128;		//SIMDを使う関係で、

  00000	68 00 00 00 00	 push	 OFFSET ?cAES_CBC128@PKCS7@@2VAES_CBC128@@A ; PKCS7::cAES_CBC128
  00005	e8 00 00 00 00	 call	 ??0AES_CBC128@@QAE@QBD@Z ; AES_CBC128::AES_CBC128
  0000a	68 00 00 00 00	 push	 OFFSET ??__F?cAES_CBC128@PKCS7@@2VAES_CBC128@@A@@YAXXZ ; `dynamic atexit destructor for 'PKCS7::cAES_CBC128''
  0000f	e8 00 00 00 00	 call	 _atexit
  00014	59		 pop	 ecx
  00015	c3		 ret	 0
??__E?cAES_CBC128@PKCS7@@2VAES_CBC128@@A@@YAXXZ ENDP	; `dynamic initializer for 'PKCS7::cAES_CBC128''
; Function compile flags: /Ogtpy
text$yc	ENDS
;	COMDAT ??__E?cAES_CBC192@PKCS7@@2VAES_CBC192@@A@@YAXXZ
text$yc	SEGMENT
??__E?cAES_CBC192@PKCS7@@2VAES_CBC192@@A@@YAXXZ PROC	; `dynamic initializer for 'PKCS7::cAES_CBC192'', COMDAT

; 9    : 	__declspec(align(16))	AES_CBC192		PKCS7::cAES_CBC192;		//staticに置く必要あり。

  00000	68 00 00 00 00	 push	 OFFSET ?cAES_CBC192@PKCS7@@2VAES_CBC192@@A ; PKCS7::cAES_CBC192
  00005	e8 00 00 00 00	 call	 ??0AES_CBC192@@QAE@QBD@Z ; AES_CBC192::AES_CBC192
  0000a	68 00 00 00 00	 push	 OFFSET ??__F?cAES_CBC192@PKCS7@@2VAES_CBC192@@A@@YAXXZ ; `dynamic atexit destructor for 'PKCS7::cAES_CBC192''
  0000f	e8 00 00 00 00	 call	 _atexit
  00014	59		 pop	 ecx
  00015	c3		 ret	 0
??__E?cAES_CBC192@PKCS7@@2VAES_CBC192@@A@@YAXXZ ENDP	; `dynamic initializer for 'PKCS7::cAES_CBC192''
; Function compile flags: /Ogtpy
text$yc	ENDS
;	COMDAT ??__E?cAES_CBC256@PKCS7@@2VAES_CBC256@@A@@YAXXZ
text$yc	SEGMENT
??__E?cAES_CBC256@PKCS7@@2VAES_CBC256@@A@@YAXXZ PROC	; `dynamic initializer for 'PKCS7::cAES_CBC256'', COMDAT

; 10   : 	__declspec(align(16))	AES_CBC256		PKCS7::cAES_CBC256;		//(__declspec(align(16)))

  00000	68 00 00 00 00	 push	 OFFSET ?cAES_CBC256@PKCS7@@2VAES_CBC256@@A ; PKCS7::cAES_CBC256
  00005	e8 00 00 00 00	 call	 ??0AES_CBC256@@QAE@QBD@Z ; AES_CBC256::AES_CBC256
  0000a	68 00 00 00 00	 push	 OFFSET ??__F?cAES_CBC256@PKCS7@@2VAES_CBC256@@A@@YAXXZ ; `dynamic atexit destructor for 'PKCS7::cAES_CBC256''
  0000f	e8 00 00 00 00	 call	 _atexit
  00014	59		 pop	 ecx
  00015	c3		 ret	 0
??__E?cAES_CBC256@PKCS7@@2VAES_CBC256@@A@@YAXXZ ENDP	; `dynamic initializer for 'PKCS7::cAES_CBC256''
; Function compile flags: /Ogtpy
text$yc	ENDS
;	COMDAT ??__E?cSHA1@PKCS7@@2VSHA1@@A@@YAXXZ
text$yc	SEGMENT
??__E?cSHA1@PKCS7@@2VSHA1@@A@@YAXXZ PROC		; `dynamic initializer for 'PKCS7::cSHA1'', COMDAT

; 13   : 	SHA1			PKCS7::cSHA1;			//SHAハッシュ

  00000	e8 00 00 00 00	 call	 ??0SHA1@@QAE@QBD@Z	; SHA1::SHA1
  00005	68 00 00 00 00	 push	 OFFSET ??__F?cSHA1@PKCS7@@2VSHA1@@A@@YAXXZ ; `dynamic atexit destructor for 'PKCS7::cSHA1''
  0000a	e8 00 00 00 00	 call	 _atexit
  0000f	59		 pop	 ecx
  00010	c3		 ret	 0
??__E?cSHA1@PKCS7@@2VSHA1@@A@@YAXXZ ENDP		; `dynamic initializer for 'PKCS7::cSHA1''
; Function compile flags: /Ogtpy
text$yc	ENDS
;	COMDAT ??__E?cSHA224@PKCS7@@2VSHA224@@A@@YAXXZ
text$yc	SEGMENT
??__E?cSHA224@PKCS7@@2VSHA224@@A@@YAXXZ PROC		; `dynamic initializer for 'PKCS7::cSHA224'', COMDAT

; 14   : 	SHA224			PKCS7::cSHA224;			//SHAハッシュ

  00000	e8 00 00 00 00	 call	 ??0SHA224@@QAE@QBD@Z	; SHA224::SHA224
  00005	68 00 00 00 00	 push	 OFFSET ??__F?cSHA224@PKCS7@@2VSHA224@@A@@YAXXZ ; `dynamic atexit destructor for 'PKCS7::cSHA224''
  0000a	e8 00 00 00 00	 call	 _atexit
  0000f	59		 pop	 ecx
  00010	c3		 ret	 0
??__E?cSHA224@PKCS7@@2VSHA224@@A@@YAXXZ ENDP		; `dynamic initializer for 'PKCS7::cSHA224''
; Function compile flags: /Ogtpy
text$yc	ENDS
;	COMDAT ??__E?cSHA256@PKCS7@@2VSHA256@@A@@YAXXZ
text$yc	SEGMENT
??__E?cSHA256@PKCS7@@2VSHA256@@A@@YAXXZ PROC		; `dynamic initializer for 'PKCS7::cSHA256'', COMDAT

; 15   : 	SHA256			PKCS7::cSHA256;			//SHAハッシュ

  00000	68 00 00 00 00	 push	 OFFSET ??_C@_07DKFLFLPF@SHA?9256?$AA@
  00005	68 00 00 00 00	 push	 OFFSET ?cSHA256@PKCS7@@2VSHA256@@A ; PKCS7::cSHA256
  0000a	e8 00 00 00 00	 call	 ??0SHA256@@QAE@QBD@Z	; SHA256::SHA256
  0000f	68 00 00 00 00	 push	 OFFSET ??__F?cSHA256@PKCS7@@2VSHA256@@A@@YAXXZ ; `dynamic atexit destructor for 'PKCS7::cSHA256''
  00014	e8 00 00 00 00	 call	 _atexit
  00019	59		 pop	 ecx
  0001a	c3		 ret	 0
??__E?cSHA256@PKCS7@@2VSHA256@@A@@YAXXZ ENDP		; `dynamic initializer for 'PKCS7::cSHA256''
; Function compile flags: /Ogtpy
;	COMDAT ??__F?cSHA256@PKCS7@@2VSHA256@@A@@YAXXZ
text$yd	SEGMENT
??__F?cSHA256@PKCS7@@2VSHA256@@A@@YAXXZ PROC		; `dynamic atexit destructor for 'PKCS7::cSHA256'', COMDAT
  00000	56		 push	 esi
  00001	be 00 00 00 00	 mov	 esi, OFFSET ?cSHA256@PKCS7@@2VSHA256@@A ; PKCS7::cSHA256
  00006	c7 05 00 00 00
	00 00 00 00 00	 mov	 DWORD PTR ?cSHA256@PKCS7@@2VSHA256@@A, OFFSET ??_7SHA256@@6B@
  00010	e8 00 00 00 00	 call	 ??1SHA@@QAE@XZ		; SHA::~SHA
  00015	5e		 pop	 esi
  00016	c3		 ret	 0
??__F?cSHA256@PKCS7@@2VSHA256@@A@@YAXXZ ENDP		; `dynamic atexit destructor for 'PKCS7::cSHA256''
; Function compile flags: /Ogtpy
text$yd	ENDS
;	COMDAT ??__F?cSHA224@PKCS7@@2VSHA224@@A@@YAXXZ
text$yd	SEGMENT
??__F?cSHA224@PKCS7@@2VSHA224@@A@@YAXXZ PROC		; `dynamic atexit destructor for 'PKCS7::cSHA224'', COMDAT
  00000	56		 push	 esi
  00001	be 00 00 00 00	 mov	 esi, OFFSET ?cSHA224@PKCS7@@2VSHA224@@A ; PKCS7::cSHA224
  00006	c7 05 00 00 00
	00 00 00 00 00	 mov	 DWORD PTR ?cSHA224@PKCS7@@2VSHA224@@A, OFFSET ??_7SHA256@@6B@
  00010	e8 00 00 00 00	 call	 ??1SHA@@QAE@XZ		; SHA::~SHA
  00015	5e		 pop	 esi
  00016	c3		 ret	 0
??__F?cSHA224@PKCS7@@2VSHA224@@A@@YAXXZ ENDP		; `dynamic atexit destructor for 'PKCS7::cSHA224''
; Function compile flags: /Ogtpy
text$yd	ENDS
;	COMDAT ??__F?cSHA1@PKCS7@@2VSHA1@@A@@YAXXZ
text$yd	SEGMENT
??__F?cSHA1@PKCS7@@2VSHA1@@A@@YAXXZ PROC		; `dynamic atexit destructor for 'PKCS7::cSHA1'', COMDAT
  00000	56		 push	 esi
  00001	be 00 00 00 00	 mov	 esi, OFFSET ?cSHA1@PKCS7@@2VSHA1@@A ; PKCS7::cSHA1
  00006	c7 05 00 00 00
	00 00 00 00 00	 mov	 DWORD PTR ?cSHA1@PKCS7@@2VSHA1@@A, OFFSET ??_7SHA1@@6B@
  00010	e8 00 00 00 00	 call	 ??1SHA@@QAE@XZ		; SHA::~SHA
  00015	5e		 pop	 esi
  00016	c3		 ret	 0
??__F?cSHA1@PKCS7@@2VSHA1@@A@@YAXXZ ENDP		; `dynamic atexit destructor for 'PKCS7::cSHA1''
; Function compile flags: /Ogtpy
text$yd	ENDS
;	COMDAT ??__F?cDES_CBC@PKCS7@@2VDES_CBC@@A@@YAXXZ
text$yd	SEGMENT
??__F?cDES_CBC@PKCS7@@2VDES_CBC@@A@@YAXXZ PROC		; `dynamic atexit destructor for 'PKCS7::cDES_CBC'', COMDAT
  00000	56		 push	 esi
  00001	be 00 00 00 00	 mov	 esi, OFFSET ?cDES_CBC@PKCS7@@2VDES_CBC@@A ; PKCS7::cDES_CBC
  00006	e8 00 00 00 00	 call	 ??1DES_CBC@@QAE@XZ	; DES_CBC::~DES_CBC
  0000b	5e		 pop	 esi
  0000c	c3		 ret	 0
??__F?cDES_CBC@PKCS7@@2VDES_CBC@@A@@YAXXZ ENDP		; `dynamic atexit destructor for 'PKCS7::cDES_CBC''
; Function compile flags: /Ogtpy
;	COMDAT ??__F?cAES_CBC256@PKCS7@@2VAES_CBC256@@A@@YAXXZ
text$yd	SEGMENT
??__F?cAES_CBC256@PKCS7@@2VAES_CBC256@@A@@YAXXZ PROC	; `dynamic atexit destructor for 'PKCS7::cAES_CBC256'', COMDAT
  00000	56		 push	 esi
  00001	be 00 00 00 00	 mov	 esi, OFFSET ?cAES_CBC256@PKCS7@@2VAES_CBC256@@A ; PKCS7::cAES_CBC256
  00006	c7 05 00 00 00
	00 00 00 00 00	 mov	 DWORD PTR ?cAES_CBC256@PKCS7@@2VAES_CBC256@@A, OFFSET ??_7AES_CBC256@@6B@
  00010	e8 00 00 00 00	 call	 ??1AES_CBC@@QAE@XZ	; AES_CBC::~AES_CBC
  00015	5e		 pop	 esi
  00016	c3		 ret	 0
??__F?cAES_CBC256@PKCS7@@2VAES_CBC256@@A@@YAXXZ ENDP	; `dynamic atexit destructor for 'PKCS7::cAES_CBC256''
; Function compile flags: /Ogtpy
text$yd	ENDS
;	COMDAT ??__F?cAES_CBC192@PKCS7@@2VAES_CBC192@@A@@YAXXZ
text$yd	SEGMENT
??__F?cAES_CBC192@PKCS7@@2VAES_CBC192@@A@@YAXXZ PROC	; `dynamic atexit destructor for 'PKCS7::cAES_CBC192'', COMDAT
  00000	56		 push	 esi
  00001	be 00 00 00 00	 mov	 esi, OFFSET ?cAES_CBC192@PKCS7@@2VAES_CBC192@@A ; PKCS7::cAES_CBC192
  00006	c7 05 00 00 00
	00 00 00 00 00	 mov	 DWORD PTR ?cAES_CBC192@PKCS7@@2VAES_CBC192@@A, OFFSET ??_7AES_CBC192@@6B@
  00010	e8 00 00 00 00	 call	 ??1AES_CBC@@QAE@XZ	; AES_CBC::~AES_CBC
  00015	5e		 pop	 esi
  00016	c3		 ret	 0
??__F?cAES_CBC192@PKCS7@@2VAES_CBC192@@A@@YAXXZ ENDP	; `dynamic atexit destructor for 'PKCS7::cAES_CBC192''
; Function compile flags: /Ogtpy
text$yd	ENDS
;	COMDAT ??__F?cAES_CBC128@PKCS7@@2VAES_CBC128@@A@@YAXXZ
text$yd	SEGMENT
??__F?cAES_CBC128@PKCS7@@2VAES_CBC128@@A@@YAXXZ PROC	; `dynamic atexit destructor for 'PKCS7::cAES_CBC128'', COMDAT
  00000	56		 push	 esi
  00001	be 00 00 00 00	 mov	 esi, OFFSET ?cAES_CBC128@PKCS7@@2VAES_CBC128@@A ; PKCS7::cAES_CBC128
  00006	c7 05 00 00 00
	00 00 00 00 00	 mov	 DWORD PTR ?cAES_CBC128@PKCS7@@2VAES_CBC128@@A, OFFSET ??_7AES_CBC128@@6B@
  00010	e8 00 00 00 00	 call	 ??1AES_CBC@@QAE@XZ	; AES_CBC::~AES_CBC
  00015	5e		 pop	 esi
  00016	c3		 ret	 0
??__F?cAES_CBC128@PKCS7@@2VAES_CBC128@@A@@YAXXZ ENDP	; `dynamic atexit destructor for 'PKCS7::cAES_CBC128''
; Function compile flags: /Ogtpy
text$yd	ENDS
;	COMDAT ??__F?cTDES_CBC@PKCS7@@2VDES_EDE3_CBC@@A@@YAXXZ
text$yd	SEGMENT
??__F?cTDES_CBC@PKCS7@@2VDES_EDE3_CBC@@A@@YAXXZ PROC	; `dynamic atexit destructor for 'PKCS7::cTDES_CBC'', COMDAT
  00000	56		 push	 esi
  00001	be 00 00 00 00	 mov	 esi, OFFSET ?cTDES_CBC@PKCS7@@2VDES_EDE3_CBC@@A ; PKCS7::cTDES_CBC
  00006	e8 00 00 00 00	 call	 ??1DES_EDE3_CBC@@QAE@XZ	; DES_EDE3_CBC::~DES_EDE3_CBC
  0000b	5e		 pop	 esi
  0000c	c3		 ret	 0
??__F?cTDES_CBC@PKCS7@@2VDES_EDE3_CBC@@A@@YAXXZ ENDP	; `dynamic atexit destructor for 'PKCS7::cTDES_CBC''
PUBLIC	?cSHA256@PKCS7@@2VSHA256@@A			; PKCS7::cSHA256
PUBLIC	?cSHA224@PKCS7@@2VSHA224@@A			; PKCS7::cSHA224
PUBLIC	?cSHA1@PKCS7@@2VSHA1@@A				; PKCS7::cSHA1
PUBLIC	?cAES_CBC256@PKCS7@@2VAES_CBC256@@A		; PKCS7::cAES_CBC256
PUBLIC	?cAES_CBC192@PKCS7@@2VAES_CBC192@@A		; PKCS7::cAES_CBC192
PUBLIC	?cAES_CBC128@PKCS7@@2VAES_CBC128@@A		; PKCS7::cAES_CBC128
PUBLIC	?cTDES_CBC@PKCS7@@2VDES_EDE3_CBC@@A		; PKCS7::cTDES_CBC
PUBLIC	?cDES_CBC@PKCS7@@2VDES_CBC@@A			; PKCS7::cDES_CBC
?cSHA256@PKCS7@@2VSHA256@@A DB 0d0H DUP (?)		; PKCS7::cSHA256
?cSHA224@PKCS7@@2VSHA224@@A DB 0d0H DUP (?)		; PKCS7::cSHA224
?cSHA1@PKCS7@@2VSHA1@@A DB 0c4H DUP (?)			; PKCS7::cSHA1
?cAES_CBC256@PKCS7@@2VAES_CBC256@@A DB 0220H DUP (?)	; PKCS7::cAES_CBC256
?cAES_CBC192@PKCS7@@2VAES_CBC192@@A DB 0220H DUP (?)	; PKCS7::cAES_CBC192
?cAES_CBC128@PKCS7@@2VAES_CBC128@@A DB 0220H DUP (?)	; PKCS7::cAES_CBC128
?cTDES_CBC@PKCS7@@2VDES_EDE3_CBC@@A DB 02a0H DUP (?)	; PKCS7::cTDES_CBC
?cDES_CBC@PKCS7@@2VDES_CBC@@A DB 01a0H DUP (?)		; PKCS7::cDES_CBC
?cDES_CBC$initializer$@PKCS7@@2P6AXXZA DD FLAT:??__E?cDES_CBC@PKCS7@@2VDES_CBC@@A@@YAXXZ ; PKCS7::cDES_CBC$initializer$
?cTDES_CBC$initializer$@PKCS7@@2P6AXXZA DD FLAT:??__E?cTDES_CBC@PKCS7@@2VDES_EDE3_CBC@@A@@YAXXZ ; PKCS7::cTDES_CBC$initializer$
?cAES_CBC128$initializer$@PKCS7@@2P6AXXZA DD FLAT:??__E?cAES_CBC128@PKCS7@@2VAES_CBC128@@A@@YAXXZ ; PKCS7::cAES_CBC128$initializer$
?cAES_CBC192$initializer$@PKCS7@@2P6AXXZA DD FLAT:??__E?cAES_CBC192@PKCS7@@2VAES_CBC192@@A@@YAXXZ ; PKCS7::cAES_CBC192$initializer$
?cAES_CBC256$initializer$@PKCS7@@2P6AXXZA DD FLAT:??__E?cAES_CBC256@PKCS7@@2VAES_CBC256@@A@@YAXXZ ; PKCS7::cAES_CBC256$initializer$
?cSHA1$initializer$@PKCS7@@2P6AXXZA DD FLAT:??__E?cSHA1@PKCS7@@2VSHA1@@A@@YAXXZ ; PKCS7::cSHA1$initializer$
?cSHA224$initializer$@PKCS7@@2P6AXXZA DD FLAT:??__E?cSHA224@PKCS7@@2VSHA224@@A@@YAXXZ ; PKCS7::cSHA224$initializer$
?cSHA256$initializer$@PKCS7@@2P6AXXZA DD FLAT:??__E?cSHA256@PKCS7@@2VSHA256@@A@@YAXXZ ; PKCS7::cSHA256$initializer$
END
