; Listing generated by Microsoft (R) Optimizing Compiler Version 15.00.30729.01 

	TITLE	i:\?n????j\My Project\CMS\CMS\ASN1\PKCS7\RecipientInfos.cpp
	.686P
	.XMM
	include listing.inc
	.model	flat

INCLUDELIB OLDNAMES

PUBLIC	??_R4RecipientInfos@@6B@			; RecipientInfos::`RTTI Complete Object Locator'
PUBLIC	??_R3RecipientInfos@@8				; RecipientInfos::`RTTI Class Hierarchy Descriptor'
PUBLIC	??_R2RecipientInfos@@8				; RecipientInfos::`RTTI Base Class Array'
PUBLIC	??_R1A@?0A@EA@RecipientInfos@@8			; RecipientInfos::`RTTI Base Class Descriptor at (0,-1,0,64)'
PUBLIC	??_R0?AVRecipientInfos@@@8			; RecipientInfos `RTTI Type Descriptor'
PUBLIC	??0?$allocator@PAVContext@@@std@@QAE@XZ		; std::allocator<Context *>::allocator<Context *>
PUBLIC	??$?0PAVContext@@@?$allocator@V_Aux_cont@std@@@std@@QAE@ABV?$allocator@PAVContext@@@1@@Z ; std::allocator<std::_Aux_cont>::allocator<std::_Aux_cont><Context *>
PUBLIC	??0?$_Container_base_aux_alloc_real@V?$allocator@PAVContext@@@std@@@std@@IAE@V?$allocator@PAVContext@@@1@@Z ; std::_Container_base_aux_alloc_real<std::allocator<Context *> >::_Container_base_aux_alloc_real<std::allocator<Context *> >
PUBLIC	??0?$allocator@PAVContext@@@std@@QAE@ABV01@@Z	; std::allocator<Context *>::allocator<Context *>
PUBLIC	??0?$_Vector_val@PAVContext@@V?$allocator@PAVContext@@@std@@@std@@IAE@V?$allocator@PAVContext@@@1@@Z ; std::_Vector_val<Context *,std::allocator<Context *> >::_Vector_val<Context *,std::allocator<Context *> >
PUBLIC	?_Buy@?$vector@PAVContext@@V?$allocator@PAVContext@@@std@@@std@@IAE_NI@Z ; std::vector<Context *,std::allocator<Context *> >::_Buy
PUBLIC	??0?$vector@PAVContext@@V?$allocator@PAVContext@@@std@@@std@@QAE@XZ ; std::vector<Context *,std::allocator<Context *> >::vector<Context *,std::allocator<Context *> >
PUBLIC	??_GContext@@QAEPAXI@Z				; Context::`scalar deleting destructor'
PUBLIC	??1?$_Container_base_aux_alloc_real@V?$allocator@PAVContext@@@std@@@std@@IAE@XZ ; std::_Container_base_aux_alloc_real<std::allocator<Context *> >::~_Container_base_aux_alloc_real<std::allocator<Context *> >
PUBLIC	??1?$_Vector_val@PAVContext@@V?$allocator@PAVContext@@@std@@@std@@QAE@XZ ; std::_Vector_val<Context *,std::allocator<Context *> >::~_Vector_val<Context *,std::allocator<Context *> >
PUBLIC	?_Tidy@?$vector@PAVContext@@V?$allocator@PAVContext@@@std@@@std@@IAEXXZ ; std::vector<Context *,std::allocator<Context *> >::_Tidy
PUBLIC	??1?$vector@PAVContext@@V?$allocator@PAVContext@@@std@@@std@@QAE@XZ ; std::vector<Context *,std::allocator<Context *> >::~vector<Context *,std::allocator<Context *> >
PUBLIC	??D?$_Vector_const_iterator@PAVContext@@V?$allocator@PAVContext@@@std@@@std@@QBEABQAVContext@@XZ ; std::_Vector_const_iterator<Context *,std::allocator<Context *> >::operator*
PUBLIC	??D?$_Vector_iterator@PAVContext@@V?$allocator@PAVContext@@@std@@@std@@QBEAAPAVContext@@XZ ; std::_Vector_iterator<Context *,std::allocator<Context *> >::operator*
PUBLIC	??Z?$_Vector_iterator@PAVContext@@V?$allocator@PAVContext@@@std@@@std@@QAEAAV01@H@Z ; std::_Vector_iterator<Context *,std::allocator<Context *> >::operator-=
PUBLIC	??G?$_Vector_iterator@PAVContext@@V?$allocator@PAVContext@@@std@@@std@@QBE?AV01@H@Z ; std::_Vector_iterator<Context *,std::allocator<Context *> >::operator-
PUBLIC	?back@?$vector@PAVContext@@V?$allocator@PAVContext@@@std@@@std@@QAEAAPAVContext@@XZ ; std::vector<Context *,std::allocator<Context *> >::back
PUBLIC	?empty@?$vector@PAVContext@@V?$allocator@PAVContext@@@std@@@std@@QBE_NXZ ; std::vector<Context *,std::allocator<Context *> >::empty
PUBLIC	?pop_back@?$vector@PAVContext@@V?$allocator@PAVContext@@@std@@@std@@QAEXXZ ; std::vector<Context *,std::allocator<Context *> >::pop_back
PUBLIC	?end@?$vector@PAVContext@@V?$allocator@PAVContext@@@std@@@std@@QAE?AV?$_Vector_iterator@PAVContext@@V?$allocator@PAVContext@@@std@@@2@XZ ; std::vector<Context *,std::allocator<Context *> >::end
PUBLIC	??0?$_Iterator_with_base@Urandom_access_iterator_tag@std@@PAVContext@@HPBQAV3@ABQAV3@V_Iterator_base_aux@2@@std@@QAE@XZ ; std::_Iterator_with_base<std::random_access_iterator_tag,Context *,int,Context * const *,Context * const &,std::_Iterator_base_aux>::_Iterator_with_base<std::random_access_iterator_tag,Context *,int,Context * const *,Context * const &,std::_Iterator_base_aux>
PUBLIC	??0?$_Ranit@PAVContext@@HPBQAV1@ABQAV1@@std@@QAE@XZ ; std::_Ranit<Context *,int,Context * const *,Context * const &>::_Ranit<Context *,int,Context * const *,Context * const &>
PUBLIC	??0?$_Vector_const_iterator@PAVContext@@V?$allocator@PAVContext@@@std@@@std@@QAE@PAPAVContext@@PBV_Container_base_aux@1@@Z ; std::_Vector_const_iterator<Context *,std::allocator<Context *> >::_Vector_const_iterator<Context *,std::allocator<Context *> >
PUBLIC	??0?$_Vector_iterator@PAVContext@@V?$allocator@PAVContext@@@std@@@std@@QAE@PAPAVContext@@PBV_Container_base_aux@1@@Z ; std::_Vector_iterator<Context *,std::allocator<Context *> >::_Vector_iterator<Context *,std::allocator<Context *> >
PUBLIC	?begin@?$vector@PAVContext@@V?$allocator@PAVContext@@@std@@@std@@QAE?AV?$_Vector_iterator@PAVContext@@V?$allocator@PAVContext@@@std@@@2@XZ ; std::vector<Context *,std::allocator<Context *> >::begin
PUBLIC	?deallocate@?$allocator@PAVContext@@@std@@QAEXPAPAVContext@@I@Z ; std::allocator<Context *>::deallocate
PUBLIC	??$_Allocate@PAVContext@@@std@@YAPAPAVContext@@IPAPAV1@@Z ; std::_Allocate<Context *>
PUBLIC	?allocate@?$allocator@PAVContext@@@std@@QAEPAPAVContext@@I@Z ; std::allocator<Context *>::allocate
PUBLIC	?capacity@?$vector@PAVContext@@V?$allocator@PAVContext@@@std@@@std@@QBEIXZ ; std::vector<Context *,std::allocator<Context *> >::capacity
PUBLIC	?size@?$vector@PAVContext@@V?$allocator@PAVContext@@@std@@@std@@QBEIXZ ; std::vector<Context *,std::allocator<Context *> >::size
PUBLIC	?max_size@?$allocator@PAVContext@@@std@@QBEIXZ	; std::allocator<Context *>::max_size
PUBLIC	?max_size@?$vector@PAVContext@@V?$allocator@PAVContext@@@std@@@std@@QBEIXZ ; std::vector<Context *,std::allocator<Context *> >::max_size
PUBLIC	??$_Destroy_range@V?$allocator@PAVContext@@@std@@@std@@YAXPAPAVContext@@0AAV?$allocator@PAVContext@@@0@U_Scalar_ptr_iterator_tag@0@@Z ; std::_Destroy_range<std::allocator<Context *> >
PUBLIC	??$_Destroy_range@V?$allocator@PAVContext@@@std@@@std@@YAXPAPAVContext@@0AAV?$allocator@PAVContext@@@0@@Z ; std::_Destroy_range<std::allocator<Context *> >
PUBLIC	?_Destroy@?$vector@PAVContext@@V?$allocator@PAVContext@@@std@@@std@@IAEXPAPAVContext@@0@Z ; std::vector<Context *,std::allocator<Context *> >::_Destroy
PUBLIC	?_Xlen@?$vector@PAVContext@@V?$allocator@PAVContext@@@std@@@std@@KAXXZ ; std::vector<Context *,std::allocator<Context *> >::_Xlen
PUBLIC	??$_Uninit_copy@PAPAVContext@@PAPAV1@V?$allocator@PAVContext@@@std@@@std@@YAPAPAVContext@@PAPAV1@00AAV?$allocator@PAVContext@@@0@U_Scalar_ptr_iterator_tag@0@U_Range_checked_iterator_tag@0@@Z ; std::_Uninit_copy<Context * *,Context * *,std::allocator<Context *> >
PUBLIC	??$unchecked_uninitialized_copy@PAPAVContext@@PAPAV1@V?$allocator@PAVContext@@@std@@@stdext@@YAPAPAVContext@@PAPAV1@00AAV?$allocator@PAVContext@@@std@@@Z ; stdext::unchecked_uninitialized_copy<Context * *,Context * *,std::allocator<Context *> >
PUBLIC	??$_Uninit_move@PAPAVContext@@PAPAV1@V?$allocator@PAVContext@@@std@@U_Undefined_move_tag@3@@std@@YAPAPAVContext@@PAPAV1@00AAV?$allocator@PAVContext@@@0@U_Undefined_move_tag@0@U_Range_checked_iterator_tag@0@@Z ; std::_Uninit_move<Context * *,Context * *,std::allocator<Context *>,std::_Undefined_move_tag>
PUBLIC	??$_Unchecked_uninitialized_move@PAPAVContext@@PAPAV1@V?$allocator@PAVContext@@@std@@@stdext@@YAPAPAVContext@@PAPAV1@00AAV?$allocator@PAVContext@@@std@@@Z ; stdext::_Unchecked_uninitialized_move<Context * *,Context * *,std::allocator<Context *> >
PUBLIC	??$_Umove@PAPAVContext@@@?$vector@PAVContext@@V?$allocator@PAVContext@@@std@@@std@@IAEPAPAVContext@@PAPAV2@00@Z ; std::vector<Context *,std::allocator<Context *> >::_Umove<Context * *>
PUBLIC	??$_Fill@PAPAVContext@@PAV1@@std@@YAXPAPAVContext@@0ABQAV1@@Z ; std::_Fill<Context * *,Context *>
PUBLIC	??$fill@PAPAVContext@@PAV1@@std@@YAXPAPAVContext@@0ABQAV1@@Z ; std::fill<Context * *,Context *>
PUBLIC	??$_Iter_random@PAPAVContext@@PAPAV1@@std@@YA?AUrandom_access_iterator_tag@0@ABQAPAVContext@@0@Z ; std::_Iter_random<Context * *,Context * *>
PUBLIC	??$_Move_cat@PAPAVContext@@@std@@YA?AU_Undefined_move_tag@0@ABQAPAVContext@@@Z ; std::_Move_cat<Context * *>
PUBLIC	??$_Copy_backward_opt@PAPAVContext@@PAPAV1@Urandom_access_iterator_tag@std@@@std@@YAPAPAVContext@@PAPAV1@00Urandom_access_iterator_tag@0@U_Scalar_ptr_iterator_tag@0@U_Range_checked_iterator_tag@0@@Z ; std::_Copy_backward_opt<Context * *,Context * *,std::random_access_iterator_tag>
PUBLIC	??$_Move_backward_opt@PAPAVContext@@PAPAV1@Urandom_access_iterator_tag@std@@U_Undefined_move_tag@3@@std@@YAPAPAVContext@@PAPAV1@00Urandom_access_iterator_tag@0@U_Undefined_move_tag@0@U_Range_checked_iterator_tag@0@@Z ; std::_Move_backward_opt<Context * *,Context * *,std::random_access_iterator_tag,std::_Undefined_move_tag>
PUBLIC	??$_Unchecked_move_backward@PAPAVContext@@PAPAV1@@stdext@@YAPAPAVContext@@PAPAV1@00@Z ; stdext::_Unchecked_move_backward<Context * *,Context * *>
PUBLIC	?_Insert_n@?$vector@PAVContext@@V?$allocator@PAVContext@@@std@@@std@@IAEXV?$_Vector_const_iterator@PAVContext@@V?$allocator@PAVContext@@@std@@@2@IABQAVContext@@@Z ; std::vector<Context *,std::allocator<Context *> >::_Insert_n
PUBLIC	??G?$_Vector_const_iterator@PAVContext@@V?$allocator@PAVContext@@@std@@@std@@QBEHABV01@@Z ; std::_Vector_const_iterator<Context *,std::allocator<Context *> >::operator-
PUBLIC	??Y?$_Vector_const_iterator@PAVContext@@V?$allocator@PAVContext@@@std@@@std@@QAEAAV01@H@Z ; std::_Vector_const_iterator<Context *,std::allocator<Context *> >::operator+=
PUBLIC	??Y?$_Vector_iterator@PAVContext@@V?$allocator@PAVContext@@@std@@@std@@QAEAAV01@H@Z ; std::_Vector_iterator<Context *,std::allocator<Context *> >::operator+=
PUBLIC	??H?$_Vector_iterator@PAVContext@@V?$allocator@PAVContext@@@std@@@std@@QBE?AV01@H@Z ; std::_Vector_iterator<Context *,std::allocator<Context *> >::operator+
PUBLIC	?insert@?$vector@PAVContext@@V?$allocator@PAVContext@@@std@@@std@@QAE?AV?$_Vector_iterator@PAVContext@@V?$allocator@PAVContext@@@std@@@2@V?$_Vector_const_iterator@PAVContext@@V?$allocator@PAVContext@@@std@@@2@ABQAVContext@@@Z ; std::vector<Context *,std::allocator<Context *> >::insert
PUBLIC	??$_Ptr_cat@PAPAVContext@@PAPAV1@@std@@YA?AU_Scalar_ptr_iterator_tag@0@AAPAPAVContext@@0@Z ; std::_Ptr_cat<Context * *,Context * *>
PUBLIC	??$_Iter_cat@PAPAVContext@@@std@@YA?AUrandom_access_iterator_tag@0@ABQAPAVContext@@@Z ; std::_Iter_cat<Context * *>
PUBLIC	??$_Checked_base@PAPAVContext@@@std@@YAPAPAVContext@@AAPAPAV1@U_Unchanged_checked_iterator_base_type_tag@0@@Z ; std::_Checked_base<Context * *>
PUBLIC	??$_Checked_base@PAPAVContext@@@std@@YAPAPAVContext@@AAPAPAV1@@Z ; std::_Checked_base<Context * *>
PUBLIC	??$_Fill_n@PAPAVContext@@IPAV1@@std@@YAXPAPAVContext@@IABQAV1@U_Range_checked_iterator_tag@0@@Z ; std::_Fill_n<Context * *,unsigned int,Context *>
PUBLIC	??$_Fill_n@PAPAVContext@@IPAV1@@std@@YAXPAPAVContext@@IABQAV1@Urandom_access_iterator_tag@0@U_Range_checked_iterator_tag@0@@Z ; std::_Fill_n<Context * *,unsigned int,Context *>
PUBLIC	??$unchecked_fill_n@PAPAVContext@@IPAV1@@stdext@@YAXPAPAVContext@@IABQAV1@@Z ; stdext::unchecked_fill_n<Context * *,unsigned int,Context *>
PUBLIC	??$_Uninit_fill_n@PAPAVContext@@IPAV1@V?$allocator@PAVContext@@@std@@@std@@YAXPAPAVContext@@IABQAV1@AAV?$allocator@PAVContext@@@0@U_Scalar_ptr_iterator_tag@0@U_Range_checked_iterator_tag@0@@Z ; std::_Uninit_fill_n<Context * *,unsigned int,Context *,std::allocator<Context *> >
PUBLIC	??$unchecked_uninitialized_fill_n@PAPAVContext@@IPAV1@V?$allocator@PAVContext@@@std@@@stdext@@YAXPAPAVContext@@IABQAV1@AAV?$allocator@PAVContext@@@std@@@Z ; stdext::unchecked_uninitialized_fill_n<Context * *,unsigned int,Context *,std::allocator<Context *> >
PUBLIC	?_Ufill@?$vector@PAVContext@@V?$allocator@PAVContext@@@std@@@std@@IAEPAPAVContext@@PAPAV3@IABQAV3@@Z ; std::vector<Context *,std::allocator<Context *> >::_Ufill
PUBLIC	?push_back@?$vector@PAVContext@@V?$allocator@PAVContext@@@std@@@std@@QAEXABQAVContext@@@Z ; std::vector<Context *,std::allocator<Context *> >::push_back
PUBLIC	??_C@_0BG@CKLLNPFD@PasswordRecipientInfo?$AA@	; `string'
PUBLIC	??_7RecipientInfos@@6B@				; RecipientInfos::`vftable'
;	COMDAT ??_7RecipientInfos@@6B@
CONST	SEGMENT
??_7RecipientInfos@@6B@ DD FLAT:??_R4RecipientInfos@@6B@ ; RecipientInfos::`vftable'
	DD	FLAT:?encodeBER@Set@@UAEXXZ
	DD	FLAT:?Get_BERcode@ASN1@@UAEPBDXZ
	DD	FLAT:?Get_BERsize@ASN1@@UAEIXZ
CONST	ENDS
;	COMDAT ??_R4RecipientInfos@@6B@
rdata$r	SEGMENT
??_R4RecipientInfos@@6B@ DD 00H				; RecipientInfos::`RTTI Complete Object Locator'
	DD	00H
	DD	00H
	DD	FLAT:??_R0?AVRecipientInfos@@@8
	DD	FLAT:??_R3RecipientInfos@@8
rdata$r	ENDS
;	COMDAT ??_R3RecipientInfos@@8
rdata$r	SEGMENT
??_R3RecipientInfos@@8 DD 00H				; RecipientInfos::`RTTI Class Hierarchy Descriptor'
	DD	00H
	DD	03H
	DD	FLAT:??_R2RecipientInfos@@8
rdata$r	ENDS
;	COMDAT ??_R2RecipientInfos@@8
rdata$r	SEGMENT
??_R2RecipientInfos@@8 DD FLAT:??_R1A@?0A@EA@RecipientInfos@@8 ; RecipientInfos::`RTTI Base Class Array'
	DD	FLAT:??_R1A@?0A@EA@Set@@8
	DD	FLAT:??_R1A@?0A@EA@ASN1@@8
rdata$r	ENDS
;	COMDAT ??_R1A@?0A@EA@RecipientInfos@@8
rdata$r	SEGMENT
??_R1A@?0A@EA@RecipientInfos@@8 DD FLAT:??_R0?AVRecipientInfos@@@8 ; RecipientInfos::`RTTI Base Class Descriptor at (0,-1,0,64)'
	DD	02H
	DD	00H
	DD	0ffffffffH
	DD	00H
	DD	040H
	DD	FLAT:??_R3RecipientInfos@@8
rdata$r	ENDS
;	COMDAT ??_R0?AVRecipientInfos@@@8
_DATA	SEGMENT
??_R0?AVRecipientInfos@@@8 DD FLAT:??_7type_info@@6B@	; RecipientInfos `RTTI Type Descriptor'
	DD	00H
	DB	'.?AVRecipientInfos@@', 00H
_DATA	ENDS
;	COMDAT ??_C@_0BG@CKLLNPFD@PasswordRecipientInfo?$AA@
CONST	SEGMENT
??_C@_0BG@CKLLNPFD@PasswordRecipientInfo?$AA@ DB 'PasswordRecipientInfo', 00H ; `string'
; Function compile flags: /Ogtpy
; File c:\program files\microsoft visual studio 9.0\vc\include\memory
;	COMDAT ??$_Uninit_copy@PAPAVContext@@PAPAV1@V?$allocator@PAVContext@@@std@@@std@@YAPAPAVContext@@PAPAV1@00AAV?$allocator@PAVContext@@@0@U_Scalar_ptr_iterator_tag@0@U_Range_checked_iterator_tag@0@@Z
_TEXT	SEGMENT
__Dest$ = 8						; size = 4
__Result$ = 12						; size = 4
??$_Uninit_copy@PAPAVContext@@PAPAV1@V?$allocator@PAVContext@@@std@@@std@@YAPAPAVContext@@PAPAV1@00AAV?$allocator@PAVContext@@@0@U_Scalar_ptr_iterator_tag@0@U_Range_checked_iterator_tag@0@@Z PROC ; std::_Uninit_copy<Context * *,Context * *,std::allocator<Context *> >, COMDAT
; __First$ = ecx
; __Count$ = eax

; 144  : 	_DEBUG_RANGE(_First, _Last);
; 145  : 	_DEBUG_POINTER(_Dest);
; 146  : 	size_t _Count = (size_t)(_Last - _First);
; 147  : 	_FwdIt _Result = _Dest + _Count;
; 148  : 	if (_Count > 0)
; 149  : 		_CRT_SECURE_MEMMOVE(&*_Dest, _Count * sizeof (*_First), &*_First, _Count * sizeof (*_First));	// NB: non-overlapping move

  00000	8b 54 24 04	 mov	 edx, DWORD PTR __Dest$[esp-4]
  00004	03 c0		 add	 eax, eax
  00006	03 c0		 add	 eax, eax
  00008	50		 push	 eax
  00009	51		 push	 ecx
  0000a	50		 push	 eax
  0000b	52		 push	 edx
  0000c	e8 00 00 00 00	 call	 _memmove_s

; 150  : 	return _Result;

  00011	8b 44 24 18	 mov	 eax, DWORD PTR __Result$[esp+12]
  00015	83 c4 10	 add	 esp, 16			; 00000010H

; 151  : 	}

  00018	c3		 ret	 0
??$_Uninit_copy@PAPAVContext@@PAPAV1@V?$allocator@PAVContext@@@std@@@std@@YAPAPAVContext@@PAPAV1@00AAV?$allocator@PAVContext@@@0@U_Scalar_ptr_iterator_tag@0@U_Range_checked_iterator_tag@0@@Z ENDP ; std::_Uninit_copy<Context * *,Context * *,std::allocator<Context *> >
; Function compile flags: /Ogtpy
; File c:\program files\microsoft visual studio 9.0\vc\include\xutility
_TEXT	ENDS
;	COMDAT ??$_Fill_n@PAPAVContext@@IPAV1@@std@@YAXPAPAVContext@@IABQAV1@U_Range_checked_iterator_tag@0@@Z
_TEXT	SEGMENT
__First$ = 8						; size = 4
___formal$ = 12						; size = 1
??$_Fill_n@PAPAVContext@@IPAV1@@std@@YAXPAPAVContext@@IABQAV1@U_Range_checked_iterator_tag@0@@Z PROC ; std::_Fill_n<Context * *,unsigned int,Context *>, COMDAT
; __Count$ = eax
; __Val$ = edx

; 3170 : 	{	// copy _Val _Count times through [_First, ...)

  00000	8b 4c 24 04	 mov	 ecx, DWORD PTR __First$[esp-4]

; 3171 : 	for (; 0 < _Count; --_Count, ++_First)

  00004	85 c0		 test	 eax, eax
  00006	76 15		 jbe	 SHORT $LN1@Fill_n
  00008	56		 push	 esi
  00009	8d a4 24 00 00
	00 00		 npad	 7
$LL3@Fill_n:

; 3172 : 		*_First = _Val;

  00010	8b 32		 mov	 esi, DWORD PTR [edx]
  00012	89 31		 mov	 DWORD PTR [ecx], esi
  00014	48		 dec	 eax
  00015	83 c1 04	 add	 ecx, 4
  00018	85 c0		 test	 eax, eax
  0001a	77 f4		 ja	 SHORT $LL3@Fill_n
  0001c	5e		 pop	 esi
$LN1@Fill_n:

; 3173 : 	}

  0001d	c3		 ret	 0
??$_Fill_n@PAPAVContext@@IPAV1@@std@@YAXPAPAVContext@@IABQAV1@U_Range_checked_iterator_tag@0@@Z ENDP ; std::_Fill_n<Context * *,unsigned int,Context *>
; Function compile flags: /Ogtpy
_TEXT	ENDS
;	COMDAT ??$_Iter_cat@PAPAVContext@@@std@@YA?AUrandom_access_iterator_tag@0@ABQAPAVContext@@@Z
_TEXT	SEGMENT
??$_Iter_cat@PAPAVContext@@@std@@YA?AUrandom_access_iterator_tag@0@ABQAPAVContext@@@Z PROC ; std::_Iter_cat<Context * *>, COMDAT
; ___$ReturnUdt$ = eax

; 953  : 	typename iterator_traits<_Iter>::iterator_category _Cat;
; 954  : 	return (_Cat);
; 955  : 	}

  00000	c3		 ret	 0
??$_Iter_cat@PAPAVContext@@@std@@YA?AUrandom_access_iterator_tag@0@ABQAPAVContext@@@Z ENDP ; std::_Iter_cat<Context * *>
; Function compile flags: /Ogtpy
_TEXT	ENDS
;	COMDAT ??$_Copy_backward_opt@PAPAVContext@@PAPAV1@Urandom_access_iterator_tag@std@@@std@@YAPAPAVContext@@PAPAV1@00Urandom_access_iterator_tag@0@U_Scalar_ptr_iterator_tag@0@U_Range_checked_iterator_tag@0@@Z
_TEXT	SEGMENT
??$_Copy_backward_opt@PAPAVContext@@PAPAV1@Urandom_access_iterator_tag@std@@@std@@YAPAPAVContext@@PAPAV1@00Urandom_access_iterator_tag@0@U_Scalar_ptr_iterator_tag@0@U_Range_checked_iterator_tag@0@@Z PROC ; std::_Copy_backward_opt<Context * *,Context * *,std::random_access_iterator_tag>, COMDAT
; __First$ = ecx
; __Off$ = eax
; __Result$ = esi

; 2673 : 
; 2674 :  #if _HAS_ITERATOR_DEBUGGING
; 2675 : 	_DEBUG_RANGE(_First, _Last);
; 2676 : 	if (_First != _Last)
; 2677 : 		_DEBUG_POINTER(_Dest);
; 2678 :  #endif /* _HAS_ITERATOR_DEBUGGING */
; 2679 : 
; 2680 : 	ptrdiff_t _Off = _Last - _First;	// NB: non-overlapping move
; 2681 : 	/* if _OutIt is range checked, this will make sure there is enough space for 
; 2682 : 	 * the memmove
; 2683 : 	 */
; 2684 : 	_OutIt _Result = _Dest - _Off;
; 2685 : 	if (_Off > 0)
; 2686 : 		_CRT_SECURE_MEMMOVE(&*_Result, _Off * sizeof (*_First), &*_First, _Off * sizeof (*_First));

  00000	03 c0		 add	 eax, eax
  00002	03 c0		 add	 eax, eax
  00004	50		 push	 eax
  00005	51		 push	 ecx
  00006	50		 push	 eax
  00007	56		 push	 esi
  00008	e8 00 00 00 00	 call	 _memmove_s
  0000d	83 c4 10	 add	 esp, 16			; 00000010H

; 2687 : 	return _Result;

  00010	8b c6		 mov	 eax, esi

; 2688 : 	}

  00012	c3		 ret	 0
??$_Copy_backward_opt@PAPAVContext@@PAPAV1@Urandom_access_iterator_tag@std@@@std@@YAPAPAVContext@@PAPAV1@00Urandom_access_iterator_tag@0@U_Scalar_ptr_iterator_tag@0@U_Range_checked_iterator_tag@0@@Z ENDP ; std::_Copy_backward_opt<Context * *,Context * *,std::random_access_iterator_tag>
; Function compile flags: /Ogtpy
_TEXT	ENDS
;	COMDAT ??$_Checked_base@PAPAVContext@@@std@@YAPAPAVContext@@AAPAPAV1@U_Unchanged_checked_iterator_base_type_tag@0@@Z
_TEXT	SEGMENT
___formal$ = 8						; size = 1
??$_Checked_base@PAPAVContext@@@std@@YAPAPAVContext@@AAPAPAV1@U_Unchanged_checked_iterator_base_type_tag@0@@Z PROC ; std::_Checked_base<Context * *>, COMDAT
; __It$ = eax

; 1147 : 		return _It;

  00000	8b 00		 mov	 eax, DWORD PTR [eax]

; 1148 : 	}

  00002	c3		 ret	 0
??$_Checked_base@PAPAVContext@@@std@@YAPAPAVContext@@AAPAPAV1@U_Unchanged_checked_iterator_base_type_tag@0@@Z ENDP ; std::_Checked_base<Context * *>
; Function compile flags: /Ogtpy
_TEXT	ENDS
;	COMDAT ??$_Move_cat@PAPAVContext@@@std@@YA?AU_Undefined_move_tag@0@ABQAPAVContext@@@Z
_TEXT	SEGMENT
__Cat$ = -1						; size = 1
??$_Move_cat@PAPAVContext@@@std@@YA?AU_Undefined_move_tag@0@ABQAPAVContext@@@Z PROC ; std::_Move_cat<Context * *>, COMDAT

; 1200 : 	{

  00000	51		 push	 ecx

; 1201 : 		typename _Move_operation_category<typename iterator_traits<_Iter>::value_type>::_Move_cat _Cat;
; 1202 : 		return (_Cat);

  00001	8a 44 24 03	 mov	 al, BYTE PTR __Cat$[esp+4]

; 1203 : 	}

  00005	59		 pop	 ecx
  00006	c3		 ret	 0
??$_Move_cat@PAPAVContext@@@std@@YA?AU_Undefined_move_tag@0@ABQAPAVContext@@@Z ENDP ; std::_Move_cat<Context * *>
; Function compile flags: /Ogtpy
_TEXT	ENDS
;	COMDAT ??$_Iter_random@PAPAVContext@@PAPAV1@@std@@YA?AUrandom_access_iterator_tag@0@ABQAPAVContext@@0@Z
_TEXT	SEGMENT
??$_Iter_random@PAPAVContext@@PAPAV1@@std@@YA?AUrandom_access_iterator_tag@0@ABQAPAVContext@@0@Z PROC ; std::_Iter_random<Context * *,Context * *>, COMDAT
; ___$ReturnUdt$ = eax

; 994  : 	typename _Iter_random_helper<
; 995  : 		iterator_traits<_Iter1>::iterator_category, 
; 996  : 		iterator_traits<_Iter2>::iterator_category>::_Iter_random_cat _Cat;
; 997  : 	return (_Cat);
; 998  : 	}

  00000	c3		 ret	 0
??$_Iter_random@PAPAVContext@@PAPAV1@@std@@YA?AUrandom_access_iterator_tag@0@ABQAPAVContext@@0@Z ENDP ; std::_Iter_random<Context * *,Context * *>
; Function compile flags: /Ogtpy
_TEXT	ENDS
;	COMDAT ??$_Fill@PAPAVContext@@PAV1@@std@@YAXPAPAVContext@@0ABQAV1@@Z
_TEXT	SEGMENT
__Val$ = 8						; size = 4
??$_Fill@PAPAVContext@@PAV1@@std@@YAXPAPAVContext@@0ABQAV1@@Z PROC ; std::_Fill<Context * *,Context *>, COMDAT
; __First$ = eax
; __Last$ = edx

; 3131 : 	_DEBUG_RANGE(_First, _Last);
; 3132 : 	for (; _First != _Last; ++_First)

  00000	3b c2		 cmp	 eax, edx
  00002	74 15		 je	 SHORT $LN1@Fill
  00004	8b 4c 24 04	 mov	 ecx, DWORD PTR __Val$[esp-4]
  00008	8b 09		 mov	 ecx, DWORD PTR [ecx]
  0000a	8d 9b 00 00 00
	00		 npad	 6
$LL3@Fill:

; 3133 : 		*_First = _Val;

  00010	89 08		 mov	 DWORD PTR [eax], ecx
  00012	83 c0 04	 add	 eax, 4
  00015	3b c2		 cmp	 eax, edx
  00017	75 f7		 jne	 SHORT $LL3@Fill
$LN1@Fill:

; 3134 : 	}

  00019	c3		 ret	 0
??$_Fill@PAPAVContext@@PAV1@@std@@YAXPAPAVContext@@0ABQAV1@@Z ENDP ; std::_Fill<Context * *,Context *>
; Function compile flags: /Ogtpy
_TEXT	ENDS
;	COMDAT ??$_Checked_base@PAPAVContext@@@std@@YAPAPAVContext@@AAPAPAV1@@Z
_TEXT	SEGMENT
??$_Checked_base@PAPAVContext@@@std@@YAPAPAVContext@@AAPAPAV1@@Z PROC ; std::_Checked_base<Context * *>, COMDAT
; __It$ = eax

; 1164 : 		typename _Checked_iterator_base_helper<_Iter>::_Checked_iterator_base_type_tag _Base_tag;
; 1165 : 		return _Checked_base(_It, _Base_tag);

  00000	8b 00		 mov	 eax, DWORD PTR [eax]

; 1166 : 	}

  00002	c3		 ret	 0
??$_Checked_base@PAPAVContext@@@std@@YAPAPAVContext@@AAPAPAV1@@Z ENDP ; std::_Checked_base<Context * *>
; Function compile flags: /Ogtpy
; File c:\program files\microsoft visual studio 9.0\vc\include\xmemory
_TEXT	ENDS
;	COMDAT ??$_Destroy_range@V?$allocator@PAVContext@@@std@@@std@@YAXPAPAVContext@@0AAV?$allocator@PAVContext@@@0@U_Scalar_ptr_iterator_tag@0@@Z
_TEXT	SEGMENT
___formal$ = 8						; size = 1
??$_Destroy_range@V?$allocator@PAVContext@@@std@@@std@@YAXPAPAVContext@@0AAV?$allocator@PAVContext@@@0@U_Scalar_ptr_iterator_tag@0@@Z PROC ; std::_Destroy_range<std::allocator<Context *> >, COMDAT

; 242  : 	}

  00000	c3		 ret	 0
??$_Destroy_range@V?$allocator@PAVContext@@@std@@@std@@YAXPAPAVContext@@0AAV?$allocator@PAVContext@@@0@U_Scalar_ptr_iterator_tag@0@@Z ENDP ; std::_Destroy_range<std::allocator<Context *> >
; Function compile flags: /Ogtpy
; File c:\program files\microsoft visual studio 9.0\vc\include\xutility
_TEXT	ENDS
;	COMDAT ??$_Ptr_cat@PAPAVContext@@PAPAV1@@std@@YA?AU_Scalar_ptr_iterator_tag@0@AAPAPAVContext@@0@Z
_TEXT	SEGMENT
__Cat$ = -1						; size = 1
??$_Ptr_cat@PAPAVContext@@PAPAV1@@std@@YA?AU_Scalar_ptr_iterator_tag@0@AAPAPAVContext@@0@Z PROC ; std::_Ptr_cat<Context * *,Context * *>, COMDAT

; 1483 : 	{

  00000	51		 push	 ecx

; 1484 : 	typename _Ptr_cat_helper<_T1, _T2>::_Ptr_cat _Cat;
; 1485 : 	return (_Cat);

  00001	8a 44 24 03	 mov	 al, BYTE PTR __Cat$[esp+4]

; 1486 : 	}

  00005	59		 pop	 ecx
  00006	c3		 ret	 0
??$_Ptr_cat@PAPAVContext@@PAPAV1@@std@@YA?AU_Scalar_ptr_iterator_tag@0@AAPAPAVContext@@0@Z ENDP ; std::_Ptr_cat<Context * *,Context * *>
; Function compile flags: /Ogtpy
; File c:\program files\microsoft visual studio 9.0\vc\include\xmemory
_TEXT	ENDS
;	COMDAT ??$?0PAVContext@@@?$allocator@V_Aux_cont@std@@@std@@QAE@ABV?$allocator@PAVContext@@@1@@Z
_TEXT	SEGMENT
??$?0PAVContext@@@?$allocator@V_Aux_cont@std@@@std@@QAE@ABV?$allocator@PAVContext@@@1@@Z PROC ; std::allocator<std::_Aux_cont>::allocator<std::_Aux_cont><Context *>, COMDAT
; _this$ = eax

; 129  : 		{	// construct from a related allocator (do nothing)
; 130  : 		}

  00000	c3		 ret	 0
??$?0PAVContext@@@?$allocator@V_Aux_cont@std@@@std@@QAE@ABV?$allocator@PAVContext@@@1@@Z ENDP ; std::allocator<std::_Aux_cont>::allocator<std::_Aux_cont><Context *>
; Function compile flags: /Ogtpy
; File c:\program files\microsoft visual studio 9.0\vc\include\xutility
_TEXT	ENDS
;	COMDAT ??$fill@PAPAVContext@@PAV1@@std@@YAXPAPAVContext@@0ABQAV1@@Z
_TEXT	SEGMENT
__Val$ = 8						; size = 4
??$fill@PAPAVContext@@PAV1@@std@@YAXPAPAVContext@@0ABQAV1@@Z PROC ; std::fill<Context * *,Context *>, COMDAT
; __First$ = eax
; __Last$ = ecx

; 3161 : 	_Fill(_CHECKED_BASE(_First), _CHECKED_BASE(_Last), _Val);

  00000	3b c1		 cmp	 eax, ecx
  00002	74 15		 je	 SHORT $LN11@fill
  00004	8b 54 24 04	 mov	 edx, DWORD PTR __Val$[esp-4]
  00008	8b 12		 mov	 edx, DWORD PTR [edx]
  0000a	8d 9b 00 00 00
	00		 npad	 6
$LL13@fill:
  00010	89 10		 mov	 DWORD PTR [eax], edx
  00012	83 c0 04	 add	 eax, 4
  00015	3b c1		 cmp	 eax, ecx
  00017	75 f7		 jne	 SHORT $LL13@fill
$LN11@fill:

; 3162 : 	}

  00019	c3		 ret	 0
??$fill@PAPAVContext@@PAV1@@std@@YAXPAPAVContext@@0ABQAV1@@Z ENDP ; std::fill<Context * *,Context *>
; Function compile flags: /Ogtpy
; File c:\program files\microsoft visual studio 9.0\vc\include\xmemory
_TEXT	ENDS
;	COMDAT ??$_Destroy_range@V?$allocator@PAVContext@@@std@@@std@@YAXPAPAVContext@@0AAV?$allocator@PAVContext@@@0@@Z
_TEXT	SEGMENT
??$_Destroy_range@V?$allocator@PAVContext@@@std@@@std@@YAXPAPAVContext@@0AAV?$allocator@PAVContext@@@0@@Z PROC ; std::_Destroy_range<std::allocator<Context *> >, COMDAT

; 225  : 	_Destroy_range(_First, _Last, _Al, _Ptr_cat(_First, _Last));
; 226  : 	}

  00000	c3		 ret	 0
??$_Destroy_range@V?$allocator@PAVContext@@@std@@@std@@YAXPAPAVContext@@0AAV?$allocator@PAVContext@@@0@@Z ENDP ; std::_Destroy_range<std::allocator<Context *> >
; Function compile flags: /Ogtpy
_TEXT	ENDS
;	COMDAT ?max_size@?$allocator@PAVContext@@@std@@QBEIXZ
_TEXT	SEGMENT
?max_size@?$allocator@PAVContext@@@std@@QBEIXZ PROC	; std::allocator<Context *>::max_size, COMDAT

; 165  : 		_SIZT _Count = (_SIZT)(-1) / sizeof (_Ty);
; 166  : 		return (0 < _Count ? _Count : 1);

  00000	b8 ff ff ff 3f	 mov	 eax, 1073741823		; 3fffffffH

; 167  : 		}

  00005	c3		 ret	 0
?max_size@?$allocator@PAVContext@@@std@@QBEIXZ ENDP	; std::allocator<Context *>::max_size
; Function compile flags: /Ogtpy
_TEXT	ENDS
;	COMDAT ?deallocate@?$allocator@PAVContext@@@std@@QAEXPAPAVContext@@I@Z
_TEXT	SEGMENT
?deallocate@?$allocator@PAVContext@@@std@@QAEXPAPAVContext@@I@Z PROC ; std::allocator<Context *>::deallocate, COMDAT
; __Ptr$ = eax

; 140  : 		::operator delete(_Ptr);

  00000	50		 push	 eax
  00001	e8 00 00 00 00	 call	 ??3@YAXPAX@Z		; operator delete
  00006	59		 pop	 ecx

; 141  : 		}

  00007	c3		 ret	 0
?deallocate@?$allocator@PAVContext@@@std@@QAEXPAPAVContext@@I@Z ENDP ; std::allocator<Context *>::deallocate
; Function compile flags: /Ogtpy
_TEXT	ENDS
;	COMDAT ??0?$allocator@PAVContext@@@std@@QAE@ABV01@@Z
_TEXT	SEGMENT
??0?$allocator@PAVContext@@@std@@QAE@ABV01@@Z PROC	; std::allocator<Context *>::allocator<Context *>, COMDAT
; _this$ = eax

; 124  : 		{	// construct by copying (do nothing)
; 125  : 		}

  00000	c3		 ret	 0
??0?$allocator@PAVContext@@@std@@QAE@ABV01@@Z ENDP	; std::allocator<Context *>::allocator<Context *>
; Function compile flags: /Ogtpy
; File c:\program files\microsoft visual studio 9.0\vc\include\vector
_TEXT	ENDS
;	COMDAT ?max_size@?$vector@PAVContext@@V?$allocator@PAVContext@@@std@@@std@@QBEIXZ
_TEXT	SEGMENT
?max_size@?$vector@PAVContext@@V?$allocator@PAVContext@@@std@@@std@@QBEIXZ PROC ; std::vector<Context *,std::allocator<Context *> >::max_size, COMDAT

; 731  : 		return (this->_Alval.max_size());

  00000	b8 ff ff ff 3f	 mov	 eax, 1073741823		; 3fffffffH

; 732  : 		}

  00005	c3		 ret	 0
?max_size@?$vector@PAVContext@@V?$allocator@PAVContext@@@std@@@std@@QBEIXZ ENDP ; std::vector<Context *,std::allocator<Context *> >::max_size
; Function compile flags: /Ogtpy
; File c:\program files\microsoft visual studio 9.0\vc\include\xmemory
_TEXT	ENDS
;	COMDAT ??0?$allocator@PAVContext@@@std@@QAE@XZ
_TEXT	SEGMENT
??0?$allocator@PAVContext@@@std@@QAE@XZ PROC		; std::allocator<Context *>::allocator<Context *>, COMDAT
; _this$ = eax

; 120  : 		{	// construct default allocator (do nothing)
; 121  : 		}

  00000	c3		 ret	 0
??0?$allocator@PAVContext@@@std@@QAE@XZ ENDP		; std::allocator<Context *>::allocator<Context *>
; Function compile flags: /Ogtpy
; File c:\program files\microsoft visual studio 9.0\vc\include\vector
_TEXT	ENDS
;	COMDAT ?_Destroy@?$vector@PAVContext@@V?$allocator@PAVContext@@@std@@@std@@IAEXPAPAVContext@@0@Z
_TEXT	SEGMENT
?_Destroy@?$vector@PAVContext@@V?$allocator@PAVContext@@@std@@@std@@IAEXPAPAVContext@@0@Z PROC ; std::vector<Context *,std::allocator<Context *> >::_Destroy, COMDAT

; 1124 : 		_Destroy_range(_First, _Last, this->_Alval);
; 1125 : 		}

  00000	c3		 ret	 0
?_Destroy@?$vector@PAVContext@@V?$allocator@PAVContext@@@std@@@std@@IAEXPAPAVContext@@0@Z ENDP ; std::vector<Context *,std::allocator<Context *> >::_Destroy
; Function compile flags: /Ogtpy
_TEXT	ENDS
;	COMDAT ?size@?$vector@PAVContext@@V?$allocator@PAVContext@@@std@@@std@@QBEIXZ
_TEXT	SEGMENT
?size@?$vector@PAVContext@@V?$allocator@PAVContext@@@std@@@std@@QBEIXZ PROC ; std::vector<Context *,std::allocator<Context *> >::size, COMDAT
; _this$ = ecx

; 726  : 		return (_Mylast - _Myfirst);

  00000	8b 41 10	 mov	 eax, DWORD PTR [ecx+16]
  00003	2b 41 0c	 sub	 eax, DWORD PTR [ecx+12]
  00006	c1 f8 02	 sar	 eax, 2

; 727  : 		}

  00009	c3		 ret	 0
?size@?$vector@PAVContext@@V?$allocator@PAVContext@@@std@@@std@@QBEIXZ ENDP ; std::vector<Context *,std::allocator<Context *> >::size
; Function compile flags: /Ogtpy
_TEXT	ENDS
;	COMDAT ?capacity@?$vector@PAVContext@@V?$allocator@PAVContext@@@std@@@std@@QBEIXZ
_TEXT	SEGMENT
?capacity@?$vector@PAVContext@@V?$allocator@PAVContext@@@std@@@std@@QBEIXZ PROC ; std::vector<Context *,std::allocator<Context *> >::capacity, COMDAT
; _this$ = eax

; 635  : 		return (_Myfirst == 0 ? 0 : _Myend - _Myfirst);

  00000	8b 48 0c	 mov	 ecx, DWORD PTR [eax+12]
  00003	85 c9		 test	 ecx, ecx
  00005	75 03		 jne	 SHORT $LN3@capacity
  00007	33 c0		 xor	 eax, eax

; 636  : 		}

  00009	c3		 ret	 0
$LN3@capacity:

; 635  : 		return (_Myfirst == 0 ? 0 : _Myend - _Myfirst);

  0000a	8b 40 14	 mov	 eax, DWORD PTR [eax+20]
  0000d	2b c1		 sub	 eax, ecx
  0000f	c1 f8 02	 sar	 eax, 2

; 636  : 		}

  00012	c3		 ret	 0
?capacity@?$vector@PAVContext@@V?$allocator@PAVContext@@@std@@@std@@QBEIXZ ENDP ; std::vector<Context *,std::allocator<Context *> >::capacity
; Function compile flags: /Ogtpy
_TEXT	ENDS
;	COMDAT ?empty@?$vector@PAVContext@@V?$allocator@PAVContext@@@std@@@std@@QBE_NXZ
_TEXT	SEGMENT
?empty@?$vector@PAVContext@@V?$allocator@PAVContext@@@std@@@std@@QBE_NXZ PROC ; std::vector<Context *,std::allocator<Context *> >::empty, COMDAT
; _this$ = ecx

; 736  : 		return (size() == 0);

  00000	8b 41 10	 mov	 eax, DWORD PTR [ecx+16]
  00003	2b 41 0c	 sub	 eax, DWORD PTR [ecx+12]
  00006	83 e0 fc	 and	 eax, -4			; fffffffcH
  00009	f7 d8		 neg	 eax
  0000b	1b c0		 sbb	 eax, eax
  0000d	40		 inc	 eax

; 737  : 		}

  0000e	c3		 ret	 0
?empty@?$vector@PAVContext@@V?$allocator@PAVContext@@@std@@@std@@QBE_NXZ ENDP ; std::vector<Context *,std::allocator<Context *> >::empty
; Function compile flags: /Ogtpy
; File c:\program files\microsoft visual studio 9.0\vc\include\memory
;	COMDAT ??$unchecked_uninitialized_copy@PAPAVContext@@PAPAV1@V?$allocator@PAVContext@@@std@@@stdext@@YAPAPAVContext@@PAPAV1@00AAV?$allocator@PAVContext@@@std@@@Z
_TEXT	SEGMENT
??$unchecked_uninitialized_copy@PAPAVContext@@PAPAV1@V?$allocator@PAVContext@@@std@@@stdext@@YAPAPAVContext@@PAPAV1@00AAV?$allocator@PAVContext@@@std@@@Z PROC ; stdext::unchecked_uninitialized_copy<Context * *,Context * *,std::allocator<Context *> >, COMDAT
; __First$ = edi
; __Last$ = eax
; __Dest$ = edx

; 810  : 		return (_STD _Uninit_copy(_CHECKED_BASE(_First), _CHECKED_BASE(_Last), _Dest, _Al,
; 811  : 			_STD _Ptr_cat(_First, _Dest), _STD _Range_checked_iterator_tag()));

  00000	2b c7		 sub	 eax, edi
  00002	c1 f8 02	 sar	 eax, 2
  00005	8d 0c 85 00 00
	00 00		 lea	 ecx, DWORD PTR [eax*4]
  0000c	56		 push	 esi
  0000d	8d 34 11	 lea	 esi, DWORD PTR [ecx+edx]
  00010	85 c0		 test	 eax, eax
  00012	76 0c		 jbe	 SHORT $LN16@unchecked_@3
  00014	51		 push	 ecx
  00015	57		 push	 edi
  00016	51		 push	 ecx
  00017	52		 push	 edx
  00018	e8 00 00 00 00	 call	 _memmove_s
  0001d	83 c4 10	 add	 esp, 16			; 00000010H
$LN16@unchecked_@3:
  00020	8b c6		 mov	 eax, esi
  00022	5e		 pop	 esi

; 812  : 	}

  00023	c3		 ret	 0
??$unchecked_uninitialized_copy@PAPAVContext@@PAPAV1@V?$allocator@PAVContext@@@std@@@stdext@@YAPAPAVContext@@PAPAV1@00AAV?$allocator@PAVContext@@@std@@@Z ENDP ; stdext::unchecked_uninitialized_copy<Context * *,Context * *,std::allocator<Context *> >
; Function compile flags: /Ogtpy
; File c:\program files\microsoft visual studio 9.0\vc\include\xutility
_TEXT	ENDS
;	COMDAT ??$_Fill_n@PAPAVContext@@IPAV1@@std@@YAXPAPAVContext@@IABQAV1@Urandom_access_iterator_tag@0@U_Range_checked_iterator_tag@0@@Z
_TEXT	SEGMENT
__First$ = 8						; size = 4
___formal$ = 12						; size = 1
___formal$ = 16						; size = 1
??$_Fill_n@PAPAVContext@@IPAV1@@std@@YAXPAPAVContext@@IABQAV1@Urandom_access_iterator_tag@0@U_Range_checked_iterator_tag@0@@Z PROC ; std::_Fill_n<Context * *,unsigned int,Context *>, COMDAT
; __Count$ = eax
; __Val$ = edx

; 3225 : 		// if _OutIt is checked, this will ensure we have enough space
; 3226 : 		_OutIt _Last = _First + _Count; (_Last);
; 3227 : 		_Fill_n(_CHECKED_BASE(_First), _Count, _Val,
; 3228 : 			_Range_checked_iterator_tag());

  00000	8b 4c 24 04	 mov	 ecx, DWORD PTR __First$[esp-4]
  00004	85 c0		 test	 eax, eax
  00006	76 15		 jbe	 SHORT $LN7@Fill_n@5
  00008	56		 push	 esi
  00009	8d a4 24 00 00
	00 00		 npad	 7
$LL9@Fill_n@5:
  00010	8b 32		 mov	 esi, DWORD PTR [edx]
  00012	89 31		 mov	 DWORD PTR [ecx], esi
  00014	48		 dec	 eax
  00015	83 c1 04	 add	 ecx, 4
  00018	85 c0		 test	 eax, eax
  0001a	77 f4		 ja	 SHORT $LL9@Fill_n@5
  0001c	5e		 pop	 esi
$LN7@Fill_n@5:

; 3229 : 	}

  0001d	c3		 ret	 0
??$_Fill_n@PAPAVContext@@IPAV1@@std@@YAXPAPAVContext@@IABQAV1@Urandom_access_iterator_tag@0@U_Range_checked_iterator_tag@0@@Z ENDP ; std::_Fill_n<Context * *,unsigned int,Context *>
; Function compile flags: /Ogtpy
; File c:\program files\microsoft visual studio 9.0\vc\include\memory
_TEXT	ENDS
;	COMDAT ??$_Uninit_move@PAPAVContext@@PAPAV1@V?$allocator@PAVContext@@@std@@U_Undefined_move_tag@3@@std@@YAPAPAVContext@@PAPAV1@00AAV?$allocator@PAVContext@@@0@U_Undefined_move_tag@0@U_Range_checked_iterator_tag@0@@Z
_TEXT	SEGMENT
___formal$ = 8						; size = 1
___formal$ = 12						; size = 1
??$_Uninit_move@PAPAVContext@@PAPAV1@V?$allocator@PAVContext@@@std@@U_Undefined_move_tag@3@@std@@YAPAPAVContext@@PAPAV1@00AAV?$allocator@PAVContext@@@0@U_Undefined_move_tag@0@U_Range_checked_iterator_tag@0@@Z PROC ; std::_Uninit_move<Context * *,Context * *,std::allocator<Context *>,std::_Undefined_move_tag>, COMDAT
; __First$ = edi
; __Last$ = eax
; __Dest$ = edx

; 205  : 	return _STDEXT unchecked_uninitialized_copy(_First, _Last, _Dest, _Al);

  00000	2b c7		 sub	 eax, edi
  00002	c1 f8 02	 sar	 eax, 2
  00005	8d 0c 85 00 00
	00 00		 lea	 ecx, DWORD PTR [eax*4]
  0000c	56		 push	 esi
  0000d	8d 34 11	 lea	 esi, DWORD PTR [ecx+edx]
  00010	85 c0		 test	 eax, eax
  00012	76 0c		 jbe	 SHORT $LN18@Uninit_mov
  00014	51		 push	 ecx
  00015	57		 push	 edi
  00016	51		 push	 ecx
  00017	52		 push	 edx
  00018	e8 00 00 00 00	 call	 _memmove_s
  0001d	83 c4 10	 add	 esp, 16			; 00000010H
$LN18@Uninit_mov:
  00020	8b c6		 mov	 eax, esi
  00022	5e		 pop	 esi

; 206  : 	}

  00023	c3		 ret	 0
??$_Uninit_move@PAPAVContext@@PAPAV1@V?$allocator@PAVContext@@@std@@U_Undefined_move_tag@3@@std@@YAPAPAVContext@@PAPAV1@00AAV?$allocator@PAVContext@@@0@U_Undefined_move_tag@0@U_Range_checked_iterator_tag@0@@Z ENDP ; std::_Uninit_move<Context * *,Context * *,std::allocator<Context *>,std::_Undefined_move_tag>
; Function compile flags: /Ogtpy
; File c:\program files\microsoft visual studio 9.0\vc\include\xutility
_TEXT	ENDS
;	COMDAT ??$unchecked_fill_n@PAPAVContext@@IPAV1@@stdext@@YAXPAPAVContext@@IABQAV1@@Z
_TEXT	SEGMENT
__First$ = 8						; size = 4
??$unchecked_fill_n@PAPAVContext@@IPAV1@@stdext@@YAXPAPAVContext@@IABQAV1@@Z PROC ; stdext::unchecked_fill_n<Context * *,unsigned int,Context *>, COMDAT
; __Count$ = eax
; __Val$ = edx

; 3695 : 		_STD _Fill_n(_First, _Count, _Val, _STD _Iter_cat(_First), _STD _Range_checked_iterator_tag());

  00000	8b 4c 24 04	 mov	 ecx, DWORD PTR __First$[esp-4]
  00004	85 c0		 test	 eax, eax
  00006	76 15		 jbe	 SHORT $LN11@unchecked_@4
  00008	56		 push	 esi
  00009	8d a4 24 00 00
	00 00		 npad	 7
$LL13@unchecked_@4:
  00010	8b 32		 mov	 esi, DWORD PTR [edx]
  00012	89 31		 mov	 DWORD PTR [ecx], esi
  00014	48		 dec	 eax
  00015	83 c1 04	 add	 ecx, 4
  00018	85 c0		 test	 eax, eax
  0001a	77 f4		 ja	 SHORT $LL13@unchecked_@4
  0001c	5e		 pop	 esi
$LN11@unchecked_@4:

; 3696 : 	}

  0001d	c3		 ret	 0
??$unchecked_fill_n@PAPAVContext@@IPAV1@@stdext@@YAXPAPAVContext@@IABQAV1@@Z ENDP ; stdext::unchecked_fill_n<Context * *,unsigned int,Context *>
; Function compile flags: /Ogtpy
_TEXT	ENDS
;	COMDAT ??$_Move_backward_opt@PAPAVContext@@PAPAV1@Urandom_access_iterator_tag@std@@U_Undefined_move_tag@3@@std@@YAPAPAVContext@@PAPAV1@00Urandom_access_iterator_tag@0@U_Undefined_move_tag@0@U_Range_checked_iterator_tag@0@@Z
_TEXT	SEGMENT
__First_dest_cat$ = 8					; size = 1
___formal$ = 12						; size = 1
___formal$ = 16						; size = 1
??$_Move_backward_opt@PAPAVContext@@PAPAV1@Urandom_access_iterator_tag@std@@U_Undefined_move_tag@3@@std@@YAPAPAVContext@@PAPAV1@00Urandom_access_iterator_tag@0@U_Undefined_move_tag@0@U_Range_checked_iterator_tag@0@@Z PROC ; std::_Move_backward_opt<Context * *,Context * *,std::random_access_iterator_tag,std::_Undefined_move_tag>, COMDAT
; __First$ = edi
; __Last$ = eax
; __Dest$ = ecx

; 2727 : 	return _Copy_backward_opt(_First, _Last, _Dest,
; 2728 : 		_First_dest_cat, _Ptr_cat(_First, _Dest), _Range_checked_iterator_tag());

  00000	2b c7		 sub	 eax, edi
  00002	c1 f8 02	 sar	 eax, 2
  00005	8d 14 85 00 00
	00 00		 lea	 edx, DWORD PTR [eax*4]
  0000c	2b ca		 sub	 ecx, edx
  0000e	56		 push	 esi
  0000f	8b f1		 mov	 esi, ecx
  00011	85 c0		 test	 eax, eax
  00013	7e 0c		 jle	 SHORT $LN8@Move_backw
  00015	52		 push	 edx
  00016	57		 push	 edi
  00017	52		 push	 edx
  00018	56		 push	 esi
  00019	e8 00 00 00 00	 call	 _memmove_s
  0001e	83 c4 10	 add	 esp, 16			; 00000010H
$LN8@Move_backw:
  00021	8b c6		 mov	 eax, esi
  00023	5e		 pop	 esi

; 2729 : 	}

  00024	c3		 ret	 0
??$_Move_backward_opt@PAPAVContext@@PAPAV1@Urandom_access_iterator_tag@std@@U_Undefined_move_tag@3@@std@@YAPAPAVContext@@PAPAV1@00Urandom_access_iterator_tag@0@U_Undefined_move_tag@0@U_Range_checked_iterator_tag@0@@Z ENDP ; std::_Move_backward_opt<Context * *,Context * *,std::random_access_iterator_tag,std::_Undefined_move_tag>
; Function compile flags: /Ogtpy
; File c:\program files\microsoft visual studio 9.0\vc\include\memory
_TEXT	ENDS
;	COMDAT ??$_Unchecked_uninitialized_move@PAPAVContext@@PAPAV1@V?$allocator@PAVContext@@@std@@@stdext@@YAPAPAVContext@@PAPAV1@00AAV?$allocator@PAVContext@@@std@@@Z
_TEXT	SEGMENT
??$_Unchecked_uninitialized_move@PAPAVContext@@PAPAV1@V?$allocator@PAVContext@@@std@@@stdext@@YAPAPAVContext@@PAPAV1@00AAV?$allocator@PAVContext@@@std@@@Z PROC ; stdext::_Unchecked_uninitialized_move<Context * *,Context * *,std::allocator<Context *> >, COMDAT
; __First$ = edi
; __Last$ = eax
; __Dest$ = edx

; 850  : 		return (_STD _Uninit_move(_CHECKED_BASE(_First), _CHECKED_BASE(_Last), _Dest, _Al,
; 851  : 			_STD _Move_cat(_Dest), _STD _Range_checked_iterator_tag()));

  00000	2b c7		 sub	 eax, edi
  00002	c1 f8 02	 sar	 eax, 2
  00005	8d 0c 85 00 00
	00 00		 lea	 ecx, DWORD PTR [eax*4]
  0000c	56		 push	 esi
  0000d	8d 34 11	 lea	 esi, DWORD PTR [ecx+edx]
  00010	85 c0		 test	 eax, eax
  00012	76 0c		 jbe	 SHORT $LN30@Unchecked_
  00014	51		 push	 ecx
  00015	57		 push	 edi
  00016	51		 push	 ecx
  00017	52		 push	 edx
  00018	e8 00 00 00 00	 call	 _memmove_s
  0001d	83 c4 10	 add	 esp, 16			; 00000010H
$LN30@Unchecked_:
  00020	8b c6		 mov	 eax, esi
  00022	5e		 pop	 esi

; 852  : 	}

  00023	c3		 ret	 0
??$_Unchecked_uninitialized_move@PAPAVContext@@PAPAV1@V?$allocator@PAVContext@@@std@@@stdext@@YAPAPAVContext@@PAPAV1@00AAV?$allocator@PAVContext@@@std@@@Z ENDP ; stdext::_Unchecked_uninitialized_move<Context * *,Context * *,std::allocator<Context *> >
; Function compile flags: /Ogtpy
_TEXT	ENDS
;	COMDAT ??$_Uninit_fill_n@PAPAVContext@@IPAV1@V?$allocator@PAVContext@@@std@@@std@@YAXPAPAVContext@@IABQAV1@AAV?$allocator@PAVContext@@@0@U_Scalar_ptr_iterator_tag@0@U_Range_checked_iterator_tag@0@@Z
_TEXT	SEGMENT
__First$ = 8						; size = 4
___formal$ = 12						; size = 1
___formal$ = 16						; size = 1
??$_Uninit_fill_n@PAPAVContext@@IPAV1@V?$allocator@PAVContext@@@std@@@std@@YAXPAPAVContext@@IABQAV1@AAV?$allocator@PAVContext@@@0@U_Scalar_ptr_iterator_tag@0@U_Range_checked_iterator_tag@0@@Z PROC ; std::_Uninit_fill_n<Context * *,unsigned int,Context *,std::allocator<Context *> >, COMDAT
; __Count$ = eax
; __Val$ = edx

; 415  : 		_STDEXT unchecked_fill_n(_First, _Count, _Val);

  00000	8b 4c 24 04	 mov	 ecx, DWORD PTR __First$[esp-4]
  00004	85 c0		 test	 eax, eax
  00006	76 15		 jbe	 SHORT $LN13@Uninit_fil
  00008	56		 push	 esi
  00009	8d a4 24 00 00
	00 00		 npad	 7
$LL15@Uninit_fil:
  00010	8b 32		 mov	 esi, DWORD PTR [edx]
  00012	89 31		 mov	 DWORD PTR [ecx], esi
  00014	48		 dec	 eax
  00015	83 c1 04	 add	 ecx, 4
  00018	85 c0		 test	 eax, eax
  0001a	77 f4		 ja	 SHORT $LL15@Uninit_fil
  0001c	5e		 pop	 esi
$LN13@Uninit_fil:

; 416  : 	}

  0001d	c3		 ret	 0
??$_Uninit_fill_n@PAPAVContext@@IPAV1@V?$allocator@PAVContext@@@std@@@std@@YAXPAPAVContext@@IABQAV1@AAV?$allocator@PAVContext@@@0@U_Scalar_ptr_iterator_tag@0@U_Range_checked_iterator_tag@0@@Z ENDP ; std::_Uninit_fill_n<Context * *,unsigned int,Context *,std::allocator<Context *> >
_TEXT	ENDS
EXTRN	__CxxThrowException@8:PROC
; Function compile flags: /Ogtpy
; File c:\program files\microsoft visual studio 9.0\vc\include\xmemory
;	COMDAT ??$_Allocate@PAVContext@@@std@@YAPAPAVContext@@IPAPAV1@@Z
_TEXT	SEGMENT
$T51579 = -16						; size = 4
$T51571 = -12						; size = 12
??$_Allocate@PAVContext@@@std@@YAPAPAVContext@@IPAPAV1@@Z PROC ; std::_Allocate<Context *>, COMDAT
; __Count$ = ecx

; 37   : 	if (_Count <= 0)
; 38   : 		_Count = 0;
; 39   : 	else if (((_SIZT)(-1) / _Count) < sizeof (_Ty))

  00000	83 c8 ff	 or	 eax, -1
  00003	33 d2		 xor	 edx, edx
  00005	f7 f1		 div	 ecx
  00007	83 ec 10	 sub	 esp, 16			; 00000010H
  0000a	83 f8 04	 cmp	 eax, 4
  0000d	73 2c		 jae	 SHORT $LN1@Allocate

; 40   : 		_THROW_NCEE(std::bad_alloc, NULL);

  0000f	8d 04 24	 lea	 eax, DWORD PTR $T51579[esp+16]
  00012	50		 push	 eax
  00013	8d 4c 24 08	 lea	 ecx, DWORD PTR $T51571[esp+20]
  00017	c7 44 24 04 00
	00 00 00	 mov	 DWORD PTR $T51579[esp+20], 0
  0001f	e8 00 00 00 00	 call	 ??0exception@std@@QAE@ABQBD@Z ; std::exception::exception
  00024	68 00 00 00 00	 push	 OFFSET __TI2?AVbad_alloc@std@@
  00029	8d 4c 24 08	 lea	 ecx, DWORD PTR $T51571[esp+20]
  0002d	51		 push	 ecx
  0002e	c7 44 24 0c 00
	00 00 00	 mov	 DWORD PTR $T51571[esp+24], OFFSET ??_7bad_alloc@std@@6B@
  00036	e8 00 00 00 00	 call	 __CxxThrowException@8
$LN13@Allocate:
$LN1@Allocate:

; 41   : 
; 42   : 		// allocate storage for _Count elements of type _Ty
; 43   : 	return ((_Ty _FARQ *)::operator new(_Count * sizeof (_Ty)));

  0003b	8d 14 8d 00 00
	00 00		 lea	 edx, DWORD PTR [ecx*4]
  00042	52		 push	 edx
  00043	e8 00 00 00 00	 call	 ??2@YAPAXI@Z		; operator new
  00048	83 c4 04	 add	 esp, 4

; 44   : 	}

  0004b	83 c4 10	 add	 esp, 16			; 00000010H
  0004e	c3		 ret	 0
$LN12@Allocate:
??$_Allocate@PAVContext@@@std@@YAPAPAVContext@@IPAPAV1@@Z ENDP ; std::_Allocate<Context *>
; Function compile flags: /Ogtpy
; File c:\program files\microsoft visual studio 9.0\vc\include\xutility
_TEXT	ENDS
;	COMDAT ??$_Unchecked_move_backward@PAPAVContext@@PAPAV1@@stdext@@YAPAPAVContext@@PAPAV1@00@Z
_TEXT	SEGMENT
??$_Unchecked_move_backward@PAPAVContext@@PAPAV1@@stdext@@YAPAPAVContext@@PAPAV1@00@Z PROC ; stdext::_Unchecked_move_backward<Context * *,Context * *>, COMDAT
; __First$ = edi
; __Last$ = eax
; __Dest$ = ecx

; 3669 : 		return (_STD _Move_backward_opt(_CHECKED_BASE(_First), _CHECKED_BASE(_Last), _Dest,
; 3670 : 			_STD _Iter_random(_First, _Dest), _STD _Move_cat(_Dest), _STD _Range_checked_iterator_tag()));

  00000	2b c7		 sub	 eax, edi
  00002	c1 f8 02	 sar	 eax, 2
  00005	8d 14 85 00 00
	00 00		 lea	 edx, DWORD PTR [eax*4]
  0000c	2b ca		 sub	 ecx, edx
  0000e	56		 push	 esi
  0000f	8b f1		 mov	 esi, ecx
  00011	85 c0		 test	 eax, eax
  00013	7e 0c		 jle	 SHORT $LN22@Unchecked_@2
  00015	52		 push	 edx
  00016	57		 push	 edi
  00017	52		 push	 edx
  00018	56		 push	 esi
  00019	e8 00 00 00 00	 call	 _memmove_s
  0001e	83 c4 10	 add	 esp, 16			; 00000010H
$LN22@Unchecked_@2:
  00021	8b c6		 mov	 eax, esi
  00023	5e		 pop	 esi

; 3671 : 	}

  00024	c3		 ret	 0
??$_Unchecked_move_backward@PAPAVContext@@PAPAV1@@stdext@@YAPAPAVContext@@PAPAV1@00@Z ENDP ; stdext::_Unchecked_move_backward<Context * *,Context * *>
; Function compile flags: /Ogtpy
; File c:\program files\microsoft visual studio 9.0\vc\include\vector
_TEXT	ENDS
;	COMDAT ??$_Umove@PAPAVContext@@@?$vector@PAVContext@@V?$allocator@PAVContext@@@std@@@std@@IAEPAPAVContext@@PAPAV2@00@Z
_TEXT	SEGMENT
??$_Umove@PAPAVContext@@@?$vector@PAVContext@@V?$allocator@PAVContext@@@std@@@std@@IAEPAPAVContext@@PAPAV2@00@Z PROC ; std::vector<Context *,std::allocator<Context *> >::_Umove<Context * *>, COMDAT
; __First$ = edi
; __Last$ = eax
; __Ptr$ = edx

; 1151 : 		{	// move initializing [_First, _Last), using allocator
; 1152 : 		return (_STDEXT _Unchecked_uninitialized_move(_First, _Last,
; 1153 : 			_Ptr, this->_Alval));

  00000	2b c7		 sub	 eax, edi
  00002	c1 f8 02	 sar	 eax, 2
  00005	8d 0c 85 00 00
	00 00		 lea	 ecx, DWORD PTR [eax*4]
  0000c	56		 push	 esi
  0000d	8d 34 11	 lea	 esi, DWORD PTR [ecx+edx]
  00010	85 c0		 test	 eax, eax
  00012	76 0c		 jbe	 SHORT $LN32@Umove
  00014	51		 push	 ecx
  00015	57		 push	 edi
  00016	51		 push	 ecx
  00017	52		 push	 edx
  00018	e8 00 00 00 00	 call	 _memmove_s
  0001d	83 c4 10	 add	 esp, 16			; 00000010H
$LN32@Umove:
  00020	8b c6		 mov	 eax, esi
  00022	5e		 pop	 esi

; 1154 : 		}

  00023	c3		 ret	 0
??$_Umove@PAPAVContext@@@?$vector@PAVContext@@V?$allocator@PAVContext@@@std@@@std@@IAEPAPAVContext@@PAPAV2@00@Z ENDP ; std::vector<Context *,std::allocator<Context *> >::_Umove<Context * *>
; Function compile flags: /Ogtpy
; File c:\program files\microsoft visual studio 9.0\vc\include\memory
_TEXT	ENDS
;	COMDAT ??$unchecked_uninitialized_fill_n@PAPAVContext@@IPAV1@V?$allocator@PAVContext@@@std@@@stdext@@YAXPAPAVContext@@IABQAV1@AAV?$allocator@PAVContext@@@std@@@Z
_TEXT	SEGMENT
__First$ = 8						; size = 4
??$unchecked_uninitialized_fill_n@PAPAVContext@@IPAV1@V?$allocator@PAVContext@@@std@@@stdext@@YAXPAPAVContext@@IABQAV1@AAV?$allocator@PAVContext@@@std@@@Z PROC ; stdext::unchecked_uninitialized_fill_n<Context * *,unsigned int,Context *,std::allocator<Context *> >, COMDAT
; __Count$ = eax
; __Val$ = edx

; 921  : 		_STD _Uninit_fill_n(_First, _Count, _Val, _Al,
; 922  : 			_STD _Ptr_cat(_First, _First), _STD _Range_checked_iterator_tag());

  00000	8b 4c 24 04	 mov	 ecx, DWORD PTR __First$[esp-4]
  00004	85 c0		 test	 eax, eax
  00006	76 15		 jbe	 SHORT $LN17@unchecked_@5
  00008	56		 push	 esi
  00009	8d a4 24 00 00
	00 00		 npad	 7
$LL19@unchecked_@5:
  00010	8b 32		 mov	 esi, DWORD PTR [edx]
  00012	89 31		 mov	 DWORD PTR [ecx], esi
  00014	48		 dec	 eax
  00015	83 c1 04	 add	 ecx, 4
  00018	85 c0		 test	 eax, eax
  0001a	77 f4		 ja	 SHORT $LL19@unchecked_@5
  0001c	5e		 pop	 esi
$LN17@unchecked_@5:

; 923  : 	}

  0001d	c3		 ret	 0
??$unchecked_uninitialized_fill_n@PAPAVContext@@IPAV1@V?$allocator@PAVContext@@@std@@@stdext@@YAXPAPAVContext@@IABQAV1@AAV?$allocator@PAVContext@@@std@@@Z ENDP ; stdext::unchecked_uninitialized_fill_n<Context * *,unsigned int,Context *,std::allocator<Context *> >
; Function compile flags: /Ogtpy
_TEXT	ENDS
;	COMDAT ??0?$_Iterator_with_base@Urandom_access_iterator_tag@std@@PAVContext@@HPBQAV3@ABQAV3@V_Iterator_base_aux@2@@std@@QAE@XZ
_TEXT	SEGMENT
??0?$_Iterator_with_base@Urandom_access_iterator_tag@std@@PAVContext@@HPBQAV3@ABQAV3@V_Iterator_base_aux@2@@std@@QAE@XZ PROC ; std::_Iterator_with_base<std::random_access_iterator_tag,Context *,int,Context * const *,Context * const &,std::_Iterator_base_aux>::_Iterator_with_base<std::random_access_iterator_tag,Context *,int,Context * const *,Context * const &,std::_Iterator_base_aux>, COMDAT
; _this$ = eax
  00000	c7 00 00 00 00
	00		 mov	 DWORD PTR [eax], 0
  00006	c3		 ret	 0
??0?$_Iterator_with_base@Urandom_access_iterator_tag@std@@PAVContext@@HPBQAV3@ABQAV3@V_Iterator_base_aux@2@@std@@QAE@XZ ENDP ; std::_Iterator_with_base<std::random_access_iterator_tag,Context *,int,Context * const *,Context * const &,std::_Iterator_base_aux>::_Iterator_with_base<std::random_access_iterator_tag,Context *,int,Context * const *,Context * const &,std::_Iterator_base_aux>
; Function compile flags: /Ogtpy
_TEXT	ENDS
;	COMDAT ??0?$_Ranit@PAVContext@@HPBQAV1@ABQAV1@@std@@QAE@XZ
_TEXT	SEGMENT
??0?$_Ranit@PAVContext@@HPBQAV1@ABQAV1@@std@@QAE@XZ PROC ; std::_Ranit<Context *,int,Context * const *,Context * const &>::_Ranit<Context *,int,Context * const *,Context * const &>, COMDAT
; _this$ = eax
  00000	c7 00 00 00 00
	00		 mov	 DWORD PTR [eax], 0
  00006	c3		 ret	 0
??0?$_Ranit@PAVContext@@HPBQAV1@ABQAV1@@std@@QAE@XZ ENDP ; std::_Ranit<Context *,int,Context * const *,Context * const &>::_Ranit<Context *,int,Context * const *,Context * const &>
; Function compile flags: /Ogtpy
; File c:\program files\microsoft visual studio 9.0\vc\include\vector
_TEXT	ENDS
;	COMDAT ??0?$_Vector_const_iterator@PAVContext@@V?$allocator@PAVContext@@@std@@@std@@QAE@PAPAVContext@@PBV_Container_base_aux@1@@Z
_TEXT	SEGMENT
__Ptr$ = 8						; size = 4
??0?$_Vector_const_iterator@PAVContext@@V?$allocator@PAVContext@@@std@@@std@@QAE@PAPAVContext@@PBV_Container_base_aux@1@@Z PROC ; std::_Vector_const_iterator<Context *,std::allocator<Context *> >::_Vector_const_iterator<Context *,std::allocator<Context *> >, COMDAT
; _this$ = edi
; __Pvector$ = esi

; 76   : 	_Vector_const_iterator(_Tptr _Ptr, const _Container_base *_Pvector)

  00000	53		 push	 ebx
  00001	8b 5c 24 08	 mov	 ebx, DWORD PTR __Ptr$[esp]
  00005	c7 07 00 00 00
	00		 mov	 DWORD PTR [edi], 0

; 77   : 		{	// construct with pointer _Ptr
; 78   : 		_SCL_SECURE_VALIDATE(_Pvector != NULL && ((_Myvec *)_Pvector)->_Myfirst <= _Ptr && _Ptr <= ((_Myvec *)_Pvector)->_Mylast);

  0000b	85 f6		 test	 esi, esi
  0000d	74 0a		 je	 SHORT $LN1@Vector_con@2
  0000f	39 5e 0c	 cmp	 DWORD PTR [esi+12], ebx
  00012	77 05		 ja	 SHORT $LN1@Vector_con@2
  00014	3b 5e 10	 cmp	 ebx, DWORD PTR [esi+16]
  00017	76 05		 jbe	 SHORT $LN2@Vector_con@2
$LN1@Vector_con@2:
  00019	e8 00 00 00 00	 call	 __invalid_parameter_noinfo
$LN2@Vector_con@2:

; 79   : 		this->_Set_container(_Pvector);

  0001e	8b 06		 mov	 eax, DWORD PTR [esi]
  00020	89 07		 mov	 DWORD PTR [edi], eax

; 80   : 		_Myptr = _Ptr;

  00022	89 5f 04	 mov	 DWORD PTR [edi+4], ebx

; 81   : 		}

  00025	8b c7		 mov	 eax, edi
  00027	5b		 pop	 ebx
  00028	c2 04 00	 ret	 4
??0?$_Vector_const_iterator@PAVContext@@V?$allocator@PAVContext@@@std@@@std@@QAE@PAPAVContext@@PBV_Container_base_aux@1@@Z ENDP ; std::_Vector_const_iterator<Context *,std::allocator<Context *> >::_Vector_const_iterator<Context *,std::allocator<Context *> >
; Function compile flags: /Ogtpy
_TEXT	ENDS
;	COMDAT ??G?$_Vector_const_iterator@PAVContext@@V?$allocator@PAVContext@@@std@@@std@@QBEHABV01@@Z
_TEXT	SEGMENT
??G?$_Vector_const_iterator@PAVContext@@V?$allocator@PAVContext@@@std@@@std@@QBEHABV01@@Z PROC ; std::_Vector_const_iterator<Context *,std::allocator<Context *> >::operator-, COMDAT
; _this$ = edi
; __Right$ = esi

; 187  : 
; 188  :  #if _HAS_ITERATOR_DEBUGGING
; 189  : 		_Compat(_Right);
; 190  :  #else
; 191  : 		_SCL_SECURE_VALIDATE(this->_Has_container() && this->_Same_container(_Right));

  00000	8b 07		 mov	 eax, DWORD PTR [edi]
  00002	85 c0		 test	 eax, eax
  00004	74 04		 je	 SHORT $LN1@operator@6
  00006	3b 06		 cmp	 eax, DWORD PTR [esi]
  00008	74 05		 je	 SHORT $LN2@operator@6
$LN1@operator@6:
  0000a	e8 00 00 00 00	 call	 __invalid_parameter_noinfo
$LN2@operator@6:

; 192  :  #endif /* _HAS_ITERATOR_DEBUGGING */
; 193  : 
; 194  : 		return (_Myptr - _Right._Myptr);

  0000f	8b 47 04	 mov	 eax, DWORD PTR [edi+4]
  00012	2b 46 04	 sub	 eax, DWORD PTR [esi+4]
  00015	c1 f8 02	 sar	 eax, 2

; 195  : 		}

  00018	c3		 ret	 0
??G?$_Vector_const_iterator@PAVContext@@V?$allocator@PAVContext@@@std@@@std@@QBEHABV01@@Z ENDP ; std::_Vector_const_iterator<Context *,std::allocator<Context *> >::operator-
; Function compile flags: /Ogtpy
_TEXT	ENDS
;	COMDAT ??0?$_Vector_iterator@PAVContext@@V?$allocator@PAVContext@@@std@@@std@@QAE@PAPAVContext@@PBV_Container_base_aux@1@@Z
_TEXT	SEGMENT
__Ptr$ = 8						; size = 4
??0?$_Vector_iterator@PAVContext@@V?$allocator@PAVContext@@@std@@@std@@QAE@PAPAVContext@@PBV_Container_base_aux@1@@Z PROC ; std::_Vector_iterator<Context *,std::allocator<Context *> >::_Vector_iterator<Context *,std::allocator<Context *> >, COMDAT
; _this$ = edi
; __Pvector$ = esi

; 327  : 		{	// construct with pointer _Ptr

  00000	53		 push	 ebx
  00001	8b 5c 24 08	 mov	 ebx, DWORD PTR __Ptr$[esp]
  00005	c7 07 00 00 00
	00		 mov	 DWORD PTR [edi], 0
  0000b	85 f6		 test	 esi, esi
  0000d	74 0a		 je	 SHORT $LN3@Vector_ite@2
  0000f	39 5e 0c	 cmp	 DWORD PTR [esi+12], ebx
  00012	77 05		 ja	 SHORT $LN3@Vector_ite@2
  00014	3b 5e 10	 cmp	 ebx, DWORD PTR [esi+16]
  00017	76 05		 jbe	 SHORT $LN4@Vector_ite@2
$LN3@Vector_ite@2:
  00019	e8 00 00 00 00	 call	 __invalid_parameter_noinfo
$LN4@Vector_ite@2:
  0001e	8b 06		 mov	 eax, DWORD PTR [esi]
  00020	89 07		 mov	 DWORD PTR [edi], eax
  00022	89 5f 04	 mov	 DWORD PTR [edi+4], ebx

; 328  : 		}

  00025	8b c7		 mov	 eax, edi
  00027	5b		 pop	 ebx
  00028	c2 04 00	 ret	 4
??0?$_Vector_iterator@PAVContext@@V?$allocator@PAVContext@@@std@@@std@@QAE@PAPAVContext@@PBV_Container_base_aux@1@@Z ENDP ; std::_Vector_iterator<Context *,std::allocator<Context *> >::_Vector_iterator<Context *,std::allocator<Context *> >
; Function compile flags: /Ogtpy
; File c:\program files\microsoft visual studio 9.0\vc\include\xmemory
_TEXT	ENDS
;	COMDAT ?allocate@?$allocator@PAVContext@@@std@@QAEPAPAVContext@@I@Z
_TEXT	SEGMENT
$T52003 = -16						; size = 4
$T52009 = -12						; size = 12
?allocate@?$allocator@PAVContext@@@std@@QAEPAPAVContext@@I@Z PROC ; std::allocator<Context *>::allocate, COMDAT
; __Count$ = ecx

; 144  : 		{	// allocate array of _Count elements

  00000	83 ec 10	 sub	 esp, 16			; 00000010H

; 145  : 		return (_Allocate(_Count, (pointer)0));

  00003	85 c9		 test	 ecx, ecx
  00005	77 16		 ja	 SHORT $LN5@allocate
  00007	33 c9		 xor	 ecx, ecx
$LN3@allocate:
  00009	8d 14 8d 00 00
	00 00		 lea	 edx, DWORD PTR [ecx*4]
  00010	52		 push	 edx
  00011	e8 00 00 00 00	 call	 ??2@YAPAXI@Z		; operator new
  00016	83 c4 04	 add	 esp, 4

; 146  : 		}

  00019	83 c4 10	 add	 esp, 16			; 00000010H
  0001c	c3		 ret	 0

; 145  : 		return (_Allocate(_Count, (pointer)0));

$LN5@allocate:
  0001d	83 c8 ff	 or	 eax, -1
  00020	33 d2		 xor	 edx, edx
  00022	f7 f1		 div	 ecx
  00024	83 f8 04	 cmp	 eax, 4
  00027	73 e0		 jae	 SHORT $LN3@allocate
  00029	8d 04 24	 lea	 eax, DWORD PTR $T52003[esp+16]
  0002c	50		 push	 eax
  0002d	8d 4c 24 08	 lea	 ecx, DWORD PTR $T52009[esp+20]
  00031	c7 44 24 04 00
	00 00 00	 mov	 DWORD PTR $T52003[esp+20], 0
  00039	e8 00 00 00 00	 call	 ??0exception@std@@QAE@ABQBD@Z ; std::exception::exception
  0003e	68 00 00 00 00	 push	 OFFSET __TI2?AVbad_alloc@std@@
  00043	8d 4c 24 08	 lea	 ecx, DWORD PTR $T52009[esp+20]
  00047	51		 push	 ecx
  00048	c7 44 24 0c 00
	00 00 00	 mov	 DWORD PTR $T52009[esp+24], OFFSET ??_7bad_alloc@std@@6B@
  00050	e8 00 00 00 00	 call	 __CxxThrowException@8
$LN12@allocate:
$LN11@allocate:
  00055	cc		 int	 3
?allocate@?$allocator@PAVContext@@@std@@QAEPAPAVContext@@I@Z ENDP ; std::allocator<Context *>::allocate
; Function compile flags: /Ogtpy
; File c:\program files\microsoft visual studio 9.0\vc\include\vector
_TEXT	ENDS
;	COMDAT ?begin@?$vector@PAVContext@@V?$allocator@PAVContext@@@std@@@std@@QAE?AV?$_Vector_iterator@PAVContext@@V?$allocator@PAVContext@@@std@@@2@XZ
_TEXT	SEGMENT
?begin@?$vector@PAVContext@@V?$allocator@PAVContext@@@std@@@std@@QAE?AV?$_Vector_iterator@PAVContext@@V?$allocator@PAVContext@@@std@@@2@XZ PROC ; std::vector<Context *,std::allocator<Context *> >::begin, COMDAT
; _this$ = edi
; ___$ReturnUdt$ = esi

; 640  : 		{	// return iterator for beginning of mutable sequence

  00000	53		 push	 ebx

; 641  : 		return (iterator(_Myfirst, this));

  00001	8b 5f 0c	 mov	 ebx, DWORD PTR [edi+12]
  00004	c7 06 00 00 00
	00		 mov	 DWORD PTR [esi], 0
  0000a	3b 5f 10	 cmp	 ebx, DWORD PTR [edi+16]
  0000d	76 05		 jbe	 SHORT $LN6@begin@2
  0000f	e8 00 00 00 00	 call	 __invalid_parameter_noinfo
$LN6@begin@2:
  00014	8b 07		 mov	 eax, DWORD PTR [edi]
  00016	89 06		 mov	 DWORD PTR [esi], eax
  00018	89 5e 04	 mov	 DWORD PTR [esi+4], ebx
  0001b	8b c6		 mov	 eax, esi
  0001d	5b		 pop	 ebx

; 642  : 		}

  0001e	c3		 ret	 0
?begin@?$vector@PAVContext@@V?$allocator@PAVContext@@@std@@@std@@QAE?AV?$_Vector_iterator@PAVContext@@V?$allocator@PAVContext@@@std@@@2@XZ ENDP ; std::vector<Context *,std::allocator<Context *> >::begin
; Function compile flags: /Ogtpy
; File c:\program files\microsoft visual studio 9.0\vc\include\xutility
_TEXT	ENDS
;	COMDAT ??1?$_Container_base_aux_alloc_real@V?$allocator@PAVContext@@@std@@@std@@IAE@XZ
_TEXT	SEGMENT
??1?$_Container_base_aux_alloc_real@V?$allocator@PAVContext@@@std@@@std@@IAE@XZ PROC ; std::_Container_base_aux_alloc_real<std::allocator<Context *> >::~_Container_base_aux_alloc_real<std::allocator<Context *> >, COMDAT
; _this$ = eax

; 437  : 		_Myownedaux->~_Aux_cont();
; 438  : 
; 439  : 		_Alaux.deallocate(_Myownedaux, 1);

  00000	8b 08		 mov	 ecx, DWORD PTR [eax]
  00002	51		 push	 ecx
  00003	e8 00 00 00 00	 call	 ??3@YAXPAX@Z		; operator delete
  00008	59		 pop	 ecx

; 440  : 		}

  00009	c3		 ret	 0
??1?$_Container_base_aux_alloc_real@V?$allocator@PAVContext@@@std@@@std@@IAE@XZ ENDP ; std::_Container_base_aux_alloc_real<std::allocator<Context *> >::~_Container_base_aux_alloc_real<std::allocator<Context *> >
; Function compile flags: /Ogtpy
; File c:\program files\microsoft visual studio 9.0\vc\include\vector
_TEXT	ENDS
;	COMDAT ?_Ufill@?$vector@PAVContext@@V?$allocator@PAVContext@@@std@@@std@@IAEPAPAVContext@@PAPAV3@IABQAV3@@Z
_TEXT	SEGMENT
?_Ufill@?$vector@PAVContext@@V?$allocator@PAVContext@@@std@@@std@@IAEPAPAVContext@@PAPAV3@IABQAV3@@Z PROC ; std::vector<Context *,std::allocator<Context *> >::_Ufill, COMDAT
; __Ptr$ = edi
; __Count$ = esi
; __Val$ = edx

; 1252 : 		_STDEXT unchecked_uninitialized_fill_n(_Ptr, _Count, _Val, this->_Alval);

  00000	8b c6		 mov	 eax, esi
  00002	8b cf		 mov	 ecx, edi
  00004	85 f6		 test	 esi, esi
  00006	76 15		 jbe	 SHORT $LN26@Ufill
  00008	53		 push	 ebx
  00009	8d a4 24 00 00
	00 00		 npad	 7
$LL21@Ufill:
  00010	8b 1a		 mov	 ebx, DWORD PTR [edx]
  00012	89 19		 mov	 DWORD PTR [ecx], ebx
  00014	48		 dec	 eax
  00015	83 c1 04	 add	 ecx, 4
  00018	85 c0		 test	 eax, eax
  0001a	77 f4		 ja	 SHORT $LL21@Ufill
  0001c	5b		 pop	 ebx
$LN26@Ufill:

; 1253 : 		return (_Ptr + _Count);

  0001d	8d 04 b7	 lea	 eax, DWORD PTR [edi+esi*4]

; 1254 : 		}

  00020	c3		 ret	 0
?_Ufill@?$vector@PAVContext@@V?$allocator@PAVContext@@@std@@@std@@IAEPAPAVContext@@PAPAV3@IABQAV3@@Z ENDP ; std::vector<Context *,std::allocator<Context *> >::_Ufill
; Function compile flags: /Ogtpy
_TEXT	ENDS
;	COMDAT ?_Tidy@?$vector@PAVContext@@V?$allocator@PAVContext@@@std@@@std@@IAEXXZ
_TEXT	SEGMENT
?_Tidy@?$vector@PAVContext@@V?$allocator@PAVContext@@@std@@@std@@IAEXXZ PROC ; std::vector<Context *,std::allocator<Context *> >::_Tidy, COMDAT
; _this$ = esi

; 1129 : 		if (_Myfirst != 0)

  00000	8b 46 0c	 mov	 eax, DWORD PTR [esi+12]
  00003	85 c0		 test	 eax, eax
  00005	74 09		 je	 SHORT $LN4@Tidy@5

; 1130 : 			{	// something to free, destroy and deallocate it
; 1131 : 
; 1132 :  #if _HAS_ITERATOR_DEBUGGING
; 1133 : 			this->_Orphan_all();
; 1134 :  #endif /* _HAS_ITERATOR_DEBUGGING */
; 1135 : 
; 1136 : 			_Destroy(_Myfirst, _Mylast);
; 1137 : 			this->_Alval.deallocate(_Myfirst, _Myend - _Myfirst);

  00007	50		 push	 eax
  00008	e8 00 00 00 00	 call	 ??3@YAXPAX@Z		; operator delete
  0000d	83 c4 04	 add	 esp, 4
$LN4@Tidy@5:

; 1138 : 			}
; 1139 : 		_Myfirst = 0, _Mylast = 0, _Myend = 0;

  00010	c7 46 0c 00 00
	00 00		 mov	 DWORD PTR [esi+12], 0
  00017	c7 46 10 00 00
	00 00		 mov	 DWORD PTR [esi+16], 0
  0001e	c7 46 14 00 00
	00 00		 mov	 DWORD PTR [esi+20], 0

; 1140 : 		}

  00025	c3		 ret	 0
?_Tidy@?$vector@PAVContext@@V?$allocator@PAVContext@@@std@@@std@@IAEXXZ ENDP ; std::vector<Context *,std::allocator<Context *> >::_Tidy
; Function compile flags: /Ogtpy
_TEXT	ENDS
;	COMDAT ?end@?$vector@PAVContext@@V?$allocator@PAVContext@@@std@@@std@@QAE?AV?$_Vector_iterator@PAVContext@@V?$allocator@PAVContext@@@std@@@2@XZ
_TEXT	SEGMENT
?end@?$vector@PAVContext@@V?$allocator@PAVContext@@@std@@@std@@QAE?AV?$_Vector_iterator@PAVContext@@V?$allocator@PAVContext@@@std@@@2@XZ PROC ; std::vector<Context *,std::allocator<Context *> >::end, COMDAT
; _this$ = edi
; ___$ReturnUdt$ = esi

; 650  : 		{	// return iterator for end of mutable sequence

  00000	53		 push	 ebx

; 651  : 		return (iterator(_Mylast, this));

  00001	8b 5f 10	 mov	 ebx, DWORD PTR [edi+16]
  00004	c7 06 00 00 00
	00		 mov	 DWORD PTR [esi], 0
  0000a	39 5f 0c	 cmp	 DWORD PTR [edi+12], ebx
  0000d	76 05		 jbe	 SHORT $LN6@end@2
  0000f	e8 00 00 00 00	 call	 __invalid_parameter_noinfo
$LN6@end@2:
  00014	8b 07		 mov	 eax, DWORD PTR [edi]
  00016	89 06		 mov	 DWORD PTR [esi], eax
  00018	89 5e 04	 mov	 DWORD PTR [esi+4], ebx
  0001b	8b c6		 mov	 eax, esi
  0001d	5b		 pop	 ebx

; 652  : 		}

  0001e	c3		 ret	 0
?end@?$vector@PAVContext@@V?$allocator@PAVContext@@@std@@@std@@QAE?AV?$_Vector_iterator@PAVContext@@V?$allocator@PAVContext@@@std@@@2@XZ ENDP ; std::vector<Context *,std::allocator<Context *> >::end
; Function compile flags: /Ogtpy
_TEXT	ENDS
;	COMDAT ??1?$_Vector_val@PAVContext@@V?$allocator@PAVContext@@@std@@@std@@QAE@XZ
_TEXT	SEGMENT
??1?$_Vector_val@PAVContext@@V?$allocator@PAVContext@@@std@@@std@@QAE@XZ PROC ; std::_Vector_val<Context *,std::allocator<Context *> >::~_Vector_val<Context *,std::allocator<Context *> >, COMDAT
; _this$ = eax
  00000	8b 08		 mov	 ecx, DWORD PTR [eax]
  00002	51		 push	 ecx
  00003	e8 00 00 00 00	 call	 ??3@YAXPAX@Z		; operator delete
  00008	59		 pop	 ecx
  00009	c3		 ret	 0
??1?$_Vector_val@PAVContext@@V?$allocator@PAVContext@@@std@@@std@@QAE@XZ ENDP ; std::_Vector_val<Context *,std::allocator<Context *> >::~_Vector_val<Context *,std::allocator<Context *> >
; Function compile flags: /Ogtpy
_TEXT	ENDS
;	COMDAT ?pop_back@?$vector@PAVContext@@V?$allocator@PAVContext@@@std@@@std@@QAEXXZ
_TEXT	SEGMENT
?pop_back@?$vector@PAVContext@@V?$allocator@PAVContext@@@std@@@std@@QAEXXZ PROC ; std::vector<Context *,std::allocator<Context *> >::pop_back, COMDAT
; _this$ = eax

; 842  : 		if (!empty())

  00000	8b 48 10	 mov	 ecx, DWORD PTR [eax+16]
  00003	8b d1		 mov	 edx, ecx
  00005	2b 50 0c	 sub	 edx, DWORD PTR [eax+12]
  00008	f7 c2 fc ff ff
	ff		 test	 edx, -4			; fffffffcH
  0000e	74 06		 je	 SHORT $LN1@pop_back

; 843  : 			{	// erase last element
; 844  : 			_Destroy(_Mylast - 1, _Mylast);
; 845  : 			--_Mylast;

  00010	83 c1 fc	 add	 ecx, -4			; fffffffcH
  00013	89 48 10	 mov	 DWORD PTR [eax+16], ecx
$LN1@pop_back:

; 846  : 			}
; 847  : 		}

  00016	c3		 ret	 0
?pop_back@?$vector@PAVContext@@V?$allocator@PAVContext@@@std@@@std@@QAEXXZ ENDP ; std::vector<Context *,std::allocator<Context *> >::pop_back
; Function compile flags: /Ogtpy
_TEXT	ENDS
;	COMDAT ??1?$vector@PAVContext@@V?$allocator@PAVContext@@@std@@@std@@QAE@XZ
_TEXT	SEGMENT
??1?$vector@PAVContext@@V?$allocator@PAVContext@@@std@@@std@@QAE@XZ PROC ; std::vector<Context *,std::allocator<Context *> >::~vector<Context *,std::allocator<Context *> >, COMDAT
; _this$ = esi

; 559  : 		_Tidy();

  00000	8b 46 0c	 mov	 eax, DWORD PTR [esi+12]
  00003	85 c0		 test	 eax, eax
  00005	74 09		 je	 SHORT $LN6@vector@2
  00007	50		 push	 eax
  00008	e8 00 00 00 00	 call	 ??3@YAXPAX@Z		; operator delete
  0000d	83 c4 04	 add	 esp, 4
$LN6@vector@2:

; 560  : 		}

  00010	8b 06		 mov	 eax, DWORD PTR [esi]
  00012	50		 push	 eax
  00013	c7 46 0c 00 00
	00 00		 mov	 DWORD PTR [esi+12], 0
  0001a	c7 46 10 00 00
	00 00		 mov	 DWORD PTR [esi+16], 0
  00021	c7 46 14 00 00
	00 00		 mov	 DWORD PTR [esi+20], 0
  00028	e8 00 00 00 00	 call	 ??3@YAXPAX@Z		; operator delete
  0002d	59		 pop	 ecx
  0002e	c3		 ret	 0
??1?$vector@PAVContext@@V?$allocator@PAVContext@@@std@@@std@@QAE@XZ ENDP ; std::vector<Context *,std::allocator<Context *> >::~vector<Context *,std::allocator<Context *> >
; Function compile flags: /Ogtpy
;	COMDAT ??Y?$_Vector_const_iterator@PAVContext@@V?$allocator@PAVContext@@@std@@@std@@QAEAAV01@H@Z
_TEXT	SEGMENT
__Off$ = 8						; size = 4
??Y?$_Vector_const_iterator@PAVContext@@V?$allocator@PAVContext@@@std@@@std@@QAEAAV01@H@Z PROC ; std::_Vector_const_iterator<Context *,std::allocator<Context *> >::operator+=, COMDAT
; _this$ = esi

; 160  : 		_SCL_SECURE_VALIDATE(this->_Has_container());

  00000	8b 06		 mov	 eax, DWORD PTR [esi]
  00002	85 c0		 test	 eax, eax
  00004	75 0b		 jne	 SHORT $LN20@operator@18
  00006	e8 00 00 00 00	 call	 __invalid_parameter_noinfo

; 161  : 		_SCL_SECURE_VALIDATE_RANGE(

  0000b	8b 06		 mov	 eax, DWORD PTR [esi]
  0000d	85 c0		 test	 eax, eax
  0000f	74 04		 je	 SHORT $LN10@operator@18
$LN20@operator@18:
  00011	8b 10		 mov	 edx, DWORD PTR [eax]
  00013	eb 02		 jmp	 SHORT $LN11@operator@18
$LN10@operator@18:
  00015	33 d2		 xor	 edx, edx
$LN11@operator@18:
  00017	8b 4e 04	 mov	 ecx, DWORD PTR [esi+4]
  0001a	57		 push	 edi
  0001b	8b 7c 24 08	 mov	 edi, DWORD PTR __Off$[esp]
  0001f	03 ff		 add	 edi, edi
  00021	03 ff		 add	 edi, edi
  00023	03 cf		 add	 ecx, edi
  00025	3b 4a 10	 cmp	 ecx, DWORD PTR [edx+16]
  00028	77 0f		 ja	 SHORT $LN1@operator@18
  0002a	85 c0		 test	 eax, eax
  0002c	74 04		 je	 SHORT $LN16@operator@18
  0002e	8b 00		 mov	 eax, DWORD PTR [eax]
  00030	eb 02		 jmp	 SHORT $LN17@operator@18
$LN16@operator@18:
  00032	33 c0		 xor	 eax, eax
$LN17@operator@18:
  00034	3b 48 0c	 cmp	 ecx, DWORD PTR [eax+12]
  00037	73 05		 jae	 SHORT $LN21@operator@18
$LN1@operator@18:

; 162  : 			_Myptr + _Off <= ((_Myvec *)(this->_Getmycont()))->_Mylast &&
; 163  : 			_Myptr + _Off >= ((_Myvec *)(this->_Getmycont()))->_Myfirst);

  00039	e8 00 00 00 00	 call	 __invalid_parameter_noinfo
$LN21@operator@18:

; 164  : 		_Myptr += _Off;

  0003e	01 7e 04	 add	 DWORD PTR [esi+4], edi

; 165  : 		return (*this);

  00041	8b c6		 mov	 eax, esi
  00043	5f		 pop	 edi

; 166  : 		}

  00044	c2 04 00	 ret	 4
??Y?$_Vector_const_iterator@PAVContext@@V?$allocator@PAVContext@@@std@@@std@@QAEAAV01@H@Z ENDP ; std::_Vector_const_iterator<Context *,std::allocator<Context *> >::operator+=
; Function compile flags: /Ogtpy
_TEXT	ENDS
;	COMDAT ??Y?$_Vector_iterator@PAVContext@@V?$allocator@PAVContext@@@std@@@std@@QAEAAV01@H@Z
_TEXT	SEGMENT
__Off$ = 8						; size = 4
??Y?$_Vector_iterator@PAVContext@@V?$allocator@PAVContext@@@std@@@std@@QAEAAV01@H@Z PROC ; std::_Vector_iterator<Context *,std::allocator<Context *> >::operator+=, COMDAT
; _this$ = esi

; 375  : 		(*(_Mybase *)this) += _Off;

  00000	8b 06		 mov	 eax, DWORD PTR [esi]
  00002	85 c0		 test	 eax, eax
  00004	75 0b		 jne	 SHORT $LN22@operator@19
  00006	e8 00 00 00 00	 call	 __invalid_parameter_noinfo
  0000b	8b 06		 mov	 eax, DWORD PTR [esi]
  0000d	85 c0		 test	 eax, eax
  0000f	74 04		 je	 SHORT $LN12@operator@19
$LN22@operator@19:
  00011	8b 10		 mov	 edx, DWORD PTR [eax]
  00013	eb 02		 jmp	 SHORT $LN13@operator@19
$LN12@operator@19:
  00015	33 d2		 xor	 edx, edx
$LN13@operator@19:
  00017	8b 4e 04	 mov	 ecx, DWORD PTR [esi+4]
  0001a	57		 push	 edi
  0001b	8b 7c 24 08	 mov	 edi, DWORD PTR __Off$[esp]
  0001f	03 ff		 add	 edi, edi
  00021	03 ff		 add	 edi, edi
  00023	03 cf		 add	 ecx, edi
  00025	3b 4a 10	 cmp	 ecx, DWORD PTR [edx+16]
  00028	77 0f		 ja	 SHORT $LN3@operator@19
  0002a	85 c0		 test	 eax, eax
  0002c	74 04		 je	 SHORT $LN18@operator@19
  0002e	8b 00		 mov	 eax, DWORD PTR [eax]
  00030	eb 02		 jmp	 SHORT $LN19@operator@19
$LN18@operator@19:
  00032	33 c0		 xor	 eax, eax
$LN19@operator@19:
  00034	3b 48 0c	 cmp	 ecx, DWORD PTR [eax+12]
  00037	73 05		 jae	 SHORT $LN23@operator@19
$LN3@operator@19:
  00039	e8 00 00 00 00	 call	 __invalid_parameter_noinfo
$LN23@operator@19:
  0003e	01 7e 04	 add	 DWORD PTR [esi+4], edi

; 376  : 		return (*this);

  00041	8b c6		 mov	 eax, esi
  00043	5f		 pop	 edi

; 377  : 		}

  00044	c2 04 00	 ret	 4
??Y?$_Vector_iterator@PAVContext@@V?$allocator@PAVContext@@@std@@@std@@QAEAAV01@H@Z ENDP ; std::_Vector_iterator<Context *,std::allocator<Context *> >::operator+=
; Function compile flags: /Ogtpy
_TEXT	ENDS
;	COMDAT ??D?$_Vector_const_iterator@PAVContext@@V?$allocator@PAVContext@@@std@@@std@@QBEABQAVContext@@XZ
_TEXT	SEGMENT
??D?$_Vector_const_iterator@PAVContext@@V?$allocator@PAVContext@@@std@@@std@@QBEABQAVContext@@XZ PROC ; std::_Vector_const_iterator<Context *,std::allocator<Context *> >::operator*, COMDAT
; _this$ = esi

; 92   : 
; 93   :  #if _HAS_ITERATOR_DEBUGGING
; 94   : 		if (this->_Mycont == 0
; 95   : 			|| _Myptr < ((_Myvec *)this->_Mycont)->_Myfirst
; 96   : 			|| ((_Myvec *)this->_Mycont)->_Mylast <= _Myptr)
; 97   : 			{
; 98   : 			_DEBUG_ERROR("vector iterator not dereferencable");
; 99   : 			_SCL_SECURE_OUT_OF_RANGE;
; 100  : 			}
; 101  :  #else
; 102  :  		_SCL_SECURE_VALIDATE(this->_Has_container());

  00000	8b 06		 mov	 eax, DWORD PTR [esi]
  00002	85 c0		 test	 eax, eax
  00004	75 0b		 jne	 SHORT $LN13@operator@20
  00006	e8 00 00 00 00	 call	 __invalid_parameter_noinfo

; 103  : 		_SCL_SECURE_VALIDATE_RANGE(_Myptr < ((_Myvec *)(this->_Getmycont()))->_Mylast);

  0000b	8b 06		 mov	 eax, DWORD PTR [esi]
  0000d	85 c0		 test	 eax, eax
  0000f	74 04		 je	 SHORT $LN9@operator@20
$LN13@operator@20:
  00011	8b 00		 mov	 eax, DWORD PTR [eax]
  00013	eb 02		 jmp	 SHORT $LN10@operator@20
$LN9@operator@20:
  00015	33 c0		 xor	 eax, eax
$LN10@operator@20:
  00017	8b 4e 04	 mov	 ecx, DWORD PTR [esi+4]
  0001a	3b 48 10	 cmp	 ecx, DWORD PTR [eax+16]
  0001d	72 09		 jb	 SHORT $LN14@operator@20
  0001f	e8 00 00 00 00	 call	 __invalid_parameter_noinfo

; 104  :  #endif /* _HAS_ITERATOR_DEBUGGING */
; 105  : 
; 106  : 		return (*_Myptr);

  00024	8b 46 04	 mov	 eax, DWORD PTR [esi+4]

; 107  : 		}

  00027	c3		 ret	 0
$LN14@operator@20:

; 104  :  #endif /* _HAS_ITERATOR_DEBUGGING */
; 105  : 
; 106  : 		return (*_Myptr);

  00028	8b c1		 mov	 eax, ecx

; 107  : 		}

  0002a	c3		 ret	 0
??D?$_Vector_const_iterator@PAVContext@@V?$allocator@PAVContext@@@std@@@std@@QBEABQAVContext@@XZ ENDP ; std::_Vector_const_iterator<Context *,std::allocator<Context *> >::operator*
; Function compile flags: /Ogtpy
_TEXT	ENDS
;	COMDAT ??Z?$_Vector_iterator@PAVContext@@V?$allocator@PAVContext@@@std@@@std@@QAEAAV01@H@Z
_TEXT	SEGMENT
??Z?$_Vector_iterator@PAVContext@@V?$allocator@PAVContext@@@std@@@std@@QAEAAV01@H@Z PROC ; std::_Vector_iterator<Context *,std::allocator<Context *> >::operator-=, COMDAT
; _this$ = esi

; 387  : 		return (*this += -_Off);

  00000	8b 06		 mov	 eax, DWORD PTR [esi]
  00002	85 c0		 test	 eax, eax
  00004	75 0b		 jne	 SHORT $LN24@operator@21
  00006	e8 00 00 00 00	 call	 __invalid_parameter_noinfo
  0000b	8b 06		 mov	 eax, DWORD PTR [esi]
  0000d	85 c0		 test	 eax, eax
  0000f	74 04		 je	 SHORT $LN14@operator@21
$LN24@operator@21:
  00011	8b 10		 mov	 edx, DWORD PTR [eax]
  00013	eb 02		 jmp	 SHORT $LN15@operator@21
$LN14@operator@21:
  00015	33 d2		 xor	 edx, edx
$LN15@operator@21:
  00017	8b 4e 04	 mov	 ecx, DWORD PTR [esi+4]
  0001a	83 c1 fc	 add	 ecx, -4			; fffffffcH
  0001d	3b 4a 10	 cmp	 ecx, DWORD PTR [edx+16]
  00020	77 0f		 ja	 SHORT $LN5@operator@21
  00022	85 c0		 test	 eax, eax
  00024	74 04		 je	 SHORT $LN20@operator@21
  00026	8b 00		 mov	 eax, DWORD PTR [eax]
  00028	eb 02		 jmp	 SHORT $LN21@operator@21
$LN20@operator@21:
  0002a	33 c0		 xor	 eax, eax
$LN21@operator@21:
  0002c	3b 48 0c	 cmp	 ecx, DWORD PTR [eax+12]
  0002f	73 05		 jae	 SHORT $LN25@operator@21
$LN5@operator@21:
  00031	e8 00 00 00 00	 call	 __invalid_parameter_noinfo
$LN25@operator@21:
  00036	83 46 04 fc	 add	 DWORD PTR [esi+4], -4	; fffffffcH
  0003a	8b c6		 mov	 eax, esi

; 388  : 		}

  0003c	c3		 ret	 0
??Z?$_Vector_iterator@PAVContext@@V?$allocator@PAVContext@@@std@@@std@@QAEAAV01@H@Z ENDP ; std::_Vector_iterator<Context *,std::allocator<Context *> >::operator-=
; Function compile flags: /Ogtpy
_TEXT	ENDS
;	COMDAT ??H?$_Vector_iterator@PAVContext@@V?$allocator@PAVContext@@@std@@@std@@QBE?AV01@H@Z
_TEXT	SEGMENT
___$ReturnUdt$ = 8					; size = 4
__Off$ = 12						; size = 4
??H?$_Vector_iterator@PAVContext@@V?$allocator@PAVContext@@@std@@@std@@QBE?AV01@H@Z PROC ; std::_Vector_iterator<Context *,std::allocator<Context *> >::operator+, COMDAT
; _this$ = eax

; 380  : 		{	// return this + integer

  00000	53		 push	 ebx
  00001	8b 5c 24 08	 mov	 ebx, DWORD PTR ___$ReturnUdt$[esp]
  00005	56		 push	 esi

; 381  : 		_Myt _Tmp = *this;

  00006	8b 30		 mov	 esi, DWORD PTR [eax]
  00008	57		 push	 edi
  00009	8b 78 04	 mov	 edi, DWORD PTR [eax+4]

; 382  : 		return (_Tmp += _Off);

  0000c	85 f6		 test	 esi, esi
  0000e	75 1b		 jne	 SHORT $LN24@operator@22
  00010	e8 00 00 00 00	 call	 __invalid_parameter_noinfo
  00015	33 c0		 xor	 eax, eax
$LN15@operator@22:
  00017	8b 4c 24 14	 mov	 ecx, DWORD PTR __Off$[esp+8]
  0001b	8d 3c 8f	 lea	 edi, DWORD PTR [edi+ecx*4]
  0001e	3b 78 10	 cmp	 edi, DWORD PTR [eax+16]
  00021	77 13		 ja	 SHORT $LN5@operator@22
  00023	85 f6		 test	 esi, esi
  00025	74 08		 je	 SHORT $LN20@operator@22
  00027	8b 06		 mov	 eax, DWORD PTR [esi]
  00029	eb 06		 jmp	 SHORT $LN21@operator@22
$LN24@operator@22:
  0002b	8b 06		 mov	 eax, DWORD PTR [esi]
  0002d	eb e8		 jmp	 SHORT $LN15@operator@22
$LN20@operator@22:
  0002f	33 c0		 xor	 eax, eax
$LN21@operator@22:
  00031	3b 78 0c	 cmp	 edi, DWORD PTR [eax+12]
  00034	73 05		 jae	 SHORT $LN6@operator@22
$LN5@operator@22:
  00036	e8 00 00 00 00	 call	 __invalid_parameter_noinfo
$LN6@operator@22:
  0003b	89 7b 04	 mov	 DWORD PTR [ebx+4], edi

; 383  : 		}

  0003e	5f		 pop	 edi
  0003f	89 33		 mov	 DWORD PTR [ebx], esi
  00041	5e		 pop	 esi
  00042	8b c3		 mov	 eax, ebx
  00044	5b		 pop	 ebx
  00045	c2 08 00	 ret	 8
??H?$_Vector_iterator@PAVContext@@V?$allocator@PAVContext@@@std@@@std@@QBE?AV01@H@Z ENDP ; std::_Vector_iterator<Context *,std::allocator<Context *> >::operator+
; Function compile flags: /Ogtpy
; File c:\program files\microsoft visual studio 9.0\vc\include\xutility
_TEXT	ENDS
;	COMDAT ??0?$_Container_base_aux_alloc_real@V?$allocator@PAVContext@@@std@@@std@@IAE@V?$allocator@PAVContext@@@1@@Z
_TEXT	SEGMENT
__Al$ = 8						; size = 1
??0?$_Container_base_aux_alloc_real@V?$allocator@PAVContext@@@std@@@std@@IAE@V?$allocator@PAVContext@@@1@@Z PROC ; std::_Container_base_aux_alloc_real<std::allocator<Context *> >::_Container_base_aux_alloc_real<std::allocator<Context *> >, COMDAT
; _this$ = esi

; 420  : 		_Myownedaux = new (_Alaux.allocate(1)) _Aux_cont(this);

  00000	6a 04		 push	 4
  00002	e8 00 00 00 00	 call	 ??2@YAPAXI@Z		; operator new
  00007	83 c4 04	 add	 esp, 4
  0000a	85 c0		 test	 eax, eax
  0000c	74 09		 je	 SHORT $LN3@Container_@2
  0000e	89 30		 mov	 DWORD PTR [eax], esi
  00010	89 06		 mov	 DWORD PTR [esi], eax

; 421  : 		}

  00012	8b c6		 mov	 eax, esi
  00014	c2 04 00	 ret	 4
$LN3@Container_@2:

; 420  : 		_Myownedaux = new (_Alaux.allocate(1)) _Aux_cont(this);

  00017	33 c0		 xor	 eax, eax
  00019	89 06		 mov	 DWORD PTR [esi], eax

; 421  : 		}

  0001b	8b c6		 mov	 eax, esi
  0001d	c2 04 00	 ret	 4
??0?$_Container_base_aux_alloc_real@V?$allocator@PAVContext@@@std@@@std@@IAE@V?$allocator@PAVContext@@@1@@Z ENDP ; std::_Container_base_aux_alloc_real<std::allocator<Context *> >::_Container_base_aux_alloc_real<std::allocator<Context *> >
; Function compile flags: /Ogtpy
; File c:\program files\microsoft visual studio 9.0\vc\include\vector
_TEXT	ENDS
;	COMDAT ??G?$_Vector_iterator@PAVContext@@V?$allocator@PAVContext@@@std@@@std@@QBE?AV01@H@Z
_TEXT	SEGMENT
___$ReturnUdt$ = 8					; size = 4
??G?$_Vector_iterator@PAVContext@@V?$allocator@PAVContext@@@std@@@std@@QBE?AV01@H@Z PROC ; std::_Vector_iterator<Context *,std::allocator<Context *> >::operator-, COMDAT
; _this$ = eax

; 391  : 		{	// return this - integer

  00000	53		 push	 ebx
  00001	8b 5c 24 08	 mov	 ebx, DWORD PTR ___$ReturnUdt$[esp]
  00005	56		 push	 esi

; 392  : 		_Myt _Tmp = *this;

  00006	8b 30		 mov	 esi, DWORD PTR [eax]
  00008	57		 push	 edi
  00009	8b 78 04	 mov	 edi, DWORD PTR [eax+4]

; 393  : 		return (_Tmp -= _Off);

  0000c	85 f6		 test	 esi, esi
  0000e	75 17		 jne	 SHORT $LN26@operator@23
  00010	e8 00 00 00 00	 call	 __invalid_parameter_noinfo
  00015	33 c0		 xor	 eax, eax
$LN17@operator@23:
  00017	8d 4f fc	 lea	 ecx, DWORD PTR [edi-4]
  0001a	3b 48 10	 cmp	 ecx, DWORD PTR [eax+16]
  0001d	77 13		 ja	 SHORT $LN7@operator@23
  0001f	85 f6		 test	 esi, esi
  00021	74 08		 je	 SHORT $LN22@operator@23
  00023	8b 06		 mov	 eax, DWORD PTR [esi]
  00025	eb 06		 jmp	 SHORT $LN23@operator@23
$LN26@operator@23:
  00027	8b 06		 mov	 eax, DWORD PTR [esi]
  00029	eb ec		 jmp	 SHORT $LN17@operator@23
$LN22@operator@23:
  0002b	33 c0		 xor	 eax, eax
$LN23@operator@23:
  0002d	3b 48 0c	 cmp	 ecx, DWORD PTR [eax+12]
  00030	73 05		 jae	 SHORT $LN8@operator@23
$LN7@operator@23:
  00032	e8 00 00 00 00	 call	 __invalid_parameter_noinfo
$LN8@operator@23:
  00037	83 ef 04	 sub	 edi, 4
  0003a	89 7b 04	 mov	 DWORD PTR [ebx+4], edi

; 394  : 		}

  0003d	5f		 pop	 edi
  0003e	89 33		 mov	 DWORD PTR [ebx], esi
  00040	5e		 pop	 esi
  00041	8b c3		 mov	 eax, ebx
  00043	5b		 pop	 ebx
  00044	c2 04 00	 ret	 4
??G?$_Vector_iterator@PAVContext@@V?$allocator@PAVContext@@@std@@@std@@QBE?AV01@H@Z ENDP ; std::_Vector_iterator<Context *,std::allocator<Context *> >::operator-
; Function compile flags: /Ogtpy
_TEXT	ENDS
;	COMDAT ??D?$_Vector_iterator@PAVContext@@V?$allocator@PAVContext@@@std@@@std@@QBEAAPAVContext@@XZ
_TEXT	SEGMENT
??D?$_Vector_iterator@PAVContext@@V?$allocator@PAVContext@@@std@@@std@@QBEAAPAVContext@@XZ PROC ; std::_Vector_iterator<Context *,std::allocator<Context *> >::operator*, COMDAT
; _this$ = esi

; 339  : 		return ((reference)**(_Mybase *)this);

  00000	8b 06		 mov	 eax, DWORD PTR [esi]
  00002	85 c0		 test	 eax, eax
  00004	75 0b		 jne	 SHORT $LN15@operator@24
  00006	e8 00 00 00 00	 call	 __invalid_parameter_noinfo
  0000b	8b 06		 mov	 eax, DWORD PTR [esi]
  0000d	85 c0		 test	 eax, eax
  0000f	74 04		 je	 SHORT $LN11@operator@24
$LN15@operator@24:
  00011	8b 00		 mov	 eax, DWORD PTR [eax]
  00013	eb 02		 jmp	 SHORT $LN12@operator@24
$LN11@operator@24:
  00015	33 c0		 xor	 eax, eax
$LN12@operator@24:
  00017	8b 4e 04	 mov	 ecx, DWORD PTR [esi+4]
  0001a	3b 48 10	 cmp	 ecx, DWORD PTR [eax+16]
  0001d	72 09		 jb	 SHORT $LN16@operator@24
  0001f	e8 00 00 00 00	 call	 __invalid_parameter_noinfo
  00024	8b 46 04	 mov	 eax, DWORD PTR [esi+4]

; 340  : 		}

  00027	c3		 ret	 0
$LN16@operator@24:

; 339  : 		return ((reference)**(_Mybase *)this);

  00028	8b c1		 mov	 eax, ecx

; 340  : 		}

  0002a	c3		 ret	 0
??D?$_Vector_iterator@PAVContext@@V?$allocator@PAVContext@@@std@@@std@@QBEAAPAVContext@@XZ ENDP ; std::_Vector_iterator<Context *,std::allocator<Context *> >::operator*
; Function compile flags: /Ogtpy
_TEXT	ENDS
;	COMDAT ??0?$_Vector_val@PAVContext@@V?$allocator@PAVContext@@@std@@@std@@IAE@V?$allocator@PAVContext@@@1@@Z
_TEXT	SEGMENT
__Al$ = 8						; size = 1
??0?$_Vector_val@PAVContext@@V?$allocator@PAVContext@@@std@@@std@@IAE@V?$allocator@PAVContext@@@1@@Z PROC ; std::_Vector_val<Context *,std::allocator<Context *> >::_Vector_val<Context *,std::allocator<Context *> >, COMDAT
; _this$ = esi

; 425  : 		{	// construct allocator from _Al

  00000	6a 04		 push	 4
  00002	e8 00 00 00 00	 call	 ??2@YAPAXI@Z		; operator new
  00007	83 c4 04	 add	 esp, 4
  0000a	85 c0		 test	 eax, eax
  0000c	74 09		 je	 SHORT $LN8@Vector_val@2
  0000e	89 30		 mov	 DWORD PTR [eax], esi
  00010	89 06		 mov	 DWORD PTR [esi], eax

; 426  : 		}

  00012	8b c6		 mov	 eax, esi
  00014	c2 04 00	 ret	 4

; 425  : 		{	// construct allocator from _Al

$LN8@Vector_val@2:
  00017	33 c0		 xor	 eax, eax
  00019	89 06		 mov	 DWORD PTR [esi], eax

; 426  : 		}

  0001b	8b c6		 mov	 eax, esi
  0001d	c2 04 00	 ret	 4
??0?$_Vector_val@PAVContext@@V?$allocator@PAVContext@@@std@@@std@@IAE@V?$allocator@PAVContext@@@1@@Z ENDP ; std::_Vector_val<Context *,std::allocator<Context *> >::_Vector_val<Context *,std::allocator<Context *> >
; Function compile flags: /Ogtpy
_TEXT	ENDS
;	COMDAT ?back@?$vector@PAVContext@@V?$allocator@PAVContext@@@std@@@std@@QAEAAPAVContext@@XZ
_TEXT	SEGMENT
__Tmp$57930 = -8					; size = 8
?back@?$vector@PAVContext@@V?$allocator@PAVContext@@@std@@@std@@QAEAAPAVContext@@XZ PROC ; std::vector<Context *,std::allocator<Context *> >::back, COMDAT
; _this$ = eax

; 799  : 		{	// return last element of mutable sequence

  00000	83 ec 08	 sub	 esp, 8
  00003	53		 push	 ebx
  00004	56		 push	 esi
  00005	8b f0		 mov	 esi, eax
  00007	57		 push	 edi

; 800  : 		return (*(end() - 1));

  00008	8b 7e 10	 mov	 edi, DWORD PTR [esi+16]
  0000b	39 7e 0c	 cmp	 DWORD PTR [esi+12], edi
  0000e	76 05		 jbe	 SHORT $LN8@back
  00010	e8 00 00 00 00	 call	 __invalid_parameter_noinfo
$LN8@back:
  00015	8b 36		 mov	 esi, DWORD PTR [esi]
  00017	8b de		 mov	 ebx, esi
  00019	89 7c 24 10	 mov	 DWORD PTR __Tmp$57930[esp+24], edi
  0001d	85 f6		 test	 esi, esi
  0001f	75 17		 jne	 SHORT $LN59@back
  00021	e8 00 00 00 00	 call	 __invalid_parameter_noinfo
  00026	33 c0		 xor	 eax, eax
$LN35@back:
  00028	8d 4f fc	 lea	 ecx, DWORD PTR [edi-4]
  0002b	3b 48 10	 cmp	 ecx, DWORD PTR [eax+16]
  0002e	77 13		 ja	 SHORT $LN25@back
  00030	85 f6		 test	 esi, esi
  00032	74 08		 je	 SHORT $LN40@back
  00034	8b 36		 mov	 esi, DWORD PTR [esi]
  00036	eb 06		 jmp	 SHORT $LN41@back
$LN59@back:
  00038	8b 06		 mov	 eax, DWORD PTR [esi]
  0003a	eb ec		 jmp	 SHORT $LN35@back
$LN40@back:
  0003c	33 f6		 xor	 esi, esi
$LN41@back:
  0003e	3b 4e 0c	 cmp	 ecx, DWORD PTR [esi+12]
  00041	73 05		 jae	 SHORT $LN26@back
$LN25@back:
  00043	e8 00 00 00 00	 call	 __invalid_parameter_noinfo
$LN26@back:
  00048	8d 77 fc	 lea	 esi, DWORD PTR [edi-4]
  0004b	85 db		 test	 ebx, ebx
  0004d	75 1a		 jne	 SHORT $LN58@back
  0004f	e8 00 00 00 00	 call	 __invalid_parameter_noinfo
  00054	33 c0		 xor	 eax, eax
$LN55@back:
  00056	3b 70 10	 cmp	 esi, DWORD PTR [eax+16]
  00059	72 05		 jb	 SHORT $LN60@back
  0005b	e8 00 00 00 00	 call	 __invalid_parameter_noinfo
$LN60@back:

; 801  : 		}

  00060	5f		 pop	 edi
  00061	8b c6		 mov	 eax, esi
  00063	5e		 pop	 esi
  00064	5b		 pop	 ebx
  00065	83 c4 08	 add	 esp, 8
  00068	c3		 ret	 0
$LN58@back:

; 800  : 		return (*(end() - 1));

  00069	8b 03		 mov	 eax, DWORD PTR [ebx]
  0006b	eb e9		 jmp	 SHORT $LN55@back
?back@?$vector@PAVContext@@V?$allocator@PAVContext@@@std@@@std@@QAEAAPAVContext@@XZ ENDP ; std::vector<Context *,std::allocator<Context *> >::back
; Function compile flags: /Ogtpy
;	COMDAT ??_GContext@@QAEPAXI@Z
_TEXT	SEGMENT
??_GContext@@QAEPAXI@Z PROC				; Context::`scalar deleting destructor', COMDAT
; _this$ = eax
  00000	56		 push	 esi
  00001	8b f0		 mov	 esi, eax
  00003	e8 00 00 00 00	 call	 ??1Context@@QAE@XZ	; Context::~Context
  00008	56		 push	 esi
  00009	e8 00 00 00 00	 call	 ??3@YAXPAX@Z		; operator delete
  0000e	83 c4 04	 add	 esp, 4
  00011	8b c6		 mov	 eax, esi
  00013	5e		 pop	 esi
  00014	c3		 ret	 0
??_GContext@@QAEPAXI@Z ENDP				; Context::`scalar deleting destructor'
;	COMDAT xdata$x
; File c:\program files\microsoft visual studio 9.0\vc\include\stdexcept
xdata$x	SEGMENT
__unwindtable$?_Xlen@?$vector@PAVContext@@V?$allocator@PAVContext@@@std@@@std@@KAXXZ DD 0ffffffffH
	DD	FLAT:__unwindfunclet$?_Xlen@?$vector@PAVContext@@V?$allocator@PAVContext@@@std@@@std@@KAXXZ$0
__ehfuncinfo$?_Xlen@?$vector@PAVContext@@V?$allocator@PAVContext@@@std@@@std@@KAXXZ DD 019930522H
	DD	01H
	DD	FLAT:__unwindtable$?_Xlen@?$vector@PAVContext@@V?$allocator@PAVContext@@@std@@@std@@KAXXZ
	DD	2 DUP(00H)
	DD	2 DUP(00H)
	DD	00H
	DD	01H
; Function compile flags: /Ogtpy
; File c:\program files\microsoft visual studio 9.0\vc\include\vector
xdata$x	ENDS
;	COMDAT ?_Xlen@?$vector@PAVContext@@V?$allocator@PAVContext@@@std@@@std@@KAXXZ
_TEXT	SEGMENT
$T80989 = -80						; size = 28
$T80988 = -52						; size = 40
__$EHRec$ = -12						; size = 12
?_Xlen@?$vector@PAVContext@@V?$allocator@PAVContext@@@std@@@std@@KAXXZ PROC ; std::vector<Context *,std::allocator<Context *> >::_Xlen, COMDAT

; 1257 : 		{	// report a length_error

  00000	6a ff		 push	 -1
  00002	68 00 00 00 00	 push	 __ehhandler$?_Xlen@?$vector@PAVContext@@V?$allocator@PAVContext@@@std@@@std@@KAXXZ
  00007	64 a1 00 00 00
	00		 mov	 eax, DWORD PTR fs:0
  0000d	50		 push	 eax
  0000e	83 ec 44	 sub	 esp, 68			; 00000044H
  00011	a1 00 00 00 00	 mov	 eax, DWORD PTR ___security_cookie
  00016	33 c4		 xor	 eax, esp
  00018	50		 push	 eax
  00019	8d 44 24 48	 lea	 eax, DWORD PTR __$EHRec$[esp+84]
  0001d	64 a3 00 00 00
	00		 mov	 DWORD PTR fs:0, eax

; 1258 : 		_THROW(length_error, "vector<T> too long");

  00023	6a 12		 push	 18			; 00000012H
  00025	68 00 00 00 00	 push	 OFFSET ??_C@_0BD@OLBABOEK@vector?$DMT?$DO?5too?5long?$AA@
  0002a	8d 4c 24 0c	 lea	 ecx, DWORD PTR $T80989[esp+92]
  0002e	c7 44 24 24 0f
	00 00 00	 mov	 DWORD PTR $T80989[esp+116], 15 ; 0000000fH
  00036	c7 44 24 20 00
	00 00 00	 mov	 DWORD PTR $T80989[esp+112], 0
  0003e	c6 44 24 10 00	 mov	 BYTE PTR $T80989[esp+96], 0
  00043	e8 00 00 00 00	 call	 ?assign@?$basic_string@DU?$char_traits@D@std@@V?$allocator@D@2@@std@@QAEAAV12@PBDI@Z ; std::basic_string<char,std::char_traits<char>,std::allocator<char> >::assign
  00048	8d 44 24 04	 lea	 eax, DWORD PTR $T80989[esp+84]
  0004c	50		 push	 eax
  0004d	8d 4c 24 24	 lea	 ecx, DWORD PTR $T80988[esp+88]
  00051	c7 44 24 54 00
	00 00 00	 mov	 DWORD PTR __$EHRec$[esp+96], 0
  00059	e8 00 00 00 00	 call	 ??0logic_error@std@@QAE@ABV?$basic_string@DU?$char_traits@D@std@@V?$allocator@D@2@@1@@Z ; std::logic_error::logic_error
  0005e	68 00 00 00 00	 push	 OFFSET __TI3?AVlength_error@std@@
  00063	8d 4c 24 24	 lea	 ecx, DWORD PTR $T80988[esp+88]
  00067	51		 push	 ecx
  00068	c7 44 24 28 00
	00 00 00	 mov	 DWORD PTR $T80988[esp+92], OFFSET ??_7length_error@std@@6B@
  00070	e8 00 00 00 00	 call	 __CxxThrowException@8
$LN45@Xlen@2:
$LN44@Xlen@2:
  00075	cc		 int	 3
_TEXT	ENDS
;	COMDAT text$x
text$x	SEGMENT
__unwindfunclet$?_Xlen@?$vector@PAVContext@@V?$allocator@PAVContext@@@std@@@std@@KAXXZ$0:
  00000	8d 4d b0	 lea	 ecx, DWORD PTR $T80989[ebp]
  00003	e9 00 00 00 00	 jmp	 ??1?$basic_string@DU?$char_traits@D@std@@V?$allocator@D@2@@std@@QAE@XZ ; std::basic_string<char,std::char_traits<char>,std::allocator<char> >::~basic_string<char,std::char_traits<char>,std::allocator<char> >
__ehhandler$?_Xlen@?$vector@PAVContext@@V?$allocator@PAVContext@@@std@@@std@@KAXXZ:
  00008	8b 54 24 08	 mov	 edx, DWORD PTR [esp+8]
  0000c	8d 42 bc	 lea	 eax, DWORD PTR [edx-68]
  0000f	8b 4a b8	 mov	 ecx, DWORD PTR [edx-72]
  00012	33 c8		 xor	 ecx, eax
  00014	e8 00 00 00 00	 call	 @__security_check_cookie@4
  00019	b8 00 00 00 00	 mov	 eax, OFFSET __ehfuncinfo$?_Xlen@?$vector@PAVContext@@V?$allocator@PAVContext@@@std@@@std@@KAXXZ
  0001e	e9 00 00 00 00	 jmp	 ___CxxFrameHandler3
text$x	ENDS
?_Xlen@?$vector@PAVContext@@V?$allocator@PAVContext@@@std@@@std@@KAXXZ ENDP ; std::vector<Context *,std::allocator<Context *> >::_Xlen
; Function compile flags: /Ogtpy
;	COMDAT ?_Insert_n@?$vector@PAVContext@@V?$allocator@PAVContext@@@std@@@std@@IAEXV?$_Vector_const_iterator@PAVContext@@V?$allocator@PAVContext@@@std@@@2@IABQAVContext@@@Z
_TEXT	SEGMENT
_this$ = 8						; size = 4
__Tmp$39375 = 12					; size = 4
__Val$ = 12						; size = 4
__Where$ = 16						; size = 8
?_Insert_n@?$vector@PAVContext@@V?$allocator@PAVContext@@@std@@@std@@IAEXV?$_Vector_const_iterator@PAVContext@@V?$allocator@PAVContext@@@std@@@2@IABQAVContext@@@Z PROC ; std::vector<Context *,std::allocator<Context *> >::_Insert_n, COMDAT

; 1158 : 		{	// insert _Count * _Val at _Where

  00000	51		 push	 ecx
  00001	53		 push	 ebx
  00002	8b 5c 24 0c	 mov	 ebx, DWORD PTR _this$[esp+4]

; 1159 : 
; 1160 :  #if _HAS_ITERATOR_DEBUGGING
; 1161 : 		if (_Where._Mycont != this
; 1162 : 			|| _Where._Myptr < _Myfirst || _Mylast < _Where._Myptr)
; 1163 : 			_DEBUG_ERROR("vector insert iterator outside range");
; 1164 :  #endif /* _HAS_ITERATOR_DEBUGGING */
; 1165 : 
; 1166 : 		size_type _Capacity = capacity();

  00006	8b 4b 0c	 mov	 ecx, DWORD PTR [ebx+12]
  00009	55		 push	 ebp
  0000a	56		 push	 esi
  0000b	57		 push	 edi
  0000c	85 c9		 test	 ecx, ecx
  0000e	75 04		 jne	 SHORT $LN27@Insert_n@2
  00010	33 ed		 xor	 ebp, ebp
  00012	eb 08		 jmp	 SHORT $LN199@Insert_n@2
$LN27@Insert_n@2:
  00014	8b 6b 14	 mov	 ebp, DWORD PTR [ebx+20]
  00017	2b e9		 sub	 ebp, ecx
  00019	c1 fd 02	 sar	 ebp, 2
$LN199@Insert_n@2:

; 1167 : 
; 1168 : 		if (_Count == 0)
; 1169 : 			;
; 1170 : 		else if (max_size() - size() < _Count)

  0001c	8b 73 10	 mov	 esi, DWORD PTR [ebx+16]
  0001f	8b c6		 mov	 eax, esi
  00021	2b c1		 sub	 eax, ecx
  00023	c1 f8 02	 sar	 eax, 2
  00026	b9 ff ff ff 3f	 mov	 ecx, 1073741823		; 3fffffffH
  0002b	2b c8		 sub	 ecx, eax
  0002d	83 f9 01	 cmp	 ecx, 1
  00030	73 05		 jae	 SHORT $LN10@Insert_n@2

; 1171 : 			_Xlen();	// result too long

  00032	e8 00 00 00 00	 call	 ?_Xlen@?$vector@PAVContext@@V?$allocator@PAVContext@@@std@@@std@@KAXXZ ; std::vector<Context *,std::allocator<Context *> >::_Xlen
$LN201@Insert_n@2:
$LN10@Insert_n@2:

; 1172 : 		else if (_Capacity < size() + _Count)

  00037	40		 inc	 eax
  00038	3b e8		 cmp	 ebp, eax
  0003a	0f 83 a3 00 00
	00		 jae	 $LN8@Insert_n@2

; 1173 : 			{	// not enough room, reallocate
; 1174 : 			_Capacity = max_size() - _Capacity / 2 < _Capacity
; 1175 : 				? 0 : _Capacity + _Capacity / 2;	// try to grow by 50%

  00040	8b cd		 mov	 ecx, ebp
  00042	d1 e9		 shr	 ecx, 1
  00044	ba ff ff ff 3f	 mov	 edx, 1073741823		; 3fffffffH
  00049	2b d1		 sub	 edx, ecx
  0004b	3b d5		 cmp	 edx, ebp
  0004d	73 04		 jae	 SHORT $LN15@Insert_n@2
  0004f	33 ed		 xor	 ebp, ebp
  00051	eb 02		 jmp	 SHORT $LN16@Insert_n@2
$LN15@Insert_n@2:
  00053	03 e9		 add	 ebp, ecx
$LN16@Insert_n@2:

; 1176 : 			if (_Capacity < size() + _Count)

  00055	3b e8		 cmp	 ebp, eax

; 1177 : 				_Capacity = size() + _Count;

  00057	0f 42 e8	 cmovb	 ebp, eax

; 1178 : 			pointer _Newvec = this->_Alval.allocate(_Capacity);

  0005a	8b cd		 mov	 ecx, ebp
  0005c	e8 00 00 00 00	 call	 ?allocate@?$allocator@PAVContext@@@std@@QAEPAPAVContext@@I@Z ; std::allocator<Context *>::allocate

; 1179 : 			pointer _Ptr = _Newvec;
; 1180 : 
; 1181 : 			_TRY_BEGIN
; 1182 : 			_Ptr = _Umove(_Myfirst, _VEC_ITER_BASE(_Where),
; 1183 : 				_Newvec);	// copy prefix

  00061	8b 4b 0c	 mov	 ecx, DWORD PTR [ebx+12]
  00064	8b f0		 mov	 esi, eax
  00066	8b 44 24 24	 mov	 eax, DWORD PTR __Where$[esp+20]
  0006a	2b c1		 sub	 eax, ecx
  0006c	c1 f8 02	 sar	 eax, 2
  0006f	8d 3c 85 00 00
	00 00		 lea	 edi, DWORD PTR [eax*4]
  00076	85 c0		 test	 eax, eax
  00078	76 0c		 jbe	 SHORT $LN77@Insert_n@2
  0007a	57		 push	 edi
  0007b	51		 push	 ecx
  0007c	57		 push	 edi
  0007d	56		 push	 esi
  0007e	e8 00 00 00 00	 call	 _memmove_s
  00083	83 c4 10	 add	 esp, 16			; 00000010H
$LN77@Insert_n@2:

; 1184 : 			_Ptr = _Ufill(_Ptr, _Count, _Val);	// add new stuff

  00086	8b 44 24 1c	 mov	 eax, DWORD PTR __Val$[esp+16]
  0008a	8b 08		 mov	 ecx, DWORD PTR [eax]
  0008c	89 0c 37	 mov	 DWORD PTR [edi+esi], ecx

; 1185 : 			_Umove(_VEC_ITER_BASE(_Where), _Mylast, _Ptr);	// copy suffix

  0008f	8b 43 10	 mov	 eax, DWORD PTR [ebx+16]
  00092	8b 4c 24 24	 mov	 ecx, DWORD PTR __Where$[esp+20]
  00096	2b c1		 sub	 eax, ecx
  00098	c1 f8 02	 sar	 eax, 2
  0009b	85 c0		 test	 eax, eax
  0009d	76 14		 jbe	 SHORT $LN131@Insert_n@2
  0009f	03 c0		 add	 eax, eax
  000a1	03 c0		 add	 eax, eax
  000a3	50		 push	 eax
  000a4	51		 push	 ecx
  000a5	50		 push	 eax
  000a6	8d 54 37 04	 lea	 edx, DWORD PTR [edi+esi+4]
  000aa	52		 push	 edx
  000ab	e8 00 00 00 00	 call	 _memmove_s
  000b0	83 c4 10	 add	 esp, 16			; 00000010H
$LN131@Insert_n@2:

; 1186 : 			_CATCH_ALL
; 1187 : 			_Destroy(_Newvec, _Ptr);
; 1188 : 			this->_Alval.deallocate(_Newvec, _Capacity);
; 1189 : 			_RERAISE;
; 1190 : 			_CATCH_END
; 1191 : 
; 1192 : 			_Count += size();

  000b3	8b 43 0c	 mov	 eax, DWORD PTR [ebx+12]
  000b6	8b 7b 10	 mov	 edi, DWORD PTR [ebx+16]
  000b9	2b f8		 sub	 edi, eax
  000bb	c1 ff 02	 sar	 edi, 2
  000be	47		 inc	 edi

; 1193 : 			if (_Myfirst != 0)

  000bf	85 c0		 test	 eax, eax
  000c1	74 09		 je	 SHORT $LN138@Insert_n@2

; 1194 : 				{	// destroy and deallocate old array
; 1195 : 				_Destroy(_Myfirst, _Mylast);
; 1196 : 				this->_Alval.deallocate(_Myfirst, _Myend - _Myfirst);

  000c3	50		 push	 eax
  000c4	e8 00 00 00 00	 call	 ??3@YAXPAX@Z		; operator delete
  000c9	83 c4 04	 add	 esp, 4
$LN138@Insert_n@2:

; 1197 : 				}
; 1198 : 
; 1199 :  #if _HAS_ITERATOR_DEBUGGING
; 1200 : 			this->_Orphan_all();
; 1201 :  #endif /* _HAS_ITERATOR_DEBUGGING */
; 1202 : 
; 1203 : 			_Myend = _Newvec + _Capacity;

  000cc	8d 04 ae	 lea	 eax, DWORD PTR [esi+ebp*4]

; 1204 : 			_Mylast = _Newvec + _Count;

  000cf	8d 0c be	 lea	 ecx, DWORD PTR [esi+edi*4]
  000d2	89 43 14	 mov	 DWORD PTR [ebx+20], eax
  000d5	89 4b 10	 mov	 DWORD PTR [ebx+16], ecx

; 1205 : 			_Myfirst = _Newvec;

  000d8	89 73 0c	 mov	 DWORD PTR [ebx+12], esi

; 1247 : 			}
; 1248 : 		}

  000db	5f		 pop	 edi
  000dc	5e		 pop	 esi
  000dd	5d		 pop	 ebp
  000de	5b		 pop	 ebx
  000df	59		 pop	 ecx
  000e0	c2 10 00	 ret	 16			; 00000010H
$LN8@Insert_n@2:

; 1206 : 			}
; 1207 : 		else if ((size_type)(_Mylast - _VEC_ITER_BASE(_Where)) < _Count)

  000e3	8b 4c 24 24	 mov	 ecx, DWORD PTR __Where$[esp+20]
  000e7	8b d6		 mov	 edx, esi
  000e9	2b d1		 sub	 edx, ecx
  000eb	c1 fa 02	 sar	 edx, 2
  000ee	83 fa 01	 cmp	 edx, 1
  000f1	73 55		 jae	 SHORT $LN3@Insert_n@2

; 1208 : 			{	// new stuff spills off end
; 1209 : 			_Ty _Tmp = _Val;	// in case _Val is in sequence

  000f3	8b 44 24 1c	 mov	 eax, DWORD PTR __Val$[esp+16]
  000f7	8b 28		 mov	 ebp, DWORD PTR [eax]

; 1210 : 
; 1211 : 			_Umove(_VEC_ITER_BASE(_Where), _Mylast,
; 1212 : 				_VEC_ITER_BASE(_Where) + _Count);	// copy suffix

  000f9	8d 51 04	 lea	 edx, DWORD PTR [ecx+4]
  000fc	8b c6		 mov	 eax, esi
  000fe	8b f9		 mov	 edi, ecx
  00100	89 6c 24 1c	 mov	 DWORD PTR __Tmp$39375[esp+16], ebp
  00104	e8 00 00 00 00	 call	 ??$_Umove@PAPAVContext@@@?$vector@PAVContext@@V?$allocator@PAVContext@@@std@@@std@@IAEPAPAVContext@@PAPAV2@00@Z ; std::vector<Context *,std::allocator<Context *> >::_Umove<Context * *>

; 1213 : 
; 1214 : 			_TRY_BEGIN
; 1215 : 			_Ufill(_Mylast, _Count - (_Mylast - _VEC_ITER_BASE(_Where)),
; 1216 : 				_Tmp);	// insert new stuff off end

  00109	8b 7b 10	 mov	 edi, DWORD PTR [ebx+16]
  0010c	8b cf		 mov	 ecx, edi
  0010e	2b 4c 24 24	 sub	 ecx, DWORD PTR __Where$[esp+20]
  00112	be 01 00 00 00	 mov	 esi, 1
  00117	c1 f9 02	 sar	 ecx, 2
  0011a	2b f1		 sub	 esi, ecx
  0011c	8d 54 24 1c	 lea	 edx, DWORD PTR __Tmp$39375[esp+16]
  00120	e8 00 00 00 00	 call	 ?_Ufill@?$vector@PAVContext@@V?$allocator@PAVContext@@@std@@@std@@IAEPAPAVContext@@PAPAV3@IABQAV3@@Z ; std::vector<Context *,std::allocator<Context *> >::_Ufill

; 1217 : 			_CATCH_ALL
; 1218 : 			_Destroy(_VEC_ITER_BASE(_Where) + _Count, _Mylast + _Count);
; 1219 : 			_RERAISE;
; 1220 : 			_CATCH_END
; 1221 : 
; 1222 : 			_Mylast += _Count;

  00125	83 43 10 04	 add	 DWORD PTR [ebx+16], 4
  00129	8b 5b 10	 mov	 ebx, DWORD PTR [ebx+16]

; 1223 : 
; 1224 :  #if _HAS_ITERATOR_DEBUGGING
; 1225 : 			_Orphan_range(_Where._Myptr, _Mylast);
; 1226 :  #endif /* _HAS_ITERATOR_DEBUGGING */
; 1227 : 
; 1228 : 			std::fill(_VEC_ITER_BASE(_Where), _Mylast - _Count,
; 1229 : 				_Tmp);	// insert up to old end

  0012c	8b 44 24 24	 mov	 eax, DWORD PTR __Where$[esp+20]
  00130	8d 4b fc	 lea	 ecx, DWORD PTR [ebx-4]
  00133	3b c1		 cmp	 eax, ecx
  00135	74 62		 je	 SHORT $LN186@Insert_n@2
$LL152@Insert_n@2:
  00137	89 28		 mov	 DWORD PTR [eax], ebp
  00139	83 c0 04	 add	 eax, 4
  0013c	3b c1		 cmp	 eax, ecx
  0013e	75 f7		 jne	 SHORT $LL152@Insert_n@2

; 1247 : 			}
; 1248 : 		}

  00140	5f		 pop	 edi
  00141	5e		 pop	 esi
  00142	5d		 pop	 ebp
  00143	5b		 pop	 ebx
  00144	59		 pop	 ecx
  00145	c2 10 00	 ret	 16			; 00000010H
$LN3@Insert_n@2:

; 1230 : 			}
; 1231 : 		else
; 1232 : 			{	// new stuff can all be assigned
; 1233 : 			_Ty _Tmp = _Val;	// in case _Val is in sequence

  00148	8b 54 24 1c	 mov	 edx, DWORD PTR __Val$[esp+16]
  0014c	8b 2a		 mov	 ebp, DWORD PTR [edx]

; 1234 : 
; 1235 : 			pointer _Oldend = _Mylast;
; 1236 : 			_Mylast = _Umove(_Oldend - _Count, _Oldend,
; 1237 : 				_Mylast);	// copy suffix

  0014e	8d 7e fc	 lea	 edi, DWORD PTR [esi-4]
  00151	8b d6		 mov	 edx, esi
  00153	8b c6		 mov	 eax, esi
  00155	e8 00 00 00 00	 call	 ??$_Umove@PAPAVContext@@@?$vector@PAVContext@@V?$allocator@PAVContext@@@std@@@std@@IAEPAPAVContext@@PAPAV2@00@Z ; std::vector<Context *,std::allocator<Context *> >::_Umove<Context * *>
  0015a	89 43 10	 mov	 DWORD PTR [ebx+16], eax

; 1238 : 
; 1239 :  #if _HAS_ITERATOR_DEBUGGING
; 1240 : 			_Orphan_range(_Where._Myptr, _Mylast);
; 1241 :  #endif /* _HAS_ITERATOR_DEBUGGING */
; 1242 : 
; 1243 : 			_STDEXT _Unchecked_move_backward(_VEC_ITER_BASE(_Where), _Oldend - _Count,
; 1244 : 				_Oldend);	// copy hole

  0015d	8b 44 24 24	 mov	 eax, DWORD PTR __Where$[esp+20]
  00161	2b f8		 sub	 edi, eax
  00163	c1 ff 02	 sar	 edi, 2
  00166	85 ff		 test	 edi, edi
  00168	7e 19		 jle	 SHORT $LN173@Insert_n@2
  0016a	8d 0c bd 00 00
	00 00		 lea	 ecx, DWORD PTR [edi*4]
  00171	51		 push	 ecx
  00172	50		 push	 eax
  00173	51		 push	 ecx
  00174	2b f1		 sub	 esi, ecx
  00176	56		 push	 esi
  00177	e8 00 00 00 00	 call	 _memmove_s
  0017c	8b 44 24 34	 mov	 eax, DWORD PTR __Where$[esp+36]
  00180	83 c4 10	 add	 esp, 16			; 00000010H
$LN173@Insert_n@2:

; 1245 : 			std::fill(_VEC_ITER_BASE(_Where), _VEC_ITER_BASE(_Where) + _Count,
; 1246 : 				_Tmp);	// insert into hole

  00183	8d 48 04	 lea	 ecx, DWORD PTR [eax+4]
  00186	3b c1		 cmp	 eax, ecx
  00188	74 0f		 je	 SHORT $LN186@Insert_n@2
  0018a	8d 9b 00 00 00
	00		 npad	 6
$LL188@Insert_n@2:
  00190	89 28		 mov	 DWORD PTR [eax], ebp
  00192	83 c0 04	 add	 eax, 4
  00195	3b c1		 cmp	 eax, ecx
  00197	75 f7		 jne	 SHORT $LL188@Insert_n@2
$LN186@Insert_n@2:

; 1247 : 			}
; 1248 : 		}

  00199	5f		 pop	 edi
  0019a	5e		 pop	 esi
  0019b	5d		 pop	 ebp
  0019c	5b		 pop	 ebx
  0019d	59		 pop	 ecx
  0019e	c2 10 00	 ret	 16			; 00000010H
$LN200@Insert_n@2:
?_Insert_n@?$vector@PAVContext@@V?$allocator@PAVContext@@@std@@@std@@IAEXV?$_Vector_const_iterator@PAVContext@@V?$allocator@PAVContext@@@std@@@2@IABQAVContext@@@Z ENDP ; std::vector<Context *,std::allocator<Context *> >::_Insert_n
; Function compile flags: /Ogtpy
_TEXT	ENDS
;	COMDAT ?_Buy@?$vector@PAVContext@@V?$allocator@PAVContext@@@std@@@std@@IAE_NI@Z
_TEXT	SEGMENT
?_Buy@?$vector@PAVContext@@V?$allocator@PAVContext@@@std@@@std@@IAE_NI@Z PROC ; std::vector<Context *,std::allocator<Context *> >::_Buy, COMDAT
; _this$ = esi
; __Capacity$ = edi

; 1107 : 		{	// allocate array with _Capacity elements

  00000	51		 push	 ecx

; 1108 : 		_Myfirst = 0, _Mylast = 0, _Myend = 0;
; 1109 : 		if (_Capacity == 0)
; 1110 : 			return (false);
; 1111 : 		else if (max_size() < _Capacity)

  00001	81 ff ff ff ff
	3f		 cmp	 edi, 1073741823		; 3fffffffH
  00007	76 05		 jbe	 SHORT $LN2@Buy@2

; 1112 : 			_Xlen();	// result too long

  00009	e8 00 00 00 00	 call	 ?_Xlen@?$vector@PAVContext@@V?$allocator@PAVContext@@@std@@@std@@KAXXZ ; std::vector<Context *,std::allocator<Context *> >::_Xlen
$LN18@Buy@2:
$LN2@Buy@2:

; 1113 : 		else
; 1114 : 			{	// nonempty array, allocate storage
; 1115 : 			_Myfirst = this->_Alval.allocate(_Capacity);

  0000e	8b cf		 mov	 ecx, edi
  00010	e8 00 00 00 00	 call	 ?allocate@?$allocator@PAVContext@@@std@@QAEPAPAVContext@@I@Z ; std::allocator<Context *>::allocate
  00015	89 46 0c	 mov	 DWORD PTR [esi+12], eax

; 1116 : 			_Mylast = _Myfirst;

  00018	89 46 10	 mov	 DWORD PTR [esi+16], eax

; 1117 : 			_Myend = _Myfirst + _Capacity;

  0001b	8d 04 b8	 lea	 eax, DWORD PTR [eax+edi*4]
  0001e	89 46 14	 mov	 DWORD PTR [esi+20], eax

; 1118 : 			}
; 1119 : 		return (true);

  00021	b0 01		 mov	 al, 1
  00023	59		 pop	 ecx

; 1120 : 		}

  00024	c3		 ret	 0
$LN17@Buy@2:
?_Buy@?$vector@PAVContext@@V?$allocator@PAVContext@@@std@@@std@@IAE_NI@Z ENDP ; std::vector<Context *,std::allocator<Context *> >::_Buy
; Function compile flags: /Ogtpy
_TEXT	ENDS
;	COMDAT ?insert@?$vector@PAVContext@@V?$allocator@PAVContext@@@std@@@std@@QAE?AV?$_Vector_iterator@PAVContext@@V?$allocator@PAVContext@@@std@@@2@V?$_Vector_const_iterator@PAVContext@@V?$allocator@PAVContext@@@std@@@2@ABQAVContext@@@Z
_TEXT	SEGMENT
__Tmp$82268 = -8					; size = 8
___$ReturnUdt$ = 8					; size = 4
__Val$ = 12						; size = 4
__Where$ = 16						; size = 8
?insert@?$vector@PAVContext@@V?$allocator@PAVContext@@@std@@@std@@QAE?AV?$_Vector_iterator@PAVContext@@V?$allocator@PAVContext@@@std@@@2@V?$_Vector_const_iterator@PAVContext@@V?$allocator@PAVContext@@@std@@@2@ABQAVContext@@@Z PROC ; std::vector<Context *,std::allocator<Context *> >::insert, COMDAT
; _this$ = eax

; 875  : 		{	// insert _Val at _Where

  00000	83 ec 0c	 sub	 esp, 12			; 0000000cH
  00003	53		 push	 ebx
  00004	55		 push	 ebp
  00005	56		 push	 esi
  00006	8b f0		 mov	 esi, eax

; 876  : 		size_type _Off = size() == 0 ? 0 : _Where - begin();

  00008	8b 46 10	 mov	 eax, DWORD PTR [esi+16]
  0000b	57		 push	 edi
  0000c	8b 7e 0c	 mov	 edi, DWORD PTR [esi+12]
  0000f	8b c8		 mov	 ecx, eax
  00011	2b cf		 sub	 ecx, edi
  00013	f7 c1 fc ff ff
	ff		 test	 ecx, -4			; fffffffcH
  00019	75 04		 jne	 SHORT $LN3@insert@3
  0001b	33 db		 xor	 ebx, ebx
  0001d	eb 25		 jmp	 SHORT $LN4@insert@3
$LN3@insert@3:
  0001f	3b f8		 cmp	 edi, eax
  00021	76 05		 jbe	 SHORT $LN12@insert@3
  00023	e8 00 00 00 00	 call	 __invalid_parameter_noinfo
$LN12@insert@3:
  00028	8b 4c 24 28	 mov	 ecx, DWORD PTR __Where$[esp+24]
  0002c	8b 06		 mov	 eax, DWORD PTR [esi]
  0002e	85 c9		 test	 ecx, ecx
  00030	74 04		 je	 SHORT $LN23@insert@3
  00032	3b c8		 cmp	 ecx, eax
  00034	74 05		 je	 SHORT $LN24@insert@3
$LN23@insert@3:
  00036	e8 00 00 00 00	 call	 __invalid_parameter_noinfo
$LN24@insert@3:
  0003b	8b 5c 24 2c	 mov	 ebx, DWORD PTR __Where$[esp+28]
  0003f	2b df		 sub	 ebx, edi
  00041	c1 fb 02	 sar	 ebx, 2
$LN4@insert@3:

; 877  : 		_Insert_n(_Where, (size_type)1, _Val);

  00044	8b 54 24 2c	 mov	 edx, DWORD PTR __Where$[esp+28]
  00048	8b 44 24 28	 mov	 eax, DWORD PTR __Where$[esp+24]
  0004c	8b 4c 24 24	 mov	 ecx, DWORD PTR __Val$[esp+24]
  00050	52		 push	 edx
  00051	50		 push	 eax
  00052	51		 push	 ecx
  00053	56		 push	 esi
  00054	e8 00 00 00 00	 call	 ?_Insert_n@?$vector@PAVContext@@V?$allocator@PAVContext@@@std@@@std@@IAEXV?$_Vector_const_iterator@PAVContext@@V?$allocator@PAVContext@@@std@@@2@IABQAVContext@@@Z ; std::vector<Context *,std::allocator<Context *> >::_Insert_n

; 878  : 		return (begin() + _Off);

  00059	8b 7e 0c	 mov	 edi, DWORD PTR [esi+12]
  0005c	3b 7e 10	 cmp	 edi, DWORD PTR [esi+16]
  0005f	76 05		 jbe	 SHORT $LN36@insert@3
  00061	e8 00 00 00 00	 call	 __invalid_parameter_noinfo
$LN36@insert@3:
  00066	8b 36		 mov	 esi, DWORD PTR [esi]
  00068	8b ee		 mov	 ebp, esi
  0006a	89 7c 24 18	 mov	 DWORD PTR __Tmp$82268[esp+32], edi
  0006e	85 f6		 test	 esi, esi
  00070	75 17		 jne	 SHORT $LN70@insert@3
  00072	e8 00 00 00 00	 call	 __invalid_parameter_noinfo
  00077	33 c0		 xor	 eax, eax
$LN61@insert@3:
  00079	8d 3c 9f	 lea	 edi, DWORD PTR [edi+ebx*4]
  0007c	3b 78 10	 cmp	 edi, DWORD PTR [eax+16]
  0007f	77 13		 ja	 SHORT $LN51@insert@3
  00081	85 f6		 test	 esi, esi
  00083	74 08		 je	 SHORT $LN66@insert@3
  00085	8b 36		 mov	 esi, DWORD PTR [esi]
  00087	eb 06		 jmp	 SHORT $LN67@insert@3
$LN70@insert@3:
  00089	8b 06		 mov	 eax, DWORD PTR [esi]
  0008b	eb ec		 jmp	 SHORT $LN61@insert@3
$LN66@insert@3:
  0008d	33 f6		 xor	 esi, esi
$LN67@insert@3:
  0008f	3b 7e 0c	 cmp	 edi, DWORD PTR [esi+12]
  00092	73 05		 jae	 SHORT $LN52@insert@3
$LN51@insert@3:
  00094	e8 00 00 00 00	 call	 __invalid_parameter_noinfo
$LN52@insert@3:
  00099	8b 44 24 20	 mov	 eax, DWORD PTR ___$ReturnUdt$[esp+24]
  0009d	89 78 04	 mov	 DWORD PTR [eax+4], edi

; 879  : 		}

  000a0	5f		 pop	 edi
  000a1	5e		 pop	 esi
  000a2	89 28		 mov	 DWORD PTR [eax], ebp
  000a4	5d		 pop	 ebp
  000a5	5b		 pop	 ebx
  000a6	83 c4 0c	 add	 esp, 12			; 0000000cH
  000a9	c2 10 00	 ret	 16			; 00000010H
?insert@?$vector@PAVContext@@V?$allocator@PAVContext@@@std@@@std@@QAE?AV?$_Vector_iterator@PAVContext@@V?$allocator@PAVContext@@@std@@@2@V?$_Vector_const_iterator@PAVContext@@V?$allocator@PAVContext@@@std@@@2@ABQAVContext@@@Z ENDP ; std::vector<Context *,std::allocator<Context *> >::insert
; Function compile flags: /Ogtpy
_TEXT	ENDS
;	COMDAT ?push_back@?$vector@PAVContext@@V?$allocator@PAVContext@@@std@@@std@@QAEXABQAVContext@@@Z
_TEXT	SEGMENT
$T82275 = -8						; size = 8
__Val$ = 8						; size = 4
?push_back@?$vector@PAVContext@@V?$allocator@PAVContext@@@std@@@std@@QAEXABQAVContext@@@Z PROC ; std::vector<Context *,std::allocator<Context *> >::push_back, COMDAT
; _this$ = edi

; 810  : 		if (size() < capacity())

  00000	8b 4f 0c	 mov	 ecx, DWORD PTR [edi+12]
  00003	83 ec 08	 sub	 esp, 8
  00006	53		 push	 ebx
  00007	8b 5c 24 10	 mov	 ebx, DWORD PTR __Val$[esp+8]
  0000b	56		 push	 esi
  0000c	85 c9		 test	 ecx, ecx
  0000e	75 04		 jne	 SHORT $LN9@push_back@2
  00010	33 c0		 xor	 eax, eax
  00012	eb 08		 jmp	 SHORT $LN10@push_back@2
$LN9@push_back@2:
  00014	8b 47 14	 mov	 eax, DWORD PTR [edi+20]
  00017	2b c1		 sub	 eax, ecx
  00019	c1 f8 02	 sar	 eax, 2
$LN10@push_back@2:
  0001c	8b 77 10	 mov	 esi, DWORD PTR [edi+16]
  0001f	8b d6		 mov	 edx, esi
  00021	2b d1		 sub	 edx, ecx
  00023	c1 fa 02	 sar	 edx, 2
  00026	3b d0		 cmp	 edx, eax
  00028	73 12		 jae	 SHORT $LN2@push_back@2

; 811  : 
; 812  :  #if _HAS_ITERATOR_DEBUGGING
; 813  : 			{ // room at end, construct it there
; 814  : 			_Orphan_range(_Mylast, _Mylast);
; 815  : 			_Mylast = _Ufill(_Mylast, 1, _Val);
; 816  : 			}
; 817  : 
; 818  :  #else /* _HAS_ITERATOR_DEBUGGING */
; 819  : 			_Mylast = _Ufill(_Mylast, 1, _Val);

  0002a	8b 03		 mov	 eax, DWORD PTR [ebx]
  0002c	89 06		 mov	 DWORD PTR [esi], eax
  0002e	83 c6 04	 add	 esi, 4
  00031	89 77 10	 mov	 DWORD PTR [edi+16], esi

; 824  : 		}

  00034	5e		 pop	 esi
  00035	5b		 pop	 ebx
  00036	83 c4 08	 add	 esp, 8
  00039	c2 04 00	 ret	 4
$LN2@push_back@2:

; 820  :  #endif /* _HAS_ITERATOR_DEBUGGING */
; 821  : 
; 822  : 		else
; 823  : 			insert(end(), _Val);

  0003c	3b ce		 cmp	 ecx, esi
  0003e	76 05		 jbe	 SHORT $LN39@push_back@2
  00040	e8 00 00 00 00	 call	 __invalid_parameter_noinfo
$LN39@push_back@2:
  00045	8b 07		 mov	 eax, DWORD PTR [edi]
  00047	56		 push	 esi
  00048	50		 push	 eax
  00049	53		 push	 ebx
  0004a	8d 4c 24 14	 lea	 ecx, DWORD PTR $T82275[esp+28]
  0004e	51		 push	 ecx
  0004f	8b c7		 mov	 eax, edi
  00051	e8 00 00 00 00	 call	 ?insert@?$vector@PAVContext@@V?$allocator@PAVContext@@@std@@@std@@QAE?AV?$_Vector_iterator@PAVContext@@V?$allocator@PAVContext@@@std@@@2@V?$_Vector_const_iterator@PAVContext@@V?$allocator@PAVContext@@@std@@@2@ABQAVContext@@@Z ; std::vector<Context *,std::allocator<Context *> >::insert

; 824  : 		}

  00056	5e		 pop	 esi
  00057	5b		 pop	 ebx
  00058	83 c4 08	 add	 esp, 8
  0005b	c2 04 00	 ret	 4
?push_back@?$vector@PAVContext@@V?$allocator@PAVContext@@@std@@@std@@QAEXABQAVContext@@@Z ENDP ; std::vector<Context *,std::allocator<Context *> >::push_back
_TEXT	ENDS
;	COMDAT xdata$x
; File c:\program files\microsoft visual studio 9.0\vc\include\exception
xdata$x	SEGMENT
__unwindtable$??0?$vector@PAVContext@@V?$allocator@PAVContext@@@std@@@std@@QAE@XZ DD 0ffffffffH
	DD	FLAT:__unwindfunclet$??0?$vector@PAVContext@@V?$allocator@PAVContext@@@std@@@std@@QAE@XZ$0
__ehfuncinfo$??0?$vector@PAVContext@@V?$allocator@PAVContext@@@std@@@std@@QAE@XZ DD 019930522H
	DD	01H
	DD	FLAT:__unwindtable$??0?$vector@PAVContext@@V?$allocator@PAVContext@@@std@@@std@@QAE@XZ
	DD	2 DUP(00H)
	DD	2 DUP(00H)
	DD	00H
	DD	01H
; Function compile flags: /Ogtpy
; File c:\program files\microsoft visual studio 9.0\vc\include\vector
xdata$x	ENDS
;	COMDAT ??0?$vector@PAVContext@@V?$allocator@PAVContext@@@std@@@std@@QAE@XZ
_TEXT	SEGMENT
__$EHRec$ = -12						; size = 12
_this$ = 8						; size = 4
??0?$vector@PAVContext@@V?$allocator@PAVContext@@@std@@@std@@QAE@XZ PROC ; std::vector<Context *,std::allocator<Context *> >::vector<Context *,std::allocator<Context *> >, COMDAT

; 470  : 		{	// construct empty vector

  00000	6a ff		 push	 -1
  00002	68 00 00 00 00	 push	 __ehhandler$??0?$vector@PAVContext@@V?$allocator@PAVContext@@@std@@@std@@QAE@XZ
  00007	64 a1 00 00 00
	00		 mov	 eax, DWORD PTR fs:0
  0000d	50		 push	 eax
  0000e	51		 push	 ecx
  0000f	56		 push	 esi
  00010	a1 00 00 00 00	 mov	 eax, DWORD PTR ___security_cookie
  00015	33 c4		 xor	 eax, esp
  00017	50		 push	 eax
  00018	8d 44 24 0c	 lea	 eax, DWORD PTR __$EHRec$[esp+24]
  0001c	64 a3 00 00 00
	00		 mov	 DWORD PTR fs:0, eax
  00022	8b 74 24 1c	 mov	 esi, DWORD PTR _this$[esp+20]
  00026	6a 04		 push	 4
  00028	e8 00 00 00 00	 call	 ??2@YAPAXI@Z		; operator new
  0002d	33 c9		 xor	 ecx, ecx
  0002f	83 c4 04	 add	 esp, 4
  00032	3b c1		 cmp	 eax, ecx
  00034	74 04		 je	 SHORT $LN13@vector@7
  00036	89 30		 mov	 DWORD PTR [eax], esi
  00038	eb 02		 jmp	 SHORT $LN14@vector@7
$LN13@vector@7:
  0003a	33 c0		 xor	 eax, eax
$LN14@vector@7:
  0003c	89 06		 mov	 DWORD PTR [esi], eax

; 471  : 		_Buy(0);

  0003e	89 4e 0c	 mov	 DWORD PTR [esi+12], ecx
  00041	89 4e 10	 mov	 DWORD PTR [esi+16], ecx
  00044	89 4e 14	 mov	 DWORD PTR [esi+20], ecx

; 472  : 		}

  00047	8b c6		 mov	 eax, esi
  00049	8b 4c 24 0c	 mov	 ecx, DWORD PTR __$EHRec$[esp+24]
  0004d	64 89 0d 00 00
	00 00		 mov	 DWORD PTR fs:0, ecx
  00054	59		 pop	 ecx
  00055	5e		 pop	 esi
  00056	83 c4 10	 add	 esp, 16			; 00000010H
  00059	c2 04 00	 ret	 4
_TEXT	ENDS
;	COMDAT text$x
text$x	SEGMENT
__unwindfunclet$??0?$vector@PAVContext@@V?$allocator@PAVContext@@@std@@@std@@QAE@XZ$0:
  00000	8b 45 04	 mov	 eax, DWORD PTR _this$[ebp-4]
  00003	e9 00 00 00 00	 jmp	 ??1?$_Vector_val@PAVContext@@V?$allocator@PAVContext@@@std@@@std@@QAE@XZ
__ehhandler$??0?$vector@PAVContext@@V?$allocator@PAVContext@@@std@@@std@@QAE@XZ:
  00008	8b 54 24 08	 mov	 edx, DWORD PTR [esp+8]
  0000c	8d 42 f8	 lea	 eax, DWORD PTR [edx-8]
  0000f	8b 4a f4	 mov	 ecx, DWORD PTR [edx-12]
  00012	33 c8		 xor	 ecx, eax
  00014	e8 00 00 00 00	 call	 @__security_check_cookie@4
  00019	b8 00 00 00 00	 mov	 eax, OFFSET __ehfuncinfo$??0?$vector@PAVContext@@V?$allocator@PAVContext@@@std@@@std@@QAE@XZ
  0001e	e9 00 00 00 00	 jmp	 ___CxxFrameHandler3
text$x	ENDS
??0?$vector@PAVContext@@V?$allocator@PAVContext@@@std@@@std@@QAE@XZ ENDP ; std::vector<Context *,std::allocator<Context *> >::vector<Context *,std::allocator<Context *> >
PUBLIC	??1RecipientInfos@@QAE@XZ			; RecipientInfos::~RecipientInfos
; Function compile flags: /Ogtpy
; File i:\nj\my project\cms\cms\asn1\pkcs7\recipientinfos.cpp
;	COMDAT ??1RecipientInfos@@QAE@XZ
_TEXT	SEGMENT
__Tmp$82999 = -8					; size = 8
_this$ = 8						; size = 4
??1RecipientInfos@@QAE@XZ PROC				; RecipientInfos::~RecipientInfos, COMDAT

; 26   : {

  00000	55		 push	 ebp
  00001	8b ec		 mov	 ebp, esp
  00003	83 e4 f8	 and	 esp, -8			; fffffff8H
  00006	83 ec 0c	 sub	 esp, 12			; 0000000cH
  00009	53		 push	 ebx
  0000a	8b 5d 08	 mov	 ebx, DWORD PTR _this$[ebp]
  0000d	c7 03 00 00 00
	00		 mov	 DWORD PTR [ebx], OFFSET ??_7RecipientInfos@@6B@

; 27   : 	Context*	_RecipientInfo;
; 28   : 
; 29   : 	//ContextJ
; 30   : 	while(!RecipientInfo.empty()){

  00013	8b 43 54	 mov	 eax, DWORD PTR [ebx+84]
  00016	2b 43 50	 sub	 eax, DWORD PTR [ebx+80]
  00019	56		 push	 esi
  0001a	57		 push	 edi
  0001b	a9 fc ff ff ff	 test	 eax, -4			; fffffffcH
  00020	0f 84 68 01 00
	00		 je	 $LN1@RecipientI
$LL2@RecipientI:

; 31   : 		_RecipientInfo = RecipientInfo.back();

  00026	8b 7b 54	 mov	 edi, DWORD PTR [ebx+84]
  00029	39 7b 50	 cmp	 DWORD PTR [ebx+80], edi
  0002c	76 05		 jbe	 SHORT $LN18@RecipientI
  0002e	e8 00 00 00 00	 call	 __invalid_parameter_noinfo
$LN18@RecipientI:
  00033	8b 73 44	 mov	 esi, DWORD PTR [ebx+68]
  00036	89 74 24 10	 mov	 DWORD PTR __Tmp$82999[esp+24], esi
  0003a	89 7c 24 14	 mov	 DWORD PTR __Tmp$82999[esp+28], edi
  0003e	85 f6		 test	 esi, esi
  00040	75 17		 jne	 SHORT $LN239@RecipientI
  00042	e8 00 00 00 00	 call	 __invalid_parameter_noinfo
  00047	33 c0		 xor	 eax, eax
$LN45@RecipientI:
  00049	8d 4f fc	 lea	 ecx, DWORD PTR [edi-4]
  0004c	3b 48 10	 cmp	 ecx, DWORD PTR [eax+16]
  0004f	77 13		 ja	 SHORT $LN35@RecipientI
  00051	85 f6		 test	 esi, esi
  00053	74 08		 je	 SHORT $LN50@RecipientI
  00055	8b 36		 mov	 esi, DWORD PTR [esi]
  00057	eb 06		 jmp	 SHORT $LN51@RecipientI
$LN239@RecipientI:
  00059	8b 06		 mov	 eax, DWORD PTR [esi]
  0005b	eb ec		 jmp	 SHORT $LN45@RecipientI
$LN50@RecipientI:
  0005d	33 f6		 xor	 esi, esi
$LN51@RecipientI:
  0005f	3b 4e 0c	 cmp	 ecx, DWORD PTR [esi+12]
  00062	73 05		 jae	 SHORT $LN36@RecipientI
$LN35@RecipientI:
  00064	e8 00 00 00 00	 call	 __invalid_parameter_noinfo
$LN36@RecipientI:
  00069	8b 44 24 10	 mov	 eax, DWORD PTR __Tmp$82999[esp+24]
  0006d	83 c7 fc	 add	 edi, -4			; fffffffcH
  00070	85 c0		 test	 eax, eax
  00072	0f 85 5c 01 00
	00		 jne	 $LN238@RecipientI
  00078	e8 00 00 00 00	 call	 __invalid_parameter_noinfo
  0007d	33 c0		 xor	 eax, eax
$LN65@RecipientI:
  0007f	3b 78 10	 cmp	 edi, DWORD PTR [eax+16]
  00082	72 05		 jb	 SHORT $LN56@RecipientI
  00084	e8 00 00 00 00	 call	 __invalid_parameter_noinfo
$LN56@RecipientI:

; 32   : 		delete	_RecipientInfo;

  00089	8b 3f		 mov	 edi, DWORD PTR [edi]
  0008b	33 c0		 xor	 eax, eax
  0008d	3b f8		 cmp	 edi, eax
  0008f	0f 84 d1 00 00
	00		 je	 $LN5@RecipientI
  00095	c7 07 00 00 00
	00		 mov	 DWORD PTR [edi], OFFSET ??_7Context@@6B@
  0009b	8b 77 54	 mov	 esi, DWORD PTR [edi+84]
  0009e	3b f0		 cmp	 esi, eax
  000a0	74 4a		 je	 SHORT $LN122@RecipientI
  000a2	8b 5f 58	 mov	 ebx, DWORD PTR [edi+88]
  000a5	3b f3		 cmp	 esi, ebx
  000a7	74 32		 je	 SHORT $LN84@RecipientI
  000a9	8d a4 24 00 00
	00 00		 npad	 7
$LL86@RecipientI:
  000b0	83 7e 18 10	 cmp	 DWORD PTR [esi+24], 16	; 00000010H
  000b4	72 0c		 jb	 SHORT $LN112@RecipientI
  000b6	8b 4e 04	 mov	 ecx, DWORD PTR [esi+4]
  000b9	51		 push	 ecx
  000ba	e8 00 00 00 00	 call	 ??3@YAXPAX@Z		; operator delete
  000bf	83 c4 04	 add	 esp, 4
$LN112@RecipientI:
  000c2	c7 46 18 0f 00
	00 00		 mov	 DWORD PTR [esi+24], 15	; 0000000fH
  000c9	c7 46 14 00 00
	00 00		 mov	 DWORD PTR [esi+20], 0
  000d0	c6 46 04 00	 mov	 BYTE PTR [esi+4], 0
  000d4	83 c6 1c	 add	 esi, 28			; 0000001cH
  000d7	3b f3		 cmp	 esi, ebx
  000d9	75 d5		 jne	 SHORT $LL86@RecipientI
$LN84@RecipientI:
  000db	8b 57 54	 mov	 edx, DWORD PTR [edi+84]
  000de	52		 push	 edx
  000df	e8 00 00 00 00	 call	 ??3@YAXPAX@Z		; operator delete
  000e4	8b 5d 08	 mov	 ebx, DWORD PTR _this$[ebp]
  000e7	83 c4 04	 add	 esp, 4
  000ea	33 c0		 xor	 eax, eax
$LN122@RecipientI:
  000ec	89 47 54	 mov	 DWORD PTR [edi+84], eax
  000ef	89 47 58	 mov	 DWORD PTR [edi+88], eax
  000f2	89 47 5c	 mov	 DWORD PTR [edi+92], eax
  000f5	8b 47 48	 mov	 eax, DWORD PTR [edi+72]
  000f8	50		 push	 eax
  000f9	e8 00 00 00 00	 call	 ??3@YAXPAX@Z		; operator delete
  000fe	8d 77 28	 lea	 esi, DWORD PTR [edi+40]
  00101	83 c4 04	 add	 esp, 4
  00104	8b c6		 mov	 eax, esi
  00106	c7 07 00 00 00
	00		 mov	 DWORD PTR [edi], OFFSET ??_7ASN1@@6B@
  0010c	e8 00 00 00 00	 call	 ?clear@?$vector@PAVASN1@@V?$allocator@PAVASN1@@@std@@@std@@QAEXXZ ; std::vector<ASN1 *,std::allocator<ASN1 *> >::clear
  00111	8b 46 0c	 mov	 eax, DWORD PTR [esi+12]
  00114	33 c9		 xor	 ecx, ecx
  00116	3b c1		 cmp	 eax, ecx
  00118	74 0b		 je	 SHORT $LN175@RecipientI
  0011a	50		 push	 eax
  0011b	e8 00 00 00 00	 call	 ??3@YAXPAX@Z		; operator delete
  00120	83 c4 04	 add	 esp, 4
  00123	33 c9		 xor	 ecx, ecx
$LN175@RecipientI:
  00125	89 4e 0c	 mov	 DWORD PTR [esi+12], ecx
  00128	89 4e 10	 mov	 DWORD PTR [esi+16], ecx
  0012b	89 4e 14	 mov	 DWORD PTR [esi+20], ecx
  0012e	8b 0e		 mov	 ecx, DWORD PTR [esi]
  00130	51		 push	 ecx
  00131	e8 00 00 00 00	 call	 ??3@YAXPAX@Z		; operator delete
  00136	83 c4 04	 add	 esp, 4
  00139	83 7f 20 10	 cmp	 DWORD PTR [edi+32], 16	; 00000010H
  0013d	72 0c		 jb	 SHORT $LN201@RecipientI
  0013f	8b 57 0c	 mov	 edx, DWORD PTR [edi+12]
  00142	52		 push	 edx
  00143	e8 00 00 00 00	 call	 ??3@YAXPAX@Z		; operator delete
  00148	83 c4 04	 add	 esp, 4
$LN201@RecipientI:
  0014b	c7 47 20 0f 00
	00 00		 mov	 DWORD PTR [edi+32], 15	; 0000000fH
  00152	c7 47 1c 00 00
	00 00		 mov	 DWORD PTR [edi+28], 0
  00159	57		 push	 edi
  0015a	c6 47 0c 00	 mov	 BYTE PTR [edi+12], 0
  0015e	e8 00 00 00 00	 call	 ??3@YAXPAX@Z		; operator delete
  00163	83 c4 04	 add	 esp, 4
$LN5@RecipientI:

; 33   : 		RecipientInfo.pop_back();

  00166	8b 43 54	 mov	 eax, DWORD PTR [ebx+84]
  00169	8b c8		 mov	 ecx, eax
  0016b	2b 4b 50	 sub	 ecx, DWORD PTR [ebx+80]
  0016e	f7 c1 fc ff ff
	ff		 test	 ecx, -4			; fffffffcH
  00174	74 06		 je	 SHORT $LN211@RecipientI
  00176	83 c0 fc	 add	 eax, -4			; fffffffcH
  00179	89 43 54	 mov	 DWORD PTR [ebx+84], eax
$LN211@RecipientI:
  0017c	8b 53 54	 mov	 edx, DWORD PTR [ebx+84]
  0017f	2b 53 50	 sub	 edx, DWORD PTR [ebx+80]
  00182	f7 c2 fc ff ff
	ff		 test	 edx, -4			; fffffffcH
  00188	0f 85 98 fe ff
	ff		 jne	 $LL2@RecipientI
$LN1@RecipientI:

; 34   : 	}
; 35   : 
; 36   : }

  0018e	8d 43 60	 lea	 eax, DWORD PTR [ebx+96]
  00191	50		 push	 eax
  00192	e8 00 00 00 00	 call	 ??1PasswordRecipientInfo@@QAE@XZ ; PasswordRecipientInfo::~PasswordRecipientInfo
  00197	8b 43 50	 mov	 eax, DWORD PTR [ebx+80]
  0019a	33 f6		 xor	 esi, esi
  0019c	3b c6		 cmp	 eax, esi
  0019e	74 09		 je	 SHORT $LN223@RecipientI
  001a0	50		 push	 eax
  001a1	e8 00 00 00 00	 call	 ??3@YAXPAX@Z		; operator delete
  001a6	83 c4 04	 add	 esp, 4
$LN223@RecipientI:
  001a9	8b 4b 44	 mov	 ecx, DWORD PTR [ebx+68]
  001ac	51		 push	 ecx
  001ad	89 73 50	 mov	 DWORD PTR [ebx+80], esi
  001b0	89 73 54	 mov	 DWORD PTR [ebx+84], esi
  001b3	89 73 58	 mov	 DWORD PTR [ebx+88], esi
  001b6	e8 00 00 00 00	 call	 ??3@YAXPAX@Z		; operator delete
  001bb	83 c4 04	 add	 esp, 4
  001be	8b fb		 mov	 edi, ebx
  001c0	c7 03 00 00 00
	00		 mov	 DWORD PTR [ebx], OFFSET ??_7Set@@6B@
  001c6	e8 00 00 00 00	 call	 ??1ASN1@@QAE@XZ		; ASN1::~ASN1
  001cb	5f		 pop	 edi
  001cc	5e		 pop	 esi
  001cd	5b		 pop	 ebx
  001ce	8b e5		 mov	 esp, ebp
  001d0	5d		 pop	 ebp
  001d1	c2 04 00	 ret	 4
$LN238@RecipientI:

; 31   : 		_RecipientInfo = RecipientInfo.back();

  001d4	8b 00		 mov	 eax, DWORD PTR [eax]
  001d6	e9 a4 fe ff ff	 jmp	 $LN65@RecipientI
??1RecipientInfos@@QAE@XZ ENDP				; RecipientInfos::~RecipientInfos
PUBLIC	?AddRecipientInfo@RecipientInfos@@QAEXHPAVSequence@@@Z ; RecipientInfos::AddRecipientInfo
;	COMDAT xdata$x
; File i:\nj\my project\cms\cms\asn1\asn1.cpp
xdata$x	SEGMENT
__unwindtable$?AddRecipientInfo@RecipientInfos@@QAEXHPAVSequence@@@Z DD 0ffffffffH
	DD	FLAT:__unwindfunclet$?AddRecipientInfo@RecipientInfos@@QAEXHPAVSequence@@@Z$0
__ehfuncinfo$?AddRecipientInfo@RecipientInfos@@QAEXHPAVSequence@@@Z DD 019930522H
	DD	01H
	DD	FLAT:__unwindtable$?AddRecipientInfo@RecipientInfos@@QAEXHPAVSequence@@@Z
	DD	2 DUP(00H)
	DD	2 DUP(00H)
	DD	00H
	DD	01H
; Function compile flags: /Ogtpy
; File i:\nj\my project\cms\cms\asn1\pkcs7\recipientinfos.cpp
xdata$x	ENDS
;	COMDAT ?AddRecipientInfo@RecipientInfos@@QAEXHPAVSequence@@@Z
_TEXT	SEGMENT
__RecipientInfo$ = -16					; size = 4
__$EHRec$ = -12						; size = 12
$T92843 = 8						; size = 4
$T92839 = 8						; size = 4
$T92827 = 8						; size = 4
_this$ = 8						; size = 4
?AddRecipientInfo@RecipientInfos@@QAEXHPAVSequence@@@Z PROC ; RecipientInfos::AddRecipientInfo, COMDAT
; __recipientinfo$ = ecx

; 52   : {

  00000	6a ff		 push	 -1
  00002	68 00 00 00 00	 push	 __ehhandler$?AddRecipientInfo@RecipientInfos@@QAEXHPAVSequence@@@Z
  00007	64 a1 00 00 00
	00		 mov	 eax, DWORD PTR fs:0
  0000d	50		 push	 eax
  0000e	51		 push	 ecx
  0000f	53		 push	 ebx
  00010	56		 push	 esi
  00011	57		 push	 edi
  00012	a1 00 00 00 00	 mov	 eax, DWORD PTR ___security_cookie
  00017	33 c4		 xor	 eax, esp
  00019	50		 push	 eax
  0001a	8d 44 24 14	 lea	 eax, DWORD PTR __$EHRec$[esp+32]
  0001e	64 a3 00 00 00
	00		 mov	 DWORD PTR fs:0, eax
  00024	8b f9		 mov	 edi, ecx
  00026	8b 5c 24 24	 mov	 ebx, DWORD PTR _this$[esp+28]

; 53   : 	Context*	_RecipientInfo	=	new Context(type);

  0002a	6a 60		 push	 96			; 00000060H
  0002c	e8 00 00 00 00	 call	 ??2@YAPAXI@Z		; operator new
  00031	83 c4 04	 add	 esp, 4
  00034	89 44 24 24	 mov	 DWORD PTR $T92827[esp+28], eax
  00038	33 f6		 xor	 esi, esi
  0003a	89 74 24 1c	 mov	 DWORD PTR __$EHRec$[esp+40], esi
  0003e	3b c6		 cmp	 eax, esi
  00040	74 0a		 je	 SHORT $LN5@AddRecipie
  00042	6a 03		 push	 3
  00044	50		 push	 eax
  00045	e8 00 00 00 00	 call	 ??0Context@@QAE@IQBD@Z	; Context::Context
  0004a	8b f0		 mov	 esi, eax
$LN5@AddRecipie:
  0004c	c7 44 24 1c ff
	ff ff ff	 mov	 DWORD PTR __$EHRec$[esp+40], -1

; 54   : 
; 55   : 	if(type == 0){
; 56   : 		//Set
; 57   : 		Set_Construct(_recipientinfo);
; 58   : 	} else {
; 59   : 		//Context
; 60   : 		_recipientinfo->mode = _IMPLICIT;
; 61   : 		_RecipientInfo->Set_Construct(_recipientinfo);

  00054	8d 44 24 24	 lea	 eax, DWORD PTR $T92839[esp+28]
  00058	c7 47 24 01 00
	00 00		 mov	 DWORD PTR [edi+36], 1
  0005f	89 7c 24 24	 mov	 DWORD PTR $T92839[esp+28], edi
  00063	50		 push	 eax
  00064	8d 7e 28	 lea	 edi, DWORD PTR [esi+40]
  00067	89 74 24 14	 mov	 DWORD PTR __RecipientInfo$[esp+36], esi
  0006b	e8 00 00 00 00	 call	 ?push_back@?$vector@PAVASN1@@V?$allocator@PAVASN1@@@std@@@std@@QAEXABQAVASN1@@@Z ; std::vector<ASN1 *,std::allocator<ASN1 *> >::push_back

; 62   : 		Set_Construct(_RecipientInfo);

  00070	8d 4c 24 24	 lea	 ecx, DWORD PTR $T92843[esp+28]
  00074	51		 push	 ecx
  00075	8d 7b 28	 lea	 edi, DWORD PTR [ebx+40]
  00078	89 74 24 28	 mov	 DWORD PTR $T92843[esp+32], esi
  0007c	e8 00 00 00 00	 call	 ?push_back@?$vector@PAVASN1@@V?$allocator@PAVASN1@@@std@@@std@@QAEXABQAVASN1@@@Z ; std::vector<ASN1 *,std::allocator<ASN1 *> >::push_back

; 63   : 		RecipientInfo.push_back(_RecipientInfo);

  00081	8d 54 24 10	 lea	 edx, DWORD PTR __RecipientInfo$[esp+32]
  00085	52		 push	 edx
  00086	8d 7b 44	 lea	 edi, DWORD PTR [ebx+68]
  00089	e8 00 00 00 00	 call	 ?push_back@?$vector@PAVContext@@V?$allocator@PAVContext@@@std@@@std@@QAEXABQAVContext@@@Z ; std::vector<Context *,std::allocator<Context *> >::push_back

; 64   : 	}
; 65   : }

  0008e	8b 4c 24 14	 mov	 ecx, DWORD PTR __$EHRec$[esp+32]
  00092	64 89 0d 00 00
	00 00		 mov	 DWORD PTR fs:0, ecx
  00099	59		 pop	 ecx
  0009a	5f		 pop	 edi
  0009b	5e		 pop	 esi
  0009c	5b		 pop	 ebx
  0009d	83 c4 10	 add	 esp, 16			; 00000010H
  000a0	c2 04 00	 ret	 4
_TEXT	ENDS
;	COMDAT text$x
text$x	SEGMENT
__unwindfunclet$?AddRecipientInfo@RecipientInfos@@QAEXHPAVSequence@@@Z$0:
  00000	8b 45 04	 mov	 eax, DWORD PTR $T92827[ebp-4]
  00003	50		 push	 eax
  00004	e8 00 00 00 00	 call	 ??3@YAXPAX@Z		; operator delete
  00009	59		 pop	 ecx
  0000a	c3		 ret	 0
__ehhandler$?AddRecipientInfo@RecipientInfos@@QAEXHPAVSequence@@@Z:
  0000b	8b 54 24 08	 mov	 edx, DWORD PTR [esp+8]
  0000f	8d 42 f0	 lea	 eax, DWORD PTR [edx-16]
  00012	8b 4a ec	 mov	 ecx, DWORD PTR [edx-20]
  00015	33 c8		 xor	 ecx, eax
  00017	e8 00 00 00 00	 call	 @__security_check_cookie@4
  0001c	b8 00 00 00 00	 mov	 eax, OFFSET __ehfuncinfo$?AddRecipientInfo@RecipientInfos@@QAEXHPAVSequence@@@Z
  00021	e9 00 00 00 00	 jmp	 ___CxxFrameHandler3
text$x	ENDS
?AddRecipientInfo@RecipientInfos@@QAEXHPAVSequence@@@Z ENDP ; RecipientInfos::AddRecipientInfo
PUBLIC	??0RecipientInfos@@QAE@QBD@Z			; RecipientInfos::RecipientInfos
;	COMDAT xdata$x
; File i:\nj\my project\cms\cms\asn1\set.cpp
xdata$x	SEGMENT
__unwindtable$??0RecipientInfos@@QAE@QBD@Z DD 0ffffffffH
	DD	FLAT:__unwindfunclet$??0RecipientInfos@@QAE@QBD@Z$0
	DD	00H
	DD	FLAT:__unwindfunclet$??0RecipientInfos@@QAE@QBD@Z$1
__ehfuncinfo$??0RecipientInfos@@QAE@QBD@Z DD 019930522H
	DD	02H
	DD	FLAT:__unwindtable$??0RecipientInfos@@QAE@QBD@Z
	DD	2 DUP(00H)
	DD	2 DUP(00H)
	DD	00H
	DD	01H
; Function compile flags: /Ogtpy
; File i:\nj\my project\cms\cms\asn1\pkcs7\recipientinfos.cpp
xdata$x	ENDS
;	COMDAT ??0RecipientInfos@@QAE@QBD@Z
_TEXT	SEGMENT
__$EHRec$ = -12						; size = 12
_this$ = 8						; size = 4
??0RecipientInfos@@QAE@QBD@Z PROC			; RecipientInfos::RecipientInfos, COMDAT

; 15   : {

  00000	6a ff		 push	 -1
  00002	68 00 00 00 00	 push	 __ehhandler$??0RecipientInfos@@QAE@QBD@Z
  00007	64 a1 00 00 00
	00		 mov	 eax, DWORD PTR fs:0
  0000d	50		 push	 eax
  0000e	51		 push	 ecx
  0000f	56		 push	 esi
  00010	a1 00 00 00 00	 mov	 eax, DWORD PTR ___security_cookie
  00015	33 c4		 xor	 eax, esp
  00017	50		 push	 eax
  00018	8d 44 24 0c	 lea	 eax, DWORD PTR __$EHRec$[esp+24]
  0001c	64 a3 00 00 00
	00		 mov	 DWORD PTR fs:0, eax
  00022	8b 74 24 1c	 mov	 esi, DWORD PTR _this$[esp+20]
  00026	68 00 00 00 00	 push	 OFFSET ??_C@_0P@EPGMMLJK@RecipientInfos?$AA@
  0002b	56		 push	 esi
  0002c	e8 00 00 00 00	 call	 ??0ASN1@@QAE@QBD@Z	; ASN1::ASN1
  00031	8d 46 44	 lea	 eax, DWORD PTR [esi+68]
  00034	c7 44 24 14 00
	00 00 00	 mov	 DWORD PTR __$EHRec$[esp+32], 0
  0003c	50		 push	 eax
  0003d	c7 06 00 00 00
	00		 mov	 DWORD PTR [esi], OFFSET ??_7RecipientInfos@@6B@
  00043	e8 00 00 00 00	 call	 ??0?$vector@PAVContext@@V?$allocator@PAVContext@@@std@@@std@@QAE@XZ ; std::vector<Context *,std::allocator<Context *> >::vector<Context *,std::allocator<Context *> >
  00048	8d 4e 60	 lea	 ecx, DWORD PTR [esi+96]
  0004b	c6 44 24 14 01	 mov	 BYTE PTR __$EHRec$[esp+32], 1
  00050	51		 push	 ecx
  00051	c6 46 5c 00	 mov	 BYTE PTR [esi+92], 0
  00055	e8 00 00 00 00	 call	 ??0PasswordRecipientInfo@@QAE@QBD@Z ; PasswordRecipientInfo::PasswordRecipientInfo

; 16   : }

  0005a	8b c6		 mov	 eax, esi
  0005c	8b 4c 24 0c	 mov	 ecx, DWORD PTR __$EHRec$[esp+24]
  00060	64 89 0d 00 00
	00 00		 mov	 DWORD PTR fs:0, ecx
  00067	59		 pop	 ecx
  00068	5e		 pop	 esi
  00069	83 c4 10	 add	 esp, 16			; 00000010H
  0006c	c2 04 00	 ret	 4
_TEXT	ENDS
;	COMDAT text$x
text$x	SEGMENT
__unwindfunclet$??0RecipientInfos@@QAE@QBD@Z$0:
  00000	8b 45 04	 mov	 eax, DWORD PTR _this$[ebp-4]
  00003	e9 00 00 00 00	 jmp	 ??1Set@@QAE@XZ		; Set::~Set
__unwindfunclet$??0RecipientInfos@@QAE@QBD@Z$1:
  00008	8b 75 04	 mov	 esi, DWORD PTR _this$[ebp-4]
  0000b	83 c6 44	 add	 esi, 68			; 00000044H
  0000e	e9 00 00 00 00	 jmp	 ??1?$vector@PAVContext@@V?$allocator@PAVContext@@@std@@@std@@QAE@XZ ; std::vector<Context *,std::allocator<Context *> >::~vector<Context *,std::allocator<Context *> >
__ehhandler$??0RecipientInfos@@QAE@QBD@Z:
  00013	8b 54 24 08	 mov	 edx, DWORD PTR [esp+8]
  00017	8d 42 f8	 lea	 eax, DWORD PTR [edx-8]
  0001a	8b 4a f4	 mov	 ecx, DWORD PTR [edx-12]
  0001d	33 c8		 xor	 ecx, eax
  0001f	e8 00 00 00 00	 call	 @__security_check_cookie@4
  00024	b8 00 00 00 00	 mov	 eax, OFFSET __ehfuncinfo$??0RecipientInfos@@QAE@QBD@Z
  00029	e9 00 00 00 00	 jmp	 ___CxxFrameHandler3
text$x	ENDS
??0RecipientInfos@@QAE@QBD@Z ENDP			; RecipientInfos::RecipientInfos
PUBLIC	_strPassword$GSCopy$
PUBLIC	__$ArrayPad$
PUBLIC	?AddRecipient@RecipientInfos@@QAEXPAV?$basic_string@DU?$char_traits@D@std@@V?$allocator@D@2@@std@@PAVOctetString@@PAVHMAC@@II@Z ; RecipientInfos::AddRecipient
;	COMDAT xdata$x
; File c:\program files\microsoft visual studio 9.0\vc\include\xstring
xdata$x	SEGMENT
__unwindtable$?AddRecipient@RecipientInfos@@QAEXPAV?$basic_string@DU?$char_traits@D@std@@V?$allocator@D@2@@std@@PAVOctetString@@PAVHMAC@@II@Z DD 0ffffffffH
	DD	FLAT:__unwindfunclet$?AddRecipient@RecipientInfos@@QAEXPAV?$basic_string@DU?$char_traits@D@std@@V?$allocator@D@2@@std@@PAVOctetString@@PAVHMAC@@II@Z$0
	DD	0ffffffffH
	DD	FLAT:__unwindfunclet$?AddRecipient@RecipientInfos@@QAEXPAV?$basic_string@DU?$char_traits@D@std@@V?$allocator@D@2@@std@@PAVOctetString@@PAVHMAC@@II@Z$1
__ehfuncinfo$?AddRecipient@RecipientInfos@@QAEXPAV?$basic_string@DU?$char_traits@D@std@@V?$allocator@D@2@@std@@PAVOctetString@@PAVHMAC@@II@Z DD 019930522H
	DD	02H
	DD	FLAT:__unwindtable$?AddRecipient@RecipientInfos@@QAEXPAV?$basic_string@DU?$char_traits@D@std@@V?$allocator@D@2@@std@@PAVOctetString@@PAVHMAC@@II@Z
	DD	2 DUP(00H)
	DD	2 DUP(00H)
	DD	00H
	DD	01H
; Function compile flags: /Ogtpy
; File i:\nj\my project\cms\cms\asn1\pkcs7\recipientinfos.cpp
xdata$x	ENDS
;	COMDAT ?AddRecipient@RecipientInfos@@QAEXPAV?$basic_string@DU?$char_traits@D@std@@V?$allocator@D@2@@std@@PAVOctetString@@PAVHMAC@@II@Z
_TEXT	SEGMENT
_strPassword$GSCopy$ = -96				; size = 4
$T96811 = -92						; size = 4
$T96807 = -92						; size = 4
_i64Salt$ = -88						; size = 8
_result$96818 = -80					; size = 32
__IV$ = -48						; size = 16
__$ArrayPad$ = -20					; size = 4
__$EHRec$ = -12						; size = 12
_strPassword$ = 8					; size = 4
_CEK$ = 12						; size = 4
_hmac$ = 16						; size = 4
_count$ = 20						; size = 4
_mode$ = 24						; size = 4
?AddRecipient@RecipientInfos@@QAEXPAV?$basic_string@DU?$char_traits@D@std@@V?$allocator@D@2@@std@@PAVOctetString@@PAVHMAC@@II@Z PROC ; RecipientInfos::AddRecipient, COMDAT
; _this$ = edi

; 90   : {

  00000	55		 push	 ebp
  00001	8b ec		 mov	 ebp, esp
  00003	83 e4 f0	 and	 esp, -16		; fffffff0H
  00006	6a ff		 push	 -1
  00008	68 00 00 00 00	 push	 __ehhandler$?AddRecipient@RecipientInfos@@QAEXPAV?$basic_string@DU?$char_traits@D@std@@V?$allocator@D@2@@std@@PAVOctetString@@PAVHMAC@@II@Z
  0000d	64 a1 00 00 00
	00		 mov	 eax, DWORD PTR fs:0
  00013	50		 push	 eax
  00014	83 ec 5c	 sub	 esp, 92			; 0000005cH
  00017	a1 00 00 00 00	 mov	 eax, DWORD PTR ___security_cookie
  0001c	33 c4		 xor	 eax, esp
  0001e	89 44 24 54	 mov	 DWORD PTR __$ArrayPad$[esp+104], eax
  00022	53		 push	 ebx
  00023	56		 push	 esi
  00024	a1 00 00 00 00	 mov	 eax, DWORD PTR ___security_cookie
  00029	33 c4		 xor	 eax, esp
  0002b	50		 push	 eax
  0002c	8d 44 24 68	 lea	 eax, DWORD PTR __$EHRec$[esp+116]
  00030	64 a3 00 00 00
	00		 mov	 DWORD PTR fs:0, eax
  00036	8b 45 08	 mov	 eax, DWORD PTR _strPassword$[ebp]
  00039	8b 5d 0c	 mov	 ebx, DWORD PTR _CEK$[ebp]

; 91   : 				//ApIVAPBKDF2p\glB
; 92   : 				__m128i		_IV		= cRandom->get__m128i();	

  0003c	8d 74 24 44	 lea	 esi, DWORD PTR __IV$[esp+116]

; 106  : 	cPassword.SetKey((void *)strPassword->c_str(), strPassword->length(), (void *)CEK->strValue.c_str(), CEK->strValue.size());

  00040	89 44 24 14	 mov	 DWORD PTR _strPassword$GSCopy$[esp+116], eax
  00044	e8 00 00 00 00	 call	 ?get__m128i@MT_SHA@@QAE?AT__m128i@@XZ ; MT_SHA::get__m128i
  00049	a1 00 00 00 00	 mov	 eax, DWORD PTR ?cRandom@@3PAVMT_SHA@@A ; cRandom
  0004e	50		 push	 eax
  0004f	8b f0		 mov	 esi, eax
  00051	e8 00 00 00 00	 call	 ?generate@MT_SHA@@QAEXXZ ; MT_SHA::generate
  00056	8b 96 c4 09 00
	00		 mov	 edx, DWORD PTR [esi+2500]
  0005c	8b 52 14	 mov	 edx, DWORD PTR [edx+20]
  0005f	8d 8e c4 09 00
	00		 lea	 ecx, DWORD PTR [esi+2500]
  00065	8d 44 24 24	 lea	 eax, DWORD PTR _result$96818[esp+116]
  00069	50		 push	 eax
  0006a	ff d2		 call	 edx
  0006c	8b 44 24 24	 mov	 eax, DWORD PTR _result$96818[esp+116]
  00070	8b 4c 24 28	 mov	 ecx, DWORD PTR _result$96818[esp+120]
  00074	68 10 02 00 00	 push	 528			; 00000210H
  00079	89 44 24 20	 mov	 DWORD PTR _i64Salt$[esp+120], eax
  0007d	89 4c 24 24	 mov	 DWORD PTR _i64Salt$[esp+124], ecx
  00081	c6 47 5c 01	 mov	 BYTE PTR [edi+92], 1
  00085	e8 00 00 00 00	 call	 ??2@YAPAXI@Z		; operator new
  0008a	83 c4 04	 add	 esp, 4
  0008d	89 44 24 18	 mov	 DWORD PTR $T96807[esp+116], eax
  00091	c7 44 24 70 00
	00 00 00	 mov	 DWORD PTR __$EHRec$[esp+124], 0
  00099	85 c0		 test	 eax, eax
  0009b	74 0c		 je	 SHORT $LN3@AddRecipie@2
  0009d	8b 55 10	 mov	 edx, DWORD PTR _hmac$[ebp]
  000a0	52		 push	 edx
  000a1	50		 push	 eax
  000a2	e8 00 00 00 00	 call	 ??0PBKDF2@@QAE@PAVHMAC@@QBD@Z ; PBKDF2::PBKDF2
  000a7	eb 02		 jmp	 SHORT $LN4@AddRecipie@2
$LN3@AddRecipie@2:

; 93   : 				__int64		i64Salt	= cRandom->get_int64();
; 94   : 
; 95   : 	//------------------
; 96   : 	//o
; 97   : 	fPassword = true;
; 98   : 
; 99   : 	//keyDerivationANX"PasswordRecipientInfo"JsB
; 100  : 	cPBKDF2		= new PBKDF2(hmac);

  000a9	33 c0		 xor	 eax, eax
$LN4@AddRecipie@2:
  000ab	83 ce ff	 or	 esi, -1
  000ae	89 74 24 70	 mov	 DWORD PTR __$EHRec$[esp+124], esi

; 101  : 	cPWRI_KEK	= new PWRI_KEK();

  000b2	68 e4 00 00 00	 push	 228			; 000000e4H
  000b7	89 87 b4 01 00
	00		 mov	 DWORD PTR [edi+436], eax
  000bd	e8 00 00 00 00	 call	 ??2@YAPAXI@Z		; operator new
  000c2	83 c4 04	 add	 esp, 4
  000c5	89 44 24 18	 mov	 DWORD PTR $T96811[esp+116], eax
  000c9	c7 44 24 70 01
	00 00 00	 mov	 DWORD PTR __$EHRec$[esp+124], 1
  000d1	85 c0		 test	 eax, eax
  000d3	74 08		 je	 SHORT $LN5@AddRecipie@2
  000d5	50		 push	 eax
  000d6	e8 00 00 00 00	 call	 ??0PWRI_KEK@@QAE@QBD@Z	; PWRI_KEK::PWRI_KEK
  000db	eb 02		 jmp	 SHORT $LN6@AddRecipie@2
$LN5@AddRecipie@2:
  000dd	33 c0		 xor	 eax, eax
$LN6@AddRecipie@2:

; 102  : 
; 103  : 	cPBKDF2->Set_PBKDF2(&i64Salt,sizeof(i64Salt),count,CEK->strValue.size());

  000df	8b 4d 14	 mov	 ecx, DWORD PTR _count$[ebp]
  000e2	89 74 24 70	 mov	 DWORD PTR __$EHRec$[esp+124], esi
  000e6	89 87 b8 01 00
	00		 mov	 DWORD PTR [edi+440], eax
  000ec	8b 43 58	 mov	 eax, DWORD PTR [ebx+88]
  000ef	50		 push	 eax
  000f0	51		 push	 ecx
  000f1	8b 8f b4 01 00
	00		 mov	 ecx, DWORD PTR [edi+436]
  000f7	6a 08		 push	 8
  000f9	8d 54 24 28	 lea	 edx, DWORD PTR _i64Salt$[esp+128]
  000fd	52		 push	 edx
  000fe	e8 00 00 00 00	 call	 ?Set_PBKDF2@PBKDF2@@QAEXPAXIII@Z ; PBKDF2::Set_PBKDF2

; 104  : 	cPWRI_KEK->Set_PWRI_KEK(mode, _IV);

  00103	8b 45 18	 mov	 eax, DWORD PTR _mode$[ebp]
  00106	8b b7 b8 01 00
	00		 mov	 esi, DWORD PTR [edi+440]
  0010c	66 0f 6f 44 24
	44		 movdqa	 xmm0, XMMWORD PTR __IV$[esp+116]
  00112	50		 push	 eax
  00113	e8 00 00 00 00	 call	 ?Set_PWRI_KEK@PWRI_KEK@@QAEXIT__m128i@@@Z ; PWRI_KEK::Set_PWRI_KEK

; 105  : 	cPassword.SetInfo(cPBKDF2, cPWRI_KEK);

  00118	8b 8f b8 01 00
	00		 mov	 ecx, DWORD PTR [edi+440]
  0011e	8b 97 b4 01 00
	00		 mov	 edx, DWORD PTR [edi+436]
  00124	51		 push	 ecx
  00125	8d 77 60	 lea	 esi, DWORD PTR [edi+96]
  00128	52		 push	 edx
  00129	e8 00 00 00 00	 call	 ?SetInfo@PasswordRecipientInfo@@QAEXPAVKeyDerivation@@PAVEncryption@@@Z ; PasswordRecipientInfo::SetInfo

; 106  : 	cPassword.SetKey((void *)strPassword->c_str(), strPassword->length(), (void *)CEK->strValue.c_str(), CEK->strValue.size());

  0012e	83 7b 5c 10	 cmp	 DWORD PTR [ebx+92], 16	; 00000010H
  00132	8b 4b 58	 mov	 ecx, DWORD PTR [ebx+88]
  00135	72 05		 jb	 SHORT $LN19@AddRecipie@2
  00137	8b 53 48	 mov	 edx, DWORD PTR [ebx+72]
  0013a	eb 03		 jmp	 SHORT $LN20@AddRecipie@2
$LN19@AddRecipie@2:
  0013c	8d 53 48	 lea	 edx, DWORD PTR [ebx+72]
$LN20@AddRecipie@2:
  0013f	8b 44 24 14	 mov	 eax, DWORD PTR _strPassword$GSCopy$[esp+116]
  00143	83 78 18 10	 cmp	 DWORD PTR [eax+24], 16	; 00000010H
  00147	8b 58 14	 mov	 ebx, DWORD PTR [eax+20]
  0014a	72 05		 jb	 SHORT $LN27@AddRecipie@2
  0014c	8b 40 04	 mov	 eax, DWORD PTR [eax+4]
  0014f	eb 03		 jmp	 SHORT $LN28@AddRecipie@2
$LN27@AddRecipie@2:
  00151	83 c0 04	 add	 eax, 4
$LN28@AddRecipie@2:
  00154	51		 push	 ecx
  00155	52		 push	 edx
  00156	53		 push	 ebx
  00157	50		 push	 eax
  00158	e8 00 00 00 00	 call	 ?SetKey@PasswordRecipientInfo@@QAEXPAXI0I@Z ; PasswordRecipientInfo::SetKey

; 107  : 	AddRecipientInfo(3,&cPassword);

  0015d	57		 push	 edi
  0015e	8b ce		 mov	 ecx, esi
  00160	e8 00 00 00 00	 call	 ?AddRecipientInfo@RecipientInfos@@QAEXHPAVSequence@@@Z ; RecipientInfos::AddRecipientInfo

; 108  : }

  00165	8b 4c 24 68	 mov	 ecx, DWORD PTR __$EHRec$[esp+116]
  00169	64 89 0d 00 00
	00 00		 mov	 DWORD PTR fs:0, ecx
  00170	59		 pop	 ecx
  00171	5e		 pop	 esi
  00172	5b		 pop	 ebx
  00173	8b 4c 24 54	 mov	 ecx, DWORD PTR __$ArrayPad$[esp+104]
  00177	33 cc		 xor	 ecx, esp
  00179	e8 00 00 00 00	 call	 @__security_check_cookie@4
  0017e	8b e5		 mov	 esp, ebp
  00180	5d		 pop	 ebp
  00181	c2 14 00	 ret	 20			; 00000014H
_TEXT	ENDS
;	COMDAT text$x
text$x	SEGMENT
__unwindfunclet$?AddRecipient@RecipientInfos@@QAEXPAV?$basic_string@DU?$char_traits@D@std@@V?$allocator@D@2@@std@@PAVOctetString@@PAVHMAC@@II@Z$0:
  00000	8b 45 a4	 mov	 eax, DWORD PTR $T96807[ebp]
  00003	50		 push	 eax
  00004	e8 00 00 00 00	 call	 ??3@YAXPAX@Z		; operator delete
  00009	59		 pop	 ecx
  0000a	c3		 ret	 0
__unwindfunclet$?AddRecipient@RecipientInfos@@QAEXPAV?$basic_string@DU?$char_traits@D@std@@V?$allocator@D@2@@std@@PAVOctetString@@PAVHMAC@@II@Z$1:
  0000b	8b 45 a4	 mov	 eax, DWORD PTR $T96811[ebp]
  0000e	50		 push	 eax
  0000f	e8 00 00 00 00	 call	 ??3@YAXPAX@Z		; operator delete
  00014	59		 pop	 ecx
  00015	c3		 ret	 0
__ehhandler$?AddRecipient@RecipientInfos@@QAEXPAV?$basic_string@DU?$char_traits@D@std@@V?$allocator@D@2@@std@@PAVOctetString@@PAVHMAC@@II@Z:
  00016	8b 54 24 08	 mov	 edx, DWORD PTR [esp+8]
  0001a	8d 42 9c	 lea	 eax, DWORD PTR [edx-100]
  0001d	8b 4a 98	 mov	 ecx, DWORD PTR [edx-104]
  00020	33 c8		 xor	 ecx, eax
  00022	e8 00 00 00 00	 call	 @__security_check_cookie@4
  00027	83 c0 08	 add	 eax, 8
  0002a	8b 4a f8	 mov	 ecx, DWORD PTR [edx-8]
  0002d	33 c8		 xor	 ecx, eax
  0002f	e8 00 00 00 00	 call	 @__security_check_cookie@4
  00034	b8 00 00 00 00	 mov	 eax, OFFSET __ehfuncinfo$?AddRecipient@RecipientInfos@@QAEXPAV?$basic_string@DU?$char_traits@D@std@@V?$allocator@D@2@@std@@PAVOctetString@@PAVHMAC@@II@Z
  00039	e9 00 00 00 00	 jmp	 ___CxxFrameHandler3
text$x	ENDS
?AddRecipient@RecipientInfos@@QAEXPAV?$basic_string@DU?$char_traits@D@std@@V?$allocator@D@2@@std@@PAVOctetString@@PAVHMAC@@II@Z ENDP ; RecipientInfos::AddRecipient
END
