; Listing generated by Microsoft (R) Optimizing Compiler Version 15.00.30729.01 

	TITLE	i:\?n????j\My Project\CMS\CMS\ASN1\Sequence.cpp
	.686P
	.XMM
	include listing.inc
	.model	flat

INCLUDELIB OLDNAMES

PUBLIC	?encodeBER@Sequence@@UAEXXZ			; Sequence::encodeBER
PUBLIC	??_R4Sequence@@6B@				; Sequence::`RTTI Complete Object Locator'
PUBLIC	??_R3Sequence@@8				; Sequence::`RTTI Class Hierarchy Descriptor'
PUBLIC	??_R2Sequence@@8				; Sequence::`RTTI Base Class Array'
PUBLIC	??_R1A@?0A@EA@Sequence@@8			; Sequence::`RTTI Base Class Descriptor at (0,-1,0,64)'
PUBLIC	??_R0?AVSequence@@@8				; Sequence `RTTI Type Descriptor'
PUBLIC	??_7Sequence@@6B@				; Sequence::`vftable'
;	COMDAT ??_7Sequence@@6B@
CONST	SEGMENT
??_7Sequence@@6B@ DD FLAT:??_R4Sequence@@6B@		; Sequence::`vftable'
	DD	FLAT:?encodeBER@Sequence@@UAEXXZ
	DD	FLAT:?Get_BERcode@ASN1@@UAEPBDXZ
	DD	FLAT:?Get_BERsize@ASN1@@UAEIXZ
CONST	ENDS
;	COMDAT ??_R4Sequence@@6B@
rdata$r	SEGMENT
??_R4Sequence@@6B@ DD 00H				; Sequence::`RTTI Complete Object Locator'
	DD	00H
	DD	00H
	DD	FLAT:??_R0?AVSequence@@@8
	DD	FLAT:??_R3Sequence@@8
rdata$r	ENDS
;	COMDAT ??_R3Sequence@@8
rdata$r	SEGMENT
??_R3Sequence@@8 DD 00H					; Sequence::`RTTI Class Hierarchy Descriptor'
	DD	00H
	DD	02H
	DD	FLAT:??_R2Sequence@@8
rdata$r	ENDS
;	COMDAT ??_R2Sequence@@8
rdata$r	SEGMENT
??_R2Sequence@@8 DD FLAT:??_R1A@?0A@EA@Sequence@@8	; Sequence::`RTTI Base Class Array'
	DD	FLAT:??_R1A@?0A@EA@ASN1@@8
rdata$r	ENDS
;	COMDAT ??_R1A@?0A@EA@Sequence@@8
rdata$r	SEGMENT
??_R1A@?0A@EA@Sequence@@8 DD FLAT:??_R0?AVSequence@@@8	; Sequence::`RTTI Base Class Descriptor at (0,-1,0,64)'
	DD	01H
	DD	00H
	DD	0ffffffffH
	DD	00H
	DD	040H
	DD	FLAT:??_R3Sequence@@8
rdata$r	ENDS
;	COMDAT ??_R0?AVSequence@@@8
_DATA	SEGMENT
??_R0?AVSequence@@@8 DD FLAT:??_7type_info@@6B@		; Sequence `RTTI Type Descriptor'
	DD	00H
	DB	'.?AVSequence@@', 00H
PUBLIC	??1Sequence@@QAE@XZ				; Sequence::~Sequence
; Function compile flags: /Ogtpy
; File i:\“n•”“ÄŽj\my project\cms\cms\asn1\sequence.cpp
;	COMDAT ??1Sequence@@QAE@XZ
_TEXT	SEGMENT
??1Sequence@@QAE@XZ PROC				; Sequence::~Sequence, COMDAT
; _this$ = eax

; 25   : {

  00000	57		 push	 edi
  00001	8b f8		 mov	 edi, eax
  00003	c7 07 00 00 00
	00		 mov	 DWORD PTR [edi], OFFSET ??_7Sequence@@6B@

; 26   : }

  00009	e8 00 00 00 00	 call	 ??1ASN1@@QAE@XZ		; ASN1::~ASN1
  0000e	5f		 pop	 edi
  0000f	c3		 ret	 0
??1Sequence@@QAE@XZ ENDP				; Sequence::~Sequence
PUBLIC	??0Sequence@@QAE@QBD@Z				; Sequence::Sequence
; Function compile flags: /Ogtpy
;	COMDAT ??0Sequence@@QAE@QBD@Z
_TEXT	SEGMENT
??0Sequence@@QAE@QBD@Z PROC				; Sequence::Sequence, COMDAT
; _this$ = esi
; __strName$ = eax

; 14   : {

  00000	51		 push	 ecx
  00001	50		 push	 eax
  00002	56		 push	 esi
  00003	e8 00 00 00 00	 call	 ??0ASN1@@QAE@QBD@Z	; ASN1::ASN1
  00008	c7 06 00 00 00
	00		 mov	 DWORD PTR [esi], OFFSET ??_7Sequence@@6B@

; 15   : }

  0000e	8b c6		 mov	 eax, esi
  00010	59		 pop	 ecx
  00011	c3		 ret	 0
??0Sequence@@QAE@QBD@Z ENDP				; Sequence::Sequence
; Function compile flags: /Ogtpy
;	COMDAT ?encodeBER@Sequence@@UAEXXZ
_TEXT	SEGMENT
?encodeBER@Sequence@@UAEXXZ PROC			; Sequence::encodeBER, COMDAT
; _this$ = ecx

; 37   : 	encodeBER_Constructed(BER_Class_General, BER_TAG_SEQUENCE);

  00000	6a 10		 push	 16			; 00000010H
  00002	6a 00		 push	 0
  00004	e8 00 00 00 00	 call	 ?encodeBER_Constructed@ASN1@@QAEXEI@Z ; ASN1::encodeBER_Constructed

; 38   : }

  00009	c3		 ret	 0
?encodeBER@Sequence@@UAEXXZ ENDP			; Sequence::encodeBER
END
