; Listing generated by Microsoft (R) Optimizing Compiler Version 15.00.30729.01 

	TITLE	i:\?n????j\My Project\CMS\CMS\ASN1\Set.cpp
	.686P
	.XMM
	include listing.inc
	.model	flat

INCLUDELIB OLDNAMES

PUBLIC	?encodeBER@Set@@UAEXXZ				; Set::encodeBER
PUBLIC	??_R4Set@@6B@					; Set::`RTTI Complete Object Locator'
PUBLIC	??_R3Set@@8					; Set::`RTTI Class Hierarchy Descriptor'
PUBLIC	??_R2Set@@8					; Set::`RTTI Base Class Array'
PUBLIC	??_R1A@?0A@EA@Set@@8				; Set::`RTTI Base Class Descriptor at (0,-1,0,64)'
PUBLIC	??_R0?AVSet@@@8					; Set `RTTI Type Descriptor'
PUBLIC	??_7Set@@6B@					; Set::`vftable'
;	COMDAT ??_7Set@@6B@
CONST	SEGMENT
??_7Set@@6B@ DD	FLAT:??_R4Set@@6B@			; Set::`vftable'
	DD	FLAT:?encodeBER@Set@@UAEXXZ
	DD	FLAT:?Get_BERcode@ASN1@@UAEPBDXZ
	DD	FLAT:?Get_BERsize@ASN1@@UAEIXZ
CONST	ENDS
;	COMDAT ??_R4Set@@6B@
rdata$r	SEGMENT
??_R4Set@@6B@ DD 00H					; Set::`RTTI Complete Object Locator'
	DD	00H
	DD	00H
	DD	FLAT:??_R0?AVSet@@@8
	DD	FLAT:??_R3Set@@8
rdata$r	ENDS
;	COMDAT ??_R3Set@@8
rdata$r	SEGMENT
??_R3Set@@8 DD	00H					; Set::`RTTI Class Hierarchy Descriptor'
	DD	00H
	DD	02H
	DD	FLAT:??_R2Set@@8
rdata$r	ENDS
;	COMDAT ??_R2Set@@8
rdata$r	SEGMENT
??_R2Set@@8 DD	FLAT:??_R1A@?0A@EA@Set@@8		; Set::`RTTI Base Class Array'
	DD	FLAT:??_R1A@?0A@EA@ASN1@@8
rdata$r	ENDS
;	COMDAT ??_R1A@?0A@EA@Set@@8
rdata$r	SEGMENT
??_R1A@?0A@EA@Set@@8 DD FLAT:??_R0?AVSet@@@8		; Set::`RTTI Base Class Descriptor at (0,-1,0,64)'
	DD	01H
	DD	00H
	DD	0ffffffffH
	DD	00H
	DD	040H
	DD	FLAT:??_R3Set@@8
rdata$r	ENDS
;	COMDAT ??_R0?AVSet@@@8
_DATA	SEGMENT
??_R0?AVSet@@@8 DD FLAT:??_7type_info@@6B@		; Set `RTTI Type Descriptor'
	DD	00H
	DB	'.?AVSet@@', 00H
PUBLIC	??1Set@@QAE@XZ					; Set::~Set
; Function compile flags: /Ogtpy
; File i:\“n•”“ÄŽj\my project\cms\cms\asn1\set.cpp
;	COMDAT ??1Set@@QAE@XZ
_TEXT	SEGMENT
??1Set@@QAE@XZ PROC					; Set::~Set, COMDAT
; _this$ = eax

; 25   : {

  00000	57		 push	 edi
  00001	8b f8		 mov	 edi, eax
  00003	c7 07 00 00 00
	00		 mov	 DWORD PTR [edi], OFFSET ??_7Set@@6B@

; 26   : }

  00009	e8 00 00 00 00	 call	 ??1ASN1@@QAE@XZ		; ASN1::~ASN1
  0000e	5f		 pop	 edi
  0000f	c3		 ret	 0
??1Set@@QAE@XZ ENDP					; Set::~Set
PUBLIC	??0Set@@QAE@QBD@Z				; Set::Set
; Function compile flags: /Ogtpy
;	COMDAT ??0Set@@QAE@QBD@Z
_TEXT	SEGMENT
??0Set@@QAE@QBD@Z PROC					; Set::Set, COMDAT
; _this$ = esi

; 14   : {

  00000	51		 push	 ecx
  00001	68 00 00 00 00	 push	 OFFSET ??_C@_0P@EPGMMLJK@RecipientInfos?$AA@
  00006	56		 push	 esi
  00007	e8 00 00 00 00	 call	 ??0ASN1@@QAE@QBD@Z	; ASN1::ASN1
  0000c	c7 06 00 00 00
	00		 mov	 DWORD PTR [esi], OFFSET ??_7Set@@6B@

; 15   : }

  00012	8b c6		 mov	 eax, esi
  00014	59		 pop	 ecx
  00015	c3		 ret	 0
??0Set@@QAE@QBD@Z ENDP					; Set::Set
; Function compile flags: /Ogtpy
;	COMDAT ?encodeBER@Set@@UAEXXZ
_TEXT	SEGMENT
?encodeBER@Set@@UAEXXZ PROC				; Set::encodeBER, COMDAT
; _this$ = ecx

; 37   : 	encodeBER_Constructed(BER_Class_General, BER_TAG_SET);

  00000	6a 11		 push	 17			; 00000011H
  00002	6a 00		 push	 0
  00004	e8 00 00 00 00	 call	 ?encodeBER_Constructed@ASN1@@QAEXEI@Z ; ASN1::encodeBER_Constructed

; 38   : }

  00009	c3		 ret	 0
?encodeBER@Set@@UAEXXZ ENDP				; Set::encodeBER
END
